

Microchip MPLAB XC8 Assembler V2.32 build 20210201212658 
                                                                                               Fri Apr  2 16:39:16 2021

Microchip MPLAB XC8 C Compiler v2.32 (Free license) build 20210201212658 Og1 
     1                           	processor	18F452
     2                           	fnconf	rparam,??,?,0
     3                           	pagewidth 120
     4                           	opt	flic
     5                           	psect	idataCOMRAM,global,class=CODE,delta=1,noexec
     6                           	psect	smallconst,global,reloc=2,class=SMALLCONST,delta=1,noexec
     7                           	psect	cinit,global,reloc=2,class=CODE,delta=1
     8                           	psect	bssCOMRAM,global,class=COMRAM,space=1,delta=1,lowdata,noexec
     9                           	psect	dataCOMRAM,global,class=COMRAM,space=1,delta=1,lowdata,noexec
    10                           	psect	cstackCOMRAM,global,class=COMRAM,space=1,delta=1,lowdata,noexec
    11                           	psect	text0,global,reloc=2,class=CODE,delta=1
    12                           	psect	text1,global,reloc=2,class=CODE,delta=1
    13                           	psect	text2,global,reloc=2,class=CODE,delta=1
    14                           	psect	text3,global,reloc=2,class=CODE,delta=1,group=1
    15                           	psect	text4,global,reloc=2,class=CODE,delta=1
    16                           	psect	text5,global,reloc=2,class=CODE,delta=1
    17                           	psect	text6,global,reloc=2,class=CODE,delta=1
    18                           	psect	text7,global,reloc=2,class=CODE,delta=1
    19                           	psect	text8,global,reloc=2,class=CODE,delta=1
    20                           	psect	text9,global,reloc=2,class=CODE,delta=1
    21                           	psect	text10,global,reloc=2,class=CODE,delta=1,group=2
    22                           	psect	text11,global,reloc=2,class=CODE,delta=1,group=1
    23                           	psect	text12,global,reloc=2,class=CODE,delta=1,group=1
    24                           	psect	text13,global,reloc=2,class=CODE,delta=1,group=1
    25                           	psect	text14,global,reloc=2,class=CODE,delta=1,group=1
    26                           	psect	text15,global,reloc=2,class=CODE,delta=1,group=1
    27                           	psect	text16,global,reloc=2,class=CODE,delta=1,group=1
    28                           	psect	text17,global,reloc=2,class=CODE,delta=1
    29                           	psect	intcode,global,reloc=2,class=CODE,delta=1
    30                           	psect	intsave_regs,global,class=BIGRAM,space=1,delta=1,noexec
    31                           	psect	rparam,global,class=COMRAM,space=1,delta=1,noexec
    32                           	psect	temp,global,ovrld,common,class=COMRAM,space=1,delta=1
    33                           	psect	idloc,global,abs,ovrld,class=IDLOC,space=5,delta=1,noexec
    34                           	psect	config,global,abs,ovrld,class=CONFIG,space=4,delta=1,noexec
    35  0000                     
    36                           ; Version 2.20
    37                           ; Generated 12/02/2020 GMT
    38                           ; 
    39                           ; Copyright © 2020, Microchip Technology Inc. and its subsidiaries ("Microchip")
    40                           ; All rights reserved.
    41                           ; 
    42                           ; This software is developed by Microchip Technology Inc. and its subsidiaries ("Microch
      +                          ip").
    43                           ; 
    44                           ; Redistribution and use in source and binary forms, with or without modification, are
    45                           ; permitted provided that the following conditions are met:
    46                           ; 
    47                           ;     1. Redistributions of source code must retain the above copyright notice, this lis
      +                          t of
    48                           ;        conditions and the following disclaimer.
    49                           ; 
    50                           ;     2. Redistributions in binary form must reproduce the above copyright notice, this 
      +                          list
    51                           ;        of conditions and the following disclaimer in the documentation and/or other
    52                           ;        materials provided with the distribution.
    53                           ; 
    54                           ;     3. Microchip's name may not be used to endorse or promote products derived from th
      +                          is
    55                           ;        software without specific prior written permission.
    56                           ; 
    57                           ; THIS SOFTWARE IS PROVIDED BY MICROCHIP "AS IS" AND ANY EXPRESS OR IMPLIED WARRANTIES,
    58                           ; INCLUDING, BUT NOT LIMITED TO, THE IMPLIED WARRANTIES OF MERCHANTABILITY AND FITNESS F
      +                          OR
    59                           ; PURPOSE ARE DISCLAIMED.  IN NO EVENT SHALL MICROCHIP BE LIABLE FOR ANY DIRECT, INDIREC
      +                          T,
    60                           ; INCIDENTAL, SPECIAL, EXEMPLARY, OR CONSEQUENTIAL DAMAGES (INCLUDING BUT NOT LIMITED TO
    61                           ; PROCUREMENT OF SUBSTITUTE GOODS OR SERVICES; LOSS OF USE, DATA OR PROFITS; OR BUSINESS
    62                           ; INTERRUPTION) HOWSOEVER CAUSED AND ON ANY THEORY OF LIABILITY, WHETHER IN CONTRACT, ST
      +                          RICT
    63                           ; LIABILITY, OR TORT (INCLUDING NEGLIGENCE OR OTHERWISE) ARISING IN ANY WAY OUT OF THE U
      +                          SE OF
    64                           ; THIS SOFTWARE, EVEN IF ADVISED OF THE POSSIBILITY OF SUCH DAMAGE.
    65                           ; 
    66                           ; 
    67                           ; Code-generator required, PIC18F452 Definitions
    68                           ; 
    69                           ; SFR Addresses
    70  0000                     
    71                           	psect	idataCOMRAM
    72  0023C0                     __pidataCOMRAM:
    73                           	callstack 0
    74                           
    75                           ;initializer for _testarray
    76  0023C0  54                 	db	84
    77  0023C1  68                 	db	104
    78  0023C2  69                 	db	105
    79  0023C3  73                 	db	115
    80  0023C4  20                 	db	32
    81  0023C5  69                 	db	105
    82  0023C6  73                 	db	115
    83  0023C7  20                 	db	32
    84  0023C8  70                 	db	112
    85  0023C9  72                 	db	114
    86  0023CA  65                 	db	101
    87  0023CB  6D                 	db	109
    88  0023CC  20                 	db	32
    89  0023CD  74                 	db	116
    90  0023CE  65                 	db	101
    91  0023CF  73                 	db	115
    92  0023D0  74                 	db	116
    93  0023D1  20                 	db	32
    94  0023D2  63                 	db	99
    95  0023D3  61                 	db	97
    96  0023D4  73                 	db	115
    97  0023D5  65                 	db	101
    98  0023D6  00                 	db	0
    99  0023D7  00                 	db	0
   100  0023D8  00                 	db	0
   101  0023D9  00                 	db	0
   102  0023DA  00                 	db	0
   103  0023DB  00                 	db	0
   104  0023DC  00                 	db	0
   105  0023DD  00                 	db	0
   106                           
   107                           ;initializer for _Tosc@main$F448
   108  0023DE  37BD               	dw	14269
   109  0023E0  3486               	dw	13446
   110                           
   111                           ;initializer for _Tosc
   112  0023E2  37BD               	dw	14269
   113  0023E4  3486               	dw	13446
   114                           
   115                           ;initializer for _lenth_of_array
   116  0023E6  001E               	dw	30
   117                           
   118                           	psect	smallconst
   119  000600                     __psmallconst:
   120                           	callstack 0
   121  000600  00                 	db	0
   122  000601  0000               	dw	0
   123  000603  4B00               	dw	19200
   124  000605                     __end_of_toint:
   125                           	callstack 0
   126  000605  0000               	dw	0
   127  000607  4616               	dw	17942
   128  000609                     __end_of_desired_BaudRate@main$F449:
   129                           	callstack 0
   130  000609  0000               	dw	0
   131  00060B  4616               	dw	17942
   132  00060D                     __end_of_desired_BaudRate:
   133                           	callstack 0
   134  00060D  2400               	dw	9216
   135  00060F  4A74               	dw	19060
   136  000611                     __end_of_Fosc@main$F447:
   137                           	callstack 0
   138  000611  2400               	dw	9216
   139  000613  4A74               	dw	19060
   140  000615                     __end_of_Fosc:
   141                           	callstack 0
   142  0000                     _RCREG	set	4014
   143  0000                     _TXREG	set	4013
   144  0000                     _RCSTAbits	set	4011
   145  0000                     _TXSTAbits	set	4012
   146  0000                     _SPBRG	set	4015
   147  0000                     _INTCONbits	set	4082
   148  0000                     _PIE1bits	set	3997
   149  0000                     _PIR1bits	set	3998
   150  0000                     _TRISCbits	set	3988
   151  0000                     _PORTC	set	3970
   152  0000                     _LATC	set	3979
   153  0000                     _PORTD	set	3971
   154  0000                     _PORTB	set	3969
   155  0000                     _TRISD	set	3989
   156  0000                     _TRISB	set	3987
   157  000615  00                 	db	0	; dummy byte at the end
   158  0000                     
   159                           ; #config settings
   160                           
   161                           	psect	cinit
   162  002384                     __pcinit:
   163                           	callstack 0
   164  002384                     start_initialization:
   165                           	callstack 0
   166  002384                     __initialization:
   167                           	callstack 0
   168                           
   169                           ; Initialize objects allocated to COMRAM (40 bytes)
   170                           ; load TBLPTR registers with __pidataCOMRAM
   171  002384  0EC0               	movlw	low __pidataCOMRAM
   172  002386  6EF6               	movwf	tblptrl,c
   173  002388  0E23               	movlw	high __pidataCOMRAM
   174  00238A  6EF7               	movwf	tblptrh,c
   175  00238C  0E00               	movlw	low (__pidataCOMRAM shr (0+16))
   176  00238E  6EF8               	movwf	tblptru,c
   177  002390  EE00  F045         	lfsr	0,__pdataCOMRAM
   178  002394  EE10 F028          	lfsr	1,40
   179  002398                     copy_data0:
   180  002398  0009               	tblrd		*+
   181  00239A  CFF5 FFEE          	movff	tablat,postinc0
   182  00239E  50E5               	movf	postdec1,w,c
   183  0023A0  50E1               	movf	fsr1l,w,c
   184  0023A2  E1FA               	bnz	copy_data0
   185                           
   186                           ; Clear objects allocated to COMRAM (5 bytes)
   187  0023A4  6A71               	clrf	(__pbssCOMRAM+4)& (0+255),c
   188  0023A6  6A70               	clrf	(__pbssCOMRAM+3)& (0+255),c
   189  0023A8  6A6F               	clrf	(__pbssCOMRAM+2)& (0+255),c
   190  0023AA  6A6E               	clrf	(__pbssCOMRAM+1)& (0+255),c
   191  0023AC  6A6D               	clrf	__pbssCOMRAM& (0+255),c
   192  0023AE                     end_of_initialization:
   193                           	callstack 0
   194  0023AE                     __end_of__initialization:
   195                           	callstack 0
   196  0023AE  9072               	bcf	int$flags,0,c	;clear compiler interrupt flag (level 1)
   197  0023B0  9272               	bcf	int$flags,1,c	;clear compiler interrupt flag (level 2)
   198  0023B2  0E00               	movlw	low (__Lsmallconst shr (0+16))
   199  0023B4  6EF8               	movwf	tblptru,c
   200  0023B6  0E06               	movlw	high __Lsmallconst
   201  0023B8  6EF7               	movwf	tblptrh,c
   202  0023BA  0100               	movlb	0
   203  0023BC  EFD8  F00E         	goto	_main	;jump to C main() function
   204                           
   205                           	psect	bssCOMRAM
   206  00006D                     __pbssCOMRAM:
   207                           	callstack 0
   208  00006D                     roundf@F528:
   209                           	callstack 0
   210  00006D                     	ds	4
   211  000071                     _New_char_RX:
   212                           	callstack 0
   213  000071                     	ds	1
   214                           
   215                           	psect	dataCOMRAM
   216  000045                     __pdataCOMRAM:
   217                           	callstack 0
   218  000045                     _testarray:
   219                           	callstack 0
   220  000045                     	ds	30
   221  000063                     	ds	4
   222  000067                     	ds	4
   223  00006B                     _lenth_of_array:
   224                           	callstack 0
   225  00006B                     	ds	2
   226                           
   227                           	psect	cstackCOMRAM
   228  000001                     __pcstackCOMRAM:
   229                           	callstack 0
   230  000001                     ?___fladd:
   231                           	callstack 0
   232  000001                     ?___flmul:
   233                           	callstack 0
   234  000001                     ?___flneg:
   235                           	callstack 0
   236  000001                     ?___xxtofl:
   237                           	callstack 0
   238  000001                     serial_tx_char@val:
   239                           	callstack 0
   240  000001                     ms_delay@val:
   241                           	callstack 0
   242  000001                     ___flneg@f1:
   243                           	callstack 0
   244  000001                     ___fladd@b:
   245                           	callstack 0
   246  000001                     ___flmul@b:
   247                           	callstack 0
   248  000001                     ___xxtofl@val:
   249                           	callstack 0
   250                           
   251                           ; 4 bytes @ 0x0
   252  000001                     	ds	2
   253  000003                     ms_delay@i:
   254                           	callstack 0
   255                           
   256                           ; 2 bytes @ 0x2
   257  000003                     	ds	2
   258  000005                     ??___xxtofl:
   259  000005                     ms_delay@j:
   260                           	callstack 0
   261  000005                     ___fladd@a:
   262                           	callstack 0
   263  000005                     ___flmul@a:
   264                           	callstack 0
   265                           
   266                           ; 4 bytes @ 0x4
   267  000005                     	ds	2
   268  000007                     X_axis@direction:
   269                           	callstack 0
   270  000007                     Y_axis@direction:
   271                           	callstack 0
   272  000007                     Twister@direction:
   273                           	callstack 0
   274                           
   275                           ; 1 bytes @ 0x6
   276  000007                     	ds	2
   277  000009                     ??___fladd:
   278  000009                     ??___flmul:
   279  000009                     ___xxtofl@sign:
   280                           	callstack 0
   281                           
   282                           ; 1 bytes @ 0x8
   283  000009                     	ds	1
   284  00000A                     ___xxtofl@exp:
   285                           	callstack 0
   286                           
   287                           ; 1 bytes @ 0x9
   288  00000A                     	ds	1
   289  00000B                     ___xxtofl@arg:
   290                           	callstack 0
   291                           
   292                           ; 4 bytes @ 0xA
   293  00000B                     	ds	2
   294  00000D                     ___fladd@signs:
   295                           	callstack 0
   296  00000D                     ___flmul@sign:
   297                           	callstack 0
   298                           
   299                           ; 1 bytes @ 0xC
   300  00000D                     	ds	1
   301  00000E                     ___fladd@aexp:
   302                           	callstack 0
   303  00000E                     ___flmul@grs:
   304                           	callstack 0
   305                           
   306                           ; 4 bytes @ 0xD
   307  00000E                     	ds	1
   308  00000F                     ___fladd@bexp:
   309                           	callstack 0
   310  00000F                     ___flge@ff1:
   311                           	callstack 0
   312                           
   313                           ; 4 bytes @ 0xE
   314  00000F                     	ds	1
   315  000010                     ___fladd@grs:
   316                           	callstack 0
   317                           
   318                           ; 1 bytes @ 0xF
   319  000010                     	ds	1
   320  000011                     ?___flsub:
   321                           	callstack 0
   322  000011                     ___flsub@b:
   323                           	callstack 0
   324                           
   325                           ; 4 bytes @ 0x10
   326  000011                     	ds	1
   327  000012                     ___flmul@aexp:
   328                           	callstack 0
   329                           
   330                           ; 1 bytes @ 0x11
   331  000012                     	ds	1
   332  000013                     ___flmul@bexp:
   333                           	callstack 0
   334  000013                     ___flge@ff2:
   335                           	callstack 0
   336                           
   337                           ; 4 bytes @ 0x12
   338  000013                     	ds	1
   339  000014                     ___flmul@prod:
   340                           	callstack 0
   341                           
   342                           ; 4 bytes @ 0x13
   343  000014                     	ds	1
   344  000015                     ___flsub@a:
   345                           	callstack 0
   346                           
   347                           ; 4 bytes @ 0x14
   348  000015                     	ds	2
   349  000017                     ??___flge:
   350                           
   351                           ; 1 bytes @ 0x16
   352  000017                     	ds	1
   353  000018                     ___flmul@temp:
   354                           	callstack 0
   355                           
   356                           ; 2 bytes @ 0x17
   357  000018                     	ds	1
   358  000019                     
   359                           ; 1 bytes @ 0x18
   360  000019                     	ds	2
   361  00001B                     ?_roundf:
   362                           	callstack 0
   363  00001B                     pickandplace_sequence@i:
   364                           	callstack 0
   365  00001B                     roundf@x:
   366                           	callstack 0
   367                           
   368                           ; 4 bytes @ 0x1A
   369  00001B                     	ds	2
   370  00001D                     pickandplace_sequence@i_482:
   371                           	callstack 0
   372                           
   373                           ; 2 bytes @ 0x1C
   374  00001D                     	ds	2
   375  00001F                     ??_roundf:
   376  00001F                     pickandplace_sequence@i_484:
   377                           	callstack 0
   378                           
   379                           ; 2 bytes @ 0x1E
   380  00001F                     	ds	2
   381  000021                     pickandplace_sequence@i_485:
   382                           	callstack 0
   383                           
   384                           ; 2 bytes @ 0x20
   385  000021                     	ds	2
   386  000023                     pickandplace_sequence@i_486:
   387                           	callstack 0
   388  000023                     _roundf$1148:
   389                           	callstack 0
   390                           
   391                           ; 4 bytes @ 0x22
   392  000023                     	ds	2
   393  000025                     pickandplace_sequence@i_488:
   394                           	callstack 0
   395                           
   396                           ; 2 bytes @ 0x24
   397  000025                     	ds	2
   398  000027                     pickandplace_sequence@i_490:
   399                           	callstack 0
   400  000027                     roundf@e:
   401                           	callstack 0
   402                           
   403                           ; 2 bytes @ 0x26
   404  000027                     	ds	2
   405  000029                     pickandplace_sequence@i_492:
   406                           	callstack 0
   407  000029                     _roundf$1147:
   408                           	callstack 0
   409                           
   410                           ; 4 bytes @ 0x28
   411  000029                     	ds	2
   412  00002B                     pickandplace_sequence@i_493:
   413                           	callstack 0
   414                           
   415                           ; 2 bytes @ 0x2A
   416  00002B                     	ds	2
   417  00002D                     pickandplace_sequence@i_494:
   418                           	callstack 0
   419  00002D                     roundf@u:
   420                           	callstack 0
   421                           
   422                           ; 4 bytes @ 0x2C
   423  00002D                     	ds	2
   424  00002F                     pickandplace_sequence@i_495:
   425                           	callstack 0
   426                           
   427                           ; 2 bytes @ 0x2E
   428  00002F                     	ds	2
   429  000031                     pickandplace_sequence@i_496:
   430                           	callstack 0
   431  000031                     roundf@y:
   432                           	callstack 0
   433                           
   434                           ; 4 bytes @ 0x30
   435  000031                     	ds	2
   436  000033                     pickandplace_sequence@i_497:
   437                           	callstack 0
   438                           
   439                           ; 2 bytes @ 0x32
   440  000033                     	ds	2
   441  000035                     ?___fltol:
   442                           	callstack 0
   443  000035                     pickandplace_sequence@i_498:
   444                           	callstack 0
   445  000035                     ___fltol@f1:
   446                           	callstack 0
   447                           
   448                           ; 4 bytes @ 0x34
   449  000035                     	ds	2
   450  000037                     pickandplace_sequence@i_499:
   451                           	callstack 0
   452                           
   453                           ; 2 bytes @ 0x36
   454  000037                     	ds	2
   455  000039                     ??___fltol:
   456  000039                     pickandplace_sequence@i_500:
   457                           	callstack 0
   458                           
   459                           ; 2 bytes @ 0x38
   460  000039                     	ds	2
   461  00003B                     pickandplace_sequence@i_501:
   462                           	callstack 0
   463                           
   464                           ; 2 bytes @ 0x3A
   465  00003B                     	ds	2
   466  00003D                     ___fltol@sign1:
   467                           	callstack 0
   468                           
   469                           ; 1 bytes @ 0x3C
   470  00003D                     	ds	1
   471  00003E                     ___fltol@exp1:
   472                           	callstack 0
   473                           
   474                           ; 1 bytes @ 0x3D
   475  00003E                     	ds	1
   476  00003F                     main@RX_Char:
   477                           	callstack 0
   478                           
   479                           ; 1 bytes @ 0x3E
   480  00003F                     	ds	1
   481  000040                     main@test_C:
   482                           	callstack 0
   483                           
   484                           ; 1 bytes @ 0x3F
   485  000040                     	ds	1
   486  000041                     main@i:
   487                           	callstack 0
   488                           
   489                           ; 2 bytes @ 0x40
   490  000041                     	ds	2
   491  000043                     main@i_466:
   492                           	callstack 0
   493                           
   494                           ; 2 bytes @ 0x42
   495  000043                     	ds	2
   496                           
   497 ;;
   498 ;;Main: autosize = 0, tempsize = 0, incstack = 0, save=0
   499 ;;
   500 ;; *************** function _main *****************
   501 ;; Defined at:
   502 ;;		line 153 in file "main.c"
   503 ;; Parameters:    Size  Location     Type
   504 ;;		None
   505 ;; Auto vars:     Size  Location     Type
   506 ;;  i               2   66[COMRAM] int 
   507 ;;  i               2   64[COMRAM] int 
   508 ;;  test_C          1   63[COMRAM] unsigned char 
   509 ;;  RX_Char         1   62[COMRAM] unsigned char 
   510 ;; Return value:  Size  Location     Type
   511 ;;                  1    wreg      void 
   512 ;; Registers used:
   513 ;;		wreg, fsr2l, fsr2h, status,2, status,0, prodl, prodh, cstack
   514 ;; Tracked objects:
   515 ;;		On entry : 0/0
   516 ;;		On exit  : 0/0
   517 ;;		Unchanged: 0/0
   518 ;; Data sizes:     COMRAM   BANK0   BANK1   BANK2   BANK3   BANK4   BANK5
   519 ;;      Params:         0       0       0       0       0       0       0
   520 ;;      Locals:         6       0       0       0       0       0       0
   521 ;;      Temps:          0       0       0       0       0       0       0
   522 ;;      Totals:         6       0       0       0       0       0       0
   523 ;;Total ram usage:        6 bytes
   524 ;; Hardware stack levels required when called: 5
   525 ;; This function calls:
   526 ;;		_init_PORTS
   527 ;;		_init_USART
   528 ;;		_init_interrupts
   529 ;;		_pickandplace_sequence
   530 ;;		_serial_tx_char
   531 ;; This function is called by:
   532 ;;		Startup code after reset
   533 ;; This function uses a non-reentrant model
   534 ;;
   535                           
   536                           	psect	text0
   537  001DB0                     __ptext0:
   538                           	callstack 0
   539  001DB0                     _main:
   540                           	callstack 26
   541  001DB0  FFFF               	dw	65535	; assembler added errata NOP
   542                           
   543                           ;main.c: 156:     unsigned char test_C = ' ';
   544  001DB2  0E20               	movlw	32
   545  001DB4  6E40               	movwf	main@test_C^0,c
   546  001DB6                     
   547                           ;main.c: 158:     init_PORTS();
   548  001DB6  ECF4  F011         	call	_init_PORTS	;wreg free
   549  001DBA                     
   550                           ;main.c: 159:     init_USART();
   551  001DBA  ECA2  F011         	call	_init_USART	;wreg free
   552  001DBE                     
   553                           ;main.c: 160:     init_interrupts();
   554  001DBE  EC15  F012         	call	_init_interrupts	;wreg free
   555  001DC2                     
   556                           ;main.c: 162:     (INTCONbits.GIE = 1);
   557  001DC2  8EF2               	bsf	242,7,c	;volatile
   558  001DC4                     
   559                           ;main.c: 163:     for(int i=0;i<2;i++){pickandplace_sequence();}
   560  001DC4  0E00               	movlw	0
   561  001DC6  6E42               	movwf	(main@i+1)^0,c
   562  001DC8  0E00               	movlw	0
   563  001DCA  6E41               	movwf	main@i^0,c
   564  001DCC                     l2737:
   565  001DCC  FFFF               	dw	65535	; assembler added errata NOP
   566  001DCE  EC0B  F003         	call	_pickandplace_sequence	;wreg free
   567  001DD2  4A41               	infsnz	main@i^0,f,c
   568  001DD4  2A42               	incf	(main@i+1)^0,f,c
   569  001DD6  BE42               	btfsc	(main@i+1)^0,7,c
   570  001DD8  EFF7  F00E         	goto	u2491
   571  001DDC  5042               	movf	(main@i+1)^0,w,c
   572  001DDE  E10A               	bnz	u2490
   573  001DE0  0E02               	movlw	2
   574  001DE2  5C41               	subwf	main@i^0,w,c
   575  001DE4  A0D8               	btfss	status,0,c
   576  001DE6  EFF7  F00E         	goto	u2491
   577  001DEA  EFFA  F00E         	goto	u2490
   578  001DEE                     u2491:
   579  001DEE  FFFF               	dw	65535	; assembler added errata NOP
   580  001DF0  EFE6  F00E         	goto	l2737
   581  001DF4                     u2490:
   582  001DF4  FFFF               	dw	65535	; assembler added errata NOP
   583  001DF6                     l2743:
   584  001DF6  FFFF               	dw	65535	; assembler added errata NOP
   585                           
   586                           ;main.c: 167:         if (New_char_RX)
   587  001DF8  5071               	movf	_New_char_RX^0,w,c
   588  001DFA  B4D8               	btfsc	status,2,c
   589  001DFC  EF02  F00F         	goto	u2501
   590  001E00  EF05  F00F         	goto	u2500
   591  001E04                     u2501:
   592  001E04  FFFF               	dw	65535	; assembler added errata NOP
   593  001E06  EFFB  F00E         	goto	l2743
   594  001E0A                     u2500:
   595  001E0A  FFFF               	dw	65535	; assembler added errata NOP
   596  001E0C                     
   597                           ;main.c: 168:         {;main.c: 169:             RX_Char = RCREG;
   598  001E0C  CFAE F03F          	movff	4014,main@RX_Char	;volatile
   599  001E10                     
   600                           ;main.c: 170:             serial_tx_char(RX_Char);
   601  001E10  503F               	movf	main@RX_Char^0,w,c
   602  001E12  EC05  F012         	call	_serial_tx_char
   603  001E16                     
   604                           ;main.c: 171:             serial_tx_char('\r');
   605  001E16  0E0D               	movlw	13
   606  001E18  EC05  F012         	call	_serial_tx_char
   607  001E1C                     
   608                           ;main.c: 172:             serial_tx_char('\n');
   609  001E1C  0E0A               	movlw	10
   610  001E1E  EC05  F012         	call	_serial_tx_char
   611  001E22                     
   612                           ;main.c: 175:             serial_tx_char('H');
   613  001E22  0E48               	movlw	72
   614  001E24  EC05  F012         	call	_serial_tx_char
   615  001E28                     
   616                           ;main.c: 176:             serial_tx_char('e');
   617  001E28  0E65               	movlw	101
   618  001E2A  EC05  F012         	call	_serial_tx_char
   619  001E2E                     
   620                           ;main.c: 177:             serial_tx_char('l');
   621  001E2E  0E6C               	movlw	108
   622  001E30  EC05  F012         	call	_serial_tx_char
   623  001E34                     
   624                           ;main.c: 178:             serial_tx_char('l');
   625  001E34  0E6C               	movlw	108
   626  001E36  EC05  F012         	call	_serial_tx_char
   627  001E3A                     
   628                           ;main.c: 179:             serial_tx_char('o');
   629  001E3A  0E6F               	movlw	111
   630  001E3C  EC05  F012         	call	_serial_tx_char
   631  001E40                     
   632                           ;main.c: 180:             serial_tx_char(' ');
   633  001E40  0E20               	movlw	32
   634  001E42  EC05  F012         	call	_serial_tx_char
   635  001E46                     
   636                           ;main.c: 181:             serial_tx_char('W');
   637  001E46  0E57               	movlw	87
   638  001E48  EC05  F012         	call	_serial_tx_char
   639  001E4C                     
   640                           ;main.c: 182:             serial_tx_char('o');
   641  001E4C  0E6F               	movlw	111
   642  001E4E  EC05  F012         	call	_serial_tx_char
   643  001E52                     
   644                           ;main.c: 183:             serial_tx_char('r');
   645  001E52  0E72               	movlw	114
   646  001E54  EC05  F012         	call	_serial_tx_char
   647  001E58                     
   648                           ;main.c: 184:             serial_tx_char('l');
   649  001E58  0E6C               	movlw	108
   650  001E5A  EC05  F012         	call	_serial_tx_char
   651  001E5E                     
   652                           ;main.c: 185:             serial_tx_char('d');
   653  001E5E  0E64               	movlw	100
   654  001E60  EC05  F012         	call	_serial_tx_char
   655  001E64                     
   656                           ;main.c: 186:             serial_tx_char('!');
   657  001E64  0E21               	movlw	33
   658  001E66  EC05  F012         	call	_serial_tx_char
   659  001E6A                     
   660                           ;main.c: 187:             serial_tx_char('\r');
   661  001E6A  0E0D               	movlw	13
   662  001E6C  EC05  F012         	call	_serial_tx_char
   663  001E70                     
   664                           ;main.c: 188:             serial_tx_char('\n');
   665  001E70  0E0A               	movlw	10
   666  001E72  EC05  F012         	call	_serial_tx_char
   667  001E76                     
   668                           ;main.c: 190:             for(int i=0; i<lenth_of_array; i++){
   669  001E76  0E00               	movlw	0
   670  001E78  6E44               	movwf	(main@i_466+1)^0,c
   671  001E7A  0E00               	movlw	0
   672  001E7C  6E43               	movwf	main@i_466^0,c
   673  001E7E  EF4F  F00F         	goto	l2789
   674  001E82                     l2783:
   675  001E82  FFFF               	dw	65535	; assembler added errata NOP
   676                           
   677                           ;main.c: 191:                 test_C = testarray[i];
   678  001E84  0E45               	movlw	low _testarray
   679  001E86  2443               	addwf	main@i_466^0,w,c
   680  001E88  6ED9               	movwf	fsr2l,c
   681  001E8A  0E00               	movlw	high _testarray
   682  001E8C  2044               	addwfc	(main@i_466+1)^0,w,c
   683  001E8E  6EDA               	movwf	fsr2h,c
   684  001E90  50DF               	movf	indf2,w,c
   685  001E92  6E40               	movwf	main@test_C^0,c
   686  001E94                     
   687                           ;main.c: 192:                 serial_tx_char(test_C);
   688  001E94  5040               	movf	main@test_C^0,w,c
   689  001E96  EC05  F012         	call	_serial_tx_char
   690  001E9A                     
   691                           ;main.c: 193:                 }
   692  001E9A  4A43               	infsnz	main@i_466^0,f,c
   693  001E9C  2A44               	incf	(main@i_466+1)^0,f,c
   694  001E9E                     l2789:
   695  001E9E  FFFF               	dw	65535	; assembler added errata NOP
   696  001EA0  BE44               	btfsc	(main@i_466+1)^0,7,c
   697  001EA2  EF5C  F00F         	goto	u2511
   698  001EA6  5044               	movf	(main@i_466+1)^0,w,c
   699  001EA8  E10A               	bnz	u2510
   700  001EAA  0E1E               	movlw	30
   701  001EAC  5C43               	subwf	main@i_466^0,w,c
   702  001EAE  A0D8               	btfss	status,0,c
   703  001EB0  EF5C  F00F         	goto	u2511
   704  001EB4  EF5F  F00F         	goto	u2510
   705  001EB8                     u2511:
   706  001EB8  FFFF               	dw	65535	; assembler added errata NOP
   707  001EBA  EF41  F00F         	goto	l2783
   708  001EBE                     u2510:
   709  001EBE  FFFF               	dw	65535	; assembler added errata NOP
   710  001EC0                     
   711                           ;main.c: 195:             serial_tx_char('\r');
   712  001EC0  0E0D               	movlw	13
   713  001EC2  EC05  F012         	call	_serial_tx_char
   714                           
   715                           ;main.c: 196:             serial_tx_char('\n');
   716  001EC6  0E0A               	movlw	10
   717  001EC8  EC05  F012         	call	_serial_tx_char
   718  001ECC                     
   719                           ;main.c: 199:             New_char_RX = 0;
   720  001ECC  0E00               	movlw	0
   721  001ECE  6E71               	movwf	_New_char_RX^0,c
   722  001ED0  EFFB  F00E         	goto	l2743
   723  001ED4  EF1F  F000         	goto	start
   724  001ED8                     __end_of_main:
   725                           	callstack 0
   726                           
   727 ;; *************** function _serial_tx_char *****************
   728 ;; Defined at:
   729 ;;		line 44 in file "serial_rs232.c"
   730 ;; Parameters:    Size  Location     Type
   731 ;;  val             1    wreg     unsigned char 
   732 ;; Auto vars:     Size  Location     Type
   733 ;;  val             1    0[COMRAM] unsigned char 
   734 ;; Return value:  Size  Location     Type
   735 ;;                  1    wreg      void 
   736 ;; Registers used:
   737 ;;		wreg
   738 ;; Tracked objects:
   739 ;;		On entry : 0/0
   740 ;;		On exit  : 0/0
   741 ;;		Unchanged: 0/0
   742 ;; Data sizes:     COMRAM   BANK0   BANK1   BANK2   BANK3   BANK4   BANK5
   743 ;;      Params:         0       0       0       0       0       0       0
   744 ;;      Locals:         1       0       0       0       0       0       0
   745 ;;      Temps:          0       0       0       0       0       0       0
   746 ;;      Totals:         1       0       0       0       0       0       0
   747 ;;Total ram usage:        1 bytes
   748 ;; Hardware stack levels used: 1
   749 ;; Hardware stack levels required when called: 1
   750 ;; This function calls:
   751 ;;		Nothing
   752 ;; This function is called by:
   753 ;;		_main
   754 ;; This function uses a non-reentrant model
   755 ;;
   756                           
   757                           	psect	text1
   758  00240A                     __ptext1:
   759                           	callstack 0
   760  00240A                     _serial_tx_char:
   761                           	callstack 0
   762  00240A  FFFF               	dw	65535	; assembler added errata NOP
   763                           
   764                           ;incstack = 0
   765                           ;serial_tx_char@val stored from wreg
   766  00240C  6E01               	movwf	serial_tx_char@val^0,c
   767  00240E                     
   768                           ;serial_rs232.c: 44: void serial_tx_char(unsigned char val);serial_rs232.c: 45: {;serial
      +                          _rs232.c: 46:   TXREG=val;
   769  00240E  C001  FFAD         	movff	serial_tx_char@val,4013	;volatile
   770  002412                     l48:
   771  002412  FFFF               	dw	65535	; assembler added errata NOP
   772  002414  A2AC               	btfss	172,1,c	;volatile
   773  002416  EF0F  F012         	goto	u991
   774  00241A  EF12  F012         	goto	u990
   775  00241E                     u991:
   776  00241E  FFFF               	dw	65535	; assembler added errata NOP
   777  002420  EF09  F012         	goto	l48
   778  002424                     u990:
   779  002424  FFFF               	dw	65535	; assembler added errata NOP
   780  002426  0012               	return		;funcret
   781  002428  FFFF               	dw	65535	; errata NOP
   782  00242A                     __end_of_serial_tx_char:
   783                           	callstack 0
   784                           
   785 ;; *************** function _pickandplace_sequence *****************
   786 ;; Defined at:
   787 ;;		line 332 in file "main.c"
   788 ;; Parameters:    Size  Location     Type
   789 ;;		None
   790 ;; Auto vars:     Size  Location     Type
   791 ;;  i               2   58[COMRAM] int 
   792 ;;  i               2   56[COMRAM] int 
   793 ;;  i               2   54[COMRAM] int 
   794 ;;  i               2   52[COMRAM] int 
   795 ;;  i               2   50[COMRAM] int 
   796 ;;  i               2   48[COMRAM] int 
   797 ;;  i               2   46[COMRAM] int 
   798 ;;  i               2   44[COMRAM] int 
   799 ;;  i               2   42[COMRAM] int 
   800 ;;  i               2   40[COMRAM] int 
   801 ;;  i               2    0        int 
   802 ;;  i               2   38[COMRAM] int 
   803 ;;  i               2    0        int 
   804 ;;  i               2   36[COMRAM] int 
   805 ;;  i               2   34[COMRAM] int 
   806 ;;  i               2   32[COMRAM] int 
   807 ;;  i               2   30[COMRAM] int 
   808 ;;  i               2   28[COMRAM] int 
   809 ;;  i               2   26[COMRAM] int 
   810 ;; Return value:  Size  Location     Type
   811 ;;                  1    wreg      void 
   812 ;; Registers used:
   813 ;;		wreg, status,2, status,0, cstack
   814 ;; Tracked objects:
   815 ;;		On entry : 0/0
   816 ;;		On exit  : 0/0
   817 ;;		Unchanged: 0/0
   818 ;; Data sizes:     COMRAM   BANK0   BANK1   BANK2   BANK3   BANK4   BANK5
   819 ;;      Params:         0       0       0       0       0       0       0
   820 ;;      Locals:        34       0       0       0       0       0       0
   821 ;;      Temps:          0       0       0       0       0       0       0
   822 ;;      Totals:        34       0       0       0       0       0       0
   823 ;;Total ram usage:       34 bytes
   824 ;; Hardware stack levels used: 1
   825 ;; Hardware stack levels required when called: 3
   826 ;; This function calls:
   827 ;;		_Twister
   828 ;;		_X_axis
   829 ;;		_Y_axis
   830 ;;		___flge
   831 ;;		___xxtofl
   832 ;; This function is called by:
   833 ;;		_main
   834 ;; This function uses a non-reentrant model
   835 ;;
   836                           
   837                           	psect	text2
   838  000616                     __ptext2:
   839                           	callstack 0
   840  000616                     _pickandplace_sequence:
   841                           	callstack 0
   842  000616  FFFF               	dw	65535	; assembler added errata NOP
   843  000618                     
   844                           ;main.c: 334:     for(int i = 0; i<(3); i++){X_axis(0);}
   845  000618  0E00               	movlw	0
   846  00061A  6E1C               	movwf	(pickandplace_sequence@i+1)^0,c
   847  00061C  0E00               	movlw	0
   848  00061E  6E1B               	movwf	pickandplace_sequence@i^0,c
   849  000620                     l2499:
   850  000620  FFFF               	dw	65535	; assembler added errata NOP
   851  000622  0E00               	movlw	0
   852  000624  EC6A  F010         	call	_X_axis
   853  000628  4A1B               	infsnz	pickandplace_sequence@i^0,f,c
   854  00062A  2A1C               	incf	(pickandplace_sequence@i+1)^0,f,c
   855  00062C  BE1C               	btfsc	(pickandplace_sequence@i+1)^0,7,c
   856  00062E  EF22  F003         	goto	u2271
   857  000632  501C               	movf	(pickandplace_sequence@i+1)^0,w,c
   858  000634  E10A               	bnz	u2270
   859  000636  0E03               	movlw	3
   860  000638  5C1B               	subwf	pickandplace_sequence@i^0,w,c
   861  00063A  A0D8               	btfss	status,0,c
   862  00063C  EF22  F003         	goto	u2271
   863  000640  EF25  F003         	goto	u2270
   864  000644                     u2271:
   865  000644  FFFF               	dw	65535	; assembler added errata NOP
   866  000646  EF10  F003         	goto	l2499
   867  00064A                     u2270:
   868  00064A  FFFF               	dw	65535	; assembler added errata NOP
   869  00064C                     
   870                           ;main.c: 335:     for(int i = 0; i<(4); i++){Y_axis(0);}
   871  00064C  0E00               	movlw	0
   872  00064E  6E1E               	movwf	(pickandplace_sequence@i_482+1)^0,c
   873  000650  0E00               	movlw	0
   874  000652  6E1D               	movwf	pickandplace_sequence@i_482^0,c
   875  000654                     l2511:
   876  000654  FFFF               	dw	65535	; assembler added errata NOP
   877  000656  0E00               	movlw	0
   878  000658  EC00  F010         	call	_Y_axis
   879  00065C  4A1D               	infsnz	pickandplace_sequence@i_482^0,f,c
   880  00065E  2A1E               	incf	(pickandplace_sequence@i_482+1)^0,f,c
   881  000660  BE1E               	btfsc	(pickandplace_sequence@i_482+1)^0,7,c
   882  000662  EF3C  F003         	goto	u2281
   883  000666  501E               	movf	(pickandplace_sequence@i_482+1)^0,w,c
   884  000668  E10A               	bnz	u2280
   885  00066A  0E04               	movlw	4
   886  00066C  5C1D               	subwf	pickandplace_sequence@i_482^0,w,c
   887  00066E  A0D8               	btfss	status,0,c
   888  000670  EF3C  F003         	goto	u2281
   889  000674  EF3F  F003         	goto	u2280
   890  000678                     u2281:
   891  000678  FFFF               	dw	65535	; assembler added errata NOP
   892  00067A  EF2A  F003         	goto	l2511
   893  00067E                     u2280:
   894  00067E  FFFF               	dw	65535	; assembler added errata NOP
   895  000680                     
   896                           ;main.c: 340:     for(int i = 0; i<(17 -3); i++){X_axis(0);}
   897  000680  0E00               	movlw	0
   898  000682  6E20               	movwf	(pickandplace_sequence@i_484+1)^0,c
   899  000684  0E00               	movlw	0
   900  000686  6E1F               	movwf	pickandplace_sequence@i_484^0,c
   901  000688                     l2523:
   902  000688  FFFF               	dw	65535	; assembler added errata NOP
   903  00068A  0E00               	movlw	0
   904  00068C  EC6A  F010         	call	_X_axis
   905  000690  4A1F               	infsnz	pickandplace_sequence@i_484^0,f,c
   906  000692  2A20               	incf	(pickandplace_sequence@i_484+1)^0,f,c
   907  000694  BE20               	btfsc	(pickandplace_sequence@i_484+1)^0,7,c
   908  000696  EF56  F003         	goto	u2291
   909  00069A  5020               	movf	(pickandplace_sequence@i_484+1)^0,w,c
   910  00069C  E10A               	bnz	u2290
   911  00069E  0E0E               	movlw	14
   912  0006A0  5C1F               	subwf	pickandplace_sequence@i_484^0,w,c
   913  0006A2  A0D8               	btfss	status,0,c
   914  0006A4  EF56  F003         	goto	u2291
   915  0006A8  EF59  F003         	goto	u2290
   916  0006AC                     u2291:
   917  0006AC  FFFF               	dw	65535	; assembler added errata NOP
   918  0006AE  EF44  F003         	goto	l2523
   919  0006B2                     u2290:
   920  0006B2  FFFF               	dw	65535	; assembler added errata NOP
   921  0006B4                     
   922                           ;main.c: 341:     for(int i = 0; i<(5 -4); i++){Y_axis(0);}
   923  0006B4  0E00               	movlw	0
   924  0006B6  6E22               	movwf	(pickandplace_sequence@i_485+1)^0,c
   925  0006B8  0E00               	movlw	0
   926  0006BA  6E21               	movwf	pickandplace_sequence@i_485^0,c
   927  0006BC                     l2535:
   928  0006BC  FFFF               	dw	65535	; assembler added errata NOP
   929  0006BE  0E00               	movlw	0
   930  0006C0  EC00  F010         	call	_Y_axis
   931  0006C4  4A21               	infsnz	pickandplace_sequence@i_485^0,f,c
   932  0006C6  2A22               	incf	(pickandplace_sequence@i_485+1)^0,f,c
   933  0006C8  BE22               	btfsc	(pickandplace_sequence@i_485+1)^0,7,c
   934  0006CA  EF6F  F003         	goto	u2301
   935  0006CE  5022               	movf	(pickandplace_sequence@i_485+1)^0,w,c
   936  0006D0  E109               	bnz	u2300
   937  0006D2  0421               	decf	pickandplace_sequence@i_485^0,w,c
   938  0006D4  A0D8               	btfss	status,0,c
   939  0006D6  EF6F  F003         	goto	u2301
   940  0006DA  EF72  F003         	goto	u2300
   941  0006DE                     u2301:
   942  0006DE  FFFF               	dw	65535	; assembler added errata NOP
   943  0006E0  EF5E  F003         	goto	l2535
   944  0006E4                     u2300:
   945  0006E4  FFFF               	dw	65535	; assembler added errata NOP
   946  0006E6                     
   947                           ;main.c: 342:     for(int i = 0; i<((360-270)/3.6); i++){Twister(1);}
   948  0006E6  0E00               	movlw	0
   949  0006E8  6E24               	movwf	(pickandplace_sequence@i_486+1)^0,c
   950  0006EA  0E00               	movlw	0
   951  0006EC  6E23               	movwf	pickandplace_sequence@i_486^0,c
   952  0006EE  0E00               	movlw	0
   953  0006F0  6E01               	movwf	___xxtofl@val^0,c
   954  0006F2  0E00               	movlw	0
   955  0006F4  6E02               	movwf	(___xxtofl@val+1)^0,c
   956  0006F6  0E00               	movlw	0
   957  0006F8  6E03               	movwf	(___xxtofl@val+2)^0,c
   958  0006FA  0E00               	movlw	0
   959  0006FC  6E04               	movwf	(___xxtofl@val+3)^0,c
   960  0006FE  0E01               	movlw	1
   961  000700  EC41  F00D         	call	___xxtofl
   962  000704  C001  F00F         	movff	?___xxtofl,___flge@ff1
   963  000708  C002  F010         	movff	?___xxtofl+1,___flge@ff1+1
   964  00070C  C003  F011         	movff	?___xxtofl+2,___flge@ff1+2
   965  000710  C004  F012         	movff	?___xxtofl+3,___flge@ff1+3
   966  000714  0E00               	movlw	0
   967  000716  6E13               	movwf	___flge@ff2^0,c
   968  000718  0E00               	movlw	0
   969  00071A  6E14               	movwf	(___flge@ff2+1)^0,c
   970  00071C  0EC8               	movlw	200
   971  00071E  6E15               	movwf	(___flge@ff2+2)^0,c
   972  000720  0E41               	movlw	65
   973  000722  6E16               	movwf	(___flge@ff2+3)^0,c
   974  000724  EC6C  F00F         	call	___flge	;wreg free
   975  000728  A0D8               	btfss	status,0,c
   976  00072A  EF99  F003         	goto	u2311
   977  00072E  EF9C  F003         	goto	u2310
   978  000732                     u2311:
   979  000732  FFFF               	dw	65535	; assembler added errata NOP
   980  000734  EF9F  F003         	goto	l2547
   981  000738                     u2310:
   982  000738  FFFF               	dw	65535	; assembler added errata NOP
   983  00073A  EFCB  F003         	goto	l2553
   984  00073E                     l2547:
   985  00073E  FFFF               	dw	65535	; assembler added errata NOP
   986  000740  0E01               	movlw	1
   987  000742  ECD4  F010         	call	_Twister
   988  000746  4A23               	infsnz	pickandplace_sequence@i_486^0,f,c
   989  000748  2A24               	incf	(pickandplace_sequence@i_486+1)^0,f,c
   990  00074A  C023  F001         	movff	pickandplace_sequence@i_486,___xxtofl@val
   991  00074E  C024  F002         	movff	pickandplace_sequence@i_486+1,___xxtofl@val+1
   992  000752  0E00               	movlw	0
   993  000754  BE02               	btfsc	(___xxtofl@val+1)^0,7,c
   994  000756  0EFF               	movlw	-1
   995  000758  6E03               	movwf	(___xxtofl@val+2)^0,c
   996  00075A  6E04               	movwf	(___xxtofl@val+3)^0,c
   997  00075C  0E01               	movlw	1
   998  00075E  EC41  F00D         	call	___xxtofl
   999  000762  C001  F00F         	movff	?___xxtofl,___flge@ff1
  1000  000766  C002  F010         	movff	?___xxtofl+1,___flge@ff1+1
  1001  00076A  C003  F011         	movff	?___xxtofl+2,___flge@ff1+2
  1002  00076E  C004  F012         	movff	?___xxtofl+3,___flge@ff1+3
  1003  000772  0E00               	movlw	0
  1004  000774  6E13               	movwf	___flge@ff2^0,c
  1005  000776  0E00               	movlw	0
  1006  000778  6E14               	movwf	(___flge@ff2+1)^0,c
  1007  00077A  0EC8               	movlw	200
  1008  00077C  6E15               	movwf	(___flge@ff2+2)^0,c
  1009  00077E  0E41               	movlw	65
  1010  000780  6E16               	movwf	(___flge@ff2+3)^0,c
  1011  000782  EC6C  F00F         	call	___flge	;wreg free
  1012  000786  A0D8               	btfss	status,0,c
  1013  000788  EFC8  F003         	goto	u2321
  1014  00078C  EFCB  F003         	goto	u2320
  1015  000790                     u2321:
  1016  000790  FFFF               	dw	65535	; assembler added errata NOP
  1017  000792  EF9F  F003         	goto	l2547
  1018  000796                     u2320:
  1019  000796                     l2553:
  1020  000796  FFFF               	dw	65535	; assembler added errata NOP
  1021                           
  1022                           ;main.c: 347:     for(int i = 0; i<(17 -3); i++){X_axis(1);}
  1023  000798  0E00               	movlw	0
  1024  00079A  6E26               	movwf	(pickandplace_sequence@i_488+1)^0,c
  1025  00079C  0E00               	movlw	0
  1026  00079E  6E25               	movwf	pickandplace_sequence@i_488^0,c
  1027  0007A0                     l2559:
  1028  0007A0  FFFF               	dw	65535	; assembler added errata NOP
  1029  0007A2  0E01               	movlw	1
  1030  0007A4  EC6A  F010         	call	_X_axis
  1031  0007A8  4A25               	infsnz	pickandplace_sequence@i_488^0,f,c
  1032  0007AA  2A26               	incf	(pickandplace_sequence@i_488+1)^0,f,c
  1033  0007AC  BE26               	btfsc	(pickandplace_sequence@i_488+1)^0,7,c
  1034  0007AE  EFE2  F003         	goto	u2331
  1035  0007B2  5026               	movf	(pickandplace_sequence@i_488+1)^0,w,c
  1036  0007B4  E10A               	bnz	u2330
  1037  0007B6  0E0E               	movlw	14
  1038  0007B8  5C25               	subwf	pickandplace_sequence@i_488^0,w,c
  1039  0007BA  A0D8               	btfss	status,0,c
  1040  0007BC  EFE2  F003         	goto	u2331
  1041  0007C0  EFE5  F003         	goto	u2330
  1042  0007C4                     u2331:
  1043  0007C4  FFFF               	dw	65535	; assembler added errata NOP
  1044  0007C6  EFD0  F003         	goto	l2559
  1045  0007CA                     u2330:
  1046  0007CA  FFFF               	dw	65535	; assembler added errata NOP
  1047  0007CC                     
  1048                           ;main.c: 349:     for(int i = 0; i<((270 -90)/3.6); i++){Twister(0);}
  1049  0007CC  0E00               	movlw	0
  1050  0007CE  6E28               	movwf	(pickandplace_sequence@i_490+1)^0,c
  1051  0007D0  0E00               	movlw	0
  1052  0007D2  6E27               	movwf	pickandplace_sequence@i_490^0,c
  1053  0007D4  0E00               	movlw	0
  1054  0007D6  6E01               	movwf	___xxtofl@val^0,c
  1055  0007D8  0E00               	movlw	0
  1056  0007DA  6E02               	movwf	(___xxtofl@val+1)^0,c
  1057  0007DC  0E00               	movlw	0
  1058  0007DE  6E03               	movwf	(___xxtofl@val+2)^0,c
  1059  0007E0  0E00               	movlw	0
  1060  0007E2  6E04               	movwf	(___xxtofl@val+3)^0,c
  1061  0007E4  0E01               	movlw	1
  1062  0007E6  EC41  F00D         	call	___xxtofl
  1063  0007EA  C001  F00F         	movff	?___xxtofl,___flge@ff1
  1064  0007EE  C002  F010         	movff	?___xxtofl+1,___flge@ff1+1
  1065  0007F2  C003  F011         	movff	?___xxtofl+2,___flge@ff1+2
  1066  0007F6  C004  F012         	movff	?___xxtofl+3,___flge@ff1+3
  1067  0007FA  0E00               	movlw	0
  1068  0007FC  6E13               	movwf	___flge@ff2^0,c
  1069  0007FE  0E00               	movlw	0
  1070  000800  6E14               	movwf	(___flge@ff2+1)^0,c
  1071  000802  0E48               	movlw	72
  1072  000804  6E15               	movwf	(___flge@ff2+2)^0,c
  1073  000806  0E42               	movlw	66
  1074  000808  6E16               	movwf	(___flge@ff2+3)^0,c
  1075  00080A  EC6C  F00F         	call	___flge	;wreg free
  1076  00080E  A0D8               	btfss	status,0,c
  1077  000810  EF0C  F004         	goto	u2341
  1078  000814  EF0F  F004         	goto	u2340
  1079  000818                     u2341:
  1080  000818  FFFF               	dw	65535	; assembler added errata NOP
  1081  00081A  EF12  F004         	goto	l2583
  1082  00081E                     u2340:
  1083  00081E  FFFF               	dw	65535	; assembler added errata NOP
  1084  000820  EF3E  F004         	goto	l2589
  1085  000824                     l2583:
  1086  000824  FFFF               	dw	65535	; assembler added errata NOP
  1087  000826  0E00               	movlw	0
  1088  000828  ECD4  F010         	call	_Twister
  1089  00082C  4A27               	infsnz	pickandplace_sequence@i_490^0,f,c
  1090  00082E  2A28               	incf	(pickandplace_sequence@i_490+1)^0,f,c
  1091  000830  C027  F001         	movff	pickandplace_sequence@i_490,___xxtofl@val
  1092  000834  C028  F002         	movff	pickandplace_sequence@i_490+1,___xxtofl@val+1
  1093  000838  0E00               	movlw	0
  1094  00083A  BE02               	btfsc	(___xxtofl@val+1)^0,7,c
  1095  00083C  0EFF               	movlw	-1
  1096  00083E  6E03               	movwf	(___xxtofl@val+2)^0,c
  1097  000840  6E04               	movwf	(___xxtofl@val+3)^0,c
  1098  000842  0E01               	movlw	1
  1099  000844  EC41  F00D         	call	___xxtofl
  1100  000848  C001  F00F         	movff	?___xxtofl,___flge@ff1
  1101  00084C  C002  F010         	movff	?___xxtofl+1,___flge@ff1+1
  1102  000850  C003  F011         	movff	?___xxtofl+2,___flge@ff1+2
  1103  000854  C004  F012         	movff	?___xxtofl+3,___flge@ff1+3
  1104  000858  0E00               	movlw	0
  1105  00085A  6E13               	movwf	___flge@ff2^0,c
  1106  00085C  0E00               	movlw	0
  1107  00085E  6E14               	movwf	(___flge@ff2+1)^0,c
  1108  000860  0E48               	movlw	72
  1109  000862  6E15               	movwf	(___flge@ff2+2)^0,c
  1110  000864  0E42               	movlw	66
  1111  000866  6E16               	movwf	(___flge@ff2+3)^0,c
  1112  000868  EC6C  F00F         	call	___flge	;wreg free
  1113  00086C  A0D8               	btfss	status,0,c
  1114  00086E  EF3B  F004         	goto	u2351
  1115  000872  EF3E  F004         	goto	u2350
  1116  000876                     u2351:
  1117  000876  FFFF               	dw	65535	; assembler added errata NOP
  1118  000878  EF12  F004         	goto	l2583
  1119  00087C                     u2350:
  1120  00087C                     l2589:
  1121  00087C  FFFF               	dw	65535	; assembler added errata NOP
  1122  00087E                     
  1123                           ;main.c: 355:     for(int i = 0; i<(10 -5); i++){Y_axis(1);}
  1124  00087E  0E00               	movlw	0
  1125  000880  6E2A               	movwf	(pickandplace_sequence@i_492+1)^0,c
  1126  000882  0E00               	movlw	0
  1127  000884  6E29               	movwf	pickandplace_sequence@i_492^0,c
  1128  000886                     l2607:
  1129  000886  FFFF               	dw	65535	; assembler added errata NOP
  1130  000888  0E01               	movlw	1
  1131  00088A  EC00  F010         	call	_Y_axis
  1132  00088E  4A29               	infsnz	pickandplace_sequence@i_492^0,f,c
  1133  000890  2A2A               	incf	(pickandplace_sequence@i_492+1)^0,f,c
  1134  000892  BE2A               	btfsc	(pickandplace_sequence@i_492+1)^0,7,c
  1135  000894  EF55  F004         	goto	u2361
  1136  000898  502A               	movf	(pickandplace_sequence@i_492+1)^0,w,c
  1137  00089A  E10A               	bnz	u2360
  1138  00089C  0E05               	movlw	5
  1139  00089E  5C29               	subwf	pickandplace_sequence@i_492^0,w,c
  1140  0008A0  A0D8               	btfss	status,0,c
  1141  0008A2  EF55  F004         	goto	u2361
  1142  0008A6  EF58  F004         	goto	u2360
  1143  0008AA                     u2361:
  1144  0008AA  FFFF               	dw	65535	; assembler added errata NOP
  1145  0008AC  EF43  F004         	goto	l2607
  1146  0008B0                     u2360:
  1147  0008B0  FFFF               	dw	65535	; assembler added errata NOP
  1148  0008B2                     
  1149                           ;main.c: 356:     for(int i = 0; i<((90 -180)/3.6); i++){Twister(0);}
  1150  0008B2  0E00               	movlw	0
  1151  0008B4  6E2C               	movwf	(pickandplace_sequence@i_493+1)^0,c
  1152  0008B6  0E00               	movlw	0
  1153  0008B8  6E2B               	movwf	pickandplace_sequence@i_493^0,c
  1154  0008BA  C02B  F001         	movff	pickandplace_sequence@i_493,___xxtofl@val
  1155  0008BE  C02C  F002         	movff	pickandplace_sequence@i_493+1,___xxtofl@val+1
  1156  0008C2  0E00               	movlw	0
  1157  0008C4  BE02               	btfsc	(___xxtofl@val+1)^0,7,c
  1158  0008C6  0EFF               	movlw	-1
  1159  0008C8  6E03               	movwf	(___xxtofl@val+2)^0,c
  1160  0008CA  6E04               	movwf	(___xxtofl@val+3)^0,c
  1161  0008CC  0E01               	movlw	1
  1162  0008CE  EC41  F00D         	call	___xxtofl
  1163  0008D2  C001  F00F         	movff	?___xxtofl,___flge@ff1
  1164  0008D6  C002  F010         	movff	?___xxtofl+1,___flge@ff1+1
  1165  0008DA  C003  F011         	movff	?___xxtofl+2,___flge@ff1+2
  1166  0008DE  C004  F012         	movff	?___xxtofl+3,___flge@ff1+3
  1167  0008E2  0E00               	movlw	0
  1168  0008E4  6E13               	movwf	___flge@ff2^0,c
  1169  0008E6  0E00               	movlw	0
  1170  0008E8  6E14               	movwf	(___flge@ff2+1)^0,c
  1171  0008EA  0EC8               	movlw	200
  1172  0008EC  6E15               	movwf	(___flge@ff2+2)^0,c
  1173  0008EE  0EC1               	movlw	193
  1174  0008F0  6E16               	movwf	(___flge@ff2+3)^0,c
  1175  0008F2  EC6C  F00F         	call	___flge	;wreg free
  1176  0008F6  A0D8               	btfss	status,0,c
  1177  0008F8  EF80  F004         	goto	u2371
  1178  0008FC  EF83  F004         	goto	u2370
  1179  000900                     u2371:
  1180  000900  FFFF               	dw	65535	; assembler added errata NOP
  1181  000902  EF86  F004         	goto	l2619
  1182  000906                     u2370:
  1183  000906  FFFF               	dw	65535	; assembler added errata NOP
  1184  000908  EFB2  F004         	goto	l2625
  1185  00090C                     l2619:
  1186  00090C  FFFF               	dw	65535	; assembler added errata NOP
  1187  00090E  0E00               	movlw	0
  1188  000910  ECD4  F010         	call	_Twister
  1189  000914  4A2B               	infsnz	pickandplace_sequence@i_493^0,f,c
  1190  000916  2A2C               	incf	(pickandplace_sequence@i_493+1)^0,f,c
  1191  000918  C02B  F001         	movff	pickandplace_sequence@i_493,___xxtofl@val
  1192  00091C  C02C  F002         	movff	pickandplace_sequence@i_493+1,___xxtofl@val+1
  1193  000920  0E00               	movlw	0
  1194  000922  BE02               	btfsc	(___xxtofl@val+1)^0,7,c
  1195  000924  0EFF               	movlw	-1
  1196  000926  6E03               	movwf	(___xxtofl@val+2)^0,c
  1197  000928  6E04               	movwf	(___xxtofl@val+3)^0,c
  1198  00092A  0E01               	movlw	1
  1199  00092C  EC41  F00D         	call	___xxtofl
  1200  000930  C001  F00F         	movff	?___xxtofl,___flge@ff1
  1201  000934  C002  F010         	movff	?___xxtofl+1,___flge@ff1+1
  1202  000938  C003  F011         	movff	?___xxtofl+2,___flge@ff1+2
  1203  00093C  C004  F012         	movff	?___xxtofl+3,___flge@ff1+3
  1204  000940  0E00               	movlw	0
  1205  000942  6E13               	movwf	___flge@ff2^0,c
  1206  000944  0E00               	movlw	0
  1207  000946  6E14               	movwf	(___flge@ff2+1)^0,c
  1208  000948  0EC8               	movlw	200
  1209  00094A  6E15               	movwf	(___flge@ff2+2)^0,c
  1210  00094C  0EC1               	movlw	193
  1211  00094E  6E16               	movwf	(___flge@ff2+3)^0,c
  1212  000950  EC6C  F00F         	call	___flge	;wreg free
  1213  000954  A0D8               	btfss	status,0,c
  1214  000956  EFAF  F004         	goto	u2381
  1215  00095A  EFB2  F004         	goto	u2380
  1216  00095E                     u2381:
  1217  00095E  FFFF               	dw	65535	; assembler added errata NOP
  1218  000960  EF86  F004         	goto	l2619
  1219  000964                     u2380:
  1220  000964                     l2625:
  1221  000964  FFFF               	dw	65535	; assembler added errata NOP
  1222                           
  1223                           ;main.c: 361:     for(int i = 0; i<(10 -3); i++){X_axis(1);}
  1224  000966  0E00               	movlw	0
  1225  000968  6E2E               	movwf	(pickandplace_sequence@i_494+1)^0,c
  1226  00096A  0E00               	movlw	0
  1227  00096C  6E2D               	movwf	pickandplace_sequence@i_494^0,c
  1228  00096E                     l2627:
  1229  00096E  FFFF               	dw	65535	; assembler added errata NOP
  1230  000970  BE2E               	btfsc	(pickandplace_sequence@i_494+1)^0,7,c
  1231  000972  EFC4  F004         	goto	u2391
  1232  000976  502E               	movf	(pickandplace_sequence@i_494+1)^0,w,c
  1233  000978  E10A               	bnz	u2390
  1234  00097A  0E07               	movlw	7
  1235  00097C  5C2D               	subwf	pickandplace_sequence@i_494^0,w,c
  1236  00097E  A0D8               	btfss	status,0,c
  1237  000980  EFC4  F004         	goto	u2391
  1238  000984  EFC7  F004         	goto	u2390
  1239  000988                     u2391:
  1240  000988  FFFF               	dw	65535	; assembler added errata NOP
  1241  00098A  EFCA  F004         	goto	l2631
  1242  00098E                     u2390:
  1243  00098E  FFFF               	dw	65535	; assembler added errata NOP
  1244  000990  EFD2  F004         	goto	l2637
  1245  000994                     l2631:
  1246  000994  FFFF               	dw	65535	; assembler added errata NOP
  1247  000996  0E01               	movlw	1
  1248  000998  EC6A  F010         	call	_X_axis
  1249  00099C  4A2D               	infsnz	pickandplace_sequence@i_494^0,f,c
  1250  00099E  2A2E               	incf	(pickandplace_sequence@i_494+1)^0,f,c
  1251  0009A0  EFB7  F004         	goto	l2627
  1252  0009A4                     l2637:
  1253  0009A4  FFFF               	dw	65535	; assembler added errata NOP
  1254                           
  1255                           ;main.c: 362:     for(int i = 0; i<(5 -15); i++){Y_axis(0);}
  1256  0009A6  0E00               	movlw	0
  1257  0009A8  6E30               	movwf	(pickandplace_sequence@i_495+1)^0,c
  1258  0009AA  0E00               	movlw	0
  1259  0009AC  6E2F               	movwf	pickandplace_sequence@i_495^0,c
  1260  0009AE                     l2639:
  1261  0009AE  FFFF               	dw	65535	; assembler added errata NOP
  1262  0009B0  AE30               	btfss	(pickandplace_sequence@i_495+1)^0,7,c
  1263  0009B2  EFE7  F004         	goto	u2400
  1264  0009B6  0EF6               	movlw	246
  1265  0009B8  5C2F               	subwf	pickandplace_sequence@i_495^0,w,c
  1266  0009BA  0EFF               	movlw	255
  1267  0009BC  5830               	subwfb	(pickandplace_sequence@i_495+1)^0,w,c
  1268  0009BE  A0D8               	btfss	status,0,c
  1269  0009C0  EFE4  F004         	goto	u2401
  1270  0009C4  EFE7  F004         	goto	u2400
  1271  0009C8                     u2401:
  1272  0009C8  FFFF               	dw	65535	; assembler added errata NOP
  1273  0009CA  EFEA  F004         	goto	l2643
  1274  0009CE                     u2400:
  1275  0009CE  FFFF               	dw	65535	; assembler added errata NOP
  1276  0009D0  EFF2  F004         	goto	l2649
  1277  0009D4                     l2643:
  1278  0009D4  FFFF               	dw	65535	; assembler added errata NOP
  1279  0009D6  0E00               	movlw	0
  1280  0009D8  EC00  F010         	call	_Y_axis
  1281  0009DC  4A2F               	infsnz	pickandplace_sequence@i_495^0,f,c
  1282  0009DE  2A30               	incf	(pickandplace_sequence@i_495+1)^0,f,c
  1283  0009E0  EFD7  F004         	goto	l2639
  1284  0009E4                     l2649:
  1285  0009E4  FFFF               	dw	65535	; assembler added errata NOP
  1286                           
  1287                           ;main.c: 363:     for(int i = 0; i<((180 -90)/3.6); i++){Twister(1);}
  1288  0009E6  0E00               	movlw	0
  1289  0009E8  6E32               	movwf	(pickandplace_sequence@i_496+1)^0,c
  1290  0009EA  0E00               	movlw	0
  1291  0009EC  6E31               	movwf	pickandplace_sequence@i_496^0,c
  1292  0009EE  C031  F001         	movff	pickandplace_sequence@i_496,___xxtofl@val
  1293  0009F2  C032  F002         	movff	pickandplace_sequence@i_496+1,___xxtofl@val+1
  1294  0009F6  0E00               	movlw	0
  1295  0009F8  BE02               	btfsc	(___xxtofl@val+1)^0,7,c
  1296  0009FA  0EFF               	movlw	-1
  1297  0009FC  6E03               	movwf	(___xxtofl@val+2)^0,c
  1298  0009FE  6E04               	movwf	(___xxtofl@val+3)^0,c
  1299  000A00  0E01               	movlw	1
  1300  000A02  EC41  F00D         	call	___xxtofl
  1301  000A06  C001  F00F         	movff	?___xxtofl,___flge@ff1
  1302  000A0A  C002  F010         	movff	?___xxtofl+1,___flge@ff1+1
  1303  000A0E  C003  F011         	movff	?___xxtofl+2,___flge@ff1+2
  1304  000A12  C004  F012         	movff	?___xxtofl+3,___flge@ff1+3
  1305  000A16  0E00               	movlw	0
  1306  000A18  6E13               	movwf	___flge@ff2^0,c
  1307  000A1A  0E00               	movlw	0
  1308  000A1C  6E14               	movwf	(___flge@ff2+1)^0,c
  1309  000A1E  0EC8               	movlw	200
  1310  000A20  6E15               	movwf	(___flge@ff2+2)^0,c
  1311  000A22  0E41               	movlw	65
  1312  000A24  6E16               	movwf	(___flge@ff2+3)^0,c
  1313  000A26  EC6C  F00F         	call	___flge	;wreg free
  1314  000A2A  A0D8               	btfss	status,0,c
  1315  000A2C  EF1A  F005         	goto	u2411
  1316  000A30  EF1D  F005         	goto	u2410
  1317  000A34                     u2411:
  1318  000A34  FFFF               	dw	65535	; assembler added errata NOP
  1319  000A36  EF20  F005         	goto	l2655
  1320  000A3A                     u2410:
  1321  000A3A  FFFF               	dw	65535	; assembler added errata NOP
  1322  000A3C  EF4C  F005         	goto	l2661
  1323  000A40                     l2655:
  1324  000A40  FFFF               	dw	65535	; assembler added errata NOP
  1325  000A42  0E01               	movlw	1
  1326  000A44  ECD4  F010         	call	_Twister
  1327  000A48  4A31               	infsnz	pickandplace_sequence@i_496^0,f,c
  1328  000A4A  2A32               	incf	(pickandplace_sequence@i_496+1)^0,f,c
  1329  000A4C  C031  F001         	movff	pickandplace_sequence@i_496,___xxtofl@val
  1330  000A50  C032  F002         	movff	pickandplace_sequence@i_496+1,___xxtofl@val+1
  1331  000A54  0E00               	movlw	0
  1332  000A56  BE02               	btfsc	(___xxtofl@val+1)^0,7,c
  1333  000A58  0EFF               	movlw	-1
  1334  000A5A  6E03               	movwf	(___xxtofl@val+2)^0,c
  1335  000A5C  6E04               	movwf	(___xxtofl@val+3)^0,c
  1336  000A5E  0E01               	movlw	1
  1337  000A60  EC41  F00D         	call	___xxtofl
  1338  000A64  C001  F00F         	movff	?___xxtofl,___flge@ff1
  1339  000A68  C002  F010         	movff	?___xxtofl+1,___flge@ff1+1
  1340  000A6C  C003  F011         	movff	?___xxtofl+2,___flge@ff1+2
  1341  000A70  C004  F012         	movff	?___xxtofl+3,___flge@ff1+3
  1342  000A74  0E00               	movlw	0
  1343  000A76  6E13               	movwf	___flge@ff2^0,c
  1344  000A78  0E00               	movlw	0
  1345  000A7A  6E14               	movwf	(___flge@ff2+1)^0,c
  1346  000A7C  0EC8               	movlw	200
  1347  000A7E  6E15               	movwf	(___flge@ff2+2)^0,c
  1348  000A80  0E41               	movlw	65
  1349  000A82  6E16               	movwf	(___flge@ff2+3)^0,c
  1350  000A84  EC6C  F00F         	call	___flge	;wreg free
  1351  000A88  A0D8               	btfss	status,0,c
  1352  000A8A  EF49  F005         	goto	u2421
  1353  000A8E  EF4C  F005         	goto	u2420
  1354  000A92                     u2421:
  1355  000A92  FFFF               	dw	65535	; assembler added errata NOP
  1356  000A94  EF20  F005         	goto	l2655
  1357  000A98                     u2420:
  1358  000A98                     l2661:
  1359  000A98  FFFF               	dw	65535	; assembler added errata NOP
  1360                           
  1361                           ;main.c: 368:     for(int i = 0; i<(3 -16); i++){X_axis(0);}
  1362  000A9A  0E00               	movlw	0
  1363  000A9C  6E34               	movwf	(pickandplace_sequence@i_497+1)^0,c
  1364  000A9E  0E00               	movlw	0
  1365  000AA0  6E33               	movwf	pickandplace_sequence@i_497^0,c
  1366  000AA2                     l2663:
  1367  000AA2  FFFF               	dw	65535	; assembler added errata NOP
  1368  000AA4  AE34               	btfss	(pickandplace_sequence@i_497+1)^0,7,c
  1369  000AA6  EF61  F005         	goto	u2430
  1370  000AAA  0EF3               	movlw	243
  1371  000AAC  5C33               	subwf	pickandplace_sequence@i_497^0,w,c
  1372  000AAE  0EFF               	movlw	255
  1373  000AB0  5834               	subwfb	(pickandplace_sequence@i_497+1)^0,w,c
  1374  000AB2  A0D8               	btfss	status,0,c
  1375  000AB4  EF5E  F005         	goto	u2431
  1376  000AB8  EF61  F005         	goto	u2430
  1377  000ABC                     u2431:
  1378  000ABC  FFFF               	dw	65535	; assembler added errata NOP
  1379  000ABE  EF64  F005         	goto	l2667
  1380  000AC2                     u2430:
  1381  000AC2  FFFF               	dw	65535	; assembler added errata NOP
  1382  000AC4  EF6C  F005         	goto	l2673
  1383  000AC8                     l2667:
  1384  000AC8  FFFF               	dw	65535	; assembler added errata NOP
  1385  000ACA  0E00               	movlw	0
  1386  000ACC  EC6A  F010         	call	_X_axis
  1387  000AD0  4A33               	infsnz	pickandplace_sequence@i_497^0,f,c
  1388  000AD2  2A34               	incf	(pickandplace_sequence@i_497+1)^0,f,c
  1389  000AD4  EF51  F005         	goto	l2663
  1390  000AD8                     l2673:
  1391  000AD8  FFFF               	dw	65535	; assembler added errata NOP
  1392                           
  1393                           ;main.c: 369:     for(int i = 0; i<(15 -14); i++){Y_axis(1);}
  1394  000ADA  0E00               	movlw	0
  1395  000ADC  6E36               	movwf	(pickandplace_sequence@i_498+1)^0,c
  1396  000ADE  0E00               	movlw	0
  1397  000AE0  6E35               	movwf	pickandplace_sequence@i_498^0,c
  1398  000AE2                     l2675:
  1399  000AE2  FFFF               	dw	65535	; assembler added errata NOP
  1400  000AE4  BE36               	btfsc	(pickandplace_sequence@i_498+1)^0,7,c
  1401  000AE6  EF7D  F005         	goto	u2441
  1402  000AEA  5036               	movf	(pickandplace_sequence@i_498+1)^0,w,c
  1403  000AEC  E109               	bnz	u2440
  1404  000AEE  0435               	decf	pickandplace_sequence@i_498^0,w,c
  1405  000AF0  A0D8               	btfss	status,0,c
  1406  000AF2  EF7D  F005         	goto	u2441
  1407  000AF6  EF80  F005         	goto	u2440
  1408  000AFA                     u2441:
  1409  000AFA  FFFF               	dw	65535	; assembler added errata NOP
  1410  000AFC  EF83  F005         	goto	l2679
  1411  000B00                     u2440:
  1412  000B00  FFFF               	dw	65535	; assembler added errata NOP
  1413  000B02  EF8B  F005         	goto	l2685
  1414  000B06                     l2679:
  1415  000B06  FFFF               	dw	65535	; assembler added errata NOP
  1416  000B08  0E01               	movlw	1
  1417  000B0A  EC00  F010         	call	_Y_axis
  1418  000B0E  4A35               	infsnz	pickandplace_sequence@i_498^0,f,c
  1419  000B10  2A36               	incf	(pickandplace_sequence@i_498+1)^0,f,c
  1420  000B12  EF71  F005         	goto	l2675
  1421  000B16                     l2685:
  1422  000B16  FFFF               	dw	65535	; assembler added errata NOP
  1423                           
  1424                           ;main.c: 370:     for(int i = 0; i<((90 -270)/3.6); i++){Twister(0);}
  1425  000B18  0E00               	movlw	0
  1426  000B1A  6E38               	movwf	(pickandplace_sequence@i_499+1)^0,c
  1427  000B1C  0E00               	movlw	0
  1428  000B1E  6E37               	movwf	pickandplace_sequence@i_499^0,c
  1429  000B20  C037  F001         	movff	pickandplace_sequence@i_499,___xxtofl@val
  1430  000B24  C038  F002         	movff	pickandplace_sequence@i_499+1,___xxtofl@val+1
  1431  000B28  0E00               	movlw	0
  1432  000B2A  BE02               	btfsc	(___xxtofl@val+1)^0,7,c
  1433  000B2C  0EFF               	movlw	-1
  1434  000B2E  6E03               	movwf	(___xxtofl@val+2)^0,c
  1435  000B30  6E04               	movwf	(___xxtofl@val+3)^0,c
  1436  000B32  0E01               	movlw	1
  1437  000B34  EC41  F00D         	call	___xxtofl
  1438  000B38  C001  F00F         	movff	?___xxtofl,___flge@ff1
  1439  000B3C  C002  F010         	movff	?___xxtofl+1,___flge@ff1+1
  1440  000B40  C003  F011         	movff	?___xxtofl+2,___flge@ff1+2
  1441  000B44  C004  F012         	movff	?___xxtofl+3,___flge@ff1+3
  1442  000B48  0E00               	movlw	0
  1443  000B4A  6E13               	movwf	___flge@ff2^0,c
  1444  000B4C  0E00               	movlw	0
  1445  000B4E  6E14               	movwf	(___flge@ff2+1)^0,c
  1446  000B50  0E48               	movlw	72
  1447  000B52  6E15               	movwf	(___flge@ff2+2)^0,c
  1448  000B54  0EC2               	movlw	194
  1449  000B56  6E16               	movwf	(___flge@ff2+3)^0,c
  1450  000B58  EC6C  F00F         	call	___flge	;wreg free
  1451  000B5C  A0D8               	btfss	status,0,c
  1452  000B5E  EFB3  F005         	goto	u2451
  1453  000B62  EFB6  F005         	goto	u2450
  1454  000B66                     u2451:
  1455  000B66  FFFF               	dw	65535	; assembler added errata NOP
  1456  000B68  EFB9  F005         	goto	l2691
  1457  000B6C                     u2450:
  1458  000B6C  FFFF               	dw	65535	; assembler added errata NOP
  1459  000B6E  EFE5  F005         	goto	l2697
  1460  000B72                     l2691:
  1461  000B72  FFFF               	dw	65535	; assembler added errata NOP
  1462  000B74  0E00               	movlw	0
  1463  000B76  ECD4  F010         	call	_Twister
  1464  000B7A  4A37               	infsnz	pickandplace_sequence@i_499^0,f,c
  1465  000B7C  2A38               	incf	(pickandplace_sequence@i_499+1)^0,f,c
  1466  000B7E  C037  F001         	movff	pickandplace_sequence@i_499,___xxtofl@val
  1467  000B82  C038  F002         	movff	pickandplace_sequence@i_499+1,___xxtofl@val+1
  1468  000B86  0E00               	movlw	0
  1469  000B88  BE02               	btfsc	(___xxtofl@val+1)^0,7,c
  1470  000B8A  0EFF               	movlw	-1
  1471  000B8C  6E03               	movwf	(___xxtofl@val+2)^0,c
  1472  000B8E  6E04               	movwf	(___xxtofl@val+3)^0,c
  1473  000B90  0E01               	movlw	1
  1474  000B92  EC41  F00D         	call	___xxtofl
  1475  000B96  C001  F00F         	movff	?___xxtofl,___flge@ff1
  1476  000B9A  C002  F010         	movff	?___xxtofl+1,___flge@ff1+1
  1477  000B9E  C003  F011         	movff	?___xxtofl+2,___flge@ff1+2
  1478  000BA2  C004  F012         	movff	?___xxtofl+3,___flge@ff1+3
  1479  000BA6  0E00               	movlw	0
  1480  000BA8  6E13               	movwf	___flge@ff2^0,c
  1481  000BAA  0E00               	movlw	0
  1482  000BAC  6E14               	movwf	(___flge@ff2+1)^0,c
  1483  000BAE  0E48               	movlw	72
  1484  000BB0  6E15               	movwf	(___flge@ff2+2)^0,c
  1485  000BB2  0EC2               	movlw	194
  1486  000BB4  6E16               	movwf	(___flge@ff2+3)^0,c
  1487  000BB6  EC6C  F00F         	call	___flge	;wreg free
  1488  000BBA  A0D8               	btfss	status,0,c
  1489  000BBC  EFE2  F005         	goto	u2461
  1490  000BC0  EFE5  F005         	goto	u2460
  1491  000BC4                     u2461:
  1492  000BC4  FFFF               	dw	65535	; assembler added errata NOP
  1493  000BC6  EFB9  F005         	goto	l2691
  1494  000BCA                     u2460:
  1495  000BCA                     l2697:
  1496  000BCA  FFFF               	dw	65535	; assembler added errata NOP
  1497                           
  1498                           ;main.c: 375:     for(int i = 0; i<(16); i++){X_axis(1);}
  1499  000BCC  0E00               	movlw	0
  1500  000BCE  6E3A               	movwf	(pickandplace_sequence@i_500+1)^0,c
  1501  000BD0  0E00               	movlw	0
  1502  000BD2  6E39               	movwf	pickandplace_sequence@i_500^0,c
  1503  000BD4                     l2699:
  1504  000BD4  FFFF               	dw	65535	; assembler added errata NOP
  1505  000BD6  BE3A               	btfsc	(pickandplace_sequence@i_500+1)^0,7,c
  1506  000BD8  EFF7  F005         	goto	u2471
  1507  000BDC  503A               	movf	(pickandplace_sequence@i_500+1)^0,w,c
  1508  000BDE  E10A               	bnz	u2470
  1509  000BE0  0E10               	movlw	16
  1510  000BE2  5C39               	subwf	pickandplace_sequence@i_500^0,w,c
  1511  000BE4  A0D8               	btfss	status,0,c
  1512  000BE6  EFF7  F005         	goto	u2471
  1513  000BEA  EFFA  F005         	goto	u2470
  1514  000BEE                     u2471:
  1515  000BEE  FFFF               	dw	65535	; assembler added errata NOP
  1516  000BF0  EFFD  F005         	goto	l2703
  1517  000BF4                     u2470:
  1518  000BF4  FFFF               	dw	65535	; assembler added errata NOP
  1519  000BF6  EF05  F006         	goto	l2709
  1520  000BFA                     l2703:
  1521  000BFA  FFFF               	dw	65535	; assembler added errata NOP
  1522  000BFC  0E01               	movlw	1
  1523  000BFE  EC6A  F010         	call	_X_axis
  1524  000C02  4A39               	infsnz	pickandplace_sequence@i_500^0,f,c
  1525  000C04  2A3A               	incf	(pickandplace_sequence@i_500+1)^0,f,c
  1526  000C06  EFEA  F005         	goto	l2699
  1527  000C0A                     l2709:
  1528  000C0A  FFFF               	dw	65535	; assembler added errata NOP
  1529                           
  1530                           ;main.c: 376:     for(int i = 0; i<(14); i++){Y_axis(1);}
  1531  000C0C  0E00               	movlw	0
  1532  000C0E  6E3C               	movwf	(pickandplace_sequence@i_501+1)^0,c
  1533  000C10  0E00               	movlw	0
  1534  000C12  6E3B               	movwf	pickandplace_sequence@i_501^0,c
  1535  000C14                     l2711:
  1536  000C14  FFFF               	dw	65535	; assembler added errata NOP
  1537  000C16  BE3C               	btfsc	(pickandplace_sequence@i_501+1)^0,7,c
  1538  000C18  EF17  F006         	goto	u2481
  1539  000C1C  503C               	movf	(pickandplace_sequence@i_501+1)^0,w,c
  1540  000C1E  E10A               	bnz	u2480
  1541  000C20  0E0E               	movlw	14
  1542  000C22  5C3B               	subwf	pickandplace_sequence@i_501^0,w,c
  1543  000C24  A0D8               	btfss	status,0,c
  1544  000C26  EF17  F006         	goto	u2481
  1545  000C2A  EF1A  F006         	goto	u2480
  1546  000C2E                     u2481:
  1547  000C2E  FFFF               	dw	65535	; assembler added errata NOP
  1548  000C30  EF1D  F006         	goto	l2715
  1549  000C34                     u2480:
  1550  000C34  FFFF               	dw	65535	; assembler added errata NOP
  1551  000C36  EF25  F006         	goto	l172
  1552  000C3A                     l2715:
  1553  000C3A  FFFF               	dw	65535	; assembler added errata NOP
  1554  000C3C  0E01               	movlw	1
  1555  000C3E  EC00  F010         	call	_Y_axis
  1556  000C42  4A3B               	infsnz	pickandplace_sequence@i_501^0,f,c
  1557  000C44  2A3C               	incf	(pickandplace_sequence@i_501+1)^0,f,c
  1558  000C46  EF0A  F006         	goto	l2711
  1559  000C4A                     l172:
  1560  000C4A  FFFF               	dw	65535	; assembler added errata NOP
  1561  000C4C  0012               	return		;funcret
  1562  000C4E  FFFF               	dw	65535	; errata NOP
  1563  000C50                     __end_of_pickandplace_sequence:
  1564                           	callstack 0
  1565                           
  1566 ;; *************** function ___xxtofl *****************
  1567 ;; Defined at:
  1568 ;;		line 10 in file "/opt/microchip/xc8/v2.32/pic/sources/c99/common/xxtofl.c"
  1569 ;; Parameters:    Size  Location     Type
  1570 ;;  sign            1    wreg     unsigned char 
  1571 ;;  val             4    0[COMRAM] long 
  1572 ;; Auto vars:     Size  Location     Type
  1573 ;;  sign            1    8[COMRAM] unsigned char 
  1574 ;;  arg             4   10[COMRAM] unsigned long 
  1575 ;;  exp             1    9[COMRAM] unsigned char 
  1576 ;; Return value:  Size  Location     Type
  1577 ;;                  4    0[COMRAM] unsigned char 
  1578 ;; Registers used:
  1579 ;;		wreg, status,2, status,0
  1580 ;; Tracked objects:
  1581 ;;		On entry : 0/0
  1582 ;;		On exit  : 0/0
  1583 ;;		Unchanged: 0/0
  1584 ;; Data sizes:     COMRAM   BANK0   BANK1   BANK2   BANK3   BANK4   BANK5
  1585 ;;      Params:         4       0       0       0       0       0       0
  1586 ;;      Locals:         6       0       0       0       0       0       0
  1587 ;;      Temps:          4       0       0       0       0       0       0
  1588 ;;      Totals:        14       0       0       0       0       0       0
  1589 ;;Total ram usage:       14 bytes
  1590 ;; Hardware stack levels used: 1
  1591 ;; Hardware stack levels required when called: 1
  1592 ;; This function calls:
  1593 ;;		Nothing
  1594 ;; This function is called by:
  1595 ;;		_pickandplace_sequence
  1596 ;; This function uses a non-reentrant model
  1597 ;;
  1598                           
  1599                           	psect	text3
  1600  001A82                     __ptext3:
  1601                           	callstack 0
  1602  001A82                     ___xxtofl:
  1603                           	callstack 0
  1604  001A82  FFFF               	dw	65535	; assembler added errata NOP
  1605                           
  1606                           ;incstack = 0
  1607                           ;___xxtofl@sign stored from wreg
  1608  001A84  6E09               	movwf	___xxtofl@sign^0,c
  1609  001A86  5009               	movf	___xxtofl@sign^0,w,c
  1610  001A88  B4D8               	btfsc	status,2,c
  1611  001A8A  EF49  F00D         	goto	u2171
  1612  001A8E  EF4C  F00D         	goto	u2170
  1613  001A92                     u2171:
  1614  001A92  FFFF               	dw	65535	; assembler added errata NOP
  1615  001A94  EF71  F00D         	goto	l836
  1616  001A98                     u2170:
  1617  001A98  FFFF               	dw	65535	; assembler added errata NOP
  1618  001A9A  BE04               	btfsc	(___xxtofl@val+3)^0,7,c
  1619  001A9C  EF55  F00D         	goto	u2180
  1620  001AA0  EF52  F00D         	goto	u2181
  1621  001AA4                     u2181:
  1622  001AA4  FFFF               	dw	65535	; assembler added errata NOP
  1623  001AA6  EF71  F00D         	goto	l836
  1624  001AAA                     u2180:
  1625  001AAA  FFFF               	dw	65535	; assembler added errata NOP
  1626  001AAC  C001  F005         	movff	___xxtofl@val,??___xxtofl
  1627  001AB0  C002  F006         	movff	___xxtofl@val+1,??___xxtofl+1
  1628  001AB4  C003  F007         	movff	___xxtofl@val+2,??___xxtofl+2
  1629  001AB8  C004  F008         	movff	___xxtofl@val+3,??___xxtofl+3
  1630  001ABC  1E05               	comf	??___xxtofl^0,f,c
  1631  001ABE  1E06               	comf	(??___xxtofl+1)^0,f,c
  1632  001AC0  1E07               	comf	(??___xxtofl+2)^0,f,c
  1633  001AC2  1E08               	comf	(??___xxtofl+3)^0,f,c
  1634  001AC4  2A05               	incf	??___xxtofl^0,f,c
  1635  001AC6  0E00               	movlw	0
  1636  001AC8  2206               	addwfc	(??___xxtofl+1)^0,f,c
  1637  001ACA  2207               	addwfc	(??___xxtofl+2)^0,f,c
  1638  001ACC  2208               	addwfc	(??___xxtofl+3)^0,f,c
  1639  001ACE  C005  F00B         	movff	??___xxtofl,___xxtofl@arg
  1640  001AD2  C006  F00C         	movff	??___xxtofl+1,___xxtofl@arg+1
  1641  001AD6  C007  F00D         	movff	??___xxtofl+2,___xxtofl@arg+2
  1642  001ADA  C008  F00E         	movff	??___xxtofl+3,___xxtofl@arg+3
  1643  001ADE  EF7A  F00D         	goto	l2437
  1644  001AE2                     l836:
  1645  001AE2  FFFF               	dw	65535	; assembler added errata NOP
  1646  001AE4  C001  F00B         	movff	___xxtofl@val,___xxtofl@arg
  1647  001AE8  C002  F00C         	movff	___xxtofl@val+1,___xxtofl@arg+1
  1648  001AEC  C003  F00D         	movff	___xxtofl@val+2,___xxtofl@arg+2
  1649  001AF0  C004  F00E         	movff	___xxtofl@val+3,___xxtofl@arg+3
  1650  001AF4                     l2437:
  1651  001AF4  FFFF               	dw	65535	; assembler added errata NOP
  1652  001AF6  5001               	movf	___xxtofl@val^0,w,c
  1653  001AF8  1002               	iorwf	(___xxtofl@val+1)^0,w,c
  1654  001AFA  1003               	iorwf	(___xxtofl@val+2)^0,w,c
  1655  001AFC  1004               	iorwf	(___xxtofl@val+3)^0,w,c
  1656  001AFE  A4D8               	btfss	status,2,c
  1657  001B00  EF84  F00D         	goto	u2191
  1658  001B04  EF87  F00D         	goto	u2190
  1659  001B08                     u2191:
  1660  001B08  FFFF               	dw	65535	; assembler added errata NOP
  1661  001B0A  EF92  F00D         	goto	l2443
  1662  001B0E                     u2190:
  1663  001B0E  FFFF               	dw	65535	; assembler added errata NOP
  1664  001B10  0E00               	movlw	0
  1665  001B12  6E01               	movwf	?___xxtofl^0,c
  1666  001B14  0E00               	movlw	0
  1667  001B16  6E02               	movwf	(?___xxtofl+1)^0,c
  1668  001B18  0E00               	movlw	0
  1669  001B1A  6E03               	movwf	(?___xxtofl+2)^0,c
  1670  001B1C  0E00               	movlw	0
  1671  001B1E  6E04               	movwf	(?___xxtofl+3)^0,c
  1672  001B20  EF3A  F00E         	goto	l839
  1673  001B24                     l2443:
  1674  001B24  FFFF               	dw	65535	; assembler added errata NOP
  1675  001B26  0E96               	movlw	150
  1676  001B28  6E0A               	movwf	___xxtofl@exp^0,c
  1677  001B2A  EF9E  F00D         	goto	l2447
  1678  001B2E                     l2445:
  1679  001B2E  FFFF               	dw	65535	; assembler added errata NOP
  1680  001B30  2A0A               	incf	___xxtofl@exp^0,f,c
  1681  001B32  90D8               	bcf	status,0,c
  1682  001B34  320E               	rrcf	(___xxtofl@arg+3)^0,f,c
  1683  001B36  320D               	rrcf	(___xxtofl@arg+2)^0,f,c
  1684  001B38  320C               	rrcf	(___xxtofl@arg+1)^0,f,c
  1685  001B3A  320B               	rrcf	___xxtofl@arg^0,f,c
  1686  001B3C                     l2447:
  1687  001B3C  FFFF               	dw	65535	; assembler added errata NOP
  1688  001B3E  0E00               	movlw	0
  1689  001B40  140B               	andwf	___xxtofl@arg^0,w,c
  1690  001B42  6E05               	movwf	??___xxtofl^0,c
  1691  001B44  0E00               	movlw	0
  1692  001B46  140C               	andwf	(___xxtofl@arg+1)^0,w,c
  1693  001B48  6E06               	movwf	(??___xxtofl+1)^0,c
  1694  001B4A  0E00               	movlw	0
  1695  001B4C  140D               	andwf	(___xxtofl@arg+2)^0,w,c
  1696  001B4E  6E07               	movwf	(??___xxtofl+2)^0,c
  1697  001B50  0EFE               	movlw	254
  1698  001B52  140E               	andwf	(___xxtofl@arg+3)^0,w,c
  1699  001B54  6E08               	movwf	(??___xxtofl+3)^0,c
  1700  001B56  5005               	movf	??___xxtofl^0,w,c
  1701  001B58  1006               	iorwf	(??___xxtofl+1)^0,w,c
  1702  001B5A  1007               	iorwf	(??___xxtofl+2)^0,w,c
  1703  001B5C  1008               	iorwf	(??___xxtofl+3)^0,w,c
  1704  001B5E  A4D8               	btfss	status,2,c
  1705  001B60  EFB4  F00D         	goto	u2201
  1706  001B64  EFB7  F00D         	goto	u2200
  1707  001B68                     u2201:
  1708  001B68  FFFF               	dw	65535	; assembler added errata NOP
  1709  001B6A  EF97  F00D         	goto	l2445
  1710  001B6E                     u2200:
  1711  001B6E  FFFF               	dw	65535	; assembler added errata NOP
  1712  001B70  EFC7  F00D         	goto	l843
  1713  001B74                     l2449:
  1714  001B74  FFFF               	dw	65535	; assembler added errata NOP
  1715  001B76  2A0A               	incf	___xxtofl@exp^0,f,c
  1716  001B78  0E01               	movlw	1
  1717  001B7A  260B               	addwf	___xxtofl@arg^0,f,c
  1718  001B7C  0E00               	movlw	0
  1719  001B7E  220C               	addwfc	(___xxtofl@arg+1)^0,f,c
  1720  001B80  220D               	addwfc	(___xxtofl@arg+2)^0,f,c
  1721  001B82  220E               	addwfc	(___xxtofl@arg+3)^0,f,c
  1722  001B84  90D8               	bcf	status,0,c
  1723  001B86  320E               	rrcf	(___xxtofl@arg+3)^0,f,c
  1724  001B88  320D               	rrcf	(___xxtofl@arg+2)^0,f,c
  1725  001B8A  320C               	rrcf	(___xxtofl@arg+1)^0,f,c
  1726  001B8C  320B               	rrcf	___xxtofl@arg^0,f,c
  1727  001B8E                     l843:
  1728  001B8E  FFFF               	dw	65535	; assembler added errata NOP
  1729  001B90  0E00               	movlw	0
  1730  001B92  140B               	andwf	___xxtofl@arg^0,w,c
  1731  001B94  6E05               	movwf	??___xxtofl^0,c
  1732  001B96  0E00               	movlw	0
  1733  001B98  140C               	andwf	(___xxtofl@arg+1)^0,w,c
  1734  001B9A  6E06               	movwf	(??___xxtofl+1)^0,c
  1735  001B9C  0E00               	movlw	0
  1736  001B9E  140D               	andwf	(___xxtofl@arg+2)^0,w,c
  1737  001BA0  6E07               	movwf	(??___xxtofl+2)^0,c
  1738  001BA2  0EFF               	movlw	255
  1739  001BA4  140E               	andwf	(___xxtofl@arg+3)^0,w,c
  1740  001BA6  6E08               	movwf	(??___xxtofl+3)^0,c
  1741  001BA8  5005               	movf	??___xxtofl^0,w,c
  1742  001BAA  1006               	iorwf	(??___xxtofl+1)^0,w,c
  1743  001BAC  1007               	iorwf	(??___xxtofl+2)^0,w,c
  1744  001BAE  1008               	iorwf	(??___xxtofl+3)^0,w,c
  1745  001BB0  A4D8               	btfss	status,2,c
  1746  001BB2  EFDD  F00D         	goto	u2211
  1747  001BB6  EFE0  F00D         	goto	u2210
  1748  001BBA                     u2211:
  1749  001BBA  FFFF               	dw	65535	; assembler added errata NOP
  1750  001BBC  EFBA  F00D         	goto	l2449
  1751  001BC0                     u2210:
  1752  001BC0  FFFF               	dw	65535	; assembler added errata NOP
  1753  001BC2  EFEA  F00D         	goto	l2457
  1754  001BC6                     l2455:
  1755  001BC6  FFFF               	dw	65535	; assembler added errata NOP
  1756  001BC8  060A               	decf	___xxtofl@exp^0,f,c
  1757  001BCA  90D8               	bcf	status,0,c
  1758  001BCC  360B               	rlcf	___xxtofl@arg^0,f,c
  1759  001BCE  360C               	rlcf	(___xxtofl@arg+1)^0,f,c
  1760  001BD0  360D               	rlcf	(___xxtofl@arg+2)^0,f,c
  1761  001BD2  360E               	rlcf	(___xxtofl@arg+3)^0,f,c
  1762  001BD4                     l2457:
  1763  001BD4  FFFF               	dw	65535	; assembler added errata NOP
  1764  001BD6  BE0D               	btfsc	(___xxtofl@arg+2)^0,7,c
  1765  001BD8  EFF0  F00D         	goto	u2221
  1766  001BDC  EFF3  F00D         	goto	u2220
  1767  001BE0                     u2221:
  1768  001BE0  FFFF               	dw	65535	; assembler added errata NOP
  1769  001BE2  EFFD  F00D         	goto	l850
  1770  001BE6                     u2220:
  1771  001BE6  FFFF               	dw	65535	; assembler added errata NOP
  1772  001BE8  0E02               	movlw	2
  1773  001BEA  600A               	cpfslt	___xxtofl@exp^0,c
  1774  001BEC  EFFA  F00D         	goto	u2231
  1775  001BF0  EFFD  F00D         	goto	u2230
  1776  001BF4                     u2231:
  1777  001BF4  FFFF               	dw	65535	; assembler added errata NOP
  1778  001BF6  EFE3  F00D         	goto	l2455
  1779  001BFA                     u2230:
  1780  001BFA                     l850:
  1781  001BFA  FFFF               	dw	65535	; assembler added errata NOP
  1782  001BFC  B00A               	btfsc	___xxtofl@exp^0,0,c
  1783  001BFE  EF03  F00E         	goto	u2241
  1784  001C02  EF06  F00E         	goto	u2240
  1785  001C06                     u2241:
  1786  001C06  FFFF               	dw	65535	; assembler added errata NOP
  1787  001C08  EF08  F00E         	goto	l2463
  1788  001C0C                     u2240:
  1789  001C0C  FFFF               	dw	65535	; assembler added errata NOP
  1790  001C0E  9E0D               	bcf	(___xxtofl@arg+2)^0,7,c
  1791  001C10                     l2463:
  1792  001C10  FFFF               	dw	65535	; assembler added errata NOP
  1793  001C12  90D8               	bcf	status,0,c
  1794  001C14  320A               	rrcf	___xxtofl@exp^0,f,c
  1795  001C16  C00A  F005         	movff	___xxtofl@exp,??___xxtofl
  1796  001C1A  6A06               	clrf	(??___xxtofl+1)^0,c
  1797  001C1C  6A07               	clrf	(??___xxtofl+2)^0,c
  1798  001C1E  6A08               	clrf	(??___xxtofl+3)^0,c
  1799  001C20  C005  F008         	movff	??___xxtofl,??___xxtofl+3
  1800  001C24  6A07               	clrf	(??___xxtofl+2)^0,c
  1801  001C26  6A06               	clrf	(??___xxtofl+1)^0,c
  1802  001C28  6A05               	clrf	??___xxtofl^0,c
  1803  001C2A  5005               	movf	??___xxtofl^0,w,c
  1804  001C2C  120B               	iorwf	___xxtofl@arg^0,f,c
  1805  001C2E  5006               	movf	(??___xxtofl+1)^0,w,c
  1806  001C30  120C               	iorwf	(___xxtofl@arg+1)^0,f,c
  1807  001C32  5007               	movf	(??___xxtofl+2)^0,w,c
  1808  001C34  120D               	iorwf	(___xxtofl@arg+2)^0,f,c
  1809  001C36  5008               	movf	(??___xxtofl+3)^0,w,c
  1810  001C38  120E               	iorwf	(___xxtofl@arg+3)^0,f,c
  1811  001C3A  5009               	movf	___xxtofl@sign^0,w,c
  1812  001C3C  B4D8               	btfsc	status,2,c
  1813  001C3E  EF23  F00E         	goto	u2251
  1814  001C42  EF26  F00E         	goto	u2250
  1815  001C46                     u2251:
  1816  001C46  FFFF               	dw	65535	; assembler added errata NOP
  1817  001C48  EF31  F00E         	goto	l2473
  1818  001C4C                     u2250:
  1819  001C4C  FFFF               	dw	65535	; assembler added errata NOP
  1820  001C4E  BE04               	btfsc	(___xxtofl@val+3)^0,7,c
  1821  001C50  EF2F  F00E         	goto	u2260
  1822  001C54  EF2C  F00E         	goto	u2261
  1823  001C58                     u2261:
  1824  001C58  FFFF               	dw	65535	; assembler added errata NOP
  1825  001C5A  EF31  F00E         	goto	l2473
  1826  001C5E                     u2260:
  1827  001C5E  FFFF               	dw	65535	; assembler added errata NOP
  1828  001C60  8E0E               	bsf	(___xxtofl@arg+3)^0,7,c
  1829  001C62                     l2473:
  1830  001C62  FFFF               	dw	65535	; assembler added errata NOP
  1831  001C64  C00B  F001         	movff	___xxtofl@arg,?___xxtofl
  1832  001C68  C00C  F002         	movff	___xxtofl@arg+1,?___xxtofl+1
  1833  001C6C  C00D  F003         	movff	___xxtofl@arg+2,?___xxtofl+2
  1834  001C70  C00E  F004         	movff	___xxtofl@arg+3,?___xxtofl+3
  1835  001C74                     l839:
  1836  001C74  FFFF               	dw	65535	; assembler added errata NOP
  1837  001C76  0012               	return		;funcret
  1838  001C78  FFFF               	dw	65535	; errata NOP
  1839  001C7A                     __end_of___xxtofl:
  1840                           	callstack 0
  1841                           
  1842 ;; *************** function _Y_axis *****************
  1843 ;; Defined at:
  1844 ;;		line 242 in file "main.c"
  1845 ;; Parameters:    Size  Location     Type
  1846 ;;  direction       1    wreg     unsigned char 
  1847 ;; Auto vars:     Size  Location     Type
  1848 ;;  direction       1    6[COMRAM] unsigned char 
  1849 ;; Return value:  Size  Location     Type
  1850 ;;                  1    wreg      void 
  1851 ;; Registers used:
  1852 ;;		wreg, status,2, status,0, cstack
  1853 ;; Tracked objects:
  1854 ;;		On entry : 0/0
  1855 ;;		On exit  : 0/0
  1856 ;;		Unchanged: 0/0
  1857 ;; Data sizes:     COMRAM   BANK0   BANK1   BANK2   BANK3   BANK4   BANK5
  1858 ;;      Params:         0       0       0       0       0       0       0
  1859 ;;      Locals:         1       0       0       0       0       0       0
  1860 ;;      Temps:          0       0       0       0       0       0       0
  1861 ;;      Totals:         1       0       0       0       0       0       0
  1862 ;;Total ram usage:        1 bytes
  1863 ;; Hardware stack levels used: 1
  1864 ;; Hardware stack levels required when called: 2
  1865 ;; This function calls:
  1866 ;;		_ms_delay
  1867 ;; This function is called by:
  1868 ;;		_pickandplace_sequence
  1869 ;; This function uses a non-reentrant model
  1870 ;;
  1871                           
  1872                           	psect	text4
  1873  002000                     __ptext4:
  1874                           	callstack 0
  1875  002000                     _Y_axis:
  1876                           	callstack 0
  1877  002000  FFFF               	dw	65535	; assembler added errata NOP
  1878                           
  1879                           ;incstack = 0
  1880                           ;Y_axis@direction stored from wreg
  1881  002002  6E07               	movwf	Y_axis@direction^0,c
  1882  002004                     
  1883                           ;main.c: 243:     if (direction == 1){
  1884  002004  0407               	decf	Y_axis@direction^0,w,c
  1885  002006  A4D8               	btfss	status,2,c
  1886  002008  EF08  F010         	goto	u2061
  1887  00200C  EF0B  F010         	goto	u2060
  1888  002010                     u2061:
  1889  002010  FFFF               	dw	65535	; assembler added errata NOP
  1890  002012  EF34  F010         	goto	l2339
  1891  002016                     u2060:
  1892  002016  FFFF               	dw	65535	; assembler added errata NOP
  1893  002018                     
  1894                           ;main.c: 244:         PORTB = 0b00110000;
  1895  002018  0E30               	movlw	48
  1896  00201A  6E81               	movwf	129,c	;volatile
  1897  00201C                     
  1898                           ;main.c: 245:         ms_delay(1);
  1899  00201C  0E00               	movlw	0
  1900  00201E  6E02               	movwf	(ms_delay@val+1)^0,c
  1901  002020  0E01               	movlw	1
  1902  002022  6E01               	movwf	ms_delay@val^0,c
  1903  002024  EC2E  F011         	call	_ms_delay	;wreg free
  1904  002028                     
  1905                           ;main.c: 246:         PORTB = 0b01100000;
  1906  002028  0E60               	movlw	96
  1907  00202A  6E81               	movwf	129,c	;volatile
  1908  00202C                     
  1909                           ;main.c: 247:         ms_delay(1);
  1910  00202C  0E00               	movlw	0
  1911  00202E  6E02               	movwf	(ms_delay@val+1)^0,c
  1912  002030  0E01               	movlw	1
  1913  002032  6E01               	movwf	ms_delay@val^0,c
  1914  002034  EC2E  F011         	call	_ms_delay	;wreg free
  1915  002038                     
  1916                           ;main.c: 248:         PORTB = 0b11000000;
  1917  002038  0EC0               	movlw	192
  1918  00203A  6E81               	movwf	129,c	;volatile
  1919  00203C                     
  1920                           ;main.c: 249:         ms_delay(1);
  1921  00203C  0E00               	movlw	0
  1922  00203E  6E02               	movwf	(ms_delay@val+1)^0,c
  1923  002040  0E01               	movlw	1
  1924  002042  6E01               	movwf	ms_delay@val^0,c
  1925  002044  EC2E  F011         	call	_ms_delay	;wreg free
  1926  002048                     
  1927                           ;main.c: 250:         PORTB = 0b10010000;
  1928  002048  0E90               	movlw	144
  1929  00204A  6E81               	movwf	129,c	;volatile
  1930  00204C                     
  1931                           ;main.c: 251:         ms_delay(1);
  1932  00204C  0E00               	movlw	0
  1933  00204E  6E02               	movwf	(ms_delay@val+1)^0,c
  1934  002050  0E01               	movlw	1
  1935  002052  6E01               	movwf	ms_delay@val^0,c
  1936  002054  EC2E  F011         	call	_ms_delay	;wreg free
  1937  002058                     
  1938                           ;main.c: 252:         PORTB = 0b00110000;
  1939  002058  0E30               	movlw	48
  1940  00205A  6E81               	movwf	129,c	;volatile
  1941  00205C                     
  1942                           ;main.c: 253:         ms_delay(1);
  1943  00205C  0E00               	movlw	0
  1944  00205E  6E02               	movwf	(ms_delay@val+1)^0,c
  1945  002060  0E01               	movlw	1
  1946  002062  6E01               	movwf	ms_delay@val^0,c
  1947  002064  EC2E  F011         	call	_ms_delay	;wreg free
  1948  002068                     l2339:
  1949  002068  FFFF               	dw	65535	; assembler added errata NOP
  1950                           
  1951                           ;main.c: 255:     if (direction == 0){
  1952  00206A  5007               	movf	Y_axis@direction^0,w,c
  1953  00206C  A4D8               	btfss	status,2,c
  1954  00206E  EF3B  F010         	goto	u2071
  1955  002072  EF3E  F010         	goto	u2070
  1956  002076                     u2071:
  1957  002076  FFFF               	dw	65535	; assembler added errata NOP
  1958  002078  EF67  F010         	goto	l113
  1959  00207C                     u2070:
  1960  00207C  FFFF               	dw	65535	; assembler added errata NOP
  1961  00207E                     
  1962                           ;main.c: 256:         PORTB = 0b10010000;
  1963  00207E  0E90               	movlw	144
  1964  002080  6E81               	movwf	129,c	;volatile
  1965  002082                     
  1966                           ;main.c: 257:         ms_delay(1);
  1967  002082  0E00               	movlw	0
  1968  002084  6E02               	movwf	(ms_delay@val+1)^0,c
  1969  002086  0E01               	movlw	1
  1970  002088  6E01               	movwf	ms_delay@val^0,c
  1971  00208A  EC2E  F011         	call	_ms_delay	;wreg free
  1972  00208E                     
  1973                           ;main.c: 258:         PORTB = 0b11000000;
  1974  00208E  0EC0               	movlw	192
  1975  002090  6E81               	movwf	129,c	;volatile
  1976                           
  1977                           ;main.c: 259:         ms_delay(1);
  1978  002092  0E00               	movlw	0
  1979  002094  6E02               	movwf	(ms_delay@val+1)^0,c
  1980  002096  0E01               	movlw	1
  1981  002098  6E01               	movwf	ms_delay@val^0,c
  1982  00209A  EC2E  F011         	call	_ms_delay	;wreg free
  1983  00209E                     
  1984                           ;main.c: 260:         PORTB = 0b01100000;
  1985  00209E  0E60               	movlw	96
  1986  0020A0  6E81               	movwf	129,c	;volatile
  1987  0020A2                     
  1988                           ;main.c: 261:         ms_delay(1);
  1989  0020A2  0E00               	movlw	0
  1990  0020A4  6E02               	movwf	(ms_delay@val+1)^0,c
  1991  0020A6  0E01               	movlw	1
  1992  0020A8  6E01               	movwf	ms_delay@val^0,c
  1993  0020AA  EC2E  F011         	call	_ms_delay	;wreg free
  1994                           
  1995                           ;main.c: 262:         PORTB = 0b00110000;
  1996  0020AE  0E30               	movlw	48
  1997  0020B0  6E81               	movwf	129,c	;volatile
  1998  0020B2                     
  1999                           ;main.c: 263:         ms_delay(1);
  2000  0020B2  0E00               	movlw	0
  2001  0020B4  6E02               	movwf	(ms_delay@val+1)^0,c
  2002  0020B6  0E01               	movlw	1
  2003  0020B8  6E01               	movwf	ms_delay@val^0,c
  2004  0020BA  EC2E  F011         	call	_ms_delay	;wreg free
  2005  0020BE                     
  2006                           ;main.c: 264:         PORTB = 0b10010000;
  2007  0020BE  0E90               	movlw	144
  2008  0020C0  6E81               	movwf	129,c	;volatile
  2009                           
  2010                           ;main.c: 265:         ms_delay(1);
  2011  0020C2  0E00               	movlw	0
  2012  0020C4  6E02               	movwf	(ms_delay@val+1)^0,c
  2013  0020C6  0E01               	movlw	1
  2014  0020C8  6E01               	movwf	ms_delay@val^0,c
  2015  0020CA  EC2E  F011         	call	_ms_delay	;wreg free
  2016  0020CE                     l113:
  2017  0020CE  FFFF               	dw	65535	; assembler added errata NOP
  2018  0020D0  0012               	return		;funcret
  2019  0020D2  FFFF               	dw	65535	; errata NOP
  2020  0020D4                     __end_of_Y_axis:
  2021                           	callstack 0
  2022                           
  2023 ;; *************** function _X_axis *****************
  2024 ;; Defined at:
  2025 ;;		line 214 in file "main.c"
  2026 ;; Parameters:    Size  Location     Type
  2027 ;;  direction       1    wreg     unsigned char 
  2028 ;; Auto vars:     Size  Location     Type
  2029 ;;  direction       1    6[COMRAM] unsigned char 
  2030 ;; Return value:  Size  Location     Type
  2031 ;;                  1    wreg      void 
  2032 ;; Registers used:
  2033 ;;		wreg, status,2, status,0, cstack
  2034 ;; Tracked objects:
  2035 ;;		On entry : 0/0
  2036 ;;		On exit  : 0/0
  2037 ;;		Unchanged: 0/0
  2038 ;; Data sizes:     COMRAM   BANK0   BANK1   BANK2   BANK3   BANK4   BANK5
  2039 ;;      Params:         0       0       0       0       0       0       0
  2040 ;;      Locals:         1       0       0       0       0       0       0
  2041 ;;      Temps:          0       0       0       0       0       0       0
  2042 ;;      Totals:         1       0       0       0       0       0       0
  2043 ;;Total ram usage:        1 bytes
  2044 ;; Hardware stack levels used: 1
  2045 ;; Hardware stack levels required when called: 2
  2046 ;; This function calls:
  2047 ;;		_ms_delay
  2048 ;; This function is called by:
  2049 ;;		_pickandplace_sequence
  2050 ;; This function uses a non-reentrant model
  2051 ;;
  2052                           
  2053                           	psect	text5
  2054  0020D4                     __ptext5:
  2055                           	callstack 0
  2056  0020D4                     _X_axis:
  2057                           	callstack 0
  2058  0020D4  FFFF               	dw	65535	; assembler added errata NOP
  2059                           
  2060                           ;incstack = 0
  2061                           ;X_axis@direction stored from wreg
  2062  0020D6  6E07               	movwf	X_axis@direction^0,c
  2063  0020D8                     
  2064                           ;main.c: 215:     if (direction == 1){
  2065  0020D8  0407               	decf	X_axis@direction^0,w,c
  2066  0020DA  A4D8               	btfss	status,2,c
  2067  0020DC  EF72  F010         	goto	u2041
  2068  0020E0  EF75  F010         	goto	u2040
  2069  0020E4                     u2041:
  2070  0020E4  FFFF               	dw	65535	; assembler added errata NOP
  2071  0020E6  EF9E  F010         	goto	l2301
  2072  0020EA                     u2040:
  2073  0020EA  FFFF               	dw	65535	; assembler added errata NOP
  2074  0020EC                     
  2075                           ;main.c: 216:         PORTB = 0b00000011;
  2076  0020EC  0E03               	movlw	3
  2077  0020EE  6E81               	movwf	129,c	;volatile
  2078  0020F0                     
  2079                           ;main.c: 217:         ms_delay(1);
  2080  0020F0  0E00               	movlw	0
  2081  0020F2  6E02               	movwf	(ms_delay@val+1)^0,c
  2082  0020F4  0E01               	movlw	1
  2083  0020F6  6E01               	movwf	ms_delay@val^0,c
  2084  0020F8  EC2E  F011         	call	_ms_delay	;wreg free
  2085  0020FC                     
  2086                           ;main.c: 218:         PORTB = 0b00000110;
  2087  0020FC  0E06               	movlw	6
  2088  0020FE  6E81               	movwf	129,c	;volatile
  2089  002100                     
  2090                           ;main.c: 219:         ms_delay(1);
  2091  002100  0E00               	movlw	0
  2092  002102  6E02               	movwf	(ms_delay@val+1)^0,c
  2093  002104  0E01               	movlw	1
  2094  002106  6E01               	movwf	ms_delay@val^0,c
  2095  002108  EC2E  F011         	call	_ms_delay	;wreg free
  2096  00210C                     
  2097                           ;main.c: 220:         PORTB = 0b00001100;
  2098  00210C  0E0C               	movlw	12
  2099  00210E  6E81               	movwf	129,c	;volatile
  2100  002110                     
  2101                           ;main.c: 221:         ms_delay(1);
  2102  002110  0E00               	movlw	0
  2103  002112  6E02               	movwf	(ms_delay@val+1)^0,c
  2104  002114  0E01               	movlw	1
  2105  002116  6E01               	movwf	ms_delay@val^0,c
  2106  002118  EC2E  F011         	call	_ms_delay	;wreg free
  2107  00211C                     
  2108                           ;main.c: 222:         PORTB = 0b00001001;
  2109  00211C  0E09               	movlw	9
  2110  00211E  6E81               	movwf	129,c	;volatile
  2111  002120                     
  2112                           ;main.c: 223:         ms_delay(1);
  2113  002120  0E00               	movlw	0
  2114  002122  6E02               	movwf	(ms_delay@val+1)^0,c
  2115  002124  0E01               	movlw	1
  2116  002126  6E01               	movwf	ms_delay@val^0,c
  2117  002128  EC2E  F011         	call	_ms_delay	;wreg free
  2118  00212C                     
  2119                           ;main.c: 224:         PORTB = 0b00000011;
  2120  00212C  0E03               	movlw	3
  2121  00212E  6E81               	movwf	129,c	;volatile
  2122  002130                     
  2123                           ;main.c: 225:         ms_delay(1);
  2124  002130  0E00               	movlw	0
  2125  002132  6E02               	movwf	(ms_delay@val+1)^0,c
  2126  002134  0E01               	movlw	1
  2127  002136  6E01               	movwf	ms_delay@val^0,c
  2128  002138  EC2E  F011         	call	_ms_delay	;wreg free
  2129  00213C                     l2301:
  2130  00213C  FFFF               	dw	65535	; assembler added errata NOP
  2131                           
  2132                           ;main.c: 227:     if (direction == 0){
  2133  00213E  5007               	movf	X_axis@direction^0,w,c
  2134  002140  A4D8               	btfss	status,2,c
  2135  002142  EFA5  F010         	goto	u2051
  2136  002146  EFA8  F010         	goto	u2050
  2137  00214A                     u2051:
  2138  00214A  FFFF               	dw	65535	; assembler added errata NOP
  2139  00214C  EFD1  F010         	goto	l108
  2140  002150                     u2050:
  2141  002150  FFFF               	dw	65535	; assembler added errata NOP
  2142  002152                     
  2143                           ;main.c: 228:         PORTB = 0b00001001;
  2144  002152  0E09               	movlw	9
  2145  002154  6E81               	movwf	129,c	;volatile
  2146  002156                     
  2147                           ;main.c: 229:         ms_delay(1);
  2148  002156  0E00               	movlw	0
  2149  002158  6E02               	movwf	(ms_delay@val+1)^0,c
  2150  00215A  0E01               	movlw	1
  2151  00215C  6E01               	movwf	ms_delay@val^0,c
  2152  00215E  EC2E  F011         	call	_ms_delay	;wreg free
  2153  002162                     
  2154                           ;main.c: 230:         PORTB = 0b00001100;
  2155  002162  0E0C               	movlw	12
  2156  002164  6E81               	movwf	129,c	;volatile
  2157                           
  2158                           ;main.c: 231:         ms_delay(1);
  2159  002166  0E00               	movlw	0
  2160  002168  6E02               	movwf	(ms_delay@val+1)^0,c
  2161  00216A  0E01               	movlw	1
  2162  00216C  6E01               	movwf	ms_delay@val^0,c
  2163  00216E  EC2E  F011         	call	_ms_delay	;wreg free
  2164  002172                     
  2165                           ;main.c: 232:         PORTB = 0b00000110;
  2166  002172  0E06               	movlw	6
  2167  002174  6E81               	movwf	129,c	;volatile
  2168  002176                     
  2169                           ;main.c: 233:         ms_delay(1);
  2170  002176  0E00               	movlw	0
  2171  002178  6E02               	movwf	(ms_delay@val+1)^0,c
  2172  00217A  0E01               	movlw	1
  2173  00217C  6E01               	movwf	ms_delay@val^0,c
  2174  00217E  EC2E  F011         	call	_ms_delay	;wreg free
  2175                           
  2176                           ;main.c: 234:         PORTB = 0b00000011;
  2177  002182  0E03               	movlw	3
  2178  002184  6E81               	movwf	129,c	;volatile
  2179  002186                     
  2180                           ;main.c: 235:         ms_delay(1);
  2181  002186  0E00               	movlw	0
  2182  002188  6E02               	movwf	(ms_delay@val+1)^0,c
  2183  00218A  0E01               	movlw	1
  2184  00218C  6E01               	movwf	ms_delay@val^0,c
  2185  00218E  EC2E  F011         	call	_ms_delay	;wreg free
  2186  002192                     
  2187                           ;main.c: 236:         PORTB = 0b00001001;
  2188  002192  0E09               	movlw	9
  2189  002194  6E81               	movwf	129,c	;volatile
  2190                           
  2191                           ;main.c: 237:         ms_delay(1);
  2192  002196  0E00               	movlw	0
  2193  002198  6E02               	movwf	(ms_delay@val+1)^0,c
  2194  00219A  0E01               	movlw	1
  2195  00219C  6E01               	movwf	ms_delay@val^0,c
  2196  00219E  EC2E  F011         	call	_ms_delay	;wreg free
  2197  0021A2                     l108:
  2198  0021A2  FFFF               	dw	65535	; assembler added errata NOP
  2199  0021A4  0012               	return		;funcret
  2200  0021A6  FFFF               	dw	65535	; errata NOP
  2201  0021A8                     __end_of_X_axis:
  2202                           	callstack 0
  2203                           
  2204 ;; *************** function _Twister *****************
  2205 ;; Defined at:
  2206 ;;		line 298 in file "main.c"
  2207 ;; Parameters:    Size  Location     Type
  2208 ;;  direction       1    wreg     unsigned char 
  2209 ;; Auto vars:     Size  Location     Type
  2210 ;;  direction       1    6[COMRAM] unsigned char 
  2211 ;; Return value:  Size  Location     Type
  2212 ;;                  1    wreg      void 
  2213 ;; Registers used:
  2214 ;;		wreg, status,2, status,0, cstack
  2215 ;; Tracked objects:
  2216 ;;		On entry : 0/0
  2217 ;;		On exit  : 0/0
  2218 ;;		Unchanged: 0/0
  2219 ;; Data sizes:     COMRAM   BANK0   BANK1   BANK2   BANK3   BANK4   BANK5
  2220 ;;      Params:         0       0       0       0       0       0       0
  2221 ;;      Locals:         1       0       0       0       0       0       0
  2222 ;;      Temps:          0       0       0       0       0       0       0
  2223 ;;      Totals:         1       0       0       0       0       0       0
  2224 ;;Total ram usage:        1 bytes
  2225 ;; Hardware stack levels used: 1
  2226 ;; Hardware stack levels required when called: 2
  2227 ;; This function calls:
  2228 ;;		_ms_delay
  2229 ;; This function is called by:
  2230 ;;		_pickandplace_sequence
  2231 ;; This function uses a non-reentrant model
  2232 ;;
  2233                           
  2234                           	psect	text6
  2235  0021A8                     __ptext6:
  2236                           	callstack 0
  2237  0021A8                     _Twister:
  2238                           	callstack 0
  2239  0021A8  FFFF               	dw	65535	; assembler added errata NOP
  2240                           
  2241                           ;incstack = 0
  2242                           ;Twister@direction stored from wreg
  2243  0021AA  6E07               	movwf	Twister@direction^0,c
  2244  0021AC                     
  2245                           ;main.c: 299:     if (direction == 1){
  2246  0021AC  0407               	decf	Twister@direction^0,w,c
  2247  0021AE  A4D8               	btfss	status,2,c
  2248  0021B0  EFDC  F010         	goto	u2081
  2249  0021B4  EFDF  F010         	goto	u2080
  2250  0021B8                     u2081:
  2251  0021B8  FFFF               	dw	65535	; assembler added errata NOP
  2252  0021BA  EF00  F011         	goto	l2373
  2253  0021BE                     u2080:
  2254  0021BE  FFFF               	dw	65535	; assembler added errata NOP
  2255  0021C0                     
  2256                           ;main.c: 300:         PORTD = 0b00110000;
  2257  0021C0  0E30               	movlw	48
  2258  0021C2  6E83               	movwf	131,c	;volatile
  2259  0021C4                     
  2260                           ;main.c: 301:         ms_delay(1);
  2261  0021C4  0E00               	movlw	0
  2262  0021C6  6E02               	movwf	(ms_delay@val+1)^0,c
  2263  0021C8  0E01               	movlw	1
  2264  0021CA  6E01               	movwf	ms_delay@val^0,c
  2265  0021CC  EC2E  F011         	call	_ms_delay	;wreg free
  2266  0021D0                     
  2267                           ;main.c: 302:         PORTD = 0b11000000;
  2268  0021D0  0EC0               	movlw	192
  2269  0021D2  6E83               	movwf	131,c	;volatile
  2270  0021D4                     
  2271                           ;main.c: 303:         ms_delay(1);
  2272  0021D4  0E00               	movlw	0
  2273  0021D6  6E02               	movwf	(ms_delay@val+1)^0,c
  2274  0021D8  0E01               	movlw	1
  2275  0021DA  6E01               	movwf	ms_delay@val^0,c
  2276  0021DC  EC2E  F011         	call	_ms_delay	;wreg free
  2277  0021E0                     
  2278                           ;main.c: 304:         PORTD = 0b10010000;
  2279  0021E0  0E90               	movlw	144
  2280  0021E2  6E83               	movwf	131,c	;volatile
  2281  0021E4                     
  2282                           ;main.c: 305:         ms_delay(1);
  2283  0021E4  0E00               	movlw	0
  2284  0021E6  6E02               	movwf	(ms_delay@val+1)^0,c
  2285  0021E8  0E01               	movlw	1
  2286  0021EA  6E01               	movwf	ms_delay@val^0,c
  2287  0021EC  EC2E  F011         	call	_ms_delay	;wreg free
  2288  0021F0                     
  2289                           ;main.c: 306:         PORTD = 0b00110000;
  2290  0021F0  0E30               	movlw	48
  2291  0021F2  6E83               	movwf	131,c	;volatile
  2292  0021F4                     
  2293                           ;main.c: 307:         ms_delay(1);
  2294  0021F4  0E00               	movlw	0
  2295  0021F6  6E02               	movwf	(ms_delay@val+1)^0,c
  2296  0021F8  0E01               	movlw	1
  2297  0021FA  6E01               	movwf	ms_delay@val^0,c
  2298  0021FC  EC2E  F011         	call	_ms_delay	;wreg free
  2299  002200                     l2373:
  2300  002200  FFFF               	dw	65535	; assembler added errata NOP
  2301                           
  2302                           ;main.c: 309:     if (direction == 0){
  2303  002202  5007               	movf	Twister@direction^0,w,c
  2304  002204  A4D8               	btfss	status,2,c
  2305  002206  EF07  F011         	goto	u2091
  2306  00220A  EF0A  F011         	goto	u2090
  2307  00220E                     u2091:
  2308  00220E  FFFF               	dw	65535	; assembler added errata NOP
  2309  002210  EF2B  F011         	goto	l123
  2310  002214                     u2090:
  2311  002214  FFFF               	dw	65535	; assembler added errata NOP
  2312  002216                     
  2313                           ;main.c: 310:         PORTD = 0b10010000;
  2314  002216  0E90               	movlw	144
  2315  002218  6E83               	movwf	131,c	;volatile
  2316  00221A                     
  2317                           ;main.c: 311:         ms_delay(1);
  2318  00221A  0E00               	movlw	0
  2319  00221C  6E02               	movwf	(ms_delay@val+1)^0,c
  2320  00221E  0E01               	movlw	1
  2321  002220  6E01               	movwf	ms_delay@val^0,c
  2322  002222  EC2E  F011         	call	_ms_delay	;wreg free
  2323  002226                     
  2324                           ;main.c: 312:         PORTD = 0b01100000;
  2325  002226  0E60               	movlw	96
  2326  002228  6E83               	movwf	131,c	;volatile
  2327                           
  2328                           ;main.c: 313:         ms_delay(1);
  2329  00222A  0E00               	movlw	0
  2330  00222C  6E02               	movwf	(ms_delay@val+1)^0,c
  2331  00222E  0E01               	movlw	1
  2332  002230  6E01               	movwf	ms_delay@val^0,c
  2333  002232  EC2E  F011         	call	_ms_delay	;wreg free
  2334  002236                     
  2335                           ;main.c: 314:         PORTD = 0b00110000;
  2336  002236  0E30               	movlw	48
  2337  002238  6E83               	movwf	131,c	;volatile
  2338  00223A                     
  2339                           ;main.c: 315:         ms_delay(1);
  2340  00223A  0E00               	movlw	0
  2341  00223C  6E02               	movwf	(ms_delay@val+1)^0,c
  2342  00223E  0E01               	movlw	1
  2343  002240  6E01               	movwf	ms_delay@val^0,c
  2344  002242  EC2E  F011         	call	_ms_delay	;wreg free
  2345                           
  2346                           ;main.c: 316:         PORTD = 0b10010000;
  2347  002246  0E90               	movlw	144
  2348  002248  6E83               	movwf	131,c	;volatile
  2349  00224A                     
  2350                           ;main.c: 317:         ms_delay(1);
  2351  00224A  0E00               	movlw	0
  2352  00224C  6E02               	movwf	(ms_delay@val+1)^0,c
  2353  00224E  0E01               	movlw	1
  2354  002250  6E01               	movwf	ms_delay@val^0,c
  2355  002252  EC2E  F011         	call	_ms_delay	;wreg free
  2356  002256                     l123:
  2357  002256  FFFF               	dw	65535	; assembler added errata NOP
  2358  002258  0012               	return		;funcret
  2359  00225A  FFFF               	dw	65535	; errata NOP
  2360  00225C                     __end_of_Twister:
  2361                           	callstack 0
  2362                           
  2363 ;; *************** function _ms_delay *****************
  2364 ;; Defined at:
  2365 ;;		line 323 in file "main.c"
  2366 ;; Parameters:    Size  Location     Type
  2367 ;;  val             2    0[COMRAM] unsigned int 
  2368 ;; Auto vars:     Size  Location     Type
  2369 ;;  j               2    4[COMRAM] unsigned int 
  2370 ;;  i               2    2[COMRAM] unsigned int 
  2371 ;; Return value:  Size  Location     Type
  2372 ;;                  1    wreg      void 
  2373 ;; Registers used:
  2374 ;;		wreg, status,2, status,0
  2375 ;; Tracked objects:
  2376 ;;		On entry : 0/0
  2377 ;;		On exit  : 0/0
  2378 ;;		Unchanged: 0/0
  2379 ;; Data sizes:     COMRAM   BANK0   BANK1   BANK2   BANK3   BANK4   BANK5
  2380 ;;      Params:         2       0       0       0       0       0       0
  2381 ;;      Locals:         4       0       0       0       0       0       0
  2382 ;;      Temps:          0       0       0       0       0       0       0
  2383 ;;      Totals:         6       0       0       0       0       0       0
  2384 ;;Total ram usage:        6 bytes
  2385 ;; Hardware stack levels used: 1
  2386 ;; Hardware stack levels required when called: 1
  2387 ;; This function calls:
  2388 ;;		Nothing
  2389 ;; This function is called by:
  2390 ;;		_X_axis
  2391 ;;		_Y_axis
  2392 ;;		_Twister
  2393 ;;		_Z_axis
  2394 ;; This function uses a non-reentrant model
  2395 ;;
  2396                           
  2397                           	psect	text7
  2398  00225C                     __ptext7:
  2399                           	callstack 0
  2400  00225C                     _ms_delay:
  2401                           	callstack 0
  2402  00225C  FFFF               	dw	65535	; assembler added errata NOP
  2403  00225E                     
  2404                           ;main.c: 323: void ms_delay(unsigned int val);main.c: 324: {;main.c: 325:      unsigned 
      +                          int i,j;;main.c: 326:         for(i=0;i<val;i++)
  2405  00225E  0E00               	movlw	0
  2406  002260  6E04               	movwf	(ms_delay@i+1)^0,c
  2407  002262  0E00               	movlw	0
  2408  002264  6E03               	movwf	ms_delay@i^0,c
  2409  002266  EF4C  F011         	goto	l2077
  2410  00226A                     l2065:
  2411  00226A  FFFF               	dw	65535	; assembler added errata NOP
  2412                           
  2413                           ;main.c: 327:             for(j=0;j<1650;j++);
  2414  00226C  0E00               	movlw	0
  2415  00226E  6E06               	movwf	(ms_delay@j+1)^0,c
  2416  002270  0E00               	movlw	0
  2417  002272  6E05               	movwf	ms_delay@j^0,c
  2418  002274                     l2071:
  2419  002274  FFFF               	dw	65535	; assembler added errata NOP
  2420  002276  4A05               	infsnz	ms_delay@j^0,f,c
  2421  002278  2A06               	incf	(ms_delay@j+1)^0,f,c
  2422  00227A  0E72               	movlw	114
  2423  00227C  5C05               	subwf	ms_delay@j^0,w,c
  2424  00227E  0E06               	movlw	6
  2425  002280  5806               	subwfb	(ms_delay@j+1)^0,w,c
  2426  002282  A0D8               	btfss	status,0,c
  2427  002284  EF46  F011         	goto	u1681
  2428  002288  EF49  F011         	goto	u1680
  2429  00228C                     u1681:
  2430  00228C  FFFF               	dw	65535	; assembler added errata NOP
  2431  00228E  EF3A  F011         	goto	l2071
  2432  002292                     u1680:
  2433  002292  FFFF               	dw	65535	; assembler added errata NOP
  2434  002294  4A03               	infsnz	ms_delay@i^0,f,c
  2435  002296  2A04               	incf	(ms_delay@i+1)^0,f,c
  2436  002298                     l2077:
  2437  002298  FFFF               	dw	65535	; assembler added errata NOP
  2438  00229A  5001               	movf	ms_delay@val^0,w,c
  2439  00229C  5C03               	subwf	ms_delay@i^0,w,c
  2440  00229E  5002               	movf	(ms_delay@val+1)^0,w,c
  2441  0022A0  5804               	subwfb	(ms_delay@i+1)^0,w,c
  2442  0022A2  A0D8               	btfss	status,0,c
  2443  0022A4  EF56  F011         	goto	u1691
  2444  0022A8  EF59  F011         	goto	u1690
  2445  0022AC                     u1691:
  2446  0022AC  FFFF               	dw	65535	; assembler added errata NOP
  2447  0022AE  EF35  F011         	goto	l2065
  2448  0022B2                     u1690:
  2449  0022B2  FFFF               	dw	65535	; assembler added errata NOP
  2450  0022B4  0012               	return		;funcret
  2451  0022B6  FFFF               	dw	65535	; errata NOP
  2452  0022B8                     __end_of_ms_delay:
  2453                           	callstack 0
  2454                           
  2455 ;; *************** function _init_interrupts *****************
  2456 ;; Defined at:
  2457 ;;		line 27 in file "init_PIC.c"
  2458 ;; Parameters:    Size  Location     Type
  2459 ;;		None
  2460 ;; Auto vars:     Size  Location     Type
  2461 ;;		None
  2462 ;; Return value:  Size  Location     Type
  2463 ;;                  1    wreg      void 
  2464 ;; Registers used:
  2465 ;;		None
  2466 ;; Tracked objects:
  2467 ;;		On entry : 0/0
  2468 ;;		On exit  : 0/0
  2469 ;;		Unchanged: 0/0
  2470 ;; Data sizes:     COMRAM   BANK0   BANK1   BANK2   BANK3   BANK4   BANK5
  2471 ;;      Params:         0       0       0       0       0       0       0
  2472 ;;      Locals:         0       0       0       0       0       0       0
  2473 ;;      Temps:          0       0       0       0       0       0       0
  2474 ;;      Totals:         0       0       0       0       0       0       0
  2475 ;;Total ram usage:        0 bytes
  2476 ;; Hardware stack levels used: 1
  2477 ;; Hardware stack levels required when called: 1
  2478 ;; This function calls:
  2479 ;;		Nothing
  2480 ;; This function is called by:
  2481 ;;		_main
  2482 ;; This function uses a non-reentrant model
  2483 ;;
  2484                           
  2485                           	psect	text8
  2486  00242A                     __ptext8:
  2487                           	callstack 0
  2488  00242A                     _init_interrupts:
  2489                           	callstack 0
  2490  00242A  FFFF               	dw	65535	; assembler added errata NOP
  2491  00242C                     
  2492                           ;init_PIC.c: 29:     PIR1bits.RCIF = 0;
  2493  00242C  9A9E               	bcf	158,5,c	;volatile
  2494                           
  2495                           ;init_PIC.c: 30:  PIE1bits.RCIE = 1;
  2496  00242E  8A9D               	bsf	157,5,c	;volatile
  2497                           
  2498                           ;init_PIC.c: 31:  INTCONbits.PEIE = 1;
  2499  002430  8CF2               	bsf	242,6,c	;volatile
  2500  002432  0012               	return		;funcret
  2501  002434  FFFF               	dw	65535	; errata NOP
  2502  002436                     __end_of_init_interrupts:
  2503                           	callstack 0
  2504                           
  2505 ;; *************** function _init_USART *****************
  2506 ;; Defined at:
  2507 ;;		line 17 in file "serial_rs232.c"
  2508 ;; Parameters:    Size  Location     Type
  2509 ;;		None
  2510 ;; Auto vars:     Size  Location     Type
  2511 ;;		None
  2512 ;; Return value:  Size  Location     Type
  2513 ;;                  1    wreg      void 
  2514 ;; Registers used:
  2515 ;;		wreg, status,2, status,0, prodl, prodh, cstack
  2516 ;; Tracked objects:
  2517 ;;		On entry : 0/0
  2518 ;;		On exit  : 0/0
  2519 ;;		Unchanged: 0/0
  2520 ;; Data sizes:     COMRAM   BANK0   BANK1   BANK2   BANK3   BANK4   BANK5
  2521 ;;      Params:         0       0       0       0       0       0       0
  2522 ;;      Locals:         0       0       0       0       0       0       0
  2523 ;;      Temps:          0       0       0       0       0       0       0
  2524 ;;      Totals:         0       0       0       0       0       0       0
  2525 ;;Total ram usage:        0 bytes
  2526 ;; Hardware stack levels used: 1
  2527 ;; Hardware stack levels required when called: 4
  2528 ;; This function calls:
  2529 ;;		___fltol
  2530 ;;		_roundf
  2531 ;; This function is called by:
  2532 ;;		_main
  2533 ;; This function uses a non-reentrant model
  2534 ;;
  2535                           
  2536                           	psect	text9
  2537  002344                     __ptext9:
  2538                           	callstack 0
  2539  002344                     _init_USART:
  2540                           	callstack 0
  2541  002344  FFFF               	dw	65535	; assembler added errata NOP
  2542  002346                     
  2543                           ;serial_rs232.c: 33:     SPBRG = roundf(((Fosc / desired_BaudRate)/16)-1);
  2544  002346  0E55               	movlw	85
  2545  002348  6E1B               	movwf	roundf@x^0,c
  2546  00234A  0E55               	movlw	85
  2547  00234C  6E1C               	movwf	(roundf@x+1)^0,c
  2548  00234E  0EC8               	movlw	200
  2549  002350  6E1D               	movwf	(roundf@x+2)^0,c
  2550  002352  0E41               	movlw	65
  2551  002354  6E1E               	movwf	(roundf@x+3)^0,c
  2552  002356  EC4E  F00B         	call	_roundf	;wreg free
  2553  00235A  C01B  F035         	movff	?_roundf,___fltol@f1
  2554  00235E  C01C  F036         	movff	?_roundf+1,___fltol@f1+1
  2555  002362  C01D  F037         	movff	?_roundf+2,___fltol@f1+2
  2556  002366  C01E  F038         	movff	?_roundf+3,___fltol@f1+3
  2557  00236A  EC3D  F00E         	call	___fltol	;wreg free
  2558  00236E  5035               	movf	?___fltol^0,w,c
  2559  002370  6EAF               	movwf	175,c	;volatile
  2560  002372                     
  2561                           ;serial_rs232.c: 35:  TXSTAbits.TX9=0;
  2562  002372  9CAC               	bcf	172,6,c	;volatile
  2563  002374                     
  2564                           ;serial_rs232.c: 36:     TXSTAbits.TXEN=1;
  2565  002374  8AAC               	bsf	172,5,c	;volatile
  2566  002376                     
  2567                           ;serial_rs232.c: 37:     TXSTAbits.SYNC=0;
  2568  002376  98AC               	bcf	172,4,c	;volatile
  2569  002378                     
  2570                           ;serial_rs232.c: 38:     TXSTAbits.BRGH=1;
  2571  002378  84AC               	bsf	172,2,c	;volatile
  2572  00237A                     
  2573                           ;serial_rs232.c: 39:     RCSTAbits.SPEN=1;
  2574  00237A  8EAB               	bsf	171,7,c	;volatile
  2575  00237C                     
  2576                           ;serial_rs232.c: 40:     RCSTAbits.RX9=0;
  2577  00237C  9CAB               	bcf	171,6,c	;volatile
  2578  00237E                     
  2579                           ;serial_rs232.c: 41:     RCSTAbits.CREN=1;
  2580  00237E  88AB               	bsf	171,4,c	;volatile
  2581  002380  0012               	return		;funcret
  2582  002382  FFFF               	dw	65535	; errata NOP
  2583  002384                     __end_of_init_USART:
  2584                           	callstack 0
  2585                           
  2586 ;; *************** function _roundf *****************
  2587 ;; Defined at:
  2588 ;;		line 12 in file "/opt/microchip/xc8/v2.32/pic/sources/c99/common/roundf.c"
  2589 ;; Parameters:    Size  Location     Type
  2590 ;;  x               4   26[COMRAM] float 
  2591 ;; Auto vars:     Size  Location     Type
  2592 ;;  y               4   48[COMRAM] float 
  2593 ;;  u               4   44[COMRAM] struct .
  2594 ;;  e               2   38[COMRAM] int 
  2595 ;; Return value:  Size  Location     Type
  2596 ;;                  4   26[COMRAM] float 
  2597 ;; Registers used:
  2598 ;;		wreg, status,2, status,0, prodl, prodh, cstack
  2599 ;; Tracked objects:
  2600 ;;		On entry : 0/0
  2601 ;;		On exit  : 0/0
  2602 ;;		Unchanged: 0/0
  2603 ;; Data sizes:     COMRAM   BANK0   BANK1   BANK2   BANK3   BANK4   BANK5
  2604 ;;      Params:         4       0       0       0       0       0       0
  2605 ;;      Locals:        18       0       0       0       0       0       0
  2606 ;;      Temps:          4       0       0       0       0       0       0
  2607 ;;      Totals:        26       0       0       0       0       0       0
  2608 ;;Total ram usage:       26 bytes
  2609 ;; Hardware stack levels used: 1
  2610 ;; Hardware stack levels required when called: 3
  2611 ;; This function calls:
  2612 ;;		___fladd
  2613 ;;		___flge
  2614 ;;		___flmul
  2615 ;;		___flneg
  2616 ;;		___flsub
  2617 ;; This function is called by:
  2618 ;;		_init_USART
  2619 ;; This function uses a non-reentrant model
  2620 ;;
  2621                           
  2622                           	psect	text10
  2623  00169C                     __ptext10:
  2624                           	callstack 0
  2625  00169C                     _roundf:
  2626                           	callstack 0
  2627  00169C  FFFF               	dw	65535	; assembler added errata NOP
  2628  00169E  C06D  F02D         	movff	roundf@F528,roundf@u
  2629  0016A2  C06E  F02E         	movff	roundf@F528+1,roundf@u+1
  2630  0016A6  C06F  F02F         	movff	roundf@F528+2,roundf@u+2
  2631  0016AA  C070  F030         	movff	roundf@F528+3,roundf@u+3
  2632  0016AE  C01B  F02D         	movff	roundf@x,roundf@u
  2633  0016B2  C01C  F02E         	movff	roundf@x+1,roundf@u+1
  2634  0016B6  C01D  F02F         	movff	roundf@x+2,roundf@u+2
  2635  0016BA  C01E  F030         	movff	roundf@x+3,roundf@u+3
  2636  0016BE  C02D  F01F         	movff	roundf@u,??_roundf
  2637  0016C2  C02E  F020         	movff	roundf@u+1,??_roundf+1
  2638  0016C6  C02F  F021         	movff	roundf@u+2,??_roundf+2
  2639  0016CA  C030  F022         	movff	roundf@u+3,??_roundf+3
  2640  0016CE  0E18               	movlw	24
  2641  0016D0  EF70  F00B         	goto	u1950
  2642  0016D4                     u1955:
  2643  0016D4  FFFF               	dw	65535	; assembler added errata NOP
  2644  0016D6  90D8               	bcf	status,0,c
  2645  0016D8  3222               	rrcf	(??_roundf+3)^0,f,c
  2646  0016DA  3221               	rrcf	(??_roundf+2)^0,f,c
  2647  0016DC  3220               	rrcf	(??_roundf+1)^0,f,c
  2648  0016DE  321F               	rrcf	??_roundf^0,f,c
  2649  0016E0                     u1950:
  2650  0016E0  FFFF               	dw	65535	; assembler added errata NOP
  2651  0016E2  2EE8               	decfsz	wreg,f,c
  2652  0016E4  EF6A  F00B         	goto	u1955
  2653  0016E8  501F               	movf	??_roundf^0,w,c
  2654  0016EA  6E27               	movwf	roundf@e^0,c
  2655  0016EC  6A28               	clrf	(roundf@e+1)^0,c
  2656  0016EE  BE28               	btfsc	(roundf@e+1)^0,7,c
  2657  0016F0  EF83  F00B         	goto	u1961
  2658  0016F4  5028               	movf	(roundf@e+1)^0,w,c
  2659  0016F6  E10A               	bnz	u1960
  2660  0016F8  0E96               	movlw	150
  2661  0016FA  5C27               	subwf	roundf@e^0,w,c
  2662  0016FC  A0D8               	btfss	status,0,c
  2663  0016FE  EF83  F00B         	goto	u1961
  2664  001702  EF86  F00B         	goto	u1960
  2665  001706                     u1961:
  2666  001706  FFFF               	dw	65535	; assembler added errata NOP
  2667  001708  EF91  F00B         	goto	l2251
  2668  00170C                     u1960:
  2669  00170C  FFFF               	dw	65535	; assembler added errata NOP
  2670  00170E  C01B  F01B         	movff	roundf@x,?_roundf
  2671  001712  C01C  F01C         	movff	roundf@x+1,?_roundf+1
  2672  001716  C01D  F01D         	movff	roundf@x+2,?_roundf+2
  2673  00171A  C01E  F01E         	movff	roundf@x+3,?_roundf+3
  2674  00171E  EF3E  F00D         	goto	l860
  2675  001722                     l2251:
  2676  001722  FFFF               	dw	65535	; assembler added errata NOP
  2677  001724  C02D  F01F         	movff	roundf@u,??_roundf
  2678  001728  C02E  F020         	movff	roundf@u+1,??_roundf+1
  2679  00172C  C02F  F021         	movff	roundf@u+2,??_roundf+2
  2680  001730  C030  F022         	movff	roundf@u+3,??_roundf+3
  2681  001734  0E20               	movlw	32
  2682  001736  EFA3  F00B         	goto	u1970
  2683  00173A                     u1975:
  2684  00173A  FFFF               	dw	65535	; assembler added errata NOP
  2685  00173C  90D8               	bcf	status,0,c
  2686  00173E  3222               	rrcf	(??_roundf+3)^0,f,c
  2687  001740  3221               	rrcf	(??_roundf+2)^0,f,c
  2688  001742  3220               	rrcf	(??_roundf+1)^0,f,c
  2689  001744  321F               	rrcf	??_roundf^0,f,c
  2690  001746                     u1970:
  2691  001746  FFFF               	dw	65535	; assembler added errata NOP
  2692  001748  2EE8               	decfsz	wreg,f,c
  2693  00174A  EF9D  F00B         	goto	u1975
  2694  00174E  501F               	movf	??_roundf^0,w,c
  2695  001750  1020               	iorwf	(??_roundf+1)^0,w,c
  2696  001752  1021               	iorwf	(??_roundf+2)^0,w,c
  2697  001754  1022               	iorwf	(??_roundf+3)^0,w,c
  2698  001756  B4D8               	btfsc	status,2,c
  2699  001758  EFB0  F00B         	goto	u1981
  2700  00175C  EFB3  F00B         	goto	u1980
  2701  001760                     u1981:
  2702  001760  FFFF               	dw	65535	; assembler added errata NOP
  2703  001762  EFC6  F00B         	goto	l2255
  2704  001766                     u1980:
  2705  001766  FFFF               	dw	65535	; assembler added errata NOP
  2706  001768  C01B  F001         	movff	roundf@x,___flneg@f1
  2707  00176C  C01C  F002         	movff	roundf@x+1,___flneg@f1+1
  2708  001770  C01D  F003         	movff	roundf@x+2,___flneg@f1+2
  2709  001774  C01E  F004         	movff	roundf@x+3,___flneg@f1+3
  2710  001778  EC81  F011         	call	___flneg	;wreg free
  2711  00177C  C001  F01B         	movff	?___flneg,roundf@x
  2712  001780  C002  F01C         	movff	?___flneg+1,roundf@x+1
  2713  001784  C003  F01D         	movff	?___flneg+2,roundf@x+2
  2714  001788  C004  F01E         	movff	?___flneg+3,roundf@x+3
  2715  00178C                     l2255:
  2716  00178C  FFFF               	dw	65535	; assembler added errata NOP
  2717  00178E  BE28               	btfsc	(roundf@e+1)^0,7,c
  2718  001790  EFD6  F00B         	goto	u1990
  2719  001794  5028               	movf	(roundf@e+1)^0,w,c
  2720  001796  E107               	bnz	u1991
  2721  001798  0E7E               	movlw	126
  2722  00179A  5C27               	subwf	roundf@e^0,w,c
  2723  00179C  B0D8               	btfsc	status,0,c
  2724  00179E  EFD3  F00B         	goto	u1991
  2725  0017A2  EFD6  F00B         	goto	u1990
  2726  0017A6                     u1991:
  2727  0017A6  FFFF               	dw	65535	; assembler added errata NOP
  2728  0017A8  EFF3  F00B         	goto	l2261
  2729  0017AC                     u1990:
  2730  0017AC  FFFF               	dw	65535	; assembler added errata NOP
  2731  0017AE  C02D  F001         	movff	roundf@u,___flmul@b
  2732  0017B2  C02E  F002         	movff	roundf@u+1,___flmul@b+1
  2733  0017B6  C02F  F003         	movff	roundf@u+2,___flmul@b+2
  2734  0017BA  C030  F004         	movff	roundf@u+3,___flmul@b+3
  2735  0017BE  0E00               	movlw	0
  2736  0017C0  6E05               	movwf	___flmul@a^0,c
  2737  0017C2  0E00               	movlw	0
  2738  0017C4  6E06               	movwf	(___flmul@a+1)^0,c
  2739  0017C6  0E00               	movlw	0
  2740  0017C8  6E07               	movwf	(___flmul@a+2)^0,c
  2741  0017CA  0E00               	movlw	0
  2742  0017CC  6E08               	movwf	(___flmul@a+3)^0,c
  2743  0017CE  ECFC  F008         	call	___flmul	;wreg free
  2744  0017D2  C001  F01B         	movff	?___flmul,?_roundf
  2745  0017D6  C002  F01C         	movff	?___flmul+1,?_roundf+1
  2746  0017DA  C003  F01D         	movff	?___flmul+2,?_roundf+2
  2747  0017DE  C004  F01E         	movff	?___flmul+3,?_roundf+3
  2748  0017E2  EF3E  F00D         	goto	l860
  2749  0017E6                     l2261:
  2750  0017E6  FFFF               	dw	65535	; assembler added errata NOP
  2751  0017E8  0E00               	movlw	0
  2752  0017EA  6E05               	movwf	___fladd@a^0,c
  2753  0017EC  0E00               	movlw	0
  2754  0017EE  6E06               	movwf	(___fladd@a+1)^0,c
  2755  0017F0  0E00               	movlw	0
  2756  0017F2  6E07               	movwf	(___fladd@a+2)^0,c
  2757  0017F4  0E4B               	movlw	75
  2758  0017F6  6E08               	movwf	(___fladd@a+3)^0,c
  2759  0017F8  C01B  F001         	movff	roundf@x,___fladd@b
  2760  0017FC  C01C  F002         	movff	roundf@x+1,___fladd@b+1
  2761  001800  C01D  F003         	movff	roundf@x+2,___fladd@b+2
  2762  001804  C01E  F004         	movff	roundf@x+3,___fladd@b+3
  2763  001808  EC28  F006         	call	___fladd	;wreg free
  2764  00180C  C001  F029         	movff	?___fladd,_roundf$1147
  2765  001810  C002  F02A         	movff	?___fladd+1,_roundf$1147+1
  2766  001814  C003  F02B         	movff	?___fladd+2,_roundf$1147+2
  2767  001818  C004  F02C         	movff	?___fladd+3,_roundf$1147+3
  2768  00181C  0E00               	movlw	0
  2769  00181E  6E05               	movwf	___fladd@a^0,c
  2770  001820  0E00               	movlw	0
  2771  001822  6E06               	movwf	(___fladd@a+1)^0,c
  2772  001824  0E00               	movlw	0
  2773  001826  6E07               	movwf	(___fladd@a+2)^0,c
  2774  001828  0ECB               	movlw	203
  2775  00182A  6E08               	movwf	(___fladd@a+3)^0,c
  2776  00182C  C029  F001         	movff	_roundf$1147,___fladd@b
  2777  001830  C02A  F002         	movff	_roundf$1147+1,___fladd@b+1
  2778  001834  C02B  F003         	movff	_roundf$1147+2,___fladd@b+2
  2779  001838  C02C  F004         	movff	_roundf$1147+3,___fladd@b+3
  2780  00183C  EC28  F006         	call	___fladd	;wreg free
  2781  001840  C001  F023         	movff	?___fladd,_roundf$1148
  2782  001844  C002  F024         	movff	?___fladd+1,_roundf$1148+1
  2783  001848  C003  F025         	movff	?___fladd+2,_roundf$1148+2
  2784  00184C  C004  F026         	movff	?___fladd+3,_roundf$1148+3
  2785  001850  C023  F011         	movff	_roundf$1148,___flsub@b
  2786  001854  C024  F012         	movff	_roundf$1148+1,___flsub@b+1
  2787  001858  C025  F013         	movff	_roundf$1148+2,___flsub@b+2
  2788  00185C  C026  F014         	movff	_roundf$1148+3,___flsub@b+3
  2789  001860  C01B  F015         	movff	roundf@x,___flsub@a
  2790  001864  C01C  F016         	movff	roundf@x+1,___flsub@a+1
  2791  001868  C01D  F017         	movff	roundf@x+2,___flsub@a+2
  2792  00186C  C01E  F018         	movff	roundf@x+3,___flsub@a+3
  2793  001870  EC5C  F011         	call	___flsub	;wreg free
  2794  001874  C011  F031         	movff	?___flsub,roundf@y
  2795  001878  C012  F032         	movff	?___flsub+1,roundf@y+1
  2796  00187C  C013  F033         	movff	?___flsub+2,roundf@y+2
  2797  001880  C014  F034         	movff	?___flsub+3,roundf@y+3
  2798  001884  0E00               	movlw	0
  2799  001886  6E0F               	movwf	___flge@ff1^0,c
  2800  001888  0E00               	movlw	0
  2801  00188A  6E10               	movwf	(___flge@ff1+1)^0,c
  2802  00188C  0E00               	movlw	0
  2803  00188E  6E11               	movwf	(___flge@ff1+2)^0,c
  2804  001890  0E3F               	movlw	63
  2805  001892  6E12               	movwf	(___flge@ff1+3)^0,c
  2806  001894  C031  F013         	movff	roundf@y,___flge@ff2
  2807  001898  C032  F014         	movff	roundf@y+1,___flge@ff2+1
  2808  00189C  C033  F015         	movff	roundf@y+2,___flge@ff2+2
  2809  0018A0  C034  F016         	movff	roundf@y+3,___flge@ff2+3
  2810  0018A4  EC6C  F00F         	call	___flge	;wreg free
  2811  0018A8  B0D8               	btfsc	status,0,c
  2812  0018AA  EF59  F00C         	goto	u2001
  2813  0018AE  EF5C  F00C         	goto	u2000
  2814  0018B2                     u2001:
  2815  0018B2  FFFF               	dw	65535	; assembler added errata NOP
  2816  0018B4  EF93  F00C         	goto	l2265
  2817  0018B8                     u2000:
  2818  0018B8  FFFF               	dw	65535	; assembler added errata NOP
  2819  0018BA  C01B  F005         	movff	roundf@x,___fladd@a
  2820  0018BE  C01C  F006         	movff	roundf@x+1,___fladd@a+1
  2821  0018C2  C01D  F007         	movff	roundf@x+2,___fladd@a+2
  2822  0018C6  C01E  F008         	movff	roundf@x+3,___fladd@a+3
  2823  0018CA  C031  F001         	movff	roundf@y,___fladd@b
  2824  0018CE  C032  F002         	movff	roundf@y+1,___fladd@b+1
  2825  0018D2  C033  F003         	movff	roundf@y+2,___fladd@b+2
  2826  0018D6  C034  F004         	movff	roundf@y+3,___fladd@b+3
  2827  0018DA  EC28  F006         	call	___fladd	;wreg free
  2828  0018DE  C001  F029         	movff	?___fladd,_roundf$1147
  2829  0018E2  C002  F02A         	movff	?___fladd+1,_roundf$1147+1
  2830  0018E6  C003  F02B         	movff	?___fladd+2,_roundf$1147+2
  2831  0018EA  C004  F02C         	movff	?___fladd+3,_roundf$1147+3
  2832  0018EE  C029  F001         	movff	_roundf$1147,___fladd@b
  2833  0018F2  C02A  F002         	movff	_roundf$1147+1,___fladd@b+1
  2834  0018F6  C02B  F003         	movff	_roundf$1147+2,___fladd@b+2
  2835  0018FA  C02C  F004         	movff	_roundf$1147+3,___fladd@b+3
  2836  0018FE  0E00               	movlw	0
  2837  001900  6E05               	movwf	___fladd@a^0,c
  2838  001902  0E00               	movlw	0
  2839  001904  6E06               	movwf	(___fladd@a+1)^0,c
  2840  001906  0E80               	movlw	128
  2841  001908  6E07               	movwf	(___fladd@a+2)^0,c
  2842  00190A  0EBF               	movlw	191
  2843  00190C  6E08               	movwf	(___fladd@a+3)^0,c
  2844  00190E  EC28  F006         	call	___fladd	;wreg free
  2845  001912  C001  F031         	movff	?___fladd,roundf@y
  2846  001916  C002  F032         	movff	?___fladd+1,roundf@y+1
  2847  00191A  C003  F033         	movff	?___fladd+2,roundf@y+2
  2848  00191E  C004  F034         	movff	?___fladd+3,roundf@y+3
  2849  001922  EF00  F00D         	goto	l2271
  2850  001926                     l2265:
  2851  001926  FFFF               	dw	65535	; assembler added errata NOP
  2852  001928  0E00               	movlw	0
  2853  00192A  6E0F               	movwf	___flge@ff1^0,c
  2854  00192C  0E00               	movlw	0
  2855  00192E  6E10               	movwf	(___flge@ff1+1)^0,c
  2856  001930  0E00               	movlw	0
  2857  001932  6E11               	movwf	(___flge@ff1+2)^0,c
  2858  001934  0EBF               	movlw	191
  2859  001936  6E12               	movwf	(___flge@ff1+3)^0,c
  2860  001938  C031  F013         	movff	roundf@y,___flge@ff2
  2861  00193C  C032  F014         	movff	roundf@y+1,___flge@ff2+1
  2862  001940  C033  F015         	movff	roundf@y+2,___flge@ff2+2
  2863  001944  C034  F016         	movff	roundf@y+3,___flge@ff2+3
  2864  001948  EC6C  F00F         	call	___flge	;wreg free
  2865  00194C  A0D8               	btfss	status,0,c
  2866  00194E  EFAB  F00C         	goto	u2011
  2867  001952  EFAE  F00C         	goto	u2010
  2868  001956                     u2011:
  2869  001956  FFFF               	dw	65535	; assembler added errata NOP
  2870  001958  EFE5  F00C         	goto	l2269
  2871  00195C                     u2010:
  2872  00195C  FFFF               	dw	65535	; assembler added errata NOP
  2873  00195E  C01B  F005         	movff	roundf@x,___fladd@a
  2874  001962  C01C  F006         	movff	roundf@x+1,___fladd@a+1
  2875  001966  C01D  F007         	movff	roundf@x+2,___fladd@a+2
  2876  00196A  C01E  F008         	movff	roundf@x+3,___fladd@a+3
  2877  00196E  C031  F001         	movff	roundf@y,___fladd@b
  2878  001972  C032  F002         	movff	roundf@y+1,___fladd@b+1
  2879  001976  C033  F003         	movff	roundf@y+2,___fladd@b+2
  2880  00197A  C034  F004         	movff	roundf@y+3,___fladd@b+3
  2881  00197E  EC28  F006         	call	___fladd	;wreg free
  2882  001982  C001  F029         	movff	?___fladd,_roundf$1147
  2883  001986  C002  F02A         	movff	?___fladd+1,_roundf$1147+1
  2884  00198A  C003  F02B         	movff	?___fladd+2,_roundf$1147+2
  2885  00198E  C004  F02C         	movff	?___fladd+3,_roundf$1147+3
  2886  001992  C029  F001         	movff	_roundf$1147,___fladd@b
  2887  001996  C02A  F002         	movff	_roundf$1147+1,___fladd@b+1
  2888  00199A  C02B  F003         	movff	_roundf$1147+2,___fladd@b+2
  2889  00199E  C02C  F004         	movff	_roundf$1147+3,___fladd@b+3
  2890  0019A2  0E00               	movlw	0
  2891  0019A4  6E05               	movwf	___fladd@a^0,c
  2892  0019A6  0E00               	movlw	0
  2893  0019A8  6E06               	movwf	(___fladd@a+1)^0,c
  2894  0019AA  0E80               	movlw	128
  2895  0019AC  6E07               	movwf	(___fladd@a+2)^0,c
  2896  0019AE  0E3F               	movlw	63
  2897  0019B0  6E08               	movwf	(___fladd@a+3)^0,c
  2898  0019B2  EC28  F006         	call	___fladd	;wreg free
  2899  0019B6  C001  F031         	movff	?___fladd,roundf@y
  2900  0019BA  C002  F032         	movff	?___fladd+1,roundf@y+1
  2901  0019BE  C003  F033         	movff	?___fladd+2,roundf@y+2
  2902  0019C2  C004  F034         	movff	?___fladd+3,roundf@y+3
  2903  0019C6  EF00  F00D         	goto	l2271
  2904  0019CA                     l2269:
  2905  0019CA  FFFF               	dw	65535	; assembler added errata NOP
  2906  0019CC  C031  F001         	movff	roundf@y,___fladd@b
  2907  0019D0  C032  F002         	movff	roundf@y+1,___fladd@b+1
  2908  0019D4  C033  F003         	movff	roundf@y+2,___fladd@b+2
  2909  0019D8  C034  F004         	movff	roundf@y+3,___fladd@b+3
  2910  0019DC  C01B  F005         	movff	roundf@x,___fladd@a
  2911  0019E0  C01C  F006         	movff	roundf@x+1,___fladd@a+1
  2912  0019E4  C01D  F007         	movff	roundf@x+2,___fladd@a+2
  2913  0019E8  C01E  F008         	movff	roundf@x+3,___fladd@a+3
  2914  0019EC  EC28  F006         	call	___fladd	;wreg free
  2915  0019F0  C001  F031         	movff	?___fladd,roundf@y
  2916  0019F4  C002  F032         	movff	?___fladd+1,roundf@y+1
  2917  0019F8  C003  F033         	movff	?___fladd+2,roundf@y+2
  2918  0019FC  C004  F034         	movff	?___fladd+3,roundf@y+3
  2919  001A00                     l2271:
  2920  001A00  FFFF               	dw	65535	; assembler added errata NOP
  2921  001A02  C02D  F01F         	movff	roundf@u,??_roundf
  2922  001A06  C02E  F020         	movff	roundf@u+1,??_roundf+1
  2923  001A0A  C02F  F021         	movff	roundf@u+2,??_roundf+2
  2924  001A0E  C030  F022         	movff	roundf@u+3,??_roundf+3
  2925  001A12  0E20               	movlw	32
  2926  001A14  EF12  F00D         	goto	u2020
  2927  001A18                     u2025:
  2928  001A18  FFFF               	dw	65535	; assembler added errata NOP
  2929  001A1A  90D8               	bcf	status,0,c
  2930  001A1C  3222               	rrcf	(??_roundf+3)^0,f,c
  2931  001A1E  3221               	rrcf	(??_roundf+2)^0,f,c
  2932  001A20  3220               	rrcf	(??_roundf+1)^0,f,c
  2933  001A22  321F               	rrcf	??_roundf^0,f,c
  2934  001A24                     u2020:
  2935  001A24  FFFF               	dw	65535	; assembler added errata NOP
  2936  001A26  2EE8               	decfsz	wreg,f,c
  2937  001A28  EF0C  F00D         	goto	u2025
  2938  001A2C  501F               	movf	??_roundf^0,w,c
  2939  001A2E  1020               	iorwf	(??_roundf+1)^0,w,c
  2940  001A30  1021               	iorwf	(??_roundf+2)^0,w,c
  2941  001A32  1022               	iorwf	(??_roundf+3)^0,w,c
  2942  001A34  B4D8               	btfsc	status,2,c
  2943  001A36  EF1F  F00D         	goto	u2031
  2944  001A3A  EF22  F00D         	goto	u2030
  2945  001A3E                     u2031:
  2946  001A3E  FFFF               	dw	65535	; assembler added errata NOP
  2947  001A40  EF35  F00D         	goto	l2275
  2948  001A44                     u2030:
  2949  001A44  FFFF               	dw	65535	; assembler added errata NOP
  2950  001A46  C031  F001         	movff	roundf@y,___flneg@f1
  2951  001A4A  C032  F002         	movff	roundf@y+1,___flneg@f1+1
  2952  001A4E  C033  F003         	movff	roundf@y+2,___flneg@f1+2
  2953  001A52  C034  F004         	movff	roundf@y+3,___flneg@f1+3
  2954  001A56  EC81  F011         	call	___flneg	;wreg free
  2955  001A5A  C001  F031         	movff	?___flneg,roundf@y
  2956  001A5E  C002  F032         	movff	?___flneg+1,roundf@y+1
  2957  001A62  C003  F033         	movff	?___flneg+2,roundf@y+2
  2958  001A66  C004  F034         	movff	?___flneg+3,roundf@y+3
  2959  001A6A                     l2275:
  2960  001A6A  FFFF               	dw	65535	; assembler added errata NOP
  2961  001A6C  C031  F01B         	movff	roundf@y,?_roundf
  2962  001A70  C032  F01C         	movff	roundf@y+1,?_roundf+1
  2963  001A74  C033  F01D         	movff	roundf@y+2,?_roundf+2
  2964  001A78  C034  F01E         	movff	roundf@y+3,?_roundf+3
  2965  001A7C                     l860:
  2966  001A7C  FFFF               	dw	65535	; assembler added errata NOP
  2967  001A7E  0012               	return		;funcret
  2968  001A80  FFFF               	dw	65535	; errata NOP
  2969  001A82                     __end_of_roundf:
  2970                           	callstack 0
  2971                           
  2972 ;; *************** function ___flsub *****************
  2973 ;; Defined at:
  2974 ;;		line 245 in file "/opt/microchip/xc8/v2.32/pic/sources/c99/common/sprcadd.c"
  2975 ;; Parameters:    Size  Location     Type
  2976 ;;  b               4   16[COMRAM] float 
  2977 ;;  a               4   20[COMRAM] float 
  2978 ;; Auto vars:     Size  Location     Type
  2979 ;;		None
  2980 ;; Return value:  Size  Location     Type
  2981 ;;                  4   16[COMRAM] float 
  2982 ;; Registers used:
  2983 ;;		wreg, status,2, status,0, cstack
  2984 ;; Tracked objects:
  2985 ;;		On entry : 0/0
  2986 ;;		On exit  : 0/0
  2987 ;;		Unchanged: 0/0
  2988 ;; Data sizes:     COMRAM   BANK0   BANK1   BANK2   BANK3   BANK4   BANK5
  2989 ;;      Params:         8       0       0       0       0       0       0
  2990 ;;      Locals:         0       0       0       0       0       0       0
  2991 ;;      Temps:          0       0       0       0       0       0       0
  2992 ;;      Totals:         8       0       0       0       0       0       0
  2993 ;;Total ram usage:        8 bytes
  2994 ;; Hardware stack levels used: 1
  2995 ;; Hardware stack levels required when called: 2
  2996 ;; This function calls:
  2997 ;;		___fladd
  2998 ;; This function is called by:
  2999 ;;		_roundf
  3000 ;; This function uses a non-reentrant model
  3001 ;;
  3002                           
  3003                           	psect	text11
  3004  0022B8                     __ptext11:
  3005                           	callstack 0
  3006  0022B8                     ___flsub:
  3007                           	callstack 0
  3008  0022B8  FFFF               	dw	65535	; assembler added errata NOP
  3009  0022BA  0E00               	movlw	0
  3010  0022BC  1A15               	xorwf	___flsub@a^0,f,c
  3011  0022BE  0E00               	movlw	0
  3012  0022C0  1A16               	xorwf	(___flsub@a+1)^0,f,c
  3013  0022C2  0E00               	movlw	0
  3014  0022C4  1A17               	xorwf	(___flsub@a+2)^0,f,c
  3015  0022C6  0E80               	movlw	128
  3016  0022C8  1A18               	xorwf	(___flsub@a+3)^0,f,c
  3017  0022CA  C011  F001         	movff	___flsub@b,___fladd@b
  3018  0022CE  C012  F002         	movff	___flsub@b+1,___fladd@b+1
  3019  0022D2  C013  F003         	movff	___flsub@b+2,___fladd@b+2
  3020  0022D6  C014  F004         	movff	___flsub@b+3,___fladd@b+3
  3021  0022DA  C015  F005         	movff	___flsub@a,___fladd@a
  3022  0022DE  C016  F006         	movff	___flsub@a+1,___fladd@a+1
  3023  0022E2  C017  F007         	movff	___flsub@a+2,___fladd@a+2
  3024  0022E6  C018  F008         	movff	___flsub@a+3,___fladd@a+3
  3025  0022EA  EC28  F006         	call	___fladd	;wreg free
  3026  0022EE  C001  F011         	movff	?___fladd,?___flsub
  3027  0022F2  C002  F012         	movff	?___fladd+1,?___flsub+1
  3028  0022F6  C003  F013         	movff	?___fladd+2,?___flsub+2
  3029  0022FA  C004  F014         	movff	?___fladd+3,?___flsub+3
  3030  0022FE  0012               	return		;funcret
  3031  002300  FFFF               	dw	65535	; errata NOP
  3032  002302                     __end_of___flsub:
  3033                           	callstack 0
  3034                           
  3035 ;; *************** function ___fladd *****************
  3036 ;; Defined at:
  3037 ;;		line 10 in file "/opt/microchip/xc8/v2.32/pic/sources/c99/common/sprcadd.c"
  3038 ;; Parameters:    Size  Location     Type
  3039 ;;  b               4    0[COMRAM] float 
  3040 ;;  a               4    4[COMRAM] float 
  3041 ;; Auto vars:     Size  Location     Type
  3042 ;;  grs             1   15[COMRAM] unsigned char 
  3043 ;;  bexp            1   14[COMRAM] unsigned char 
  3044 ;;  aexp            1   13[COMRAM] unsigned char 
  3045 ;;  signs           1   12[COMRAM] unsigned char 
  3046 ;; Return value:  Size  Location     Type
  3047 ;;                  4    0[COMRAM] unsigned char 
  3048 ;; Registers used:
  3049 ;;		wreg, status,2, status,0
  3050 ;; Tracked objects:
  3051 ;;		On entry : 0/0
  3052 ;;		On exit  : 0/0
  3053 ;;		Unchanged: 0/0
  3054 ;; Data sizes:     COMRAM   BANK0   BANK1   BANK2   BANK3   BANK4   BANK5
  3055 ;;      Params:         8       0       0       0       0       0       0
  3056 ;;      Locals:         4       0       0       0       0       0       0
  3057 ;;      Temps:          4       0       0       0       0       0       0
  3058 ;;      Totals:        16       0       0       0       0       0       0
  3059 ;;Total ram usage:       16 bytes
  3060 ;; Hardware stack levels used: 1
  3061 ;; Hardware stack levels required when called: 1
  3062 ;; This function calls:
  3063 ;;		Nothing
  3064 ;; This function is called by:
  3065 ;;		___flsub
  3066 ;;		_roundf
  3067 ;; This function uses a non-reentrant model
  3068 ;;
  3069                           
  3070                           	psect	text12
  3071  000C50                     __ptext12:
  3072                           	callstack 0
  3073  000C50                     ___fladd:
  3074                           	callstack 0
  3075  000C50  FFFF               	dw	65535	; assembler added errata NOP
  3076  000C52  5004               	movf	(___fladd@b+3)^0,w,c
  3077  000C54  0B80               	andlw	128
  3078  000C56  6E0D               	movwf	___fladd@signs^0,c
  3079  000C58  5004               	movf	(___fladd@b+3)^0,w,c
  3080  000C5A  2404               	addwf	(___fladd@b+3)^0,w,c
  3081  000C5C  6E0F               	movwf	___fladd@bexp^0,c
  3082  000C5E  AE03               	btfss	(___fladd@b+2)^0,7,c
  3083  000C60  EF34  F006         	goto	u1291
  3084  000C64  EF37  F006         	goto	u1290
  3085  000C68                     u1291:
  3086  000C68  FFFF               	dw	65535	; assembler added errata NOP
  3087  000C6A  EF39  F006         	goto	l1867
  3088  000C6E                     u1290:
  3089  000C6E  FFFF               	dw	65535	; assembler added errata NOP
  3090  000C70  800F               	bsf	___fladd@bexp^0,0,c
  3091  000C72                     l1867:
  3092  000C72  FFFF               	dw	65535	; assembler added errata NOP
  3093  000C74  500F               	movf	___fladd@bexp^0,w,c
  3094  000C76  B4D8               	btfsc	status,2,c
  3095  000C78  EF40  F006         	goto	u1301
  3096  000C7C  EF43  F006         	goto	u1300
  3097  000C80                     u1301:
  3098  000C80  FFFF               	dw	65535	; assembler added errata NOP
  3099  000C82  EF5C  F006         	goto	l1877
  3100  000C86                     u1300:
  3101  000C86  FFFF               	dw	65535	; assembler added errata NOP
  3102  000C88  280F               	incf	___fladd@bexp^0,w,c
  3103  000C8A  A4D8               	btfss	status,2,c
  3104  000C8C  EF4A  F006         	goto	u1311
  3105  000C90  EF4D  F006         	goto	u1310
  3106  000C94                     u1311:
  3107  000C94  FFFF               	dw	65535	; assembler added errata NOP
  3108  000C96  EF56  F006         	goto	l1873
  3109  000C9A                     u1310:
  3110  000C9A  FFFF               	dw	65535	; assembler added errata NOP
  3111  000C9C  0E00               	movlw	0
  3112  000C9E  6E01               	movwf	___fladd@b^0,c
  3113  000CA0  0E00               	movlw	0
  3114  000CA2  6E02               	movwf	(___fladd@b+1)^0,c
  3115  000CA4  0E00               	movlw	0
  3116  000CA6  6E03               	movwf	(___fladd@b+2)^0,c
  3117  000CA8  0E00               	movlw	0
  3118  000CAA  6E04               	movwf	(___fladd@b+3)^0,c
  3119  000CAC                     l1873:
  3120  000CAC  FFFF               	dw	65535	; assembler added errata NOP
  3121  000CAE  8E03               	bsf	(___fladd@b+2)^0,7,c
  3122  000CB0  0E00               	movlw	0
  3123  000CB2  6E04               	movwf	(___fladd@b+3)^0,c
  3124  000CB4  EF65  F006         	goto	l1879
  3125  000CB8                     l1877:
  3126  000CB8  FFFF               	dw	65535	; assembler added errata NOP
  3127  000CBA  0E00               	movlw	0
  3128  000CBC  6E01               	movwf	___fladd@b^0,c
  3129  000CBE  0E00               	movlw	0
  3130  000CC0  6E02               	movwf	(___fladd@b+1)^0,c
  3131  000CC2  0E00               	movlw	0
  3132  000CC4  6E03               	movwf	(___fladd@b+2)^0,c
  3133  000CC6  0E00               	movlw	0
  3134  000CC8  6E04               	movwf	(___fladd@b+3)^0,c
  3135  000CCA                     l1879:
  3136  000CCA  FFFF               	dw	65535	; assembler added errata NOP
  3137  000CCC  5008               	movf	(___fladd@a+3)^0,w,c
  3138  000CCE  0B80               	andlw	128
  3139  000CD0  6E0E               	movwf	___fladd@aexp^0,c
  3140  000CD2  500D               	movf	___fladd@signs^0,w,c
  3141  000CD4  180E               	xorwf	___fladd@aexp^0,w,c
  3142  000CD6  B4D8               	btfsc	status,2,c
  3143  000CD8  EF70  F006         	goto	u1321
  3144  000CDC  EF73  F006         	goto	u1320
  3145  000CE0                     u1321:
  3146  000CE0  FFFF               	dw	65535	; assembler added errata NOP
  3147  000CE2  EF75  F006         	goto	l1885
  3148  000CE6                     u1320:
  3149  000CE6  FFFF               	dw	65535	; assembler added errata NOP
  3150  000CE8  8C0D               	bsf	___fladd@signs^0,6,c
  3151  000CEA                     l1885:
  3152  000CEA  FFFF               	dw	65535	; assembler added errata NOP
  3153  000CEC  5008               	movf	(___fladd@a+3)^0,w,c
  3154  000CEE  2408               	addwf	(___fladd@a+3)^0,w,c
  3155  000CF0  6E0E               	movwf	___fladd@aexp^0,c
  3156  000CF2  AE07               	btfss	(___fladd@a+2)^0,7,c
  3157  000CF4  EF7E  F006         	goto	u1331
  3158  000CF8  EF81  F006         	goto	u1330
  3159  000CFC                     u1331:
  3160  000CFC  FFFF               	dw	65535	; assembler added errata NOP
  3161  000CFE  EF83  F006         	goto	l1891
  3162  000D02                     u1330:
  3163  000D02  FFFF               	dw	65535	; assembler added errata NOP
  3164  000D04  800E               	bsf	___fladd@aexp^0,0,c
  3165  000D06                     l1891:
  3166  000D06  FFFF               	dw	65535	; assembler added errata NOP
  3167  000D08  500E               	movf	___fladd@aexp^0,w,c
  3168  000D0A  B4D8               	btfsc	status,2,c
  3169  000D0C  EF8A  F006         	goto	u1341
  3170  000D10  EF8D  F006         	goto	u1340
  3171  000D14                     u1341:
  3172  000D14  FFFF               	dw	65535	; assembler added errata NOP
  3173  000D16  EFA6  F006         	goto	l1901
  3174  000D1A                     u1340:
  3175  000D1A  FFFF               	dw	65535	; assembler added errata NOP
  3176  000D1C  280E               	incf	___fladd@aexp^0,w,c
  3177  000D1E  A4D8               	btfss	status,2,c
  3178  000D20  EF94  F006         	goto	u1351
  3179  000D24  EF97  F006         	goto	u1350
  3180  000D28                     u1351:
  3181  000D28  FFFF               	dw	65535	; assembler added errata NOP
  3182  000D2A  EFA0  F006         	goto	l1897
  3183  000D2E                     u1350:
  3184  000D2E  FFFF               	dw	65535	; assembler added errata NOP
  3185  000D30  0E00               	movlw	0
  3186  000D32  6E05               	movwf	___fladd@a^0,c
  3187  000D34  0E00               	movlw	0
  3188  000D36  6E06               	movwf	(___fladd@a+1)^0,c
  3189  000D38  0E00               	movlw	0
  3190  000D3A  6E07               	movwf	(___fladd@a+2)^0,c
  3191  000D3C  0E00               	movlw	0
  3192  000D3E  6E08               	movwf	(___fladd@a+3)^0,c
  3193  000D40                     l1897:
  3194  000D40  FFFF               	dw	65535	; assembler added errata NOP
  3195  000D42  8E07               	bsf	(___fladd@a+2)^0,7,c
  3196  000D44  0E00               	movlw	0
  3197  000D46  6E08               	movwf	(___fladd@a+3)^0,c
  3198  000D48  EFAF  F006         	goto	l1903
  3199  000D4C                     l1901:
  3200  000D4C  FFFF               	dw	65535	; assembler added errata NOP
  3201  000D4E  0E00               	movlw	0
  3202  000D50  6E05               	movwf	___fladd@a^0,c
  3203  000D52  0E00               	movlw	0
  3204  000D54  6E06               	movwf	(___fladd@a+1)^0,c
  3205  000D56  0E00               	movlw	0
  3206  000D58  6E07               	movwf	(___fladd@a+2)^0,c
  3207  000D5A  0E00               	movlw	0
  3208  000D5C  6E08               	movwf	(___fladd@a+3)^0,c
  3209  000D5E                     l1903:
  3210  000D5E  FFFF               	dw	65535	; assembler added errata NOP
  3211  000D60  500F               	movf	___fladd@bexp^0,w,c
  3212  000D62  5C0E               	subwf	___fladd@aexp^0,w,c
  3213  000D64  B0D8               	btfsc	status,0,c
  3214  000D66  EFB7  F006         	goto	u1361
  3215  000D6A  EFBA  F006         	goto	u1360
  3216  000D6E                     u1361:
  3217  000D6E  FFFF               	dw	65535	; assembler added errata NOP
  3218  000D70  EFE5  F006         	goto	l1939
  3219  000D74                     u1360:
  3220  000D74  FFFF               	dw	65535	; assembler added errata NOP
  3221  000D76  AC0D               	btfss	___fladd@signs^0,6,c
  3222  000D78  EFC0  F006         	goto	u1371
  3223  000D7C  EFC3  F006         	goto	u1370
  3224  000D80                     u1371:
  3225  000D80  FFFF               	dw	65535	; assembler added errata NOP
  3226  000D82  EFC6  F006         	goto	l1909
  3227  000D86                     u1370:
  3228  000D86  FFFF               	dw	65535	; assembler added errata NOP
  3229  000D88  0E80               	movlw	128
  3230  000D8A  1A0D               	xorwf	___fladd@signs^0,f,c
  3231  000D8C                     l1909:
  3232  000D8C  FFFF               	dw	65535	; assembler added errata NOP
  3233  000D8E  C00F  F010         	movff	___fladd@bexp,___fladd@grs
  3234  000D92  C00E  F00F         	movff	___fladd@aexp,___fladd@bexp
  3235  000D96  C010  F00E         	movff	___fladd@grs,___fladd@aexp
  3236  000D9A  C001  F010         	movff	___fladd@b,___fladd@grs
  3237  000D9E  C005  F001         	movff	___fladd@a,___fladd@b
  3238  000DA2  C010  F005         	movff	___fladd@grs,___fladd@a
  3239  000DA6  C002  F010         	movff	___fladd@b+1,___fladd@grs
  3240  000DAA  C006  F002         	movff	___fladd@a+1,___fladd@b+1
  3241  000DAE  C010  F006         	movff	___fladd@grs,___fladd@a+1
  3242  000DB2  C003  F010         	movff	___fladd@b+2,___fladd@grs
  3243  000DB6  C007  F003         	movff	___fladd@a+2,___fladd@b+2
  3244  000DBA  C010  F007         	movff	___fladd@grs,___fladd@a+2
  3245  000DBE  C004  F010         	movff	___fladd@b+3,___fladd@grs
  3246  000DC2  C008  F004         	movff	___fladd@a+3,___fladd@b+3
  3247  000DC6  C010  F008         	movff	___fladd@grs,___fladd@a+3
  3248  000DCA                     l1939:
  3249  000DCA  FFFF               	dw	65535	; assembler added errata NOP
  3250  000DCC  0E00               	movlw	0
  3251  000DCE  6E10               	movwf	___fladd@grs^0,c
  3252  000DD0  500F               	movf	___fladd@bexp^0,w,c
  3253  000DD2  C00E  F009         	movff	___fladd@aexp,??___fladd
  3254  000DD6  6A0A               	clrf	(??___fladd+1)^0,c
  3255  000DD8  5E09               	subwf	??___fladd^0,f,c
  3256  000DDA  0E00               	movlw	0
  3257  000DDC  5A0A               	subwfb	(??___fladd+1)^0,f,c
  3258  000DDE  BE0A               	btfsc	(??___fladd+1)^0,7,c
  3259  000DE0  EFFB  F006         	goto	u1381
  3260  000DE4  500A               	movf	(??___fladd+1)^0,w,c
  3261  000DE6  E10A               	bnz	u1380
  3262  000DE8  0E1A               	movlw	26
  3263  000DEA  5C09               	subwf	??___fladd^0,w,c
  3264  000DEC  A0D8               	btfss	status,0,c
  3265  000DEE  EFFB  F006         	goto	u1381
  3266  000DF2  EFFE  F006         	goto	u1380
  3267  000DF6                     u1381:
  3268  000DF6  FFFF               	dw	65535	; assembler added errata NOP
  3269  000DF8  EF41  F007         	goto	l710
  3270  000DFC                     u1380:
  3271  000DFC  FFFF               	dw	65535	; assembler added errata NOP
  3272  000DFE  5001               	movf	___fladd@b^0,w,c
  3273  000E00  1002               	iorwf	(___fladd@b+1)^0,w,c
  3274  000E02  1003               	iorwf	(___fladd@b+2)^0,w,c
  3275  000E04  1004               	iorwf	(___fladd@b+3)^0,w,c
  3276  000E06  A4D8               	btfss	status,2,c
  3277  000E08  EF08  F007         	goto	u1391
  3278  000E0C  EF0C  F007         	goto	u1390
  3279  000E10                     u1391:
  3280  000E10  FFFF               	dw	65535	; assembler added errata NOP
  3281  000E12  0E01               	movlw	1
  3282  000E14  EF0E  F007         	goto	u1400
  3283  000E18                     u1390:
  3284  000E18  FFFF               	dw	65535	; assembler added errata NOP
  3285  000E1A  0E00               	movlw	0
  3286  000E1C                     u1400:
  3287  000E1C  FFFF               	dw	65535	; assembler added errata NOP
  3288  000E1E  6E10               	movwf	___fladd@grs^0,c
  3289  000E20  0E00               	movlw	0
  3290  000E22  6E01               	movwf	___fladd@b^0,c
  3291  000E24  0E00               	movlw	0
  3292  000E26  6E02               	movwf	(___fladd@b+1)^0,c
  3293  000E28  0E00               	movlw	0
  3294  000E2A  6E03               	movwf	(___fladd@b+2)^0,c
  3295  000E2C  0E00               	movlw	0
  3296  000E2E  6E04               	movwf	(___fladd@b+3)^0,c
  3297  000E30  C00E  F00F         	movff	___fladd@aexp,___fladd@bexp
  3298  000E34  EF4C  F007         	goto	l709
  3299  000E38                     l711:
  3300  000E38  FFFF               	dw	65535	; assembler added errata NOP
  3301  000E3A  A010               	btfss	___fladd@grs^0,0,c
  3302  000E3C  EF22  F007         	goto	u1411
  3303  000E40  EF25  F007         	goto	u1410
  3304  000E44                     u1411:
  3305  000E44  FFFF               	dw	65535	; assembler added errata NOP
  3306  000E46  EF2C  F007         	goto	l1951
  3307  000E4A                     u1410:
  3308  000E4A  FFFF               	dw	65535	; assembler added errata NOP
  3309  000E4C  90D8               	bcf	status,0,c
  3310  000E4E  3010               	rrcf	___fladd@grs^0,w,c
  3311  000E50  0901               	iorlw	1
  3312  000E52  6E10               	movwf	___fladd@grs^0,c
  3313  000E54  EF2F  F007         	goto	l1953
  3314  000E58                     l1951:
  3315  000E58  FFFF               	dw	65535	; assembler added errata NOP
  3316  000E5A  90D8               	bcf	status,0,c
  3317  000E5C  3210               	rrcf	___fladd@grs^0,f,c
  3318  000E5E                     l1953:
  3319  000E5E  FFFF               	dw	65535	; assembler added errata NOP
  3320  000E60  A001               	btfss	___fladd@b^0,0,c
  3321  000E62  EF35  F007         	goto	u1421
  3322  000E66  EF38  F007         	goto	u1420
  3323  000E6A                     u1421:
  3324  000E6A  FFFF               	dw	65535	; assembler added errata NOP
  3325  000E6C  EF3A  F007         	goto	l1957
  3326  000E70                     u1420:
  3327  000E70  FFFF               	dw	65535	; assembler added errata NOP
  3328  000E72  8E10               	bsf	___fladd@grs^0,7,c
  3329  000E74                     l1957:
  3330  000E74  FFFF               	dw	65535	; assembler added errata NOP
  3331  000E76  3404               	rlcf	(___fladd@b+3)^0,w,c
  3332  000E78  3204               	rrcf	(___fladd@b+3)^0,f,c
  3333  000E7A  3203               	rrcf	(___fladd@b+2)^0,f,c
  3334  000E7C  3202               	rrcf	(___fladd@b+1)^0,f,c
  3335  000E7E  3201               	rrcf	___fladd@b^0,f,c
  3336  000E80  2A0F               	incf	___fladd@bexp^0,f,c
  3337  000E82                     l710:
  3338  000E82  FFFF               	dw	65535	; assembler added errata NOP
  3339  000E84  500E               	movf	___fladd@aexp^0,w,c
  3340  000E86  5C0F               	subwf	___fladd@bexp^0,w,c
  3341  000E88  A0D8               	btfss	status,0,c
  3342  000E8A  EF49  F007         	goto	u1431
  3343  000E8E  EF4C  F007         	goto	u1430
  3344  000E92                     u1431:
  3345  000E92  FFFF               	dw	65535	; assembler added errata NOP
  3346  000E94  EF1C  F007         	goto	l711
  3347  000E98                     u1430:
  3348  000E98                     l709:
  3349  000E98  FFFF               	dw	65535	; assembler added errata NOP
  3350  000E9A  BC0D               	btfsc	___fladd@signs^0,6,c
  3351  000E9C  EF52  F007         	goto	u1441
  3352  000EA0  EF55  F007         	goto	u1440
  3353  000EA4                     u1441:
  3354  000EA4  FFFF               	dw	65535	; assembler added errata NOP
  3355  000EA6  EFA2  F007         	goto	l1985
  3356  000EAA                     u1440:
  3357  000EAA  FFFF               	dw	65535	; assembler added errata NOP
  3358  000EAC  500F               	movf	___fladd@bexp^0,w,c
  3359  000EAE  A4D8               	btfss	status,2,c
  3360  000EB0  EF5C  F007         	goto	u1451
  3361  000EB4  EF5F  F007         	goto	u1450
  3362  000EB8                     u1451:
  3363  000EB8  FFFF               	dw	65535	; assembler added errata NOP
  3364  000EBA  EF6A  F007         	goto	l1967
  3365  000EBE                     u1450:
  3366  000EBE  FFFF               	dw	65535	; assembler added errata NOP
  3367  000EC0  0E00               	movlw	0
  3368  000EC2  6E01               	movwf	?___fladd^0,c
  3369  000EC4  0E00               	movlw	0
  3370  000EC6  6E02               	movwf	(?___fladd+1)^0,c
  3371  000EC8  0E00               	movlw	0
  3372  000ECA  6E03               	movwf	(?___fladd+2)^0,c
  3373  000ECC  0E00               	movlw	0
  3374  000ECE  6E04               	movwf	(?___fladd+3)^0,c
  3375  000ED0  EFF9  F008         	goto	l718
  3376  000ED4                     l1967:
  3377  000ED4  FFFF               	dw	65535	; assembler added errata NOP
  3378  000ED6  5005               	movf	___fladd@a^0,w,c
  3379  000ED8  2601               	addwf	___fladd@b^0,f,c
  3380  000EDA  5006               	movf	(___fladd@a+1)^0,w,c
  3381  000EDC  2202               	addwfc	(___fladd@b+1)^0,f,c
  3382  000EDE  5007               	movf	(___fladd@a+2)^0,w,c
  3383  000EE0  2203               	addwfc	(___fladd@b+2)^0,f,c
  3384  000EE2  5008               	movf	(___fladd@a+3)^0,w,c
  3385  000EE4  2204               	addwfc	(___fladd@b+3)^0,f,c
  3386  000EE6  A004               	btfss	(___fladd@b+3)^0,0,c
  3387  000EE8  EF78  F007         	goto	u1461
  3388  000EEC  EF7B  F007         	goto	u1460
  3389  000EF0                     u1461:
  3390  000EF0  FFFF               	dw	65535	; assembler added errata NOP
  3391  000EF2  EF46  F008         	goto	l2021
  3392  000EF6                     u1460:
  3393  000EF6  FFFF               	dw	65535	; assembler added errata NOP
  3394  000EF8  A010               	btfss	___fladd@grs^0,0,c
  3395  000EFA  EF81  F007         	goto	u1471
  3396  000EFE  EF84  F007         	goto	u1470
  3397  000F02                     u1471:
  3398  000F02  FFFF               	dw	65535	; assembler added errata NOP
  3399  000F04  EF8B  F007         	goto	l1975
  3400  000F08                     u1470:
  3401  000F08  FFFF               	dw	65535	; assembler added errata NOP
  3402  000F0A  90D8               	bcf	status,0,c
  3403  000F0C  3010               	rrcf	___fladd@grs^0,w,c
  3404  000F0E  0901               	iorlw	1
  3405  000F10  6E10               	movwf	___fladd@grs^0,c
  3406  000F12  EF8E  F007         	goto	l1977
  3407  000F16                     l1975:
  3408  000F16  FFFF               	dw	65535	; assembler added errata NOP
  3409  000F18  90D8               	bcf	status,0,c
  3410  000F1A  3210               	rrcf	___fladd@grs^0,f,c
  3411  000F1C                     l1977:
  3412  000F1C  FFFF               	dw	65535	; assembler added errata NOP
  3413  000F1E  A001               	btfss	___fladd@b^0,0,c
  3414  000F20  EF94  F007         	goto	u1481
  3415  000F24  EF97  F007         	goto	u1480
  3416  000F28                     u1481:
  3417  000F28  FFFF               	dw	65535	; assembler added errata NOP
  3418  000F2A  EF99  F007         	goto	l1981
  3419  000F2E                     u1480:
  3420  000F2E  FFFF               	dw	65535	; assembler added errata NOP
  3421  000F30  8E10               	bsf	___fladd@grs^0,7,c
  3422  000F32                     l1981:
  3423  000F32  FFFF               	dw	65535	; assembler added errata NOP
  3424  000F34  3404               	rlcf	(___fladd@b+3)^0,w,c
  3425  000F36  3204               	rrcf	(___fladd@b+3)^0,f,c
  3426  000F38  3203               	rrcf	(___fladd@b+2)^0,f,c
  3427  000F3A  3202               	rrcf	(___fladd@b+1)^0,f,c
  3428  000F3C  3201               	rrcf	___fladd@b^0,f,c
  3429  000F3E  2A0F               	incf	___fladd@bexp^0,f,c
  3430  000F40  EF46  F008         	goto	l2021
  3431  000F44                     l1985:
  3432  000F44  FFFF               	dw	65535	; assembler added errata NOP
  3433  000F46  5005               	movf	___fladd@a^0,w,c
  3434  000F48  5C01               	subwf	___fladd@b^0,w,c
  3435  000F4A  5006               	movf	(___fladd@a+1)^0,w,c
  3436  000F4C  5802               	subwfb	(___fladd@b+1)^0,w,c
  3437  000F4E  5007               	movf	(___fladd@a+2)^0,w,c
  3438  000F50  5803               	subwfb	(___fladd@b+2)^0,w,c
  3439  000F52  5004               	movf	(___fladd@b+3)^0,w,c
  3440  000F54  0A80               	xorlw	128
  3441  000F56  6E09               	movwf	??___fladd^0,c
  3442  000F58  5008               	movf	(___fladd@a+3)^0,w,c
  3443  000F5A  0A80               	xorlw	128
  3444  000F5C  5809               	subwfb	??___fladd^0,w,c
  3445  000F5E  B0D8               	btfsc	status,0,c
  3446  000F60  EFB4  F007         	goto	u1491
  3447  000F64  EFB7  F007         	goto	u1490
  3448  000F68                     u1491:
  3449  000F68  FFFF               	dw	65535	; assembler added errata NOP
  3450  000F6A  EFE5  F007         	goto	l1995
  3451  000F6E                     u1490:
  3452  000F6E  FFFF               	dw	65535	; assembler added errata NOP
  3453  000F70  5001               	movf	___fladd@b^0,w,c
  3454  000F72  5C05               	subwf	___fladd@a^0,w,c
  3455  000F74  6E09               	movwf	??___fladd^0,c
  3456  000F76  5002               	movf	(___fladd@b+1)^0,w,c
  3457  000F78  5806               	subwfb	(___fladd@a+1)^0,w,c
  3458  000F7A  6E0A               	movwf	(??___fladd+1)^0,c
  3459  000F7C  5003               	movf	(___fladd@b+2)^0,w,c
  3460  000F7E  5807               	subwfb	(___fladd@a+2)^0,w,c
  3461  000F80  6E0B               	movwf	(??___fladd+2)^0,c
  3462  000F82  5004               	movf	(___fladd@b+3)^0,w,c
  3463  000F84  5808               	subwfb	(___fladd@a+3)^0,w,c
  3464  000F86  6E0C               	movwf	(??___fladd+3)^0,c
  3465  000F88  0EFF               	movlw	255
  3466  000F8A  2409               	addwf	??___fladd^0,w,c
  3467  000F8C  6E01               	movwf	___fladd@b^0,c
  3468  000F8E  0EFF               	movlw	255
  3469  000F90  200A               	addwfc	(??___fladd+1)^0,w,c
  3470  000F92  6E02               	movwf	(___fladd@b+1)^0,c
  3471  000F94  0EFF               	movlw	255
  3472  000F96  200B               	addwfc	(??___fladd+2)^0,w,c
  3473  000F98  6E03               	movwf	(___fladd@b+2)^0,c
  3474  000F9A  0EFF               	movlw	255
  3475  000F9C  200C               	addwfc	(??___fladd+3)^0,w,c
  3476  000F9E  6E04               	movwf	(___fladd@b+3)^0,c
  3477  000FA0  0E80               	movlw	128
  3478  000FA2  1A0D               	xorwf	___fladd@signs^0,f,c
  3479  000FA4  6C10               	negf	___fladd@grs^0,c
  3480  000FA6  5010               	movf	___fladd@grs^0,w,c
  3481  000FA8  A4D8               	btfss	status,2,c
  3482  000FAA  EFD9  F007         	goto	u1501
  3483  000FAE  EFDC  F007         	goto	u1500
  3484  000FB2                     u1501:
  3485  000FB2  FFFF               	dw	65535	; assembler added errata NOP
  3486  000FB4  EFEE  F007         	goto	l726
  3487  000FB8                     u1500:
  3488  000FB8  FFFF               	dw	65535	; assembler added errata NOP
  3489  000FBA  0E01               	movlw	1
  3490  000FBC  2601               	addwf	___fladd@b^0,f,c
  3491  000FBE  0E00               	movlw	0
  3492  000FC0  2202               	addwfc	(___fladd@b+1)^0,f,c
  3493  000FC2  2203               	addwfc	(___fladd@b+2)^0,f,c
  3494  000FC4  2204               	addwfc	(___fladd@b+3)^0,f,c
  3495  000FC6  EFEE  F007         	goto	l726
  3496  000FCA                     l1995:
  3497  000FCA  FFFF               	dw	65535	; assembler added errata NOP
  3498  000FCC  5005               	movf	___fladd@a^0,w,c
  3499  000FCE  5E01               	subwf	___fladd@b^0,f,c
  3500  000FD0  5006               	movf	(___fladd@a+1)^0,w,c
  3501  000FD2  5A02               	subwfb	(___fladd@b+1)^0,f,c
  3502  000FD4  5007               	movf	(___fladd@a+2)^0,w,c
  3503  000FD6  5A03               	subwfb	(___fladd@b+2)^0,f,c
  3504  000FD8  5008               	movf	(___fladd@a+3)^0,w,c
  3505  000FDA  5A04               	subwfb	(___fladd@b+3)^0,f,c
  3506  000FDC                     l726:
  3507  000FDC  FFFF               	dw	65535	; assembler added errata NOP
  3508  000FDE  5001               	movf	___fladd@b^0,w,c
  3509  000FE0  1002               	iorwf	(___fladd@b+1)^0,w,c
  3510  000FE2  1003               	iorwf	(___fladd@b+2)^0,w,c
  3511  000FE4  1004               	iorwf	(___fladd@b+3)^0,w,c
  3512  000FE6  A4D8               	btfss	status,2,c
  3513  000FE8  EFF8  F007         	goto	u1511
  3514  000FEC  EFFB  F007         	goto	u1510
  3515  000FF0                     u1511:
  3516  000FF0  FFFF               	dw	65535	; assembler added errata NOP
  3517  000FF2  EF3D  F008         	goto	l2019
  3518  000FF6                     u1510:
  3519  000FF6  FFFF               	dw	65535	; assembler added errata NOP
  3520  000FF8  5010               	movf	___fladd@grs^0,w,c
  3521  000FFA  A4D8               	btfss	status,2,c
  3522  000FFC  EF02  F008         	goto	u1521
  3523  001000  EF05  F008         	goto	u1520
  3524  001004                     u1521:
  3525  001004  FFFF               	dw	65535	; assembler added errata NOP
  3526  001006  EF3D  F008         	goto	l2019
  3527  00100A                     u1520:
  3528  00100A  FFFF               	dw	65535	; assembler added errata NOP
  3529  00100C  0E00               	movlw	0
  3530  00100E  6E01               	movwf	?___fladd^0,c
  3531  001010  0E00               	movlw	0
  3532  001012  6E02               	movwf	(?___fladd+1)^0,c
  3533  001014  0E00               	movlw	0
  3534  001016  6E03               	movwf	(?___fladd+2)^0,c
  3535  001018  0E00               	movlw	0
  3536  00101A  6E04               	movwf	(?___fladd+3)^0,c
  3537  00101C  EFF9  F008         	goto	l718
  3538  001020                     l2003:
  3539  001020  FFFF               	dw	65535	; assembler added errata NOP
  3540  001022  90D8               	bcf	status,0,c
  3541  001024  3601               	rlcf	___fladd@b^0,f,c
  3542  001026  3602               	rlcf	(___fladd@b+1)^0,f,c
  3543  001028  3603               	rlcf	(___fladd@b+2)^0,f,c
  3544  00102A  3604               	rlcf	(___fladd@b+3)^0,f,c
  3545  00102C  AE10               	btfss	___fladd@grs^0,7,c
  3546  00102E  EF1B  F008         	goto	u1531
  3547  001032  EF1E  F008         	goto	u1530
  3548  001036                     u1531:
  3549  001036  FFFF               	dw	65535	; assembler added errata NOP
  3550  001038  EF20  F008         	goto	l2009
  3551  00103C                     u1530:
  3552  00103C  FFFF               	dw	65535	; assembler added errata NOP
  3553  00103E  8001               	bsf	___fladd@b^0,0,c
  3554  001040                     l2009:
  3555  001040  FFFF               	dw	65535	; assembler added errata NOP
  3556  001042  A010               	btfss	___fladd@grs^0,0,c
  3557  001044  EF26  F008         	goto	u1541
  3558  001048  EF29  F008         	goto	u1540
  3559  00104C                     u1541:
  3560  00104C  FFFF               	dw	65535	; assembler added errata NOP
  3561  00104E  EF2E  F008         	goto	l2013
  3562  001052                     u1540:
  3563  001052  FFFF               	dw	65535	; assembler added errata NOP
  3564  001054  80D8               	bsf	status,0,c
  3565  001056  3610               	rlcf	___fladd@grs^0,f,c
  3566  001058  EF31  F008         	goto	l2015
  3567  00105C                     l2013:
  3568  00105C  FFFF               	dw	65535	; assembler added errata NOP
  3569  00105E  90D8               	bcf	status,0,c
  3570  001060  3610               	rlcf	___fladd@grs^0,f,c
  3571  001062                     l2015:
  3572  001062  FFFF               	dw	65535	; assembler added errata NOP
  3573  001064  500F               	movf	___fladd@bexp^0,w,c
  3574  001066  B4D8               	btfsc	status,2,c
  3575  001068  EF38  F008         	goto	u1551
  3576  00106C  EF3B  F008         	goto	u1550
  3577  001070                     u1551:
  3578  001070  FFFF               	dw	65535	; assembler added errata NOP
  3579  001072  EF3D  F008         	goto	l2019
  3580  001076                     u1550:
  3581  001076  FFFF               	dw	65535	; assembler added errata NOP
  3582  001078  060F               	decf	___fladd@bexp^0,f,c
  3583  00107A                     l2019:
  3584  00107A  FFFF               	dw	65535	; assembler added errata NOP
  3585  00107C  AE03               	btfss	(___fladd@b+2)^0,7,c
  3586  00107E  EF43  F008         	goto	u1561
  3587  001082  EF46  F008         	goto	u1560
  3588  001086                     u1561:
  3589  001086  FFFF               	dw	65535	; assembler added errata NOP
  3590  001088  EF10  F008         	goto	l2003
  3591  00108C                     u1560:
  3592  00108C                     l2021:
  3593  00108C  FFFF               	dw	65535	; assembler added errata NOP
  3594  00108E  0E00               	movlw	0
  3595  001090  6E0E               	movwf	___fladd@aexp^0,c
  3596  001092  AE10               	btfss	___fladd@grs^0,7,c
  3597  001094  EF4E  F008         	goto	u1571
  3598  001098  EF51  F008         	goto	u1570
  3599  00109C                     u1571:
  3600  00109C  FFFF               	dw	65535	; assembler added errata NOP
  3601  00109E  EF70  F008         	goto	l735
  3602  0010A2                     u1570:
  3603  0010A2  FFFF               	dw	65535	; assembler added errata NOP
  3604  0010A4  C010  F009         	movff	___fladd@grs,??___fladd
  3605  0010A8  0E7F               	movlw	127
  3606  0010AA  1609               	andwf	??___fladd^0,f,c
  3607  0010AC  B4D8               	btfsc	status,2,c
  3608  0010AE  EF5B  F008         	goto	u1581
  3609  0010B2  EF5E  F008         	goto	u1580
  3610  0010B6                     u1581:
  3611  0010B6  FFFF               	dw	65535	; assembler added errata NOP
  3612  0010B8  EF64  F008         	goto	l736
  3613  0010BC                     u1580:
  3614  0010BC  FFFF               	dw	65535	; assembler added errata NOP
  3615  0010BE                     l2027:
  3616  0010BE  FFFF               	dw	65535	; assembler added errata NOP
  3617  0010C0  0E01               	movlw	1
  3618  0010C2  6E0E               	movwf	___fladd@aexp^0,c
  3619  0010C4  EF70  F008         	goto	l735
  3620  0010C8                     l736:
  3621  0010C8  FFFF               	dw	65535	; assembler added errata NOP
  3622  0010CA  A001               	btfss	___fladd@b^0,0,c
  3623  0010CC  EF6A  F008         	goto	u1591
  3624  0010D0  EF6D  F008         	goto	u1590
  3625  0010D4                     u1591:
  3626  0010D4  FFFF               	dw	65535	; assembler added errata NOP
  3627  0010D6  EF70  F008         	goto	l735
  3628  0010DA                     u1590:
  3629  0010DA  FFFF               	dw	65535	; assembler added errata NOP
  3630  0010DC  EF5F  F008         	goto	l2027
  3631  0010E0                     l735:
  3632  0010E0  FFFF               	dw	65535	; assembler added errata NOP
  3633  0010E2  500E               	movf	___fladd@aexp^0,w,c
  3634  0010E4  B4D8               	btfsc	status,2,c
  3635  0010E6  EF77  F008         	goto	u1601
  3636  0010EA  EF7A  F008         	goto	u1600
  3637  0010EE                     u1601:
  3638  0010EE  FFFF               	dw	65535	; assembler added errata NOP
  3639  0010F0  EFAA  F008         	goto	l2039
  3640  0010F4                     u1600:
  3641  0010F4  FFFF               	dw	65535	; assembler added errata NOP
  3642  0010F6  0E01               	movlw	1
  3643  0010F8  2601               	addwf	___fladd@b^0,f,c
  3644  0010FA  0E00               	movlw	0
  3645  0010FC  2202               	addwfc	(___fladd@b+1)^0,f,c
  3646  0010FE  2203               	addwfc	(___fladd@b+2)^0,f,c
  3647  001100  2204               	addwfc	(___fladd@b+3)^0,f,c
  3648  001102  A004               	btfss	(___fladd@b+3)^0,0,c
  3649  001104  EF86  F008         	goto	u1611
  3650  001108  EF89  F008         	goto	u1610
  3651  00110C                     u1611:
  3652  00110C  FFFF               	dw	65535	; assembler added errata NOP
  3653  00110E  EFAA  F008         	goto	l2039
  3654  001112                     u1610:
  3655  001112  FFFF               	dw	65535	; assembler added errata NOP
  3656  001114  C001  F009         	movff	___fladd@b,??___fladd
  3657  001118  C002  F00A         	movff	___fladd@b+1,??___fladd+1
  3658  00111C  C003  F00B         	movff	___fladd@b+2,??___fladd+2
  3659  001120  C004  F00C         	movff	___fladd@b+3,??___fladd+3
  3660  001124  340C               	rlcf	(??___fladd+3)^0,w,c
  3661  001126  320C               	rrcf	(??___fladd+3)^0,f,c
  3662  001128  320B               	rrcf	(??___fladd+2)^0,f,c
  3663  00112A  320A               	rrcf	(??___fladd+1)^0,f,c
  3664  00112C  3209               	rrcf	??___fladd^0,f,c
  3665  00112E  C009  F001         	movff	??___fladd,___fladd@b
  3666  001132  C00A  F002         	movff	??___fladd+1,___fladd@b+1
  3667  001136  C00B  F003         	movff	??___fladd+2,___fladd@b+2
  3668  00113A  C00C  F004         	movff	??___fladd+3,___fladd@b+3
  3669  00113E  280F               	incf	___fladd@bexp^0,w,c
  3670  001140  B4D8               	btfsc	status,2,c
  3671  001142  EFA5  F008         	goto	u1621
  3672  001146  EFA8  F008         	goto	u1620
  3673  00114A                     u1621:
  3674  00114A  FFFF               	dw	65535	; assembler added errata NOP
  3675  00114C  EFAA  F008         	goto	l2039
  3676  001150                     u1620:
  3677  001150  FFFF               	dw	65535	; assembler added errata NOP
  3678  001152  2A0F               	incf	___fladd@bexp^0,f,c
  3679  001154                     l2039:
  3680  001154  FFFF               	dw	65535	; assembler added errata NOP
  3681  001156  280F               	incf	___fladd@bexp^0,w,c
  3682  001158  B4D8               	btfsc	status,2,c
  3683  00115A  EFB1  F008         	goto	u1631
  3684  00115E  EFB4  F008         	goto	u1630
  3685  001162                     u1631:
  3686  001162  FFFF               	dw	65535	; assembler added errata NOP
  3687  001164  EFBE  F008         	goto	l2043
  3688  001168                     u1630:
  3689  001168  FFFF               	dw	65535	; assembler added errata NOP
  3690  00116A  500F               	movf	___fladd@bexp^0,w,c
  3691  00116C  A4D8               	btfss	status,2,c
  3692  00116E  EFBB  F008         	goto	u1641
  3693  001172  EFBE  F008         	goto	u1640
  3694  001176                     u1641:
  3695  001176  FFFF               	dw	65535	; assembler added errata NOP
  3696  001178  EFD3  F008         	goto	l2047
  3697  00117C                     u1640:
  3698  00117C                     l2043:
  3699  00117C  FFFF               	dw	65535	; assembler added errata NOP
  3700  00117E  0E00               	movlw	0
  3701  001180  6E01               	movwf	___fladd@b^0,c
  3702  001182  0E00               	movlw	0
  3703  001184  6E02               	movwf	(___fladd@b+1)^0,c
  3704  001186  0E00               	movlw	0
  3705  001188  6E03               	movwf	(___fladd@b+2)^0,c
  3706  00118A  0E00               	movlw	0
  3707  00118C  6E04               	movwf	(___fladd@b+3)^0,c
  3708  00118E  500F               	movf	___fladd@bexp^0,w,c
  3709  001190  A4D8               	btfss	status,2,c
  3710  001192  EFCD  F008         	goto	u1651
  3711  001196  EFD0  F008         	goto	u1650
  3712  00119A                     u1651:
  3713  00119A  FFFF               	dw	65535	; assembler added errata NOP
  3714  00119C  EFD3  F008         	goto	l2047
  3715  0011A0                     u1650:
  3716  0011A0  FFFF               	dw	65535	; assembler added errata NOP
  3717  0011A2  0E00               	movlw	0
  3718  0011A4  6E0D               	movwf	___fladd@signs^0,c
  3719  0011A6                     l2047:
  3720  0011A6  FFFF               	dw	65535	; assembler added errata NOP
  3721  0011A8  A00F               	btfss	___fladd@bexp^0,0,c
  3722  0011AA  EFD9  F008         	goto	u1661
  3723  0011AE  EFDC  F008         	goto	u1660
  3724  0011B2                     u1661:
  3725  0011B2  FFFF               	dw	65535	; assembler added errata NOP
  3726  0011B4  EFE0  F008         	goto	l2051
  3727  0011B8                     u1660:
  3728  0011B8  FFFF               	dw	65535	; assembler added errata NOP
  3729  0011BA  8E03               	bsf	(___fladd@b+2)^0,7,c
  3730  0011BC  EFE2  F008         	goto	l2053
  3731  0011C0                     l2051:
  3732  0011C0  FFFF               	dw	65535	; assembler added errata NOP
  3733  0011C2  9E03               	bcf	(___fladd@b+2)^0,7,c
  3734  0011C4                     l2053:
  3735  0011C4  FFFF               	dw	65535	; assembler added errata NOP
  3736  0011C6  90D8               	bcf	status,0,c
  3737  0011C8  300F               	rrcf	___fladd@bexp^0,w,c
  3738  0011CA  6E04               	movwf	(___fladd@b+3)^0,c
  3739  0011CC  AE0D               	btfss	___fladd@signs^0,7,c
  3740  0011CE  EFEB  F008         	goto	u1671
  3741  0011D2  EFEE  F008         	goto	u1670
  3742  0011D6                     u1671:
  3743  0011D6  FFFF               	dw	65535	; assembler added errata NOP
  3744  0011D8  EFF0  F008         	goto	l2059
  3745  0011DC                     u1670:
  3746  0011DC  FFFF               	dw	65535	; assembler added errata NOP
  3747  0011DE  8E04               	bsf	(___fladd@b+3)^0,7,c
  3748  0011E0                     l2059:
  3749  0011E0  FFFF               	dw	65535	; assembler added errata NOP
  3750  0011E2  C001  F001         	movff	___fladd@b,?___fladd
  3751  0011E6  C002  F002         	movff	___fladd@b+1,?___fladd+1
  3752  0011EA  C003  F003         	movff	___fladd@b+2,?___fladd+2
  3753  0011EE  C004  F004         	movff	___fladd@b+3,?___fladd+3
  3754  0011F2                     l718:
  3755  0011F2  FFFF               	dw	65535	; assembler added errata NOP
  3756  0011F4  0012               	return		;funcret
  3757  0011F6  FFFF               	dw	65535	; errata NOP
  3758  0011F8                     __end_of___fladd:
  3759                           	callstack 0
  3760                           
  3761 ;; *************** function ___flneg *****************
  3762 ;; Defined at:
  3763 ;;		line 15 in file "/opt/microchip/xc8/v2.32/pic/sources/c99/common/flneg.c"
  3764 ;; Parameters:    Size  Location     Type
  3765 ;;  f1              4    0[COMRAM] unsigned char 
  3766 ;; Auto vars:     Size  Location     Type
  3767 ;;		None
  3768 ;; Return value:  Size  Location     Type
  3769 ;;                  4    0[COMRAM] unsigned char 
  3770 ;; Registers used:
  3771 ;;		wreg, status,2, status,0
  3772 ;; Tracked objects:
  3773 ;;		On entry : 0/0
  3774 ;;		On exit  : 0/0
  3775 ;;		Unchanged: 0/0
  3776 ;; Data sizes:     COMRAM   BANK0   BANK1   BANK2   BANK3   BANK4   BANK5
  3777 ;;      Params:         4       0       0       0       0       0       0
  3778 ;;      Locals:         0       0       0       0       0       0       0
  3779 ;;      Temps:          0       0       0       0       0       0       0
  3780 ;;      Totals:         4       0       0       0       0       0       0
  3781 ;;Total ram usage:        4 bytes
  3782 ;; Hardware stack levels used: 1
  3783 ;; Hardware stack levels required when called: 1
  3784 ;; This function calls:
  3785 ;;		Nothing
  3786 ;; This function is called by:
  3787 ;;		_roundf
  3788 ;; This function uses a non-reentrant model
  3789 ;;
  3790                           
  3791                           	psect	text13
  3792  002302                     __ptext13:
  3793                           	callstack 0
  3794  002302                     ___flneg:
  3795                           	callstack 0
  3796  002302  FFFF               	dw	65535	; assembler added errata NOP
  3797  002304  5001               	movf	___flneg@f1^0,w,c
  3798  002306  1002               	iorwf	(___flneg@f1+1)^0,w,c
  3799  002308  1003               	iorwf	(___flneg@f1+2)^0,w,c
  3800  00230A  1004               	iorwf	(___flneg@f1+3)^0,w,c
  3801  00230C  B4D8               	btfsc	status,2,c
  3802  00230E  EF8B  F011         	goto	u1941
  3803  002312  EF8E  F011         	goto	u1940
  3804  002316                     u1941:
  3805  002316  FFFF               	dw	65535	; assembler added errata NOP
  3806  002318  EF97  F011         	goto	l2241
  3807  00231C                     u1940:
  3808  00231C  FFFF               	dw	65535	; assembler added errata NOP
  3809  00231E  0E00               	movlw	0
  3810  002320  1A01               	xorwf	___flneg@f1^0,f,c
  3811  002322  0E00               	movlw	0
  3812  002324  1A02               	xorwf	(___flneg@f1+1)^0,f,c
  3813  002326  0E00               	movlw	0
  3814  002328  1A03               	xorwf	(___flneg@f1+2)^0,f,c
  3815  00232A  0E80               	movlw	128
  3816  00232C  1A04               	xorwf	(___flneg@f1+3)^0,f,c
  3817  00232E                     l2241:
  3818  00232E  FFFF               	dw	65535	; assembler added errata NOP
  3819  002330  C001  F001         	movff	___flneg@f1,?___flneg
  3820  002334  C002  F002         	movff	___flneg@f1+1,?___flneg+1
  3821  002338  C003  F003         	movff	___flneg@f1+2,?___flneg+2
  3822  00233C  C004  F004         	movff	___flneg@f1+3,?___flneg+3
  3823  002340  0012               	return		;funcret
  3824  002342  FFFF               	dw	65535	; errata NOP
  3825  002344                     __end_of___flneg:
  3826                           	callstack 0
  3827                           
  3828 ;; *************** function ___flmul *****************
  3829 ;; Defined at:
  3830 ;;		line 8 in file "/opt/microchip/xc8/v2.32/pic/sources/c99/common/sprcmul.c"
  3831 ;; Parameters:    Size  Location     Type
  3832 ;;  b               4    0[COMRAM] unsigned char 
  3833 ;;  a               4    4[COMRAM] unsigned char 
  3834 ;; Auto vars:     Size  Location     Type
  3835 ;;  prod            4   19[COMRAM] struct .
  3836 ;;  grs             4   13[COMRAM] unsigned long 
  3837 ;;  temp            2   23[COMRAM] struct .
  3838 ;;  bexp            1   18[COMRAM] unsigned char 
  3839 ;;  aexp            1   17[COMRAM] unsigned char 
  3840 ;;  sign            1   12[COMRAM] unsigned char 
  3841 ;; Return value:  Size  Location     Type
  3842 ;;                  4    0[COMRAM] unsigned char 
  3843 ;; Registers used:
  3844 ;;		wreg, status,2, status,0, prodl, prodh
  3845 ;; Tracked objects:
  3846 ;;		On entry : 0/0
  3847 ;;		On exit  : 0/0
  3848 ;;		Unchanged: 0/0
  3849 ;; Data sizes:     COMRAM   BANK0   BANK1   BANK2   BANK3   BANK4   BANK5
  3850 ;;      Params:         8       0       0       0       0       0       0
  3851 ;;      Locals:        13       0       0       0       0       0       0
  3852 ;;      Temps:          4       0       0       0       0       0       0
  3853 ;;      Totals:        25       0       0       0       0       0       0
  3854 ;;Total ram usage:       25 bytes
  3855 ;; Hardware stack levels used: 1
  3856 ;; Hardware stack levels required when called: 1
  3857 ;; This function calls:
  3858 ;;		Nothing
  3859 ;; This function is called by:
  3860 ;;		_roundf
  3861 ;; This function uses a non-reentrant model
  3862 ;;
  3863                           
  3864                           	psect	text14
  3865  0011F8                     __ptext14:
  3866                           	callstack 0
  3867  0011F8                     ___flmul:
  3868                           	callstack 0
  3869  0011F8  FFFF               	dw	65535	; assembler added errata NOP
  3870  0011FA  5004               	movf	(___flmul@b+3)^0,w,c
  3871  0011FC  0B80               	andlw	128
  3872  0011FE  6E0D               	movwf	___flmul@sign^0,c
  3873  001200  5004               	movf	(___flmul@b+3)^0,w,c
  3874  001202  2404               	addwf	(___flmul@b+3)^0,w,c
  3875  001204  6E13               	movwf	___flmul@bexp^0,c
  3876  001206  AE03               	btfss	(___flmul@b+2)^0,7,c
  3877  001208  EF08  F009         	goto	u1701
  3878  00120C  EF0B  F009         	goto	u1700
  3879  001210                     u1701:
  3880  001210  FFFF               	dw	65535	; assembler added errata NOP
  3881  001212  EF0D  F009         	goto	l2085
  3882  001216                     u1700:
  3883  001216  FFFF               	dw	65535	; assembler added errata NOP
  3884  001218  8013               	bsf	___flmul@bexp^0,0,c
  3885  00121A                     l2085:
  3886  00121A  FFFF               	dw	65535	; assembler added errata NOP
  3887  00121C  5013               	movf	___flmul@bexp^0,w,c
  3888  00121E  B4D8               	btfsc	status,2,c
  3889  001220  EF14  F009         	goto	u1711
  3890  001224  EF17  F009         	goto	u1710
  3891  001228                     u1711:
  3892  001228  FFFF               	dw	65535	; assembler added errata NOP
  3893  00122A  EF2E  F009         	goto	l2093
  3894  00122E                     u1710:
  3895  00122E  FFFF               	dw	65535	; assembler added errata NOP
  3896  001230  2813               	incf	___flmul@bexp^0,w,c
  3897  001232  A4D8               	btfss	status,2,c
  3898  001234  EF1E  F009         	goto	u1721
  3899  001238  EF21  F009         	goto	u1720
  3900  00123C                     u1721:
  3901  00123C  FFFF               	dw	65535	; assembler added errata NOP
  3902  00123E  EF2A  F009         	goto	l2091
  3903  001242                     u1720:
  3904  001242  FFFF               	dw	65535	; assembler added errata NOP
  3905  001244  0E00               	movlw	0
  3906  001246  6E01               	movwf	___flmul@b^0,c
  3907  001248  0E00               	movlw	0
  3908  00124A  6E02               	movwf	(___flmul@b+1)^0,c
  3909  00124C  0E00               	movlw	0
  3910  00124E  6E03               	movwf	(___flmul@b+2)^0,c
  3911  001250  0E00               	movlw	0
  3912  001252  6E04               	movwf	(___flmul@b+3)^0,c
  3913  001254                     l2091:
  3914  001254  FFFF               	dw	65535	; assembler added errata NOP
  3915  001256  8E03               	bsf	(___flmul@b+2)^0,7,c
  3916  001258  EF37  F009         	goto	l2095
  3917  00125C                     l2093:
  3918  00125C  FFFF               	dw	65535	; assembler added errata NOP
  3919  00125E  0E00               	movlw	0
  3920  001260  6E01               	movwf	___flmul@b^0,c
  3921  001262  0E00               	movlw	0
  3922  001264  6E02               	movwf	(___flmul@b+1)^0,c
  3923  001266  0E00               	movlw	0
  3924  001268  6E03               	movwf	(___flmul@b+2)^0,c
  3925  00126A  0E00               	movlw	0
  3926  00126C  6E04               	movwf	(___flmul@b+3)^0,c
  3927  00126E                     l2095:
  3928  00126E  FFFF               	dw	65535	; assembler added errata NOP
  3929  001270  5008               	movf	(___flmul@a+3)^0,w,c
  3930  001272  0B80               	andlw	128
  3931  001274  1A0D               	xorwf	___flmul@sign^0,f,c
  3932  001276  5008               	movf	(___flmul@a+3)^0,w,c
  3933  001278  2408               	addwf	(___flmul@a+3)^0,w,c
  3934  00127A  6E12               	movwf	___flmul@aexp^0,c
  3935  00127C  AE07               	btfss	(___flmul@a+2)^0,7,c
  3936  00127E  EF43  F009         	goto	u1731
  3937  001282  EF46  F009         	goto	u1730
  3938  001286                     u1731:
  3939  001286  FFFF               	dw	65535	; assembler added errata NOP
  3940  001288  EF48  F009         	goto	l2103
  3941  00128C                     u1730:
  3942  00128C  FFFF               	dw	65535	; assembler added errata NOP
  3943  00128E  8012               	bsf	___flmul@aexp^0,0,c
  3944  001290                     l2103:
  3945  001290  FFFF               	dw	65535	; assembler added errata NOP
  3946  001292  5012               	movf	___flmul@aexp^0,w,c
  3947  001294  B4D8               	btfsc	status,2,c
  3948  001296  EF4F  F009         	goto	u1741
  3949  00129A  EF52  F009         	goto	u1740
  3950  00129E                     u1741:
  3951  00129E  FFFF               	dw	65535	; assembler added errata NOP
  3952  0012A0  EF69  F009         	goto	l2111
  3953  0012A4                     u1740:
  3954  0012A4  FFFF               	dw	65535	; assembler added errata NOP
  3955  0012A6  2812               	incf	___flmul@aexp^0,w,c
  3956  0012A8  A4D8               	btfss	status,2,c
  3957  0012AA  EF59  F009         	goto	u1751
  3958  0012AE  EF5C  F009         	goto	u1750
  3959  0012B2                     u1751:
  3960  0012B2  FFFF               	dw	65535	; assembler added errata NOP
  3961  0012B4  EF65  F009         	goto	l2109
  3962  0012B8                     u1750:
  3963  0012B8  FFFF               	dw	65535	; assembler added errata NOP
  3964  0012BA  0E00               	movlw	0
  3965  0012BC  6E05               	movwf	___flmul@a^0,c
  3966  0012BE  0E00               	movlw	0
  3967  0012C0  6E06               	movwf	(___flmul@a+1)^0,c
  3968  0012C2  0E00               	movlw	0
  3969  0012C4  6E07               	movwf	(___flmul@a+2)^0,c
  3970  0012C6  0E00               	movlw	0
  3971  0012C8  6E08               	movwf	(___flmul@a+3)^0,c
  3972  0012CA                     l2109:
  3973  0012CA  FFFF               	dw	65535	; assembler added errata NOP
  3974  0012CC  8E07               	bsf	(___flmul@a+2)^0,7,c
  3975  0012CE  EF72  F009         	goto	l795
  3976  0012D2                     l2111:
  3977  0012D2  FFFF               	dw	65535	; assembler added errata NOP
  3978  0012D4  0E00               	movlw	0
  3979  0012D6  6E05               	movwf	___flmul@a^0,c
  3980  0012D8  0E00               	movlw	0
  3981  0012DA  6E06               	movwf	(___flmul@a+1)^0,c
  3982  0012DC  0E00               	movlw	0
  3983  0012DE  6E07               	movwf	(___flmul@a+2)^0,c
  3984  0012E0  0E00               	movlw	0
  3985  0012E2  6E08               	movwf	(___flmul@a+3)^0,c
  3986  0012E4                     l795:
  3987  0012E4  FFFF               	dw	65535	; assembler added errata NOP
  3988  0012E6  5012               	movf	___flmul@aexp^0,w,c
  3989  0012E8  B4D8               	btfsc	status,2,c
  3990  0012EA  EF79  F009         	goto	u1761
  3991  0012EE  EF7C  F009         	goto	u1760
  3992  0012F2                     u1761:
  3993  0012F2  FFFF               	dw	65535	; assembler added errata NOP
  3994  0012F4  EF86  F009         	goto	l2115
  3995  0012F8                     u1760:
  3996  0012F8  FFFF               	dw	65535	; assembler added errata NOP
  3997  0012FA  5013               	movf	___flmul@bexp^0,w,c
  3998  0012FC  A4D8               	btfss	status,2,c
  3999  0012FE  EF83  F009         	goto	u1771
  4000  001302  EF86  F009         	goto	u1770
  4001  001306                     u1771:
  4002  001306  FFFF               	dw	65535	; assembler added errata NOP
  4003  001308  EF91  F009         	goto	l2119
  4004  00130C                     u1770:
  4005  00130C                     l2115:
  4006  00130C  FFFF               	dw	65535	; assembler added errata NOP
  4007  00130E  0E00               	movlw	0
  4008  001310  6E01               	movwf	?___flmul^0,c
  4009  001312  0E00               	movlw	0
  4010  001314  6E02               	movwf	(?___flmul+1)^0,c
  4011  001316  0E00               	movlw	0
  4012  001318  6E03               	movwf	(?___flmul+2)^0,c
  4013  00131A  0E00               	movlw	0
  4014  00131C  6E04               	movwf	(?___flmul+3)^0,c
  4015  00131E  EF4B  F00B         	goto	l799
  4016  001322                     l2119:
  4017  001322  FFFF               	dw	65535	; assembler added errata NOP
  4018  001324  5007               	movf	(___flmul@a+2)^0,w,c
  4019  001326  0201               	mulwf	___flmul@b^0,c
  4020  001328  CFF3 F018          	movff	prodl,___flmul@temp
  4021  00132C  CFF4 F019          	movff	prodh,___flmul@temp+1
  4022  001330  5018               	movf	___flmul@temp^0,w,c
  4023  001332  6E0E               	movwf	___flmul@grs^0,c
  4024  001334  6A0F               	clrf	(___flmul@grs+1)^0,c
  4025  001336  6A10               	clrf	(___flmul@grs+2)^0,c
  4026  001338  6A11               	clrf	(___flmul@grs+3)^0,c
  4027  00133A  5019               	movf	(___flmul@temp+1)^0,w,c
  4028  00133C  6E14               	movwf	___flmul@prod^0,c
  4029  00133E  6A15               	clrf	(___flmul@prod+1)^0,c
  4030  001340  6A16               	clrf	(___flmul@prod+2)^0,c
  4031  001342  6A17               	clrf	(___flmul@prod+3)^0,c
  4032  001344  5006               	movf	(___flmul@a+1)^0,w,c
  4033  001346  0202               	mulwf	(___flmul@b+1)^0,c
  4034  001348  CFF3 F018          	movff	prodl,___flmul@temp
  4035  00134C  CFF4 F019          	movff	prodh,___flmul@temp+1
  4036  001350  5018               	movf	___flmul@temp^0,w,c
  4037  001352  260E               	addwf	___flmul@grs^0,f,c
  4038  001354  0E00               	movlw	0
  4039  001356  220F               	addwfc	(___flmul@grs+1)^0,f,c
  4040  001358  2210               	addwfc	(___flmul@grs+2)^0,f,c
  4041  00135A  2211               	addwfc	(___flmul@grs+3)^0,f,c
  4042  00135C  5019               	movf	(___flmul@temp+1)^0,w,c
  4043  00135E  2614               	addwf	___flmul@prod^0,f,c
  4044  001360  0E00               	movlw	0
  4045  001362  2215               	addwfc	(___flmul@prod+1)^0,f,c
  4046  001364  2216               	addwfc	(___flmul@prod+2)^0,f,c
  4047  001366  2217               	addwfc	(___flmul@prod+3)^0,f,c
  4048  001368  5005               	movf	___flmul@a^0,w,c
  4049  00136A  0203               	mulwf	(___flmul@b+2)^0,c
  4050  00136C  CFF3 F018          	movff	prodl,___flmul@temp
  4051  001370  CFF4 F019          	movff	prodh,___flmul@temp+1
  4052  001374  5018               	movf	___flmul@temp^0,w,c
  4053  001376  260E               	addwf	___flmul@grs^0,f,c
  4054  001378  0E00               	movlw	0
  4055  00137A  220F               	addwfc	(___flmul@grs+1)^0,f,c
  4056  00137C  2210               	addwfc	(___flmul@grs+2)^0,f,c
  4057  00137E  2211               	addwfc	(___flmul@grs+3)^0,f,c
  4058  001380  5019               	movf	(___flmul@temp+1)^0,w,c
  4059  001382  2614               	addwf	___flmul@prod^0,f,c
  4060  001384  0E00               	movlw	0
  4061  001386  2215               	addwfc	(___flmul@prod+1)^0,f,c
  4062  001388  2216               	addwfc	(___flmul@prod+2)^0,f,c
  4063  00138A  2217               	addwfc	(___flmul@prod+3)^0,f,c
  4064  00138C  C010  F011         	movff	___flmul@grs+2,___flmul@grs+3
  4065  001390  C00F  F010         	movff	___flmul@grs+1,___flmul@grs+2
  4066  001394  C00E  F00F         	movff	___flmul@grs,___flmul@grs+1
  4067  001398  6A0E               	clrf	___flmul@grs^0,c
  4068  00139A  5005               	movf	___flmul@a^0,w,c
  4069  00139C  0202               	mulwf	(___flmul@b+1)^0,c
  4070  00139E  CFF3 F018          	movff	prodl,___flmul@temp
  4071  0013A2  CFF4 F019          	movff	prodh,___flmul@temp+1
  4072  0013A6  5018               	movf	___flmul@temp^0,w,c
  4073  0013A8  260E               	addwf	___flmul@grs^0,f,c
  4074  0013AA  5019               	movf	(___flmul@temp+1)^0,w,c
  4075  0013AC  220F               	addwfc	(___flmul@grs+1)^0,f,c
  4076  0013AE  0E00               	movlw	0
  4077  0013B0  2210               	addwfc	(___flmul@grs+2)^0,f,c
  4078  0013B2  0E00               	movlw	0
  4079  0013B4  2211               	addwfc	(___flmul@grs+3)^0,f,c
  4080  0013B6  5006               	movf	(___flmul@a+1)^0,w,c
  4081  0013B8  0201               	mulwf	___flmul@b^0,c
  4082  0013BA  CFF3 F018          	movff	prodl,___flmul@temp
  4083  0013BE  CFF4 F019          	movff	prodh,___flmul@temp+1
  4084  0013C2  5018               	movf	___flmul@temp^0,w,c
  4085  0013C4  260E               	addwf	___flmul@grs^0,f,c
  4086  0013C6  5019               	movf	(___flmul@temp+1)^0,w,c
  4087  0013C8  220F               	addwfc	(___flmul@grs+1)^0,f,c
  4088  0013CA  0E00               	movlw	0
  4089  0013CC  2210               	addwfc	(___flmul@grs+2)^0,f,c
  4090  0013CE  0E00               	movlw	0
  4091  0013D0  2211               	addwfc	(___flmul@grs+3)^0,f,c
  4092  0013D2  C010  F011         	movff	___flmul@grs+2,___flmul@grs+3
  4093  0013D6  C00F  F010         	movff	___flmul@grs+1,___flmul@grs+2
  4094  0013DA  C00E  F00F         	movff	___flmul@grs,___flmul@grs+1
  4095  0013DE  6A0E               	clrf	___flmul@grs^0,c
  4096  0013E0  5005               	movf	___flmul@a^0,w,c
  4097  0013E2  0201               	mulwf	___flmul@b^0,c
  4098  0013E4  CFF3 F018          	movff	prodl,___flmul@temp
  4099  0013E8  CFF4 F019          	movff	prodh,___flmul@temp+1
  4100  0013EC  5018               	movf	___flmul@temp^0,w,c
  4101  0013EE  260E               	addwf	___flmul@grs^0,f,c
  4102  0013F0  5019               	movf	(___flmul@temp+1)^0,w,c
  4103  0013F2  220F               	addwfc	(___flmul@grs+1)^0,f,c
  4104  0013F4  0E00               	movlw	0
  4105  0013F6  2210               	addwfc	(___flmul@grs+2)^0,f,c
  4106  0013F8  0E00               	movlw	0
  4107  0013FA  2211               	addwfc	(___flmul@grs+3)^0,f,c
  4108  0013FC  5007               	movf	(___flmul@a+2)^0,w,c
  4109  0013FE  0202               	mulwf	(___flmul@b+1)^0,c
  4110  001400  CFF3 F018          	movff	prodl,___flmul@temp
  4111  001404  CFF4 F019          	movff	prodh,___flmul@temp+1
  4112  001408  5018               	movf	___flmul@temp^0,w,c
  4113  00140A  2614               	addwf	___flmul@prod^0,f,c
  4114  00140C  5019               	movf	(___flmul@temp+1)^0,w,c
  4115  00140E  2215               	addwfc	(___flmul@prod+1)^0,f,c
  4116  001410  0E00               	movlw	0
  4117  001412  2216               	addwfc	(___flmul@prod+2)^0,f,c
  4118  001414  0E00               	movlw	0
  4119  001416  2217               	addwfc	(___flmul@prod+3)^0,f,c
  4120  001418  5006               	movf	(___flmul@a+1)^0,w,c
  4121  00141A  0203               	mulwf	(___flmul@b+2)^0,c
  4122  00141C  CFF3 F018          	movff	prodl,___flmul@temp
  4123  001420  CFF4 F019          	movff	prodh,___flmul@temp+1
  4124  001424  5018               	movf	___flmul@temp^0,w,c
  4125  001426  2614               	addwf	___flmul@prod^0,f,c
  4126  001428  5019               	movf	(___flmul@temp+1)^0,w,c
  4127  00142A  2215               	addwfc	(___flmul@prod+1)^0,f,c
  4128  00142C  0E00               	movlw	0
  4129  00142E  2216               	addwfc	(___flmul@prod+2)^0,f,c
  4130  001430  0E00               	movlw	0
  4131  001432  2217               	addwfc	(___flmul@prod+3)^0,f,c
  4132  001434  5007               	movf	(___flmul@a+2)^0,w,c
  4133  001436  0203               	mulwf	(___flmul@b+2)^0,c
  4134  001438  CFF3 F018          	movff	prodl,___flmul@temp
  4135  00143C  CFF4 F019          	movff	prodh,___flmul@temp+1
  4136  001440  5018               	movf	___flmul@temp^0,w,c
  4137  001442  6E09               	movwf	??___flmul^0,c
  4138  001444  5019               	movf	(___flmul@temp+1)^0,w,c
  4139  001446  6E0A               	movwf	(??___flmul+1)^0,c
  4140  001448  6A0B               	clrf	(??___flmul+2)^0,c
  4141  00144A  6A0C               	clrf	(??___flmul+3)^0,c
  4142  00144C  C00B  F00C         	movff	??___flmul+2,??___flmul+3
  4143  001450  C00A  F00B         	movff	??___flmul+1,??___flmul+2
  4144  001454  C009  F00A         	movff	??___flmul,??___flmul+1
  4145  001458  6A09               	clrf	??___flmul^0,c
  4146  00145A  5009               	movf	??___flmul^0,w,c
  4147  00145C  2614               	addwf	___flmul@prod^0,f,c
  4148  00145E  500A               	movf	(??___flmul+1)^0,w,c
  4149  001460  2215               	addwfc	(___flmul@prod+1)^0,f,c
  4150  001462  500B               	movf	(??___flmul+2)^0,w,c
  4151  001464  2216               	addwfc	(___flmul@prod+2)^0,f,c
  4152  001466  500C               	movf	(??___flmul+3)^0,w,c
  4153  001468  2217               	addwfc	(___flmul@prod+3)^0,f,c
  4154  00146A  C00E  F009         	movff	___flmul@grs,??___flmul
  4155  00146E  C00F  F00A         	movff	___flmul@grs+1,??___flmul+1
  4156  001472  C010  F00B         	movff	___flmul@grs+2,??___flmul+2
  4157  001476  C011  F00C         	movff	___flmul@grs+3,??___flmul+3
  4158  00147A  0E19               	movlw	25
  4159  00147C  EF46  F00A         	goto	u1780
  4160  001480                     u1785:
  4161  001480  FFFF               	dw	65535	; assembler added errata NOP
  4162  001482  90D8               	bcf	status,0,c
  4163  001484  320C               	rrcf	(??___flmul+3)^0,f,c
  4164  001486  320B               	rrcf	(??___flmul+2)^0,f,c
  4165  001488  320A               	rrcf	(??___flmul+1)^0,f,c
  4166  00148A  3209               	rrcf	??___flmul^0,f,c
  4167  00148C                     u1780:
  4168  00148C  FFFF               	dw	65535	; assembler added errata NOP
  4169  00148E  2EE8               	decfsz	wreg,f,c
  4170  001490  EF40  F00A         	goto	u1785
  4171  001494  5009               	movf	??___flmul^0,w,c
  4172  001496  2614               	addwf	___flmul@prod^0,f,c
  4173  001498  500A               	movf	(??___flmul+1)^0,w,c
  4174  00149A  2215               	addwfc	(___flmul@prod+1)^0,f,c
  4175  00149C  500B               	movf	(??___flmul+2)^0,w,c
  4176  00149E  2216               	addwfc	(___flmul@prod+2)^0,f,c
  4177  0014A0  500C               	movf	(??___flmul+3)^0,w,c
  4178  0014A2  2217               	addwfc	(___flmul@prod+3)^0,f,c
  4179  0014A4  C010  F011         	movff	___flmul@grs+2,___flmul@grs+3
  4180  0014A8  C00F  F010         	movff	___flmul@grs+1,___flmul@grs+2
  4181  0014AC  C00E  F00F         	movff	___flmul@grs,___flmul@grs+1
  4182  0014B0  6A0E               	clrf	___flmul@grs^0,c
  4183  0014B2  5012               	movf	___flmul@aexp^0,w,c
  4184  0014B4  C013  F009         	movff	___flmul@bexp,??___flmul
  4185  0014B8  6A0A               	clrf	(??___flmul+1)^0,c
  4186  0014BA  2609               	addwf	??___flmul^0,f,c
  4187  0014BC  0E00               	movlw	0
  4188  0014BE  220A               	addwfc	(??___flmul+1)^0,f,c
  4189  0014C0  0E82               	movlw	130
  4190  0014C2  2409               	addwf	??___flmul^0,w,c
  4191  0014C4  6E18               	movwf	___flmul@temp^0,c
  4192  0014C6  0EFF               	movlw	255
  4193  0014C8  200A               	addwfc	(??___flmul+1)^0,w,c
  4194  0014CA  6E19               	movwf	(___flmul@temp+1)^0,c
  4195  0014CC  EF81  F00A         	goto	l2167
  4196  0014D0                     l2161:
  4197  0014D0  FFFF               	dw	65535	; assembler added errata NOP
  4198  0014D2  90D8               	bcf	status,0,c
  4199  0014D4  3614               	rlcf	___flmul@prod^0,f,c
  4200  0014D6  3615               	rlcf	(___flmul@prod+1)^0,f,c
  4201  0014D8  3616               	rlcf	(___flmul@prod+2)^0,f,c
  4202  0014DA  3617               	rlcf	(___flmul@prod+3)^0,f,c
  4203  0014DC  AE11               	btfss	(___flmul@grs+3)^0,7,c
  4204  0014DE  EF73  F00A         	goto	u1791
  4205  0014E2  EF76  F00A         	goto	u1790
  4206  0014E6                     u1791:
  4207  0014E6  FFFF               	dw	65535	; assembler added errata NOP
  4208  0014E8  EF78  F00A         	goto	l802
  4209  0014EC                     u1790:
  4210  0014EC  FFFF               	dw	65535	; assembler added errata NOP
  4211  0014EE  8014               	bsf	___flmul@prod^0,0,c
  4212  0014F0                     l802:
  4213  0014F0  FFFF               	dw	65535	; assembler added errata NOP
  4214  0014F2  90D8               	bcf	status,0,c
  4215  0014F4  360E               	rlcf	___flmul@grs^0,f,c
  4216  0014F6  360F               	rlcf	(___flmul@grs+1)^0,f,c
  4217  0014F8  3610               	rlcf	(___flmul@grs+2)^0,f,c
  4218  0014FA  3611               	rlcf	(___flmul@grs+3)^0,f,c
  4219  0014FC  0618               	decf	___flmul@temp^0,f,c
  4220  0014FE  A0D8               	btfss	status,0,c
  4221  001500  0619               	decf	(___flmul@temp+1)^0,f,c
  4222  001502                     l2167:
  4223  001502  FFFF               	dw	65535	; assembler added errata NOP
  4224  001504  AE16               	btfss	(___flmul@prod+2)^0,7,c
  4225  001506  EF87  F00A         	goto	u1801
  4226  00150A  EF8A  F00A         	goto	u1800
  4227  00150E                     u1801:
  4228  00150E  FFFF               	dw	65535	; assembler added errata NOP
  4229  001510  EF68  F00A         	goto	l2161
  4230  001514                     u1800:
  4231  001514  FFFF               	dw	65535	; assembler added errata NOP
  4232  001516  0E00               	movlw	0
  4233  001518  6E12               	movwf	___flmul@aexp^0,c
  4234  00151A  AE11               	btfss	(___flmul@grs+3)^0,7,c
  4235  00151C  EF92  F00A         	goto	u1811
  4236  001520  EF95  F00A         	goto	u1810
  4237  001524                     u1811:
  4238  001524  FFFF               	dw	65535	; assembler added errata NOP
  4239  001526  EFC0  F00A         	goto	l804
  4240  00152A                     u1810:
  4241  00152A  FFFF               	dw	65535	; assembler added errata NOP
  4242  00152C  0EFF               	movlw	255
  4243  00152E  140E               	andwf	___flmul@grs^0,w,c
  4244  001530  6E09               	movwf	??___flmul^0,c
  4245  001532  0EFF               	movlw	255
  4246  001534  140F               	andwf	(___flmul@grs+1)^0,w,c
  4247  001536  6E0A               	movwf	(??___flmul+1)^0,c
  4248  001538  0EFF               	movlw	255
  4249  00153A  1410               	andwf	(___flmul@grs+2)^0,w,c
  4250  00153C  6E0B               	movwf	(??___flmul+2)^0,c
  4251  00153E  0E7F               	movlw	127
  4252  001540  1411               	andwf	(___flmul@grs+3)^0,w,c
  4253  001542  6E0C               	movwf	(??___flmul+3)^0,c
  4254  001544  5009               	movf	??___flmul^0,w,c
  4255  001546  100A               	iorwf	(??___flmul+1)^0,w,c
  4256  001548  100B               	iorwf	(??___flmul+2)^0,w,c
  4257  00154A  100C               	iorwf	(??___flmul+3)^0,w,c
  4258  00154C  B4D8               	btfsc	status,2,c
  4259  00154E  EFAB  F00A         	goto	u1821
  4260  001552  EFAE  F00A         	goto	u1820
  4261  001556                     u1821:
  4262  001556  FFFF               	dw	65535	; assembler added errata NOP
  4263  001558  EFB4  F00A         	goto	l805
  4264  00155C                     u1820:
  4265  00155C  FFFF               	dw	65535	; assembler added errata NOP
  4266  00155E                     l2175:
  4267  00155E  FFFF               	dw	65535	; assembler added errata NOP
  4268  001560  0E01               	movlw	1
  4269  001562  6E12               	movwf	___flmul@aexp^0,c
  4270  001564  EFC0  F00A         	goto	l804
  4271  001568                     l805:
  4272  001568  FFFF               	dw	65535	; assembler added errata NOP
  4273  00156A  A014               	btfss	___flmul@prod^0,0,c
  4274  00156C  EFBA  F00A         	goto	u1831
  4275  001570  EFBD  F00A         	goto	u1830
  4276  001574                     u1831:
  4277  001574  FFFF               	dw	65535	; assembler added errata NOP
  4278  001576  EFC0  F00A         	goto	l804
  4279  00157A                     u1830:
  4280  00157A  FFFF               	dw	65535	; assembler added errata NOP
  4281  00157C  EFAF  F00A         	goto	l2175
  4282  001580                     l804:
  4283  001580  FFFF               	dw	65535	; assembler added errata NOP
  4284  001582  5012               	movf	___flmul@aexp^0,w,c
  4285  001584  B4D8               	btfsc	status,2,c
  4286  001586  EFC7  F00A         	goto	u1841
  4287  00158A  EFCA  F00A         	goto	u1840
  4288  00158E                     u1841:
  4289  00158E  FFFF               	dw	65535	; assembler added errata NOP
  4290  001590  EFF1  F00A         	goto	l2187
  4291  001594                     u1840:
  4292  001594  FFFF               	dw	65535	; assembler added errata NOP
  4293  001596  0E01               	movlw	1
  4294  001598  2614               	addwf	___flmul@prod^0,f,c
  4295  00159A  0E00               	movlw	0
  4296  00159C  2215               	addwfc	(___flmul@prod+1)^0,f,c
  4297  00159E  2216               	addwfc	(___flmul@prod+2)^0,f,c
  4298  0015A0  2217               	addwfc	(___flmul@prod+3)^0,f,c
  4299  0015A2  A017               	btfss	(___flmul@prod+3)^0,0,c
  4300  0015A4  EFD6  F00A         	goto	u1851
  4301  0015A8  EFD9  F00A         	goto	u1850
  4302  0015AC                     u1851:
  4303  0015AC  FFFF               	dw	65535	; assembler added errata NOP
  4304  0015AE  EFF1  F00A         	goto	l2187
  4305  0015B2                     u1850:
  4306  0015B2  FFFF               	dw	65535	; assembler added errata NOP
  4307  0015B4  C014  F009         	movff	___flmul@prod,??___flmul
  4308  0015B8  C015  F00A         	movff	___flmul@prod+1,??___flmul+1
  4309  0015BC  C016  F00B         	movff	___flmul@prod+2,??___flmul+2
  4310  0015C0  C017  F00C         	movff	___flmul@prod+3,??___flmul+3
  4311  0015C4  340C               	rlcf	(??___flmul+3)^0,w,c
  4312  0015C6  320C               	rrcf	(??___flmul+3)^0,f,c
  4313  0015C8  320B               	rrcf	(??___flmul+2)^0,f,c
  4314  0015CA  320A               	rrcf	(??___flmul+1)^0,f,c
  4315  0015CC  3209               	rrcf	??___flmul^0,f,c
  4316  0015CE  C009  F014         	movff	??___flmul,___flmul@prod
  4317  0015D2  C00A  F015         	movff	??___flmul+1,___flmul@prod+1
  4318  0015D6  C00B  F016         	movff	??___flmul+2,___flmul@prod+2
  4319  0015DA  C00C  F017         	movff	??___flmul+3,___flmul@prod+3
  4320  0015DE  4A18               	infsnz	___flmul@temp^0,f,c
  4321  0015E0  2A19               	incf	(___flmul@temp+1)^0,f,c
  4322  0015E2                     l2187:
  4323  0015E2  FFFF               	dw	65535	; assembler added errata NOP
  4324  0015E4  BE19               	btfsc	(___flmul@temp+1)^0,7,c
  4325  0015E6  EFFD  F00A         	goto	u1861
  4326  0015EA  5019               	movf	(___flmul@temp+1)^0,w,c
  4327  0015EC  E109               	bnz	u1860
  4328  0015EE  2818               	incf	___flmul@temp^0,w,c
  4329  0015F0  A0D8               	btfss	status,0,c
  4330  0015F2  EFFD  F00A         	goto	u1861
  4331  0015F6  EF00  F00B         	goto	u1860
  4332  0015FA                     u1861:
  4333  0015FA  FFFF               	dw	65535	; assembler added errata NOP
  4334  0015FC  EF0B  F00B         	goto	l2191
  4335  001600                     u1860:
  4336  001600  FFFF               	dw	65535	; assembler added errata NOP
  4337  001602  0E00               	movlw	0
  4338  001604  6E14               	movwf	___flmul@prod^0,c
  4339  001606  0E00               	movlw	0
  4340  001608  6E15               	movwf	(___flmul@prod+1)^0,c
  4341  00160A  0E80               	movlw	128
  4342  00160C  6E16               	movwf	(___flmul@prod+2)^0,c
  4343  00160E  0E7F               	movlw	127
  4344  001610  6E17               	movwf	(___flmul@prod+3)^0,c
  4345  001612  EF40  F00B         	goto	l2203
  4346  001616                     l2191:
  4347  001616  FFFF               	dw	65535	; assembler added errata NOP
  4348  001618  BE19               	btfsc	(___flmul@temp+1)^0,7,c
  4349  00161A  EF1A  F00B         	goto	u1870
  4350  00161E  5019               	movf	(___flmul@temp+1)^0,w,c
  4351  001620  E106               	bnz	u1871
  4352  001622  0418               	decf	___flmul@temp^0,w,c
  4353  001624  B0D8               	btfsc	status,0,c
  4354  001626  EF17  F00B         	goto	u1871
  4355  00162A  EF1A  F00B         	goto	u1870
  4356  00162E                     u1871:
  4357  00162E  FFFF               	dw	65535	; assembler added errata NOP
  4358  001630  EF27  F00B         	goto	l812
  4359  001634                     u1870:
  4360  001634  FFFF               	dw	65535	; assembler added errata NOP
  4361  001636  0E00               	movlw	0
  4362  001638  6E14               	movwf	___flmul@prod^0,c
  4363  00163A  0E00               	movlw	0
  4364  00163C  6E15               	movwf	(___flmul@prod+1)^0,c
  4365  00163E  0E00               	movlw	0
  4366  001640  6E16               	movwf	(___flmul@prod+2)^0,c
  4367  001642  0E00               	movlw	0
  4368  001644  6E17               	movwf	(___flmul@prod+3)^0,c
  4369  001646  0E00               	movlw	0
  4370  001648  6E0D               	movwf	___flmul@sign^0,c
  4371  00164A  EF40  F00B         	goto	l2203
  4372  00164E                     l812:
  4373  00164E  FFFF               	dw	65535	; assembler added errata NOP
  4374  001650  C018  F013         	movff	___flmul@temp,___flmul@bexp
  4375  001654  0EFF               	movlw	255
  4376  001656  1614               	andwf	___flmul@prod^0,f,c
  4377  001658  0EFF               	movlw	255
  4378  00165A  1615               	andwf	(___flmul@prod+1)^0,f,c
  4379  00165C  0E7F               	movlw	127
  4380  00165E  1616               	andwf	(___flmul@prod+2)^0,f,c
  4381  001660  0E00               	movlw	0
  4382  001662  1617               	andwf	(___flmul@prod+3)^0,f,c
  4383  001664  A013               	btfss	___flmul@bexp^0,0,c
  4384  001666  EF37  F00B         	goto	u1881
  4385  00166A  EF3A  F00B         	goto	u1880
  4386  00166E                     u1881:
  4387  00166E  FFFF               	dw	65535	; assembler added errata NOP
  4388  001670  EF3C  F00B         	goto	l2201
  4389  001674                     u1880:
  4390  001674  FFFF               	dw	65535	; assembler added errata NOP
  4391  001676  8E16               	bsf	(___flmul@prod+2)^0,7,c
  4392  001678                     l2201:
  4393  001678  FFFF               	dw	65535	; assembler added errata NOP
  4394  00167A  90D8               	bcf	status,0,c
  4395  00167C  3013               	rrcf	___flmul@bexp^0,w,c
  4396  00167E  6E17               	movwf	(___flmul@prod+3)^0,c
  4397  001680                     l2203:
  4398  001680  FFFF               	dw	65535	; assembler added errata NOP
  4399  001682  500D               	movf	___flmul@sign^0,w,c
  4400  001684  1217               	iorwf	(___flmul@prod+3)^0,f,c
  4401  001686  C014  F001         	movff	___flmul@prod,?___flmul
  4402  00168A  C015  F002         	movff	___flmul@prod+1,?___flmul+1
  4403  00168E  C016  F003         	movff	___flmul@prod+2,?___flmul+2
  4404  001692  C017  F004         	movff	___flmul@prod+3,?___flmul+3
  4405  001696                     l799:
  4406  001696  FFFF               	dw	65535	; assembler added errata NOP
  4407  001698  0012               	return		;funcret
  4408  00169A  FFFF               	dw	65535	; errata NOP
  4409  00169C                     __end_of___flmul:
  4410                           	callstack 0
  4411                           
  4412 ;; *************** function ___flge *****************
  4413 ;; Defined at:
  4414 ;;		line 4 in file "/opt/microchip/xc8/v2.32/pic/sources/c99/common/flge.c"
  4415 ;; Parameters:    Size  Location     Type
  4416 ;;  ff1             4   14[COMRAM] unsigned char 
  4417 ;;  ff2             4   18[COMRAM] unsigned char 
  4418 ;; Auto vars:     Size  Location     Type
  4419 ;;		None
  4420 ;; Return value:  Size  Location     Type
  4421 ;;		None               void
  4422 ;; Registers used:
  4423 ;;		wreg, status,2, status,0
  4424 ;; Tracked objects:
  4425 ;;		On entry : 0/0
  4426 ;;		On exit  : 0/0
  4427 ;;		Unchanged: 0/0
  4428 ;; Data sizes:     COMRAM   BANK0   BANK1   BANK2   BANK3   BANK4   BANK5
  4429 ;;      Params:         8       0       0       0       0       0       0
  4430 ;;      Locals:         0       0       0       0       0       0       0
  4431 ;;      Temps:          4       0       0       0       0       0       0
  4432 ;;      Totals:        12       0       0       0       0       0       0
  4433 ;;Total ram usage:       12 bytes
  4434 ;; Hardware stack levels used: 1
  4435 ;; Hardware stack levels required when called: 1
  4436 ;; This function calls:
  4437 ;;		Nothing
  4438 ;; This function is called by:
  4439 ;;		_pickandplace_sequence
  4440 ;;		_roundf
  4441 ;; This function uses a non-reentrant model
  4442 ;;
  4443                           
  4444                           	psect	text15
  4445  001ED8                     __ptext15:
  4446                           	callstack 0
  4447  001ED8                     ___flge:
  4448                           	callstack 0
  4449  001ED8  FFFF               	dw	65535	; assembler added errata NOP
  4450  001EDA  0E00               	movlw	0
  4451  001EDC  140F               	andwf	___flge@ff1^0,w,c
  4452  001EDE  6E17               	movwf	??___flge^0,c
  4453  001EE0  0E00               	movlw	0
  4454  001EE2  1410               	andwf	(___flge@ff1+1)^0,w,c
  4455  001EE4  6E18               	movwf	(??___flge+1)^0,c
  4456  001EE6  0E80               	movlw	128
  4457  001EE8  1411               	andwf	(___flge@ff1+2)^0,w,c
  4458  001EEA  6E19               	movwf	(??___flge+2)^0,c
  4459  001EEC  0E7F               	movlw	127
  4460  001EEE  1412               	andwf	(___flge@ff1+3)^0,w,c
  4461  001EF0  6E1A               	movwf	(??___flge+3)^0,c
  4462  001EF2  5017               	movf	??___flge^0,w,c
  4463  001EF4  1018               	iorwf	(??___flge+1)^0,w,c
  4464  001EF6  1019               	iorwf	(??___flge+2)^0,w,c
  4465  001EF8  101A               	iorwf	(??___flge+3)^0,w,c
  4466  001EFA  A4D8               	btfss	status,2,c
  4467  001EFC  EF82  F00F         	goto	u1891
  4468  001F00  EF85  F00F         	goto	u1890
  4469  001F04                     u1891:
  4470  001F04  FFFF               	dw	65535	; assembler added errata NOP
  4471  001F06  EF8E  F00F         	goto	l2219
  4472  001F0A                     u1890:
  4473  001F0A  FFFF               	dw	65535	; assembler added errata NOP
  4474  001F0C  0E00               	movlw	0
  4475  001F0E  6E0F               	movwf	___flge@ff1^0,c
  4476  001F10  0E00               	movlw	0
  4477  001F12  6E10               	movwf	(___flge@ff1+1)^0,c
  4478  001F14  0E00               	movlw	0
  4479  001F16  6E11               	movwf	(___flge@ff1+2)^0,c
  4480  001F18  0E00               	movlw	0
  4481  001F1A  6E12               	movwf	(___flge@ff1+3)^0,c
  4482  001F1C                     l2219:
  4483  001F1C  FFFF               	dw	65535	; assembler added errata NOP
  4484  001F1E  0E00               	movlw	0
  4485  001F20  1413               	andwf	___flge@ff2^0,w,c
  4486  001F22  6E17               	movwf	??___flge^0,c
  4487  001F24  0E00               	movlw	0
  4488  001F26  1414               	andwf	(___flge@ff2+1)^0,w,c
  4489  001F28  6E18               	movwf	(??___flge+1)^0,c
  4490  001F2A  0E80               	movlw	128
  4491  001F2C  1415               	andwf	(___flge@ff2+2)^0,w,c
  4492  001F2E  6E19               	movwf	(??___flge+2)^0,c
  4493  001F30  0E7F               	movlw	127
  4494  001F32  1416               	andwf	(___flge@ff2+3)^0,w,c
  4495  001F34  6E1A               	movwf	(??___flge+3)^0,c
  4496  001F36  5017               	movf	??___flge^0,w,c
  4497  001F38  1018               	iorwf	(??___flge+1)^0,w,c
  4498  001F3A  1019               	iorwf	(??___flge+2)^0,w,c
  4499  001F3C  101A               	iorwf	(??___flge+3)^0,w,c
  4500  001F3E  A4D8               	btfss	status,2,c
  4501  001F40  EFA4  F00F         	goto	u1901
  4502  001F44  EFA7  F00F         	goto	u1900
  4503  001F48                     u1901:
  4504  001F48  FFFF               	dw	65535	; assembler added errata NOP
  4505  001F4A  EFB0  F00F         	goto	l2223
  4506  001F4E                     u1900:
  4507  001F4E  FFFF               	dw	65535	; assembler added errata NOP
  4508  001F50  0E00               	movlw	0
  4509  001F52  6E13               	movwf	___flge@ff2^0,c
  4510  001F54  0E00               	movlw	0
  4511  001F56  6E14               	movwf	(___flge@ff2+1)^0,c
  4512  001F58  0E00               	movlw	0
  4513  001F5A  6E15               	movwf	(___flge@ff2+2)^0,c
  4514  001F5C  0E00               	movlw	0
  4515  001F5E  6E16               	movwf	(___flge@ff2+3)^0,c
  4516  001F60                     l2223:
  4517  001F60  FFFF               	dw	65535	; assembler added errata NOP
  4518  001F62  AE12               	btfss	(___flge@ff1+3)^0,7,c
  4519  001F64  EFB6  F00F         	goto	u1911
  4520  001F68  EFB9  F00F         	goto	u1910
  4521  001F6C                     u1911:
  4522  001F6C  FFFF               	dw	65535	; assembler added errata NOP
  4523  001F6E  EFC3  F00F         	goto	l2227
  4524  001F72                     u1910:
  4525  001F72  FFFF               	dw	65535	; assembler added errata NOP
  4526  001F74  6C0F               	negf	___flge@ff1^0,c
  4527  001F76  1E10               	comf	(___flge@ff1+1)^0,f,c
  4528  001F78  B0D8               	btfsc	status,0,c
  4529  001F7A  2A10               	incf	(___flge@ff1+1)^0,f,c
  4530  001F7C  1E11               	comf	(___flge@ff1+2)^0,f,c
  4531  001F7E  B0D8               	btfsc	status,0,c
  4532  001F80  2A11               	incf	(___flge@ff1+2)^0,f,c
  4533  001F82  0E80               	movlw	128
  4534  001F84  5612               	subfwb	(___flge@ff1+3)^0,f,c
  4535  001F86                     l2227:
  4536  001F86  FFFF               	dw	65535	; assembler added errata NOP
  4537  001F88  AE16               	btfss	(___flge@ff2+3)^0,7,c
  4538  001F8A  EFC9  F00F         	goto	u1921
  4539  001F8E  EFCC  F00F         	goto	u1920
  4540  001F92                     u1921:
  4541  001F92  FFFF               	dw	65535	; assembler added errata NOP
  4542  001F94  EFD6  F00F         	goto	l446
  4543  001F98                     u1920:
  4544  001F98  FFFF               	dw	65535	; assembler added errata NOP
  4545  001F9A  6C13               	negf	___flge@ff2^0,c
  4546  001F9C  1E14               	comf	(___flge@ff2+1)^0,f,c
  4547  001F9E  B0D8               	btfsc	status,0,c
  4548  001FA0  2A14               	incf	(___flge@ff2+1)^0,f,c
  4549  001FA2  1E15               	comf	(___flge@ff2+2)^0,f,c
  4550  001FA4  B0D8               	btfsc	status,0,c
  4551  001FA6  2A15               	incf	(___flge@ff2+2)^0,f,c
  4552  001FA8  0E80               	movlw	128
  4553  001FAA  5616               	subfwb	(___flge@ff2+3)^0,f,c
  4554  001FAC                     l446:
  4555  001FAC  FFFF               	dw	65535	; assembler added errata NOP
  4556  001FAE  0E00               	movlw	0
  4557  001FB0  1A0F               	xorwf	___flge@ff1^0,f,c
  4558  001FB2  0E00               	movlw	0
  4559  001FB4  1A10               	xorwf	(___flge@ff1+1)^0,f,c
  4560  001FB6  0E00               	movlw	0
  4561  001FB8  1A11               	xorwf	(___flge@ff1+2)^0,f,c
  4562  001FBA  0E80               	movlw	128
  4563  001FBC  1A12               	xorwf	(___flge@ff1+3)^0,f,c
  4564  001FBE  0E00               	movlw	0
  4565  001FC0  1A13               	xorwf	___flge@ff2^0,f,c
  4566  001FC2  0E00               	movlw	0
  4567  001FC4  1A14               	xorwf	(___flge@ff2+1)^0,f,c
  4568  001FC6  0E00               	movlw	0
  4569  001FC8  1A15               	xorwf	(___flge@ff2+2)^0,f,c
  4570  001FCA  0E80               	movlw	128
  4571  001FCC  1A16               	xorwf	(___flge@ff2+3)^0,f,c
  4572  001FCE  5013               	movf	___flge@ff2^0,w,c
  4573  001FD0  5C0F               	subwf	___flge@ff1^0,w,c
  4574  001FD2  5014               	movf	(___flge@ff2+1)^0,w,c
  4575  001FD4  5810               	subwfb	(___flge@ff1+1)^0,w,c
  4576  001FD6  5015               	movf	(___flge@ff2+2)^0,w,c
  4577  001FD8  5811               	subwfb	(___flge@ff1+2)^0,w,c
  4578  001FDA  5016               	movf	(___flge@ff2+3)^0,w,c
  4579  001FDC  5812               	subwfb	(___flge@ff1+3)^0,w,c
  4580  001FDE  B0D8               	btfsc	status,0,c
  4581  001FE0  EFF4  F00F         	goto	u1931
  4582  001FE4  EFF7  F00F         	goto	u1930
  4583  001FE8                     u1931:
  4584  001FE8  FFFF               	dw	65535	; assembler added errata NOP
  4585  001FEA  EFFB  F00F         	goto	l2233
  4586  001FEE                     u1930:
  4587  001FEE  FFFF               	dw	65535	; assembler added errata NOP
  4588  001FF0  90D8               	bcf	status,0,c
  4589  001FF2  EFFD  F00F         	goto	l451
  4590  001FF6                     l2233:
  4591  001FF6  FFFF               	dw	65535	; assembler added errata NOP
  4592  001FF8  80D8               	bsf	status,0,c
  4593  001FFA                     l451:
  4594  001FFA  FFFF               	dw	65535	; assembler added errata NOP
  4595  001FFC  0012               	return		;funcret
  4596  001FFE  FFFF               	dw	65535	; errata NOP
  4597  002000                     __end_of___flge:
  4598                           	callstack 0
  4599                           
  4600 ;; *************** function ___fltol *****************
  4601 ;; Defined at:
  4602 ;;		line 43 in file "/opt/microchip/xc8/v2.32/pic/sources/c99/common/fltol.c"
  4603 ;; Parameters:    Size  Location     Type
  4604 ;;  f1              4   52[COMRAM] unsigned char 
  4605 ;; Auto vars:     Size  Location     Type
  4606 ;;  exp1            1   61[COMRAM] unsigned char 
  4607 ;;  sign1           1   60[COMRAM] unsigned char 
  4608 ;; Return value:  Size  Location     Type
  4609 ;;                  4   52[COMRAM] long 
  4610 ;; Registers used:
  4611 ;;		wreg, status,2, status,0
  4612 ;; Tracked objects:
  4613 ;;		On entry : 0/0
  4614 ;;		On exit  : 0/0
  4615 ;;		Unchanged: 0/0
  4616 ;; Data sizes:     COMRAM   BANK0   BANK1   BANK2   BANK3   BANK4   BANK5
  4617 ;;      Params:         4       0       0       0       0       0       0
  4618 ;;      Locals:         2       0       0       0       0       0       0
  4619 ;;      Temps:          4       0       0       0       0       0       0
  4620 ;;      Totals:        10       0       0       0       0       0       0
  4621 ;;Total ram usage:       10 bytes
  4622 ;; Hardware stack levels used: 1
  4623 ;; Hardware stack levels required when called: 1
  4624 ;; This function calls:
  4625 ;;		Nothing
  4626 ;; This function is called by:
  4627 ;;		_init_USART
  4628 ;; This function uses a non-reentrant model
  4629 ;;
  4630                           
  4631                           	psect	text16
  4632  001C7A                     __ptext16:
  4633                           	callstack 0
  4634  001C7A                     ___fltol:
  4635                           	callstack 0
  4636  001C7A  FFFF               	dw	65535	; assembler added errata NOP
  4637  001C7C  3437               	rlcf	(___fltol@f1+2)^0,w,c
  4638  001C7E  3438               	rlcf	(___fltol@f1+3)^0,w,c
  4639  001C80  6E3E               	movwf	___fltol@exp1^0,c
  4640  001C82  503E               	movf	___fltol@exp1^0,w,c
  4641  001C84  A4D8               	btfss	status,2,c
  4642  001C86  EF47  F00E         	goto	u2101
  4643  001C8A  EF4A  F00E         	goto	u2100
  4644  001C8E                     u2101:
  4645  001C8E  FFFF               	dw	65535	; assembler added errata NOP
  4646  001C90  EF56  F00E         	goto	l2393
  4647  001C94                     u2100:
  4648  001C94  FFFF               	dw	65535	; assembler added errata NOP
  4649  001C96                     l2389:
  4650  001C96  FFFF               	dw	65535	; assembler added errata NOP
  4651  001C98  0E00               	movlw	0
  4652  001C9A  6E35               	movwf	?___fltol^0,c
  4653  001C9C  0E00               	movlw	0
  4654  001C9E  6E36               	movwf	(?___fltol+1)^0,c
  4655  001CA0  0E00               	movlw	0
  4656  001CA2  6E37               	movwf	(?___fltol+2)^0,c
  4657  001CA4  0E00               	movlw	0
  4658  001CA6  6E38               	movwf	(?___fltol+3)^0,c
  4659  001CA8  EFD5  F00E         	goto	l478
  4660  001CAC                     l2393:
  4661  001CAC  FFFF               	dw	65535	; assembler added errata NOP
  4662  001CAE  C035  F039         	movff	___fltol@f1,??___fltol
  4663  001CB2  C036  F03A         	movff	___fltol@f1+1,??___fltol+1
  4664  001CB6  C037  F03B         	movff	___fltol@f1+2,??___fltol+2
  4665  001CBA  C038  F03C         	movff	___fltol@f1+3,??___fltol+3
  4666  001CBE  0E20               	movlw	32
  4667  001CC0  EF68  F00E         	goto	u2110
  4668  001CC4                     u2115:
  4669  001CC4  FFFF               	dw	65535	; assembler added errata NOP
  4670  001CC6  90D8               	bcf	status,0,c
  4671  001CC8  323C               	rrcf	(??___fltol+3)^0,f,c
  4672  001CCA  323B               	rrcf	(??___fltol+2)^0,f,c
  4673  001CCC  323A               	rrcf	(??___fltol+1)^0,f,c
  4674  001CCE  3239               	rrcf	??___fltol^0,f,c
  4675  001CD0                     u2110:
  4676  001CD0  FFFF               	dw	65535	; assembler added errata NOP
  4677  001CD2  2EE8               	decfsz	wreg,f,c
  4678  001CD4  EF62  F00E         	goto	u2115
  4679  001CD8  5039               	movf	??___fltol^0,w,c
  4680  001CDA  6E3D               	movwf	___fltol@sign1^0,c
  4681  001CDC  8E37               	bsf	(___fltol@f1+2)^0,7,c
  4682  001CDE  0EFF               	movlw	255
  4683  001CE0  1635               	andwf	___fltol@f1^0,f,c
  4684  001CE2  0EFF               	movlw	255
  4685  001CE4  1636               	andwf	(___fltol@f1+1)^0,f,c
  4686  001CE6  0EFF               	movlw	255
  4687  001CE8  1637               	andwf	(___fltol@f1+2)^0,f,c
  4688  001CEA  0E00               	movlw	0
  4689  001CEC  1638               	andwf	(___fltol@f1+3)^0,f,c
  4690  001CEE  0E96               	movlw	150
  4691  001CF0  5E3E               	subwf	___fltol@exp1^0,f,c
  4692  001CF2  BE3E               	btfsc	___fltol@exp1^0,7,c
  4693  001CF4  EF81  F00E         	goto	u2120
  4694  001CF8  EF7E  F00E         	goto	u2121
  4695  001CFC                     u2121:
  4696  001CFC  FFFF               	dw	65535	; assembler added errata NOP
  4697  001CFE  EF9B  F00E         	goto	l2413
  4698  001D02                     u2120:
  4699  001D02  FFFF               	dw	65535	; assembler added errata NOP
  4700  001D04  503E               	movf	___fltol@exp1^0,w,c
  4701  001D06  0A80               	xorlw	128
  4702  001D08  0F97               	addlw	151
  4703  001D0A  B0D8               	btfsc	status,0,c
  4704  001D0C  EF8A  F00E         	goto	u2131
  4705  001D10  EF8D  F00E         	goto	u2130
  4706  001D14                     u2131:
  4707  001D14  FFFF               	dw	65535	; assembler added errata NOP
  4708  001D16  EF90  F00E         	goto	l2409
  4709  001D1A                     u2130:
  4710  001D1A  FFFF               	dw	65535	; assembler added errata NOP
  4711  001D1C  EF4B  F00E         	goto	l2389
  4712  001D20                     l2409:
  4713  001D20  FFFF               	dw	65535	; assembler added errata NOP
  4714  001D22  90D8               	bcf	status,0,c
  4715  001D24  3238               	rrcf	(___fltol@f1+3)^0,f,c
  4716  001D26  3237               	rrcf	(___fltol@f1+2)^0,f,c
  4717  001D28  3236               	rrcf	(___fltol@f1+1)^0,f,c
  4718  001D2A  3235               	rrcf	___fltol@f1^0,f,c
  4719  001D2C  3E3E               	incfsz	___fltol@exp1^0,f,c
  4720  001D2E  EF90  F00E         	goto	l2409
  4721  001D32  EFB9  F00E         	goto	l2423
  4722  001D36                     l2413:
  4723  001D36  FFFF               	dw	65535	; assembler added errata NOP
  4724  001D38  0E1F               	movlw	31
  4725  001D3A  643E               	cpfsgt	___fltol@exp1^0,c
  4726  001D3C  EFA2  F00E         	goto	u2141
  4727  001D40  EFA5  F00E         	goto	u2140
  4728  001D44                     u2141:
  4729  001D44  FFFF               	dw	65535	; assembler added errata NOP
  4730  001D46  EFAF  F00E         	goto	l2421
  4731  001D4A                     u2140:
  4732  001D4A  FFFF               	dw	65535	; assembler added errata NOP
  4733  001D4C  EF4B  F00E         	goto	l2389
  4734  001D50                     l2419:
  4735  001D50  FFFF               	dw	65535	; assembler added errata NOP
  4736  001D52  90D8               	bcf	status,0,c
  4737  001D54  3635               	rlcf	___fltol@f1^0,f,c
  4738  001D56  3636               	rlcf	(___fltol@f1+1)^0,f,c
  4739  001D58  3637               	rlcf	(___fltol@f1+2)^0,f,c
  4740  001D5A  3638               	rlcf	(___fltol@f1+3)^0,f,c
  4741  001D5C  063E               	decf	___fltol@exp1^0,f,c
  4742  001D5E                     l2421:
  4743  001D5E  FFFF               	dw	65535	; assembler added errata NOP
  4744  001D60  503E               	movf	___fltol@exp1^0,w,c
  4745  001D62  A4D8               	btfss	status,2,c
  4746  001D64  EFB6  F00E         	goto	u2151
  4747  001D68  EFB9  F00E         	goto	u2150
  4748  001D6C                     u2151:
  4749  001D6C  FFFF               	dw	65535	; assembler added errata NOP
  4750  001D6E  EFA8  F00E         	goto	l2419
  4751  001D72                     u2150:
  4752  001D72                     l2423:
  4753  001D72  FFFF               	dw	65535	; assembler added errata NOP
  4754  001D74  503D               	movf	___fltol@sign1^0,w,c
  4755  001D76  B4D8               	btfsc	status,2,c
  4756  001D78  EFC0  F00E         	goto	u2161
  4757  001D7C  EFC3  F00E         	goto	u2160
  4758  001D80                     u2161:
  4759  001D80  FFFF               	dw	65535	; assembler added errata NOP
  4760  001D82  EFCC  F00E         	goto	l2427
  4761  001D86                     u2160:
  4762  001D86  FFFF               	dw	65535	; assembler added errata NOP
  4763  001D88  1E38               	comf	(___fltol@f1+3)^0,f,c
  4764  001D8A  1E37               	comf	(___fltol@f1+2)^0,f,c
  4765  001D8C  1E36               	comf	(___fltol@f1+1)^0,f,c
  4766  001D8E  6C35               	negf	___fltol@f1^0,c
  4767  001D90  0E00               	movlw	0
  4768  001D92  2236               	addwfc	(___fltol@f1+1)^0,f,c
  4769  001D94  2237               	addwfc	(___fltol@f1+2)^0,f,c
  4770  001D96  2238               	addwfc	(___fltol@f1+3)^0,f,c
  4771  001D98                     l2427:
  4772  001D98  FFFF               	dw	65535	; assembler added errata NOP
  4773  001D9A  C035  F035         	movff	___fltol@f1,?___fltol
  4774  001D9E  C036  F036         	movff	___fltol@f1+1,?___fltol+1
  4775  001DA2  C037  F037         	movff	___fltol@f1+2,?___fltol+2
  4776  001DA6  C038  F038         	movff	___fltol@f1+3,?___fltol+3
  4777  001DAA                     l478:
  4778  001DAA  FFFF               	dw	65535	; assembler added errata NOP
  4779  001DAC  0012               	return		;funcret
  4780  001DAE  FFFF               	dw	65535	; errata NOP
  4781  001DB0                     __end_of___fltol:
  4782                           	callstack 0
  4783                           
  4784 ;; *************** function _init_PORTS *****************
  4785 ;; Defined at:
  4786 ;;		line 9 in file "init_PIC.c"
  4787 ;; Parameters:    Size  Location     Type
  4788 ;;		None
  4789 ;; Auto vars:     Size  Location     Type
  4790 ;;		None
  4791 ;; Return value:  Size  Location     Type
  4792 ;;                  1    wreg      void 
  4793 ;; Registers used:
  4794 ;;		wreg, status,2
  4795 ;; Tracked objects:
  4796 ;;		On entry : 0/0
  4797 ;;		On exit  : 0/0
  4798 ;;		Unchanged: 0/0
  4799 ;; Data sizes:     COMRAM   BANK0   BANK1   BANK2   BANK3   BANK4   BANK5
  4800 ;;      Params:         0       0       0       0       0       0       0
  4801 ;;      Locals:         0       0       0       0       0       0       0
  4802 ;;      Temps:          0       0       0       0       0       0       0
  4803 ;;      Totals:         0       0       0       0       0       0       0
  4804 ;;Total ram usage:        0 bytes
  4805 ;; Hardware stack levels used: 1
  4806 ;; Hardware stack levels required when called: 1
  4807 ;; This function calls:
  4808 ;;		Nothing
  4809 ;; This function is called by:
  4810 ;;		_main
  4811 ;; This function uses a non-reentrant model
  4812 ;;
  4813                           
  4814                           	psect	text17
  4815  0023E8                     __ptext17:
  4816                           	callstack 0
  4817  0023E8                     _init_PORTS:
  4818                           	callstack 0
  4819  0023E8  FFFF               	dw	65535	; assembler added errata NOP
  4820  0023EA                     
  4821                           ;init_PIC.c: 11:     TRISB = 0x00;
  4822  0023EA  0E00               	movlw	0
  4823  0023EC  6E93               	movwf	147,c	;volatile
  4824                           
  4825                           ;init_PIC.c: 12:     TRISD = 0x00;
  4826  0023EE  0E00               	movlw	0
  4827  0023F0  6E95               	movwf	149,c	;volatile
  4828                           
  4829                           ;init_PIC.c: 13:     PORTB = 0x0F;
  4830  0023F2  0E0F               	movlw	15
  4831  0023F4  6E81               	movwf	129,c	;volatile
  4832                           
  4833                           ;init_PIC.c: 14:     PORTD = 0x0F;
  4834  0023F6  0E0F               	movlw	15
  4835  0023F8  6E83               	movwf	131,c	;volatile
  4836                           
  4837                           ;init_PIC.c: 17:     LATC = 0;
  4838  0023FA  0E00               	movlw	0
  4839  0023FC  6E8B               	movwf	139,c	;volatile
  4840                           
  4841                           ;init_PIC.c: 18:     PORTC = 0;
  4842  0023FE  0E00               	movlw	0
  4843  002400  6E82               	movwf	130,c	;volatile
  4844  002402                     
  4845                           ;init_PIC.c: 19:     TRISCbits.RC7 = 1;
  4846  002402  8E94               	bsf	148,7,c	;volatile
  4847  002404                     
  4848                           ;init_PIC.c: 20:     TRISCbits.RC6 = 0;
  4849  002404  9C94               	bcf	148,6,c	;volatile
  4850  002406  0012               	return		;funcret
  4851  002408  FFFF               	dw	65535	; errata NOP
  4852  00240A                     __end_of_init_PORTS:
  4853                           	callstack 0
  4854                           
  4855 ;; *************** function _Rx_char_USART *****************
  4856 ;; Defined at:
  4857 ;;		line 380 in file "main.c"
  4858 ;; Parameters:    Size  Location     Type
  4859 ;;		None
  4860 ;; Auto vars:     Size  Location     Type
  4861 ;;		None
  4862 ;; Return value:  Size  Location     Type
  4863 ;;                  1    wreg      void 
  4864 ;; Registers used:
  4865 ;;		wreg, status,2
  4866 ;; Tracked objects:
  4867 ;;		On entry : 0/0
  4868 ;;		On exit  : 0/0
  4869 ;;		Unchanged: 0/0
  4870 ;; Data sizes:     COMRAM   BANK0   BANK1   BANK2   BANK3   BANK4   BANK5
  4871 ;;      Params:         0       0       0       0       0       0       0
  4872 ;;      Locals:         0       0       0       0       0       0       0
  4873 ;;      Temps:          0       0       0       0       0       0       0
  4874 ;;      Totals:         0       0       0       0       0       0       0
  4875 ;;Total ram usage:        0 bytes
  4876 ;; Hardware stack levels used: 1
  4877 ;; This function calls:
  4878 ;;		Nothing
  4879 ;; This function is called by:
  4880 ;;		Interrupt level 2
  4881 ;; This function uses a non-reentrant model
  4882 ;;
  4883                           
  4884                           	psect	intcode
  4885  000008                     __pintcode:
  4886                           	callstack 0
  4887  000008                     _Rx_char_USART:
  4888                           	callstack 0
  4889  000008  FFFF               	dw	65535	; assembler added errata NOP
  4890                           
  4891                           ;incstack = 0
  4892  00000A  8272               	bsf	int$flags,1,c	;set compiler interrupt flag (level 2)
  4893  00000C                     
  4894                           ;main.c: 382:     if(PIE1bits.RCIE && PIR1bits.RCIF)
  4895  00000C  AA9D               	btfss	157,5,c	;volatile
  4896  00000E  EF0B  F000         	goto	i2u127_41
  4897  000012  EF0E  F000         	goto	i2u127_40
  4898  000016                     i2u127_41:
  4899  000016  FFFF               	dw	65535	; assembler added errata NOP
  4900  000018  EF1B  F000         	goto	i2l178
  4901  00001C                     i2u127_40:
  4902  00001C  FFFF               	dw	65535	; assembler added errata NOP
  4903  00001E  AA9E               	btfss	158,5,c	;volatile
  4904  000020  EF14  F000         	goto	i2u128_41
  4905  000024  EF17  F000         	goto	i2u128_40
  4906  000028                     i2u128_41:
  4907  000028  FFFF               	dw	65535	; assembler added errata NOP
  4908  00002A  EF1B  F000         	goto	i2l178
  4909  00002E                     i2u128_40:
  4910  00002E  FFFF               	dw	65535	; assembler added errata NOP
  4911  000030                     
  4912                           ;main.c: 383:         {;main.c: 384:             New_char_RX = 1;
  4913  000030  0E01               	movlw	1
  4914  000032  6E71               	movwf	_New_char_RX^0,c
  4915  000034                     
  4916                           ;main.c: 385:             PIR1bits.RCIF = 0;
  4917  000034  9A9E               	bcf	158,5,c	;volatile
  4918  000036                     i2l178:
  4919  000036  FFFF               	dw	65535	; assembler added errata NOP
  4920  000038  9272               	bcf	int$flags,1,c	;clear compiler interrupt flag (level 2)
  4921  00003A  0011               	retfie		f
  4922  00003C  FFFF               	dw	65535	; errata NOP
  4923  00003E                     __end_of_Rx_char_USART:
  4924                           	callstack 0
  4925                           
  4926                           	psect	rparam
  4927  0000                     
  4928                           	psect	temp
  4929  000072                     btemp:
  4930                           	callstack 0
  4931  000072                     	ds	1
  4932  0000                     int$flags	set	btemp
  4933  0000                     wtemp8	set	btemp+1
  4934  0000                     ttemp5	set	btemp+1
  4935  0000                     ttemp6	set	btemp+4
  4936  0000                     ttemp7	set	btemp+8
  4937                           
  4938                           	psect	idloc
  4939                           
  4940                           ;Config register IDLOC0 @ 0x200000
  4941                           ;	unspecified, using default values
  4942  200000                     	org	2097152
  4943  200000  FF                 	db	255
  4944                           
  4945                           ;Config register IDLOC1 @ 0x200001
  4946                           ;	unspecified, using default values
  4947  200001                     	org	2097153
  4948  200001  FF                 	db	255
  4949                           
  4950                           ;Config register IDLOC2 @ 0x200002
  4951                           ;	unspecified, using default values
  4952  200002                     	org	2097154
  4953  200002  FF                 	db	255
  4954                           
  4955                           ;Config register IDLOC3 @ 0x200003
  4956                           ;	unspecified, using default values
  4957  200003                     	org	2097155
  4958  200003  FF                 	db	255
  4959                           
  4960                           ;Config register IDLOC4 @ 0x200004
  4961                           ;	unspecified, using default values
  4962  200004                     	org	2097156
  4963  200004  FF                 	db	255
  4964                           
  4965                           ;Config register IDLOC5 @ 0x200005
  4966                           ;	unspecified, using default values
  4967  200005                     	org	2097157
  4968  200005  FF                 	db	255
  4969                           
  4970                           ;Config register IDLOC6 @ 0x200006
  4971                           ;	unspecified, using default values
  4972  200006                     	org	2097158
  4973  200006  FF                 	db	255
  4974                           
  4975                           ;Config register IDLOC7 @ 0x200007
  4976                           ;	unspecified, using default values
  4977  200007                     	org	2097159
  4978  200007  FF                 	db	255
  4979                           
  4980                           	psect	config
  4981                           
  4982                           ; Padding undefined space
  4983  300000                     	org	3145728
  4984  300000  FF                 	db	255
  4985                           
  4986                           ;Config register CONFIG1H @ 0x300001
  4987                           ;	Oscillator Selection bits
  4988                           ;	OSC = XT, XT oscillator
  4989                           ;	Oscillator System Clock Switch Enable bit
  4990                           ;	OSCS = OFF, Oscillator system clock switch option is disabled (main oscillator is sour
      +                          ce)
  4991  300001                     	org	3145729
  4992  300001  21                 	db	33
  4993                           
  4994                           ;Config register CONFIG2L @ 0x300002
  4995                           ;	Power-up Timer Enable bit
  4996                           ;	PWRT = OFF, PWRT disabled
  4997                           ;	Brown-out Reset Enable bit
  4998                           ;	BOR = OFF, Brown-out Reset disabled
  4999                           ;	Brown-out Reset Voltage bits
  5000                           ;	BORV = 20, VBOR set to 2.0V
  5001  300002                     	org	3145730
  5002  300002  0D                 	db	13
  5003                           
  5004                           ;Config register CONFIG2H @ 0x300003
  5005                           ;	Watchdog Timer Enable bit
  5006                           ;	WDT = OFF, WDT disabled (control is placed on the SWDTEN bit)
  5007                           ;	Watchdog Timer Postscale Select bits
  5008                           ;	WDTPS = 128, 1:128
  5009  300003                     	org	3145731
  5010  300003  0E                 	db	14
  5011                           
  5012                           ; Padding undefined space
  5013  300004                     	org	3145732
  5014  300004  FF                 	db	255
  5015                           
  5016                           ;Config register CONFIG3H @ 0x300005
  5017                           ;	CCP2 Mux bit
  5018                           ;	CCP2MUX = OFF, CCP2 input/output is multiplexed with RB3
  5019  300005                     	org	3145733
  5020  300005  00                 	db	0
  5021                           
  5022                           ;Config register CONFIG4L @ 0x300006
  5023                           ;	Stack Full/Underflow Reset Enable bit
  5024                           ;	STVR = OFF, Stack Full/Underflow will not cause RESET
  5025                           ;	Low Voltage ICSP Enable bit
  5026                           ;	LVP = OFF, Low Voltage ICSP disabled
  5027                           ;	Background Debugger Enable bit
  5028                           ;	DEBUG = 0x1, unprogrammed default
  5029  300006                     	org	3145734
  5030  300006  80                 	db	128
  5031                           
  5032                           ; Padding undefined space
  5033  300007                     	org	3145735
  5034  300007  FF                 	db	255
  5035                           
  5036                           ;Config register CONFIG5L @ 0x300008
  5037                           ;	Code Protection bit
  5038                           ;	CP0 = OFF, Block 0 (000200-001FFFh) not code protected
  5039                           ;	Code Protection bit
  5040                           ;	CP1 = OFF, Block 1 (002000-003FFFh) not code protected
  5041                           ;	Code Protection bit
  5042                           ;	CP2 = OFF, Block 2 (004000-005FFFh) not code protected
  5043                           ;	Code Protection bit
  5044                           ;	CP3 = OFF, Block 3 (006000-007FFFh) not code protected
  5045  300008                     	org	3145736
  5046  300008  0F                 	db	15
  5047                           
  5048                           ;Config register CONFIG5H @ 0x300009
  5049                           ;	Boot Block Code Protection bit
  5050                           ;	CPB = OFF, Boot Block (000000-0001FFh) not code protected
  5051                           ;	Data EEPROM Code Protection bit
  5052                           ;	CPD = OFF, Data EEPROM not code protected
  5053  300009                     	org	3145737
  5054  300009  C0                 	db	192
  5055                           
  5056                           ;Config register CONFIG6L @ 0x30000A
  5057                           ;	Write Protection bit
  5058                           ;	WRT0 = OFF, Block 0 (000200-001FFFh) not write protected
  5059                           ;	Write Protection bit
  5060                           ;	WRT1 = OFF, Block 1 (002000-003FFFh) not write protected
  5061                           ;	Write Protection bit
  5062                           ;	WRT2 = OFF, Block 2 (004000-005FFFh) not write protected
  5063                           ;	Write Protection bit
  5064                           ;	WRT3 = OFF, Block 3 (006000-007FFFh) not write protected
  5065  30000A                     	org	3145738
  5066  30000A  0F                 	db	15
  5067                           
  5068                           ;Config register CONFIG6H @ 0x30000B
  5069                           ;	Configuration Register Write Protection bit
  5070                           ;	WRTC = OFF, Configuration registers (300000-3000FFh) not write protected
  5071                           ;	Boot Block Write Protection bit
  5072                           ;	WRTB = OFF, Boot Block (000000-0001FFh) not write protected
  5073                           ;	Data EEPROM Write Protection bit
  5074                           ;	WRTD = OFF, Data EEPROM not write protected
  5075  30000B                     	org	3145739
  5076  30000B  E0                 	db	224
  5077                           
  5078                           ;Config register CONFIG7L @ 0x30000C
  5079                           ;	Table Read Protection bit
  5080                           ;	EBTR0 = OFF, Block 0 (000200-001FFFh) not protected from Table Reads executed in other
      +                           blocks
  5081                           ;	Table Read Protection bit
  5082                           ;	EBTR1 = OFF, Block 1 (002000-003FFFh) not protected from Table Reads executed in other
      +                           blocks
  5083                           ;	Table Read Protection bit
  5084                           ;	EBTR2 = OFF, Block 2 (004000-005FFFh) not protected from Table Reads executed in other
      +                           blocks
  5085                           ;	Table Read Protection bit
  5086                           ;	EBTR3 = OFF, Block 3 (006000-007FFFh) not protected from Table Reads executed in other
      +                           blocks
  5087  30000C                     	org	3145740
  5088  30000C  0F                 	db	15
  5089                           
  5090                           ;Config register CONFIG7H @ 0x30000D
  5091                           ;	Boot Block Table Read Protection bit
  5092                           ;	EBTRB = OFF, Boot Block (000000-0001FFh) not protected from Table Reads executed in ot
      +                          her blocks
  5093  30000D                     	org	3145741
  5094  30000D  40                 	db	64
  5095                           tosu	equ	0xFFF
  5096                           tosh	equ	0xFFE
  5097                           tosl	equ	0xFFD
  5098                           stkptr	equ	0xFFC
  5099                           pclatu	equ	0xFFB
  5100                           pclath	equ	0xFFA
  5101                           pcl	equ	0xFF9
  5102                           tblptru	equ	0xFF8
  5103                           tblptrh	equ	0xFF7
  5104                           tblptrl	equ	0xFF6
  5105                           tablat	equ	0xFF5
  5106                           prodh	equ	0xFF4
  5107                           prodl	equ	0xFF3
  5108                           indf0	equ	0xFEF
  5109                           postinc0	equ	0xFEE
  5110                           postdec0	equ	0xFED
  5111                           preinc0	equ	0xFEC
  5112                           plusw0	equ	0xFEB
  5113                           fsr0h	equ	0xFEA
  5114                           fsr0l	equ	0xFE9
  5115                           wreg	equ	0xFE8
  5116                           indf1	equ	0xFE7
  5117                           postinc1	equ	0xFE6
  5118                           postdec1	equ	0xFE5
  5119                           preinc1	equ	0xFE4
  5120                           plusw1	equ	0xFE3
  5121                           fsr1h	equ	0xFE2
  5122                           fsr1l	equ	0xFE1
  5123                           bsr	equ	0xFE0
  5124                           indf2	equ	0xFDF
  5125                           postinc2	equ	0xFDE
  5126                           postdec2	equ	0xFDD
  5127                           preinc2	equ	0xFDC
  5128                           plusw2	equ	0xFDB
  5129                           fsr2h	equ	0xFDA
  5130                           fsr2l	equ	0xFD9
  5131                           status	equ	0xFD8

Data Sizes:
    Strings     0
    Constant    20
    Data        40
    BSS         5
    Persistent  0
    Stack       0

Auto Spaces:
    Space          Size  Autos    Used
    COMRAM          126     68     113
    BANK0           128      0       0
    BANK1           256      0       0
    BANK2           256      0       0
    BANK3           256      0       0
    BANK4           256      0       0
    BANK5           256      0       0

Pointer List with Targets:

    None.

Critical Paths under _main in COMRAM

    _pickandplace_sequence->___flge
    _Y_axis->_ms_delay
    _X_axis->_ms_delay
    _Twister->_ms_delay
    _init_USART->___fltol
    _roundf->___flge
    ___flsub->___fladd
    ___flge->___xxtofl
    ___fltol->_roundf

Critical Paths under _Rx_char_USART in COMRAM

    None.

Critical Paths under _main in BANK0

    None.

Critical Paths under _Rx_char_USART in BANK0

    None.

Critical Paths under _main in BANK1

    None.

Critical Paths under _Rx_char_USART in BANK1

    None.

Critical Paths under _main in BANK2

    None.

Critical Paths under _Rx_char_USART in BANK2

    None.

Critical Paths under _main in BANK3

    None.

Critical Paths under _Rx_char_USART in BANK3

    None.

Critical Paths under _main in BANK4

    None.

Critical Paths under _Rx_char_USART in BANK4

    None.

Critical Paths under _main in BANK5

    None.

Critical Paths under _Rx_char_USART in BANK5

    None.

Call Graph Tables:

 ---------------------------------------------------------------------------------
 (Depth) Function   	        Calls       Base Space   Used Autos Params    Refs
 ---------------------------------------------------------------------------------
 (0) _main                                                 6     6      0   25055
                                             62 COMRAM     6     6      0
                         _init_PORTS
                         _init_USART
                    _init_interrupts
              _pickandplace_sequence
                     _serial_tx_char
 ---------------------------------------------------------------------------------
 (1) _serial_tx_char                                       1     1      0      15
                                              0 COMRAM     1     1      0
 ---------------------------------------------------------------------------------
 (1) _pickandplace_sequence                               38    38      0   13034
                                             26 COMRAM    34    34      0
                            _Twister
                             _X_axis
                             _Y_axis
                             ___flge
                           ___xxtofl
 ---------------------------------------------------------------------------------
 (2) ___xxtofl                                            14    10      4    1082
                                              0 COMRAM    14    10      4
 ---------------------------------------------------------------------------------
 (2) _Y_axis                                               1     1      0    3024
                                              6 COMRAM     1     1      0
                           _ms_delay
 ---------------------------------------------------------------------------------
 (2) _X_axis                                               1     1      0    3024
                                              6 COMRAM     1     1      0
                           _ms_delay
 ---------------------------------------------------------------------------------
 (2) _Twister                                              1     1      0    3024
                                              6 COMRAM     1     1      0
                           _ms_delay
 ---------------------------------------------------------------------------------
 (3) _ms_delay                                             6     4      2    2980
                                              0 COMRAM     6     4      2
 ---------------------------------------------------------------------------------
 (1) _init_interrupts                                      0     0      0       0
 ---------------------------------------------------------------------------------
 (1) _init_USART                                           0     0      0   11866
                            ___fltol
                             _roundf
 ---------------------------------------------------------------------------------
 (2) _roundf                                              26    22      4   11561
                                             26 COMRAM    26    22      4
                            ___fladd
                             ___flge
                            ___flmul
                            ___flneg
                            ___flsub
 ---------------------------------------------------------------------------------
 (3) ___flsub                                              8     0      8    3649
                                             16 COMRAM     8     0      8
                            ___fladd
 ---------------------------------------------------------------------------------
 (4) ___fladd                                             16     8      8    3326
                                              0 COMRAM    16     8      8
 ---------------------------------------------------------------------------------
 (3) ___flneg                                              4     0      4     197
                                              0 COMRAM     4     0      4
 ---------------------------------------------------------------------------------
 (3) ___flmul                                             25    17      8    1744
                                              0 COMRAM    25    17      8
 ---------------------------------------------------------------------------------
 (2) ___flge                                              12     4      8    2006
                                             14 COMRAM    12     4      8
                           ___xxtofl (ARG)
 ---------------------------------------------------------------------------------
 (2) ___fltol                                             10     6      4     305
                                             52 COMRAM    10     6      4
                             _roundf (ARG)
 ---------------------------------------------------------------------------------
 (1) _init_PORTS                                           0     0      0       0
 ---------------------------------------------------------------------------------
 Estimated maximum stack depth 4
 ---------------------------------------------------------------------------------
 (Depth) Function   	        Calls       Base Space   Used Autos Params    Refs
 ---------------------------------------------------------------------------------
 (5) _Rx_char_USART                                        0     0      0       0
 ---------------------------------------------------------------------------------
 Estimated maximum stack depth 5
 ---------------------------------------------------------------------------------

 Call Graph Graphs:

 _main (ROOT)
   _init_PORTS
   _init_USART
     ___fltol
       _roundf (ARG)
         ___fladd
         ___flge
           ___xxtofl (ARG)
         ___flmul
         ___flneg
         ___flsub
           ___fladd
     _roundf
   _init_interrupts
   _pickandplace_sequence
     _Twister
       _ms_delay
     _X_axis
       _ms_delay
     _Y_axis
       _ms_delay
     ___flge
     ___xxtofl
   _serial_tx_char

 _Rx_char_USART (ROOT)

 Address spaces:
Name               Size   Autos  Total    Cost      Usage
BIGRAM             5FF      0       0      17        0.0%
EEDATA             100      0       0       0        0.0%
BITBANK5           100      0       0      16        0.0%
BANK5              100      0       0      14        0.0%
BITBANK4           100      0       0      12        0.0%
BANK4              100      0       0      13        0.0%
BITBANK3           100      0       0      10        0.0%
BANK3              100      0       0      11        0.0%
BITBANK2           100      0       0       8        0.0%
BANK2              100      0       0       9        0.0%
BITBANK1           100      0       0       6        0.0%
BANK1              100      0       0       7        0.0%
BITBANK0            80      0       0       4        0.0%
BANK0               80      0       0       5        0.0%
BITCOMRAM           7E      0       0       0        0.0%
COMRAM              7E     44      71       1       89.7%
BITSFR               0      0       0     200        0.0%
SFR                  0      0       0     200        0.0%
STACK                0      0       0       2        0.0%
NULL                 0      0       0       0        0.0%
ABS                  0      0      71      15        0.0%
DATA                 0      0      71       3        0.0%
CODE                 0      0       0       0        0.0%


Microchip Technology PIC18 Macro Assembler V2.32 build 20210201212658 
Symbol Table                                                                                   Fri Apr  2 16:39:16 2021

                               ??_pickandplace_sequence 001B  
                                           main@RX_Char 003F  
                                                    l23 2406  
                                                    l26 2432  
                                                    l51 2426  
                                                    l45 2380  
                                                    l48 2412  
                                                   l113 20CE  
                                                   l131 22B4  
                                                   l123 2256  
                                                   l108 21A2  
                                                   l172 0C4A  
                                                   l451 1FFA  
                                                   l446 1FAC  
                                                   l710 0E82  
                                                   l455 2340  
                                                   l711 0E38  
                                                   l802 14F0  
                                                   l812 164E  
                                                   l804 1580  
                                                   l805 1568  
                                                   l709 0E98  
                                                   l478 1DAA  
                                                   l726 0FDC  
                                                   l718 11F2  
                                                   l735 10E0  
                                                   l751 22FE  
                                                   l736 10C8  
                                                   l850 1BFA  
                                                   l843 1B8E  
                                                   l860 1A7C  
                                                   l836 1AE2  
                                                   l839 1C74  
                                                   l795 12E4  
                                                   l799 1696  
                                     ??_init_interrupts 0001  
                                                   u990 2424  
                                                   u991 241E  
                                                   wreg 000FE8  
                                          ___flmul@aexp 0012  
                                          ___flmul@bexp 0013  
                                          ___flmul@sign 000D  
                                          ___flmul@temp 0018  
                                          ___flmul@prod 0014  
                                          ___fltol@exp1 003E  
                                                  l2011 1054  
                                                  l2003 1020  
                                                  l2101 128E  
                                                  l2013 105C  
                                                  l2005 102C  
                                                  l2021 108C  
                                                  l2111 12D2  
                                                  l2103 1290  
                                                  l2031 10F6  
                                                  l2023 1092  
                                                  l2015 1062  
                                                  l2007 103E  
                                                  l2201 1678  
                                                  l2121 1330  
                                                  l2113 12FA  
                                                  l2105 12A6  
                                                  l2041 116A  
                                                  l2033 1102  
                                                  l2025 10A4  
                                                  l2017 1078  
                                                  l2009 1040  
                                                  l2203 1680  
                                                  l2131 1380  
                                                  l2123 133A  
                                                  l2115 130C  
                                                  l2107 12BA  
                                                  l2051 11C0  
                                                  l2043 117C  
                                                  l2035 1114  
                                                  l2027 10BE  
                                                  l2019 107A  
                                                  l2211 22CA  
                                                  l2221 1F50  
                                                  l2205 1686  
                                                  l2141 13C2  
                                                  l2133 138C  
                                                  l2125 1350  
                                                  l2109 12CA  
                                                  l2053 11C4  
                                                  l2045 11A2  
                                                  l2037 1152  
                                                  l2301 213C  
                                                  l2231 1FF0  
                                                  l2223 1F60  
                                                  l2215 1EDA  
                                                  l2151 1424  
                                                  l2143 13D2  
                                                  l2135 139A  
                                                  l2127 135C  
                                                  l2119 1322  
                                                  l2055 11CC  
                                                  l2047 11A6  
                                                  l2039 1154  
                                                  l2071 2274  
                                                  l2063 225E  
                                                  l2311 2176  
                                                  l2303 2152  
                                                  l1511 240E  
                                                  l2401 1CF2  
                                                  l2233 1FF6  
                                                  l2225 1F74  
                                                  l2217 1F0C  
                                                  l2161 14D0  
                                                  l2153 1440  
                                                  l2145 13EC  
                                                  l2137 13A6  
                                                  l2129 1374  
                                                  l2081 1206  
                                                  l2241 232E  
                                                  l2057 11DE  
                                                  l2049 11BA  
                                                  l2209 22BA  
                                                  l2073 227A  
                                                  l2065 226A  
                                                  l2313 2186  
                                                  l2305 2156  
                                                  l2321 201C  
                                                  l2411 1D2C  
                                                  l2403 1D04  
                                                  l2227 1F86  
                                                  l2219 1F1C  
                                                  l2171 151A  
                                                  l2163 14DC  
                                                  l2155 146A  
                                                  l2147 13FC  
                                                  l2139 13B6  
                                                  l2091 1254  
                                                  l2083 1218  
                                                  l2059 11E0  
                                                  l2251 1722  
                                                  l2075 2294  
                                                  l2315 2192  
                                                  l2307 2162  
                                                  l2331 2048  
                                                  l2323 2028  
                                                  l2421 1D5E  
                                                  l2413 1D36  
                                                  l2229 1F9A  
                                                  l2181 15A2  
                                                  l2173 152C  
                                                  l2165 14EE  
                                                  l2157 14A4  
                                                  l2149 1418  
                                                  l2093 125C  
                                                  l2085 121A  
                                                  l2237 2304  
                                                  l2261 17E6  
                                                  l2253 1768  
                                                  l2245 169E  
                                                  l2077 2298  
                                                  l2309 2172  
                                                  l2341 207E  
                                                  l2333 204C  
                                                  l2325 202C  
                                                  l2317 2004  
                                                  l2501 0628  
                                                  l2423 1D72  
                                                  l2191 1616  
                                                  l2183 15B4  
                                                  l2175 155E  
                                                  l2167 1502  
                                                  l2159 14B2  
                                                  l2095 126E  
                                                  l2087 1230  
                                                  l2079 11FA  
                                                  l2239 231E  
                                                  l2271 1A00  
                                                  l2263 18BA  
                                                  l2255 178C  
                                                  l2247 16BE  
                                                  l2351 20B2  
                                                  l2343 2082  
                                                  l2335 2058  
                                                  l2327 2038  
                                                  l2319 2018  
                                                  l2431 1A86  
                                                  l2511 0654  
                                                  l2503 062C  
                                                  l2425 1D88  
                                                  l2409 1D20  
                                                  l2193 1636  
                                                  l2185 15DE  
                                                  l2169 1516  
                                                  l2097 1276  
                                                  l2089 1244  
                                                  l2273 1A46  
                                                  l2265 1926  
                                                  l2257 17AE  
                                                  l2249 170E  
                                                  l2361 21D0  
                                                  l2281 20EC  
                                                  l2353 20BE  
                                                  l2345 208E  
                                                  l2337 205C  
                                                  l2329 203C  
                                                  l2433 1A9A  
                                                  l2601 087E  
                                                  l2513 065C  
                                                  l2505 064C  
                                                  l2427 1D98  
                                                  l2419 1D50  
                                                  l2195 1654  
                                                  l2179 1596  
                                                  l2187 15E2  
                                                  l2099 127C  
                                                  l2275 1A6A  
                                                  l2267 195E  
                                                  l2371 21F4  
                                                  l2363 21D4  
                                                  l2355 21AC  
                                                  l2291 2110  
                                                  l2283 20F0  
                                                  l2347 209E  
                                                  l2339 2068  
                                                  l2451 1B78  
                                                  l2443 1B24  
                                                  l2435 1AAC  
                                                  l2611 0892  
                                                  l2523 0688  
                                                  l2515 0660  
                                                  l1485 23EA  
                                                  l2197 1664  
                                                  l2189 1602  
                                                  l1901 0D4C  
                                                  l2269 19CA  
                                                  l1493 242C  
                                                  l2381 2236  
                                                  l2365 21E0  
                                                  l2357 21C0  
                                                  l2373 2200  
                                                  l2293 211C  
                                                  l2285 20FC  
                                                  l2349 20A2  
                                                  l2461 1C0E  
                                                  l2453 1B84  
                                                  l2445 1B2E  
                                                  l2437 1AF4  
                                                  l2621 0914  
                                                  l2613 08B2  
                                                  l2541 06E6  
                                                  l2525 0690  
                                                  l2517 0680  
                                                  l1487 2402  
                                                  l2199 1676  
                                                  l1911 0D92  
                                                  l1903 0D5E  
                                                  l2383 223A  
                                                  l2375 2216  
                                                  l2367 21E4  
                                                  l2359 21C4  
                                                  l2295 2120  
                                                  l2287 2100  
                                                  l2279 20D8  
                                                  l2471 1C60  
                                                  l2463 1C10  
                                                  l2455 1BC6  
                                                  l2447 1B3C  
                                                  l2439 1B10  
                                                  l2711 0C14  
                                                  l2703 0BFA  
                                                  l2631 0994  
                                                  l2623 0918  
                                                  l2615 08BA  
                                                  l2607 0886  
                                                  l2551 074A  
                                                  l2543 06EE  
                                                  l2535 06BC  
                                                  l2527 0694  
                                                  l1489 2404  
                                                  l2393 1CAC  
                                                  l1921 0DA6  
                                                  l1913 0D96  
                                                  l1905 0D76  
                                                  l2481 2374  
                                                  l2385 224A  
                                                  l2377 221A  
                                                  l2369 21F0  
                                                  l2297 212C  
                                                  l2289 210C  
                                                  l2473 1C62  
                                                  l2465 1C16  
                                                  l2457 1BD4  
                                                  l2449 1B74  
                                                  l2705 0C02  
                                                  l2633 099C  
                                                  l2625 0964  
                                                  l2609 088E  
                                                  l2561 07A8  
                                                  l2553 0796  
                                                  l2537 06C4  
                                                  l2529 06B4  
                                                  l2721 1DB0  
                                                  l2395 1CDC  
                                                  l2387 1C7C  
                                                  l1931 0DBA  
                                                  l1923 0DAA  
                                                  l1915 0D9A  
                                                  l1907 0D88  
                                                  l2491 237E  
                                                  l2483 2376  
                                                  l2379 2226  
                                                  l2299 2130  
                                                  l2467 1C3A  
                                                  l2459 1BE8  
                                                  l2715 0C3A  
                                                  l2651 09EE  
                                                  l2643 09D4  
                                                  l2627 096E  
                                                  l2619 090C  
                                                  l2563 07AC  
                                                  l2547 073E  
                                                  l2539 06C8  
                                                  l2731 1DC4  
                                                  l2723 1DB6  
                                                  l2397 1CDE  
                                                  l2389 1C96  
                                                  l1941 0DD0  
                                                  l1933 0DBE  
                                                  l1925 0DAE  
                                                  l1917 0D9E  
                                                  l1909 0D8C  
                                                  l1861 0C52  
                                                  l2485 2378  
                                                  l2477 2346  
                                                  l2469 1C4E  
                                                  l2717 0C42  
                                                  l2709 0C0A  
                                                  l2661 0A98  
                                                  l2645 09DC  
                                                  l2637 09A4  
                                                  l2565 07CC  
                                                  l2549 0746  
                                                  l2493 0618  
                                                  l2741 1DD6  
                                                  l2725 1DBA  
                                                  l2399 1CEE  
                                                  l1951 0E58  
                                                  l1943 0DFE  
                                                  l1935 0DC2  
                                                  l1927 0DB2  
                                                  l1919 0DA2  
                                                  l1871 0C9C  
                                                  l1863 0C5E  
                                                  l2487 237A  
                                                  l2479 2372  
                                                  l2663 0AA2  
                                                  l2655 0A40  
                                                  l2639 09AE  
                                                  l2591 087E  
                                                  l2583 0824  
                                                  l2567 07CC  
                                                  l2559 07A0  
                                                  l2751 1E1C  
                                                  l2743 1DF6  
                                                  l2727 1DBE  
                                                  l1961 0EAC  
                                                  l1953 0E5E  
                                                  l1945 0E20  
                                                  l1937 0DC6  
                                                  l1929 0DB6  
                                                  l1881 0CD2  
                                                  l1873 0CAC  
                                                  l1865 0C70  
                                                  l2489 237C  
                                                  l2681 0B0E  
                                                  l2673 0AD8  
                                                  l2657 0A48  
                                                  l2649 09E4  
                                                  l2585 082C  
                                                  l2577 07CC  
                                                  l2761 1E3A  
                                                  l2753 1E22  
                                                  l2745 1E0C  
                                                  l2737 1DCC  
                                                  l2729 1DC2  
                                                  l1971 0EF8  
                                                  l1963 0EC0  
                                                  l1955 0E72  
                                                  l1947 0E30  
                                                  l1939 0DCA  
                                                  l1891 0D06  
                                                  l1883 0CE8  
                                                  l1875 0CB0  
                                                  l1867 0C72  
                                                  l2691 0B72  
                                                  l2675 0AE2  
                                                  l2667 0AC8  
                                                  l2659 0A4C  
                                                  l2587 0830  
                                                  l2579 07D4  
                                                  l2499 0620  
                                                  l2771 1E58  
                                                  l2763 1E40  
                                                  l2755 1E28  
                                                  l2747 1E10  
                                                  l2739 1DD2  
                                                  l1981 0F32  
                                                  l1973 0F0A  
                                                  l1957 0E74  
                                                  l1949 0E4C  
                                                  l1893 0D1C  
                                                  l1885 0CEA  
                                                  l1869 0C88  
                                                  l1877 0CB8  
                                                  l2693 0B7A  
                                                  l2685 0B16  
                                                  l2669 0AD0  
                                                  l2589 087C  
                                                  l2781 1E76  
                                                  l2773 1E5E  
                                                  l2765 1E46  
                                                  l2757 1E2E  
                                                  l2749 1E16  
                                                  l1991 0FA6  
                                                  l1983 0F3E  
                                                  l1975 0F16  
                                                  l1967 0ED4  
                                                  l1959 0E80  
                                                  l1895 0D30  
                                                  l1887 0CF2  
                                                  l1879 0CCA  
                                                  l2695 0B7E  
                                                  l2687 0B20  
                                                  l2679 0B06  
                                                  l2791 1EC0  
                                                  l2783 1E82  
                                                  l2775 1E64  
                                                  l2767 1E4C  
                                                  l2759 1E34  
                                                  l1993 0FBA  
                                                  l1977 0F1C  
                                                  l1969 0EE6  
                                                  l1985 0F44  
                                                  l1897 0D40  
                                                  l1889 0D04  
                                                  l2697 0BCA  
                                                  l2793 1ECC  
                                                  l2785 1E94  
                                                  l2777 1E6A  
                                                  l2769 1E52  
                                                  l1987 0F70  
                                                  l1995 0FCA  
                                                  l1979 0F30  
                                                  l1899 0D44  
                                                  l2699 0BD4  
                                                  l2787 1E9A  
                                                  l2779 1E70  
                                                  l1997 0FF8  
                                                  l1989 0FA4  
                                                  l2789 1E9E  
                                                  l1999 100C  
                                                  u2000 18B8  
                                                  u2001 18B2  
                                                  u2010 195C  
                                                  u2011 1956  
                                                  u2100 1C94  
                                                  u1300 0C86  
                                                  u2020 1A24  
                                                  u2101 1C8E  
                                                  u1301 0C80  
                                                  u2110 1CD0  
                                                  u1310 0C9A  
                                                  u2030 1A44  
                                                  u1311 0C94  
                                                  u2031 1A3E  
                                                  u2120 1D02  
                                                  u1400 0E1C  
                                                  u1320 0CE6  
                                                  u2040 20EA  
                                                  u2200 1B6E  
                                                  u2121 1CFC  
                                                  u1321 0CE0  
                                                  u2025 1A18  
                                                  u2041 20E4  
                                                  u2201 1B68  
                                                  u2130 1D1A  
                                                  u1410 0E4A  
                                                  u1330 0D02  
                                                  u2050 2150  
                                                  u2210 1BC0  
                                                  u2131 1D14  
                                                  u2115 1CC4  
                                                  u1411 0E44  
                                                  u1331 0CFC  
                                                  u2051 214A  
                                                  u2211 1BBA  
                                                  u2140 1D4A  
                                                  u1500 0FB8  
                                                  u1420 0E70  
                                                  u1340 0D1A  
                                                  u2060 2016  
                                                  u2220 1BE6  
                                                  u2300 06E4  
                                                  u2141 1D44  
                                                  u1501 0FB2  
                                                  u1421 0E6A  
                                                  u1341 0D14  
                                                  u2061 2010  
                                                  u2221 1BE0  
                                                  u2301 06DE  
                                                  u2150 1D72  
                                                  u1510 0FF6  
                                                  u1430 0E98  
                                                  u1350 0D2E  
                                                  u2070 207C  
                                                  u2230 1BFA  
                                                  u2310 0738  
                                                  u2151 1D6C  
                                                  u1511 0FF0  
                                                  u1431 0E92  
                                                  u1351 0D28  
                                                  u2071 2076  
                                                  u2231 1BF4  
                                                  u2311 0732  
                                                  _LATC 000F8B  
                                                  u2160 1D86  
                                                  u1600 10F4  
                                                  u1520 100A  
                                                  u1440 0EAA  
                                                  u1360 0D74  
                                                  u2080 21BE  
                                                  u2240 1C0C  
                                                  u2400 09CE  
                                                  u2320 0796  
                                                  u2161 1D80  
                                                  u1601 10EE  
                                                  u1521 1004  
                                                  u1441 0EA4  
                                                  u1361 0D6E  
                                                  u2081 21B8  
                                                  u2241 1C06  
                                                  u2401 09C8  
                                                  u2321 0790  
                                                  u1610 1112  
                                                  u1530 103C  
                                                  u1450 0EBE  
                                                  u1370 0D86  
                                                  u1290 0C6E  
                                                  u2090 2214  
                                                  u2250 1C4C  
                                                  u2170 1A98  
                                                  u2410 0A3A  
                                                  u2330 07CA  
                                                  u1611 110C  
                                                  u1531 1036  
                                                  u1451 0EB8  
                                                  u1371 0D80  
                                                  u1291 0C68  
                                                  u2091 220E  
                                                  u2251 1C46  
                                                  u2171 1A92  
                                                  u2411 0A34  
                                                  u2331 07C4  
                                                  u1700 1216  
                                                  u1620 1150  
                                                  u1540 1052  
                                                  u1460 0EF6  
                                                  u1380 0DFC  
                                                  u2260 1C5E  
                                                  u2180 1AAA  
                                                  u2420 0A98  
                                                  u2340 081E  
                                                  u2500 1E0A  
                                                  u1701 1210  
                                                  u1621 114A  
                                                  u1541 104C  
                                                  u1461 0EF0  
                                                  u1381 0DF6  
                                                  u2261 1C58  
                                                  u2181 1AA4  
                                                  u2421 0A92  
                                                  u2341 0818  
                                                  u2501 1E04  
                                                  u1710 122E  
                                                  u1630 1168  
                                                  u1550 1076  
                                                  u1470 0F08  
                                                  u1390 0E18  
                                                  u2190 1B0E  
                                                  u2430 0AC2  
                                                  u2350 087C  
                                                  u2270 064A  
                                                  u2510 1EBE  
                                                  u1711 1228  
                                                  u1631 1162  
                                                  u1551 1070  
                                                  u1471 0F02  
                                                  u1391 0E10  
                                                  u2191 1B08  
                                                  u2431 0ABC  
                                                  u2351 0876  
                                                  u2271 0644  
                                                  u2511 1EB8  
                                                  u1800 1514  
                                                  u1720 1242  
                                                  u1640 117C  
                                                  u1560 108C  
                                                  u1480 0F2E  
                                                  u2440 0B00  
                                                  u2360 08B0  
                                                  u2280 067E  
                                                  u1801 150E  
                                                  u1721 123C  
                                                  u1641 1176  
                                                  u1561 1086  
                                                  u1481 0F28  
                                                  u2441 0AFA  
                                                  u2361 08AA  
                                                  u2281 0678  
                                                  u1810 152A  
                                                  u1730 128C  
                                                  u1650 11A0  
                                                  u1570 10A2  
                                                  u1490 0F6E  
                                                  u2450 0B6C  
                                                  u2370 0906  
                                                  u2290 06B2  
                                                  u1811 1524  
                                                  u1731 1286  
                                                  u1651 119A  
                                                  u1571 109C  
                                                  u1491 0F68  
                                                  u2451 0B66  
                                                  u2371 0900  
                                                  u2291 06AC  
                                                  u1900 1F4E  
                                                  u1820 155C  
                                                  u1740 12A4  
                                                  u1660 11B8  
                                                  u1580 10BC  
                                                  u2460 0BCA  
                                                  u2380 0964  
                                                  u1901 1F48  
                                                  u1821 1556  
                                                  u1741 129E  
                                                  u1661 11B2  
                                                  u1581 10B6  
                                                  u2461 0BC4  
                                                  u2381 095E  
                                                  u1910 1F72  
                                                  u1830 157A  
                                                  u1750 12B8  
                                                  u1670 11DC  
                                                  u1590 10DA  
                                                  u2470 0BF4  
                                                  u2390 098E  
                                                  u1911 1F6C  
                                                  u1831 1574  
                                                  u1751 12B2  
                                                  u1671 11D6  
                                                  u1591 10D4  
                                                  u2471 0BEE  
                                                  u2391 0988  
                                                  u1920 1F98  
                                                  u1840 1594  
                                                  u1760 12F8  
                                                  u1680 2292  
                                                  u2480 0C34  
                                                  u1921 1F92  
                                                  u1841 158E  
                                                  u1761 12F2  
                                                  u1681 228C  
                                                  u2481 0C2E  
                                                  u1930 1FEE  
                                                  u1850 15B2  
                                                  u1770 130C  
                                                  u1690 22B2  
                                                  u2490 1DF4  
                                                  u1931 1FE8  
                                                  u1851 15AC  
                                                  u1771 1306  
                                                  u1691 22AC  
                                                  u2491 1DEE  
                                                  u1860 1600  
                                                  u1780 148C  
                                                  u1940 231C  
                                                  u1861 15FA  
                                                  u1941 2316  
                                                  u1870 1634  
                                                  u1790 14EC  
                                                  u1950 16E0  
                                                  u1871 162E  
                                                  u1791 14E6  
                                                  u1880 1674  
                                                  u1960 170C  
                                                  u1881 166E  
                                                  u1785 1480  
                                                  u1961 1706  
                                                  u1890 1F0A  
                                                  u1970 1746  
                                                  u1891 1F04  
                                                  u1955 16D4  
                                                  u1980 1766  
                                                  u1981 1760  
                                                  u1990 17AC  
                                                  u1991 17A6  
                                                  u1975 173A  
                                                  _Fosc 0611  
                                                  _Tosc 0067  
                                                  _main 1DB0  
                                                  indf2 000FDF  
                                                  fsr1l 000FE1  
                                                  fsr2l 000FD9  
                                                  btemp 0072  
                                                  prodh 000FF4  
                                                  prodl 000FF3  
                                                  start 003E  
                                          ___param_bank 000000  
                                         ___fltol@sign1 003D  
                                       __end_of___fladd 11F8  
                                                 ?_main 0001  
                                       __end_of___flneg 2344  
                                       __end_of___flmul 169C  
                                       __end_of___flsub 2302  
                                       __end_of___fltol 1DB0  
                                       __end_of_Twister 225C  
                                                 i2l178 0036  
                                                 _RCREG 000FAE  
                                                 _SPBRG 000FAF  
                                                 _PORTB 000F81  
                                                 _PORTC 000F82  
                                                 _PORTD 000F83  
                                                 _TRISB 000F93  
                                                 _TRISD 000F95  
                                                 _TXREG 000FAD  
                                      Twister@direction 0007  
                    __end_of_desired_BaudRate@main$F449 0609  
                            _desired_BaudRate@main$F449 0605  
                                                 _toint 0601  
                                                 main@i 0041  
                                                 tablat 000FF5  
                                                 ttemp5 0073  
                                                 ttemp6 0076  
                                       Y_axis@direction 0007  
                                                 ttemp7 007A  
                                                 status 000FD8  
                                                 wtemp8 0073  
                                          __end_of_Fosc 0615  
                                       __initialization 2384  
                                          __end_of_main 1ED8  
                                                ??_main 003F  
                                         __activetblptr 000001  
                                                i2l1853 000C  
                                                i2l1855 001E  
                                                i2l1857 0030  
                                                i2l1859 0034  
                                      __end_of___xxtofl 1C7A  
                                                _X_axis 20D4  
                                                _Y_axis 2000  
                                                ___flge 1ED8  
                                             ??___fladd 0009  
                                             ??___flneg 0005  
                                             ??___flmul 0009  
                                             ??___flsub 0019  
                                             ??___fltol 0039  
                                             ??_Twister 0007  
                                                isa$std 000001  
                                      __end_of_ms_delay 22B8  
                                                _roundf 169C  
                                          __pdataCOMRAM 0045  
                                          __mediumconst 0000  
                                                tblptrh 000FF7  
                                                tblptrl 000FF6  
                                                tblptru 000FF8  
                                            ___flge@ff1 000F  
                                            ___flge@ff2 0013  
                                          ___xxtofl@arg 000B  
                                          ___xxtofl@exp 000A  
                                          ___xxtofl@val 0001  
                                            __accesstop 0080  
                               __end_of__initialization 23AE  
                                            ___flneg@f1 0001  
                                     serial_tx_char@val 0001  
                                         ___rparam_used 000001  
                                            ___fltol@f1 0035  
                                       _init_interrupts 242A  
                                        __pcstackCOMRAM 0001  
                        __size_of_pickandplace_sequence 063A  
                         __end_of_pickandplace_sequence 0C50  
                                         __end_of_toint 0605  
                                           ms_delay@val 0001  
                                      _desired_BaudRate 0609  
                               __size_of_serial_tx_char 0020  
                                           _New_char_RX 0071  
                                 __end_of_Rx_char_USART 003E  
                                               ?_X_axis 0001  
                                               ?_Y_axis 0001  
                                               ?___flge 000F  
                                               ?_roundf 001B  
                                             ?___xxtofl 0001  
                               __end_of_init_interrupts 2436  
                                             ?_ms_delay 0001  
                                               __Hparam 0000  
                                               __Lparam 0000  
                                            _init_PORTS 23E8  
                                            _init_USART 2344  
                                       __size_of_X_axis 00D4  
                                       __size_of_Y_axis 00D4  
                                       __size_of___flge 0128  
                                               ___fladd 0C50  
                                               ___flneg 2302  
                                               ___flmul 11F8  
                                               ___flsub 22B8  
                                               ___fltol 1C7A  
                                               _Twister 21A8  
                                          __psmallconst 0600  
                                               __pcinit 2384  
                                               __ramtop 0600  
                                               __ptext0 1DB0  
                                               __ptext1 240A  
                                               __ptext2 0616  
                                               __ptext3 1A82  
                                               __ptext4 2000  
                                               __ptext5 20D4  
                                               __ptext6 21A8  
                                               __ptext7 225C  
                                               __ptext8 242A  
                                               __ptext9 2344  
                                       __size_of_roundf 03E6  
                                            ??___xxtofl 0005  
                                  end_of_initialization 23AE  
                                            ??_ms_delay 0003  
                                             _RCSTAbits 000FAB  
                                               postdec1 000FE5  
                                               postinc0 000FEE  
                                               roundf@e 0027  
                                               roundf@u 002D  
                                               roundf@x 001B  
                                               roundf@y 0031  
                                           ___fladd@grs 0010  
                                        _serial_tx_char 240A  
                                         ___xxtofl@sign 0009  
                                             _TRISCbits 000F94  
                                           ___flmul@grs 000E  
                                      ?_init_interrupts 0001  
                                             _TXSTAbits 000FAC  
                                            main@test_C 0040  
                              __end_of_desired_BaudRate 060D  
                                           ?_init_PORTS 0001  
                                           ?_init_USART 0001  
                                        __end_of_X_axis 21A8  
                                        __end_of_Y_axis 20D4  
                                        __end_of___flge 2000  
                                         __pidataCOMRAM 23C0  
                                __end_of_serial_tx_char 242A  
                                        __end_of_roundf 1A82  
                                   start_initialization 2384  
                                       X_axis@direction 0007  
                                        _Tosc@main$F448 0063  
                                              ??_X_axis 0007  
                                              ??_Y_axis 0007  
                                              ??___flge 0017  
                                        _lenth_of_array 006B  
                                 _pickandplace_sequence 0616  
                                              ??_roundf 001F  
                                       ?_serial_tx_char 0001  
                                             ___fladd@a 0005  
                                             ___fladd@b 0001  
                                             ___flmul@a 0005  
                                             ___flmul@b 0001  
                                           __pbssCOMRAM 006D  
                                             ___flsub@a 0015  
                                             ___flsub@b 0011  
                                     __size_of___xxtofl 01F8  
                                   __size_of_init_PORTS 0022  
                                   __size_of_init_USART 0040  
                                     __size_of_ms_delay 005C  
                                             __pintcode 0008  
                                              ?___fladd 0001  
                                              ?___flneg 0001  
                                              ?___flmul 0001  
                                              ?___flsub 0011  
                                              ?___fltol 0035  
                                              ?_Twister 0001  
                                __size_of_Rx_char_USART 0036  
                                           __smallconst 0600  
                                        _Fosc@main$F447 060D  
                                              _PIE1bits 000F9D  
                                              i2u127_40 001C  
                                              i2u127_41 0016  
                                              i2u128_40 002E  
                                              i2u128_41 0028  
                                              _PIR1bits 000F9E  
                                             _testarray 0045  
                                ?_pickandplace_sequence 0001  
                                             main@i_466 0043  
                                __end_of_Fosc@main$F447 0611  
                                pickandplace_sequence@i 001B  
                                             copy_data0 2398  
                                         _Rx_char_USART 0008  
                                            roundf@F528 006D  
                                              __Hrparam 0000  
                                          ??_init_PORTS 0001  
                                          ??_init_USART 003F  
                                              __Lrparam 0000  
                                          __Lsmallconst 0600  
                                      __size_of___fladd 05A8  
                                      __size_of___flneg 0042  
                                      __size_of___flmul 04A4  
                                      __size_of___flsub 004A  
                                      __size_of___fltol 0136  
                                      __size_of_Twister 00B4  
                                             ms_delay@i 0003  
                                             ms_delay@j 0005  
                                              ___xxtofl 1A82  
                                              __ptext10 169C  
                                              __ptext11 22B8  
                                              __ptext12 0C50  
                                              __ptext13 2302  
                                              __ptext14 11F8  
                                              __ptext15 1ED8  
                                              __ptext16 1C7A  
                                              __ptext17 23E8  
                                    __end_of_init_PORTS 240A  
                                    __end_of_init_USART 2384  
                                        ?_Rx_char_USART 0001  
                                         __size_of_main 0128  
                                              _ms_delay 225C  
                                              isa$xinst 000000  
                              __size_of_init_interrupts 000C  
                                              int$flags 0072  
                                      ??_serial_tx_char 0001  
                            pickandplace_sequence@i_500 0039  
                            pickandplace_sequence@i_501 003B  
                            pickandplace_sequence@i_490 0027  
                            pickandplace_sequence@i_482 001D  
                            pickandplace_sequence@i_492 0029  
                            pickandplace_sequence@i_484 001F  
                            pickandplace_sequence@i_493 002B  
                            pickandplace_sequence@i_485 0021  
                            pickandplace_sequence@i_494 002D  
                            pickandplace_sequence@i_486 0023  
                            pickandplace_sequence@i_495 002F  
                            pickandplace_sequence@i_496 0031  
                            pickandplace_sequence@i_488 0025  
                            pickandplace_sequence@i_497 0033  
                            pickandplace_sequence@i_498 0035  
                            pickandplace_sequence@i_499 0037  
                                            _INTCONbits 000FF2  
                                              intlevel2 2436  
                                         ___fladd@signs 000D  
                                       ??_Rx_char_USART 0001  
                                          ___fladd@aexp 000E  
                                          ___fladd@bexp 000F  
                                           _roundf$1147 0029  
                                           _roundf$1148 0023  
