

Microchip MPLAB XC8 Assembler V2.32 build 20210201212658 
                                                                                               Fri Jun 18 12:26:19 2021

Microchip MPLAB XC8 C Compiler v2.32 (Free license) build 20210201212658 Og1 
     1                           	processor	18F452
     2                           	fnconf	rparam,??,?,0
     3                           	pagewidth 120
     4                           	opt	flic
     5                           	psect	idataCOMRAM,global,class=CODE,delta=1,noexec
     6                           	psect	idataBANK0,global,class=CODE,delta=1,noexec
     7                           	psect	mediumconst,global,reloc=2,class=MEDIUMCONST,delta=1,noexec
     8                           	psect	cinit,global,reloc=2,class=CODE,delta=1
     9                           	psect	bssCOMRAM,global,class=COMRAM,space=1,delta=1,lowdata,noexec
    10                           	psect	dataCOMRAM,global,class=COMRAM,space=1,delta=1,lowdata,noexec
    11                           	psect	bssBANK0,global,class=BANK0,space=1,delta=1,lowdata,noexec
    12                           	psect	dataBANK0,global,class=BANK0,space=1,delta=1,lowdata,noexec
    13                           	psect	cstackBANK0,global,class=BANK0,space=1,delta=1,lowdata,noexec
    14                           	psect	cstackCOMRAM,global,class=COMRAM,space=1,delta=1,lowdata,noexec
    15                           	psect	text0,global,reloc=2,class=CODE,delta=1
    16                           	psect	text1,global,reloc=2,class=CODE,delta=1
    17                           	psect	text2,global,reloc=2,class=CODE,delta=1
    18                           	psect	text3,global,reloc=2,class=CODE,delta=1
    19                           	psect	text4,global,reloc=2,class=CODE,delta=1,group=2
    20                           	psect	text5,global,reloc=2,class=CODE,delta=1,group=2
    21                           	psect	text6,global,reloc=2,class=CODE,delta=1,group=2
    22                           	psect	text7,global,reloc=2,class=CODE,delta=1
    23                           	psect	text8,global,reloc=2,class=CODE,delta=1
    24                           	psect	text9,global,reloc=2,class=CODE,delta=1,group=1
    25                           	psect	text10,global,reloc=2,class=CODE,delta=1,group=1
    26                           	psect	text11,global,reloc=2,class=CODE,delta=1
    27                           	psect	text12,global,reloc=2,class=CODE,delta=1
    28                           	psect	text13,global,reloc=2,class=CODE,delta=1
    29                           	psect	text14,global,reloc=2,class=CODE,delta=1
    30                           	psect	text15,global,reloc=2,class=CODE,delta=1
    31                           	psect	text16,global,reloc=2,class=CODE,delta=1
    32                           	psect	text17,global,reloc=2,class=CODE,delta=1
    33                           	psect	text18,global,reloc=2,class=CODE,delta=1,group=2
    34                           	psect	text19,global,reloc=2,class=CODE,delta=1,group=2
    35                           	psect	text20,global,reloc=2,class=CODE,delta=1
    36                           	psect	text21,global,reloc=2,class=CODE,delta=1
    37                           	psect	text22,global,reloc=2,class=CODE,delta=1,group=2
    38                           	psect	text23,global,reloc=2,class=CODE,delta=1,group=2
    39                           	psect	text24,global,reloc=2,class=CODE,delta=1,group=2
    40                           	psect	text25,global,reloc=2,class=CODE,delta=1,group=1
    41                           	psect	text26,global,reloc=2,class=CODE,delta=1
    42                           	psect	text27,global,reloc=2,class=CODE,delta=1
    43                           	psect	text28,global,reloc=2,class=CODE,delta=1,group=2
    44                           	psect	text29,global,reloc=2,class=CODE,delta=1,group=1
    45                           	psect	text30,global,reloc=2,class=CODE,delta=1,group=1
    46                           	psect	text31,global,reloc=2,class=CODE,delta=1,group=1
    47                           	psect	text32,global,reloc=2,class=CODE,delta=1,group=1
    48                           	psect	text33,global,reloc=2,class=CODE,delta=1,group=1
    49                           	psect	text34,global,reloc=2,class=CODE,delta=1,group=1
    50                           	psect	text35,global,reloc=2,class=CODE,delta=1
    51                           	psect	intcode,global,reloc=2,class=CODE,delta=1
    52                           	psect	intsave_regs,global,class=BIGRAM,space=1,delta=1,noexec
    53                           	psect	rparam,global,class=COMRAM,space=1,delta=1,noexec
    54                           	psect	temp,global,ovrld,common,class=COMRAM,space=1,delta=1
    55                           	psect	idloc,global,abs,ovrld,class=IDLOC,space=5,delta=1,noexec
    56                           	psect	config,global,abs,ovrld,class=CONFIG,space=4,delta=1,noexec
    57  0000                     
    58                           ; Version 2.20
    59                           ; Generated 12/02/2020 GMT
    60                           ; 
    61                           ; Copyright © 2020, Microchip Technology Inc. and its subsidiaries ("Microchip")
    62                           ; All rights reserved.
    63                           ; 
    64                           ; This software is developed by Microchip Technology Inc. and its subsidiaries ("Microch
      +                          ip").
    65                           ; 
    66                           ; Redistribution and use in source and binary forms, with or without modification, are
    67                           ; permitted provided that the following conditions are met:
    68                           ; 
    69                           ;     1. Redistributions of source code must retain the above copyright notice, this lis
      +                          t of
    70                           ;        conditions and the following disclaimer.
    71                           ; 
    72                           ;     2. Redistributions in binary form must reproduce the above copyright notice, this 
      +                          list
    73                           ;        of conditions and the following disclaimer in the documentation and/or other
    74                           ;        materials provided with the distribution.
    75                           ; 
    76                           ;     3. Microchip's name may not be used to endorse or promote products derived from th
      +                          is
    77                           ;        software without specific prior written permission.
    78                           ; 
    79                           ; THIS SOFTWARE IS PROVIDED BY MICROCHIP "AS IS" AND ANY EXPRESS OR IMPLIED WARRANTIES,
    80                           ; INCLUDING, BUT NOT LIMITED TO, THE IMPLIED WARRANTIES OF MERCHANTABILITY AND FITNESS F
      +                          OR
    81                           ; PURPOSE ARE DISCLAIMED.  IN NO EVENT SHALL MICROCHIP BE LIABLE FOR ANY DIRECT, INDIREC
      +                          T,
    82                           ; INCIDENTAL, SPECIAL, EXEMPLARY, OR CONSEQUENTIAL DAMAGES (INCLUDING BUT NOT LIMITED TO
    83                           ; PROCUREMENT OF SUBSTITUTE GOODS OR SERVICES; LOSS OF USE, DATA OR PROFITS; OR BUSINESS
    84                           ; INTERRUPTION) HOWSOEVER CAUSED AND ON ANY THEORY OF LIABILITY, WHETHER IN CONTRACT, ST
      +                          RICT
    85                           ; LIABILITY, OR TORT (INCLUDING NEGLIGENCE OR OTHERWISE) ARISING IN ANY WAY OUT OF THE U
      +                          SE OF
    86                           ; THIS SOFTWARE, EVEN IF ADVISED OF THE POSSIBILITY OF SUCH DAMAGE.
    87                           ; 
    88                           ; 
    89                           ; Code-generator required, PIC18F452 Definitions
    90                           ; 
    91                           ; SFR Addresses
    92  0000                     
    93                           	psect	idataCOMRAM
    94  0030E8                     __pidataCOMRAM:
    95                           	callstack 0
    96                           
    97                           ;initializer for add_component@F3128
    98  0030E8  20                 	db	32
    99                           
   100                           ;initializer for _State
   101  0030E9  30                 	db	48
   102                           
   103                           	psect	idataBANK0
   104  0030C4                     __pidataBANK0:
   105                           	callstack 0
   106                           
   107                           ;initializer for _Tosc@main$F488
   108  0030C4  37BD               	dw	14269
   109  0030C6  3486               	dw	13446
   110                           
   111                           ;initializer for _Tosc
   112  0030C8  37BD               	dw	14269
   113  0030CA  3486               	dw	13446
   114                           
   115                           ;initializer for _lenth_of_array
   116  0030CC  001E               	dw	30
   117                           
   118                           ;initializer for _input_str
   119  0030CE  20                 	db	32
   120  0030CF  00                 	db	0
   121  0030D0  00                 	db	0
   122  0030D1  00                 	db	0
   123  0030D2  00                 	db	0
   124  0030D3  00                 	db	0
   125  0030D4  00                 	db	0
   126  0030D5  00                 	db	0
   127  0030D6  00                 	db	0
   128  0030D7  00                 	db	0
   129                           
   130                           ;initializer for _sequence
   131  0030D8  43                 	db	67
   132  0030D9  41                 	db	65
   133  0030DA  42                 	db	66
   134  0030DB  00                 	db	0
   135                           
   136                           	psect	mediumconst
   137  007D74                     __pmediumconst:
   138                           	callstack 0
   139  007D74  00                 	db	0
   140  007D75  0000               	dw	0
   141  007D77  4B00               	dw	19200
   142  007D79                     __end_of_toint:
   143                           	callstack 0
   144  007D79  0000               	dw	0
   145  007D7B  4616               	dw	17942
   146  007D7D                     __end_of_desired_BaudRate@main$F489:
   147                           	callstack 0
   148  007D7D  0000               	dw	0
   149  007D7F  4616               	dw	17942
   150  007D81                     __end_of_desired_BaudRate:
   151                           	callstack 0
   152  007D81  2400               	dw	9216
   153  007D83  4A74               	dw	19060
   154  007D85                     __end_of_Fosc@main$F487:
   155                           	callstack 0
   156  007D85  2400               	dw	9216
   157  007D87  4A74               	dw	19060
   158  007D89                     __end_of_Fosc:
   159                           	callstack 0
   160  0000                     _RCREG	set	4014
   161  0000                     _TXREG	set	4013
   162  0000                     _RCSTAbits	set	4011
   163  0000                     _TXSTAbits	set	4012
   164  0000                     _SPBRG	set	4015
   165  0000                     _INTCONbits	set	4082
   166  0000                     _PIE1bits	set	3997
   167  0000                     _PIR1bits	set	3998
   168  0000                     _TRISCbits	set	3988
   169  0000                     _PORTC	set	3970
   170  0000                     _LATC	set	3979
   171  0000                     _PORTD	set	3971
   172  0000                     _PORTB	set	3969
   173  0000                     _TRISD	set	3989
   174  0000                     _TRISB	set	3987
   175  0000                     _RCIF	set	31989
   176  007D89                     STR_1:
   177  007D89  0A                 	db	10
   178  007D8A  0A                 	db	10
   179  007D8B  31                 	db	49	;'1'
   180  007D8C  2E                 	db	46
   181  007D8D  20                 	db	32
   182  007D8E  53                 	db	83	;'S'
   183  007D8F  74                 	db	116	;'t'
   184  007D90  61                 	db	97	;'a'
   185  007D91  72                 	db	114	;'r'
   186  007D92  74                 	db	116	;'t'
   187  007D93  20                 	db	32
   188  007D94  53                 	db	83	;'S'
   189  007D95  65                 	db	101	;'e'
   190  007D96  71                 	db	113	;'q'
   191  007D97  75                 	db	117	;'u'
   192  007D98  65                 	db	101	;'e'
   193  007D99  6E                 	db	110	;'n'
   194  007D9A  63                 	db	99	;'c'
   195  007D9B  65                 	db	101	;'e'
   196  007D9C  0A                 	db	10
   197  007D9D  32                 	db	50	;'2'
   198  007D9E  2E                 	db	46
   199  007D9F  20                 	db	32
   200  007DA0  43                 	db	67	;'C'
   201  007DA1  68                 	db	104	;'h'
   202  007DA2  61                 	db	97	;'a'
   203  007DA3  6E                 	db	110	;'n'
   204  007DA4  67                 	db	103	;'g'
   205  007DA5  65                 	db	101	;'e'
   206  007DA6  20                 	db	32
   207  007DA7  73                 	db	115	;'s'
   208  007DA8  65                 	db	101	;'e'
   209  007DA9  71                 	db	113	;'q'
   210  007DAA  75                 	db	117	;'u'
   211  007DAB  65                 	db	101	;'e'
   212  007DAC  6E                 	db	110	;'n'
   213  007DAD  63                 	db	99	;'c'
   214  007DAE  65                 	db	101	;'e'
   215  007DAF  0A                 	db	10
   216  007DB0  33                 	db	51	;'3'
   217  007DB1  2E                 	db	46
   218  007DB2  20                 	db	32
   219  007DB3  41                 	db	65	;'A'
   220  007DB4  64                 	db	100	;'d'
   221  007DB5  64                 	db	100	;'d'
   222  007DB6  20                 	db	32
   223  007DB7  6E                 	db	110	;'n'
   224  007DB8  65                 	db	101	;'e'
   225  007DB9  77                 	db	119	;'w'
   226  007DBA  20                 	db	32
   227  007DBB  63                 	db	99	;'c'
   228  007DBC  6F                 	db	111	;'o'
   229  007DBD  6D                 	db	109	;'m'
   230  007DBE  70                 	db	112	;'p'
   231  007DBF  6F                 	db	111	;'o'
   232  007DC0  6E                 	db	110	;'n'
   233  007DC1  65                 	db	101	;'e'
   234  007DC2  6E                 	db	110	;'n'
   235  007DC3  74                 	db	116	;'t'
   236  007DC4  0A                 	db	10
   237  007DC5  34                 	db	52	;'4'
   238  007DC6  2E                 	db	46
   239  007DC7  20                 	db	32
   240  007DC8  52                 	db	82	;'R'
   241  007DC9  65                 	db	101	;'e'
   242  007DCA  6D                 	db	109	;'m'
   243  007DCB  6F                 	db	111	;'o'
   244  007DCC  76                 	db	118	;'v'
   245  007DCD  65                 	db	101	;'e'
   246  007DCE  20                 	db	32
   247  007DCF  61                 	db	97	;'a'
   248  007DD0  20                 	db	32
   249  007DD1  63                 	db	99	;'c'
   250  007DD2  6F                 	db	111	;'o'
   251  007DD3  6D                 	db	109	;'m'
   252  007DD4  70                 	db	112	;'p'
   253  007DD5  6F                 	db	111	;'o'
   254  007DD6  6E                 	db	110	;'n'
   255  007DD7  65                 	db	101	;'e'
   256  007DD8  6E                 	db	110	;'n'
   257  007DD9  74                 	db	116	;'t'
   258  007DDA  00                 	db	0
   259  007DDB                     STR_17:
   260  007DDB  0A                 	db	10
   261  007DDC  63                 	db	99	;'c'
   262  007DDD  6F                 	db	111	;'o'
   263  007DDE  6D                 	db	109	;'m'
   264  007DDF  70                 	db	112	;'p'
   265  007DE0  6F                 	db	111	;'o'
   266  007DE1  6E                 	db	110	;'n'
   267  007DE2  65                 	db	101	;'e'
   268  007DE3  6E                 	db	110	;'n'
   269  007DE4  74                 	db	116	;'t'
   270  007DE5  20                 	db	32
   271  007DE6  69                 	db	105	;'i'
   272  007DE7  73                 	db	115	;'s'
   273  007DE8  20                 	db	32
   274  007DE9  6E                 	db	110	;'n'
   275  007DEA  6F                 	db	111	;'o'
   276  007DEB  74                 	db	116	;'t'
   277  007DEC  20                 	db	32
   278  007DED  69                 	db	105	;'i'
   279  007DEE  6E                 	db	110	;'n'
   280  007DEF  20                 	db	32
   281  007DF0  74                 	db	116	;'t'
   282  007DF1  68                 	db	104	;'h'
   283  007DF2  65                 	db	101	;'e'
   284  007DF3  20                 	db	32
   285  007DF4  73                 	db	115	;'s'
   286  007DF5  65                 	db	101	;'e'
   287  007DF6  71                 	db	113	;'q'
   288  007DF7  75                 	db	117	;'u'
   289  007DF8  65                 	db	101	;'e'
   290  007DF9  6E                 	db	110	;'n'
   291  007DFA  63                 	db	99	;'c'
   292  007DFB  65                 	db	101	;'e'
   293  007DFC  2E                 	db	46
   294  007DFD  20                 	db	32
   295  007DFE  54                 	db	84	;'T'
   296  007DFF  72                 	db	114	;'r'
   297  007E00  79                 	db	121	;'y'
   298  007E01  20                 	db	32
   299  007E02  73                 	db	115	;'s'
   300  007E03  65                 	db	101	;'e'
   301  007E04  6C                 	db	108	;'l'
   302  007E05  65                 	db	101	;'e'
   303  007E06  63                 	db	99	;'c'
   304  007E07  74                 	db	116	;'t'
   305  007E08  69                 	db	105	;'i'
   306  007E09  6E                 	db	110	;'n'
   307  007E0A  67                 	db	103	;'g'
   308  007E0B  20                 	db	32
   309  007E0C  61                 	db	97	;'a'
   310  007E0D  6E                 	db	110	;'n'
   311  007E0E  6F                 	db	111	;'o'
   312  007E0F  74                 	db	116	;'t'
   313  007E10  68                 	db	104	;'h'
   314  007E11  65                 	db	101	;'e'
   315  007E12  72                 	db	114	;'r'
   316  007E13  20                 	db	32
   317  007E14  63                 	db	99	;'c'
   318  007E15  6F                 	db	111	;'o'
   319  007E16  6D                 	db	109	;'m'
   320  007E17  70                 	db	112	;'p'
   321  007E18  6F                 	db	111	;'o'
   322  007E19  6E                 	db	110	;'n'
   323  007E1A  65                 	db	101	;'e'
   324  007E1B  6E                 	db	110	;'n'
   325  007E1C  74                 	db	116	;'t'
   326  007E1D  3A                 	db	58	;':'
   327  007E1E  20                 	db	32
   328  007E1F  0A                 	db	10
   329  007E20  00                 	db	0
   330  007E21                     STR_15:
   331  007E21  0A                 	db	10
   332  007E22  57                 	db	87	;'W'
   333  007E23  68                 	db	104	;'h'
   334  007E24  69                 	db	105	;'i'
   335  007E25  63                 	db	99	;'c'
   336  007E26  68                 	db	104	;'h'
   337  007E27  20                 	db	32
   338  007E28  63                 	db	99	;'c'
   339  007E29  6F                 	db	111	;'o'
   340  007E2A  6D                 	db	109	;'m'
   341  007E2B  70                 	db	112	;'p'
   342  007E2C  6F                 	db	111	;'o'
   343  007E2D  6E                 	db	110	;'n'
   344  007E2E  65                 	db	101	;'e'
   345  007E2F  6E                 	db	110	;'n'
   346  007E30  74                 	db	116	;'t'
   347  007E31  20                 	db	32
   348  007E32  77                 	db	119	;'w'
   349  007E33  6F                 	db	111	;'o'
   350  007E34  75                 	db	117	;'u'
   351  007E35  6C                 	db	108	;'l'
   352  007E36  64                 	db	100	;'d'
   353  007E37  20                 	db	32
   354  007E38  79                 	db	121	;'y'
   355  007E39  6F                 	db	111	;'o'
   356  007E3A  75                 	db	117	;'u'
   357  007E3B  20                 	db	32
   358  007E3C  6C                 	db	108	;'l'
   359  007E3D  69                 	db	105	;'i'
   360  007E3E  6B                 	db	107	;'k'
   361  007E3F  65                 	db	101	;'e'
   362  007E40  20                 	db	32
   363  007E41  74                 	db	116	;'t'
   364  007E42  6F                 	db	111	;'o'
   365  007E43  20                 	db	32
   366  007E44  72                 	db	114	;'r'
   367  007E45  65                 	db	101	;'e'
   368  007E46  6D                 	db	109	;'m'
   369  007E47  6F                 	db	111	;'o'
   370  007E48  76                 	db	118	;'v'
   371  007E49  65                 	db	101	;'e'
   372  007E4A  20                 	db	32
   373  007E4B  66                 	db	102	;'f'
   374  007E4C  72                 	db	114	;'r'
   375  007E4D  6F                 	db	111	;'o'
   376  007E4E  6D                 	db	109	;'m'
   377  007E4F  20                 	db	32
   378  007E50  74                 	db	116	;'t'
   379  007E51  68                 	db	104	;'h'
   380  007E52  65                 	db	101	;'e'
   381  007E53  20                 	db	32
   382  007E54  20                 	db	32
   383  007E55  73                 	db	115	;'s'
   384  007E56  65                 	db	101	;'e'
   385  007E57  71                 	db	113	;'q'
   386  007E58  75                 	db	117	;'u'
   387  007E59  65                 	db	101	;'e'
   388  007E5A  6E                 	db	110	;'n'
   389  007E5B  63                 	db	99	;'c'
   390  007E5C  65                 	db	101	;'e'
   391  007E5D  3F                 	db	63	;'?'
   392  007E5E  0A                 	db	10
   393  007E5F  00                 	db	0
   394  007E60                     STR_7:
   395  007E60  0A                 	db	10
   396  007E61  45                 	db	69	;'E'
   397  007E62  6E                 	db	110	;'n'
   398  007E63  74                 	db	116	;'t'
   399  007E64  65                 	db	101	;'e'
   400  007E65  72                 	db	114	;'r'
   401  007E66  20                 	db	32
   402  007E67  74                 	db	116	;'t'
   403  007E68  68                 	db	104	;'h'
   404  007E69  65                 	db	101	;'e'
   405  007E6A  20                 	db	32
   406  007E6B  63                 	db	99	;'c'
   407  007E6C  6F                 	db	111	;'o'
   408  007E6D  6D                 	db	109	;'m'
   409  007E6E  70                 	db	112	;'p'
   410  007E6F  6F                 	db	111	;'o'
   411  007E70  6E                 	db	110	;'n'
   412  007E71  65                 	db	101	;'e'
   413  007E72  6E                 	db	110	;'n'
   414  007E73  74                 	db	116	;'t'
   415  007E74  20                 	db	32
   416  007E75  79                 	db	121	;'y'
   417  007E76  6F                 	db	111	;'o'
   418  007E77  75                 	db	117	;'u'
   419  007E78  20                 	db	32
   420  007E79  77                 	db	119	;'w'
   421  007E7A  61                 	db	97	;'a'
   422  007E7B  6E                 	db	110	;'n'
   423  007E7C  74                 	db	116	;'t'
   424  007E7D  20                 	db	32
   425  007E7E  74                 	db	116	;'t'
   426  007E7F  6F                 	db	111	;'o'
   427  007E80  20                 	db	32
   428  007E81  61                 	db	97	;'a'
   429  007E82  64                 	db	100	;'d'
   430  007E83  64                 	db	100	;'d'
   431  007E84  3A                 	db	58	;':'
   432  007E85  20                 	db	32
   433  007E86  41                 	db	65	;'A'
   434  007E87  2C                 	db	44
   435  007E88  20                 	db	32
   436  007E89  42                 	db	66	;'B'
   437  007E8A  2C                 	db	44
   438  007E8B  20                 	db	32
   439  007E8C  43                 	db	67	;'C'
   440  007E8D  20                 	db	32
   441  007E8E  6F                 	db	111	;'o'
   442  007E8F  72                 	db	114	;'r'
   443  007E90  20                 	db	32
   444  007E91  44                 	db	68	;'D'
   445  007E92  3F                 	db	63	;'?'
   446  007E93  00                 	db	0
   447  007E94                     STR_5:
   448  007E94  0A                 	db	10
   449  007E95  50                 	db	80	;'P'
   450  007E96  6C                 	db	108	;'l'
   451  007E97  65                 	db	101	;'e'
   452  007E98  61                 	db	97	;'a'
   453  007E99  73                 	db	115	;'s'
   454  007E9A  65                 	db	101	;'e'
   455  007E9B  20                 	db	32
   456  007E9C  67                 	db	103	;'g'
   457  007E9D  69                 	db	105	;'i'
   458  007E9E  76                 	db	118	;'v'
   459  007E9F  65                 	db	101	;'e'
   460  007EA0  20                 	db	32
   461  007EA1  74                 	db	116	;'t'
   462  007EA2  68                 	db	104	;'h'
   463  007EA3  65                 	db	101	;'e'
   464  007EA4  20                 	db	32
   465  007EA5  6E                 	db	110	;'n'
   466  007EA6  65                 	db	101	;'e'
   467  007EA7  77                 	db	119	;'w'
   468  007EA8  20                 	db	32
   469  007EA9  73                 	db	115	;'s'
   470  007EAA  65                 	db	101	;'e'
   471  007EAB  71                 	db	113	;'q'
   472  007EAC  75                 	db	117	;'u'
   473  007EAD  65                 	db	101	;'e'
   474  007EAE  6E                 	db	110	;'n'
   475  007EAF  63                 	db	99	;'c'
   476  007EB0  65                 	db	101	;'e'
   477  007EB1  20                 	db	32
   478  007EB2  61                 	db	97	;'a'
   479  007EB3  73                 	db	115	;'s'
   480  007EB4  20                 	db	32
   481  007EB5  69                 	db	105	;'i'
   482  007EB6  6E                 	db	110	;'n'
   483  007EB7  70                 	db	112	;'p'
   484  007EB8  75                 	db	117	;'u'
   485  007EB9  74                 	db	116	;'t'
   486  007EBA  0D                 	db	13
   487  007EBB  00                 	db	0
   488  007EBC                     STR_3:
   489  007EBC  0A                 	db	10
   490  007EBD  45                 	db	69	;'E'
   491  007EBE  6E                 	db	110	;'n'
   492  007EBF  74                 	db	116	;'t'
   493  007EC0  65                 	db	101	;'e'
   494  007EC1  72                 	db	114	;'r'
   495  007EC2  20                 	db	32
   496  007EC3  27                 	db	39
   497  007EC4  51                 	db	81	;'Q'
   498  007EC5  27                 	db	39
   499  007EC6  20                 	db	32
   500  007EC7  74                 	db	116	;'t'
   501  007EC8  6F                 	db	111	;'o'
   502  007EC9  20                 	db	32
   503  007ECA  65                 	db	101	;'e'
   504  007ECB  78                 	db	120	;'x'
   505  007ECC  69                 	db	105	;'i'
   506  007ECD  74                 	db	116	;'t'
   507  007ECE  20                 	db	32
   508  007ECF  74                 	db	116	;'t'
   509  007ED0  6F                 	db	111	;'o'
   510  007ED1  20                 	db	32
   511  007ED2  4D                 	db	77	;'M'
   512  007ED3  41                 	db	65	;'A'
   513  007ED4  49                 	db	73	;'I'
   514  007ED5  4E                 	db	78	;'N'
   515  007ED6  20                 	db	32
   516  007ED7  4D                 	db	77	;'M'
   517  007ED8  45                 	db	69	;'E'
   518  007ED9  4E                 	db	78	;'N'
   519  007EDA  55                 	db	85	;'U'
   520  007EDB  00                 	db	0
   521  007EDC                     STR_13:
   522  007EDC  0A                 	db	10
   523  007EDD  45                 	db	69	;'E'
   524  007EDE  6E                 	db	110	;'n'
   525  007EDF  74                 	db	116	;'t'
   526  007EE0  65                 	db	101	;'e'
   527  007EE1  72                 	db	114	;'r'
   528  007EE2  20                 	db	32
   529  007EE3  74                 	db	116	;'t'
   530  007EE4  68                 	db	104	;'h'
   531  007EE5  65                 	db	101	;'e'
   532  007EE6  20                 	db	32
   533  007EE7  70                 	db	112	;'p'
   534  007EE8  6C                 	db	108	;'l'
   535  007EE9  61                 	db	97	;'a'
   536  007EEA  63                 	db	99	;'c'
   537  007EEB  65                 	db	101	;'e'
   538  007EEC  20                 	db	32
   539  007EED  6F                 	db	111	;'o'
   540  007EEE  72                 	db	114	;'r'
   541  007EEF  69                 	db	105	;'i'
   542  007EF0  65                 	db	101	;'e'
   543  007EF1  6E                 	db	110	;'n'
   544  007EF2  74                 	db	116	;'t'
   545  007EF3  61                 	db	97	;'a'
   546  007EF4  74                 	db	116	;'t'
   547  007EF5  69                 	db	105	;'i'
   548  007EF6  6F                 	db	111	;'o'
   549  007EF7  6E                 	db	110	;'n'
   550  007EF8  3A                 	db	58	;':'
   551  007EF9  00                 	db	0
   552  007EFA                     STR_11:
   553  007EFA  0A                 	db	10
   554  007EFB  45                 	db	69	;'E'
   555  007EFC  6E                 	db	110	;'n'
   556  007EFD  74                 	db	116	;'t'
   557  007EFE  65                 	db	101	;'e'
   558  007EFF  72                 	db	114	;'r'
   559  007F00  20                 	db	32
   560  007F01  74                 	db	116	;'t'
   561  007F02  68                 	db	104	;'h'
   562  007F03  65                 	db	101	;'e'
   563  007F04  20                 	db	32
   564  007F05  70                 	db	112	;'p'
   565  007F06  6C                 	db	108	;'l'
   566  007F07  61                 	db	97	;'a'
   567  007F08  63                 	db	99	;'c'
   568  007F09  65                 	db	101	;'e'
   569  007F0A  20                 	db	32
   570  007F0B  70                 	db	112	;'p'
   571  007F0C  6F                 	db	111	;'o'
   572  007F0D  73                 	db	115	;'s'
   573  007F0E  69                 	db	105	;'i'
   574  007F0F  74                 	db	116	;'t'
   575  007F10  69                 	db	105	;'i'
   576  007F11  6F                 	db	111	;'o'
   577  007F12  6E                 	db	110	;'n'
   578  007F13  20                 	db	32
   579  007F14  58                 	db	88	;'X'
   580  007F15  3A                 	db	58	;':'
   581  007F16  00                 	db	0
   582  007F17                     STR_12:
   583  007F17  0A                 	db	10
   584  007F18  45                 	db	69	;'E'
   585  007F19  6E                 	db	110	;'n'
   586  007F1A  74                 	db	116	;'t'
   587  007F1B  65                 	db	101	;'e'
   588  007F1C  72                 	db	114	;'r'
   589  007F1D  20                 	db	32
   590  007F1E  74                 	db	116	;'t'
   591  007F1F  68                 	db	104	;'h'
   592  007F20  65                 	db	101	;'e'
   593  007F21  20                 	db	32
   594  007F22  70                 	db	112	;'p'
   595  007F23  6C                 	db	108	;'l'
   596  007F24  61                 	db	97	;'a'
   597  007F25  63                 	db	99	;'c'
   598  007F26  65                 	db	101	;'e'
   599  007F27  20                 	db	32
   600  007F28  70                 	db	112	;'p'
   601  007F29  6F                 	db	111	;'o'
   602  007F2A  73                 	db	115	;'s'
   603  007F2B  69                 	db	105	;'i'
   604  007F2C  74                 	db	116	;'t'
   605  007F2D  69                 	db	105	;'i'
   606  007F2E  6F                 	db	111	;'o'
   607  007F2F  6E                 	db	110	;'n'
   608  007F30  20                 	db	32
   609  007F31  59                 	db	89	;'Y'
   610  007F32  3A                 	db	58	;':'
   611  007F33  00                 	db	0
   612  007F34                     STR_10:
   613  007F34  0A                 	db	10
   614  007F35  45                 	db	69	;'E'
   615  007F36  6E                 	db	110	;'n'
   616  007F37  74                 	db	116	;'t'
   617  007F38  65                 	db	101	;'e'
   618  007F39  72                 	db	114	;'r'
   619  007F3A  20                 	db	32
   620  007F3B  74                 	db	116	;'t'
   621  007F3C  68                 	db	104	;'h'
   622  007F3D  65                 	db	101	;'e'
   623  007F3E  20                 	db	32
   624  007F3F  70                 	db	112	;'p'
   625  007F40  69                 	db	105	;'i'
   626  007F41  63                 	db	99	;'c'
   627  007F42  6B                 	db	107	;'k'
   628  007F43  20                 	db	32
   629  007F44  6F                 	db	111	;'o'
   630  007F45  72                 	db	114	;'r'
   631  007F46  69                 	db	105	;'i'
   632  007F47  65                 	db	101	;'e'
   633  007F48  6E                 	db	110	;'n'
   634  007F49  74                 	db	116	;'t'
   635  007F4A  61                 	db	97	;'a'
   636  007F4B  74                 	db	116	;'t'
   637  007F4C  69                 	db	105	;'i'
   638  007F4D  6F                 	db	111	;'o'
   639  007F4E  6E                 	db	110	;'n'
   640  007F4F  3A                 	db	58	;':'
   641  007F50  00                 	db	0
   642  007F51                     STR_8:
   643  007F51  0A                 	db	10
   644  007F52  45                 	db	69	;'E'
   645  007F53  6E                 	db	110	;'n'
   646  007F54  74                 	db	116	;'t'
   647  007F55  65                 	db	101	;'e'
   648  007F56  72                 	db	114	;'r'
   649  007F57  20                 	db	32
   650  007F58  74                 	db	116	;'t'
   651  007F59  68                 	db	104	;'h'
   652  007F5A  65                 	db	101	;'e'
   653  007F5B  20                 	db	32
   654  007F5C  70                 	db	112	;'p'
   655  007F5D  69                 	db	105	;'i'
   656  007F5E  63                 	db	99	;'c'
   657  007F5F  6B                 	db	107	;'k'
   658  007F60  20                 	db	32
   659  007F61  70                 	db	112	;'p'
   660  007F62  6F                 	db	111	;'o'
   661  007F63  73                 	db	115	;'s'
   662  007F64  69                 	db	105	;'i'
   663  007F65  74                 	db	116	;'t'
   664  007F66  69                 	db	105	;'i'
   665  007F67  6F                 	db	111	;'o'
   666  007F68  6E                 	db	110	;'n'
   667  007F69  20                 	db	32
   668  007F6A  58                 	db	88	;'X'
   669  007F6B  3A                 	db	58	;':'
   670  007F6C  00                 	db	0
   671  007F6D                     STR_9:
   672  007F6D  0A                 	db	10
   673  007F6E  45                 	db	69	;'E'
   674  007F6F  6E                 	db	110	;'n'
   675  007F70  74                 	db	116	;'t'
   676  007F71  65                 	db	101	;'e'
   677  007F72  72                 	db	114	;'r'
   678  007F73  20                 	db	32
   679  007F74  74                 	db	116	;'t'
   680  007F75  68                 	db	104	;'h'
   681  007F76  65                 	db	101	;'e'
   682  007F77  20                 	db	32
   683  007F78  70                 	db	112	;'p'
   684  007F79  69                 	db	105	;'i'
   685  007F7A  63                 	db	99	;'c'
   686  007F7B  6B                 	db	107	;'k'
   687  007F7C  20                 	db	32
   688  007F7D  70                 	db	112	;'p'
   689  007F7E  6F                 	db	111	;'o'
   690  007F7F  73                 	db	115	;'s'
   691  007F80  69                 	db	105	;'i'
   692  007F81  74                 	db	116	;'t'
   693  007F82  69                 	db	105	;'i'
   694  007F83  6F                 	db	111	;'o'
   695  007F84  6E                 	db	110	;'n'
   696  007F85  20                 	db	32
   697  007F86  59                 	db	89	;'Y'
   698  007F87  3A                 	db	58	;':'
   699  007F88  00                 	db	0
   700  007F89                     STR_4:
   701  007F89  0A                 	db	10
   702  007F8A  54                 	db	84	;'T'
   703  007F8B  68                 	db	104	;'h'
   704  007F8C  65                 	db	101	;'e'
   705  007F8D  20                 	db	32
   706  007F8E  63                 	db	99	;'c'
   707  007F8F  75                 	db	117	;'u'
   708  007F90  72                 	db	114	;'r'
   709  007F91  72                 	db	114	;'r'
   710  007F92  65                 	db	101	;'e'
   711  007F93  6E                 	db	110	;'n'
   712  007F94  74                 	db	116	;'t'
   713  007F95  20                 	db	32
   714  007F96  73                 	db	115	;'s'
   715  007F97  65                 	db	101	;'e'
   716  007F98  71                 	db	113	;'q'
   717  007F99  75                 	db	117	;'u'
   718  007F9A  65                 	db	101	;'e'
   719  007F9B  6E                 	db	110	;'n'
   720  007F9C  63                 	db	99	;'c'
   721  007F9D  65                 	db	101	;'e'
   722  007F9E  20                 	db	32
   723  007F9F  69                 	db	105	;'i'
   724  007FA0  73                 	db	115	;'s'
   725  007FA1  3A                 	db	58	;':'
   726  007FA2  20                 	db	32
   727  007FA3  00                 	db	0
   728  007FA4                     STR_6:
   729  007FA4  0A                 	db	10
   730  007FA5  54                 	db	84	;'T'
   731  007FA6  68                 	db	104	;'h'
   732  007FA7  65                 	db	101	;'e'
   733  007FA8  20                 	db	32
   734  007FA9  43                 	db	67	;'C'
   735  007FAA  75                 	db	117	;'u'
   736  007FAB  72                 	db	114	;'r'
   737  007FAC  72                 	db	114	;'r'
   738  007FAD  65                 	db	101	;'e'
   739  007FAE  6E                 	db	110	;'n'
   740  007FAF  74                 	db	116	;'t'
   741  007FB0  20                 	db	32
   742  007FB1  73                 	db	115	;'s'
   743  007FB2  65                 	db	101	;'e'
   744  007FB3  71                 	db	113	;'q'
   745  007FB4  75                 	db	117	;'u'
   746  007FB5  65                 	db	101	;'e'
   747  007FB6  6E                 	db	110	;'n'
   748  007FB7  63                 	db	99	;'c'
   749  007FB8  65                 	db	101	;'e'
   750  007FB9  20                 	db	32
   751  007FBA  69                 	db	105	;'i'
   752  007FBB  73                 	db	115	;'s'
   753  007FBC  3A                 	db	58	;':'
   754  007FBD  00                 	db	0
   755  007FBE                     STR_16:
   756  007FBE  0A                 	db	10
   757  007FBF  63                 	db	99	;'c'
   758  007FC0  6F                 	db	111	;'o'
   759  007FC1  6D                 	db	109	;'m'
   760  007FC2  70                 	db	112	;'p'
   761  007FC3  6F                 	db	111	;'o'
   762  007FC4  6E                 	db	110	;'n'
   763  007FC5  65                 	db	101	;'e'
   764  007FC6  6E                 	db	110	;'n'
   765  007FC7  74                 	db	116	;'t'
   766  007FC8  20                 	db	32
   767  007FC9  72                 	db	114	;'r'
   768  007FCA  65                 	db	101	;'e'
   769  007FCB  6D                 	db	109	;'m'
   770  007FCC  6F                 	db	111	;'o'
   771  007FCD  76                 	db	118	;'v'
   772  007FCE  65                 	db	101	;'e'
   773  007FCF  64                 	db	100	;'d'
   774  007FD0  3A                 	db	58	;':'
   775  007FD1  20                 	db	32
   776  007FD2  00                 	db	0
   777  007FD3                     STR_2:
   778  007FD3  0A                 	db	10
   779  007FD4  53                 	db	83	;'S'
   780  007FD5  74                 	db	116	;'t'
   781  007FD6  61                 	db	97	;'a'
   782  007FD7  72                 	db	114	;'r'
   783  007FD8  74                 	db	116	;'t'
   784  007FD9  69                 	db	105	;'i'
   785  007FDA  6E                 	db	110	;'n'
   786  007FDB  67                 	db	103	;'g'
   787  007FDC  20                 	db	32
   788  007FDD  73                 	db	115	;'s'
   789  007FDE  65                 	db	101	;'e'
   790  007FDF  71                 	db	113	;'q'
   791  007FE0  75                 	db	117	;'u'
   792  007FE1  65                 	db	101	;'e'
   793  007FE2  6E                 	db	110	;'n'
   794  007FE3  63                 	db	99	;'c'
   795  007FE4  65                 	db	101	;'e'
   796  007FE5  3A                 	db	58	;':'
   797  007FE6  00                 	db	0
   798  007FE7                     STR_14:
   799  007FE7  0A                 	db	10
   800  007FE8  43                 	db	67	;'C'
   801  007FE9  6F                 	db	111	;'o'
   802  007FEA  6D                 	db	109	;'m'
   803  007FEB  70                 	db	112	;'p'
   804  007FEC  6F                 	db	111	;'o'
   805  007FED  6E                 	db	110	;'n'
   806  007FEE  65                 	db	101	;'e'
   807  007FEF  6E                 	db	110	;'n'
   808  007FF0  74                 	db	116	;'t'
   809  007FF1  20                 	db	32
   810  007FF2  41                 	db	65	;'A'
   811  007FF3  64                 	db	100	;'d'
   812  007FF4  64                 	db	100	;'d'
   813  007FF5  65                 	db	101	;'e'
   814  007FF6  64                 	db	100	;'d'
   815  007FF7  3A                 	db	58	;':'
   816  007FF8  20                 	db	32
   817  007FF9  00                 	db	0
   818  007FFA                     STR_19:
   819  007FFA  30                 	db	48	;'0'
   820  007FFB  00                 	db	0
   821  007FFC                     STR_18:
   822  007FFC  31                 	db	49	;'1'
   823  007FFD  00                 	db	0
   824  007FFE  00                 	db	0	; dummy byte at the end
   825  0000                     
   826                           ; #config settings
   827                           
   828                           	psect	cinit
   829  002DF6                     __pcinit:
   830                           	callstack 0
   831  002DF6                     start_initialization:
   832                           	callstack 0
   833  002DF6                     __initialization:
   834                           	callstack 0
   835                           
   836                           ; Initialize objects allocated to BANK0 (24 bytes)
   837                           ; load TBLPTR registers with __pidataBANK0
   838  002DF6  0EC4               	movlw	low __pidataBANK0
   839  002DF8  6EF6               	movwf	tblptrl,c
   840  002DFA  0E30               	movlw	high __pidataBANK0
   841  002DFC  6EF7               	movwf	tblptrh,c
   842  002DFE  0E00               	movlw	low (__pidataBANK0 shr (0+16))
   843  002E00  6EF8               	movwf	tblptru,c
   844  002E02  EE00  F0D5         	lfsr	0,__pdataBANK0
   845  002E06  EE10 F018          	lfsr	1,24
   846  002E0A                     copy_data0:
   847  002E0A  0009               	tblrd		*+
   848  002E0C  CFF5 FFEE          	movff	tablat,postinc0
   849  002E10  50E5               	movf	postdec1,w,c
   850  002E12  50E1               	movf	fsr1l,w,c
   851  002E14  E1FA               	bnz	copy_data0
   852                           
   853                           ; Initialize objects allocated to COMRAM (2 bytes)
   854                           ; load TBLPTR registers with __pidataCOMRAM
   855  002E16  0EE8               	movlw	low __pidataCOMRAM
   856  002E18  6EF6               	movwf	tblptrl,c
   857  002E1A  0E30               	movlw	high __pidataCOMRAM
   858  002E1C  6EF7               	movwf	tblptrh,c
   859  002E1E  0E00               	movlw	low (__pidataCOMRAM shr (0+16))
   860  002E20  6EF8               	movwf	tblptru,c
   861  002E22  0009               	tblrd		*+	;fetch initializer
   862  002E24  CFF5 F075          	movff	tablat,__pdataCOMRAM
   863  002E28  0009               	tblrd		*+	;fetch initializer
   864  002E2A  CFF5 F076          	movff	tablat,__pdataCOMRAM+1
   865                           
   866                           ; Clear objects allocated to BANK0 (52 bytes)
   867  002E2E  EE00  F080         	lfsr	0,__pbssBANK0
   868  002E32  0E34               	movlw	52
   869  002E34                     clear_0:
   870  002E34  6AEE               	clrf	postinc0,c
   871  002E36  06E8               	decf	wreg,f,c
   872  002E38  E1FD               	bnz	clear_0
   873                           
   874                           ; Clear objects allocated to COMRAM (26 bytes)
   875  002E3A  EE00  F05B         	lfsr	0,__pbssCOMRAM
   876  002E3E  0E1A               	movlw	26
   877  002E40                     clear_1:
   878  002E40  6AEE               	clrf	postinc0,c
   879  002E42  06E8               	decf	wreg,f,c
   880  002E44  E1FD               	bnz	clear_1
   881  002E46                     end_of_initialization:
   882                           	callstack 0
   883  002E46                     __end_of__initialization:
   884                           	callstack 0
   885  002E46  9077               	bcf	int$flags,0,c	;clear compiler interrupt flag (level 1)
   886  002E48  9277               	bcf	int$flags,1,c	;clear compiler interrupt flag (level 2)
   887  002E4A  0E00               	movlw	low (__Lmediumconst shr (0+16))
   888  002E4C  6EF8               	movwf	tblptru,c
   889  002E4E  0100               	movlb	0
   890  002E50  EF53  F018         	goto	_main	;jump to C main() function
   891                           
   892                           	psect	bssCOMRAM
   893  00005B                     __pbssCOMRAM:
   894                           	callstack 0
   895  00005B                     _X_Pick_D:
   896                           	callstack 0
   897  00005B                     	ds	2
   898  00005D                     _Angle_diff:
   899                           	callstack 0
   900  00005D                     	ds	2
   901  00005F                     _Y_diff:
   902                           	callstack 0
   903  00005F                     	ds	2
   904  000061                     _X_diff:
   905                           	callstack 0
   906  000061                     	ds	2
   907  000063                     _Place_Angle:
   908                           	callstack 0
   909  000063                     	ds	2
   910  000065                     _Pick_Angle:
   911                           	callstack 0
   912  000065                     	ds	2
   913  000067                     _Y_Place:
   914                           	callstack 0
   915  000067                     	ds	2
   916  000069                     _Y_Pick:
   917                           	callstack 0
   918  000069                     	ds	2
   919  00006B                     _X_Place:
   920                           	callstack 0
   921  00006B                     	ds	2
   922  00006D                     _X_Pick:
   923                           	callstack 0
   924  00006D                     	ds	2
   925  00006F                     _RX_Char:
   926                           	callstack 0
   927  00006F                     	ds	1
   928  000070                     _Rot_dir:
   929                           	callstack 0
   930  000070                     	ds	1
   931  000071                     _Y_dir:
   932                           	callstack 0
   933  000071                     	ds	1
   934  000072                     _X_dir:
   935                           	callstack 0
   936  000072                     	ds	1
   937  000073                     _stop:
   938                           	callstack 0
   939  000073                     	ds	1
   940  000074                     _New_char_RX:
   941                           	callstack 0
   942  000074                     	ds	1
   943                           
   944                           	psect	dataCOMRAM
   945  000075                     __pdataCOMRAM:
   946                           	callstack 0
   947  000075                     add_component@F3128:
   948                           	callstack 0
   949  000075                     	ds	1
   950  000076                     _State:
   951                           	callstack 0
   952  000076                     	ds	1
   953                           
   954                           	psect	bssBANK0
   955  000080                     __pbssBANK0:
   956                           	callstack 0
   957  000080                     _testarray:
   958                           	callstack 0
   959  000080                     	ds	30
   960  00009E                     roundf@F528:
   961                           	callstack 0
   962  00009E                     	ds	4
   963  0000A2                     _angle_diff:
   964                           	callstack 0
   965  0000A2                     	ds	2
   966  0000A4                     _Place_Angle_D:
   967                           	callstack 0
   968  0000A4                     	ds	2
   969  0000A6                     _Y_Place_D:
   970                           	callstack 0
   971  0000A6                     	ds	2
   972  0000A8                     _X_Place_D:
   973                           	callstack 0
   974  0000A8                     	ds	2
   975  0000AA                     _Pick_Angle_D:
   976                           	callstack 0
   977  0000AA                     	ds	2
   978  0000AC                     _Y_Pick_D:
   979                           	callstack 0
   980  0000AC                     	ds	2
   981  0000AE                     _rotation:
   982                           	callstack 0
   983  0000AE                     	ds	2
   984  0000B0                     _displacement_Y:
   985                           	callstack 0
   986  0000B0                     	ds	2
   987  0000B2                     _displacement_X:
   988                           	callstack 0
   989  0000B2                     	ds	2
   990                           
   991                           	psect	dataBANK0
   992  0000D5                     __pdataBANK0:
   993                           	callstack 0
   994  0000D5                     	ds	4
   995  0000D9                     	ds	4
   996  0000DD                     _lenth_of_array:
   997                           	callstack 0
   998  0000DD                     	ds	2
   999  0000DF                     _input_str:
  1000                           	callstack 0
  1001  0000DF                     	ds	10
  1002  0000E9                     _sequence:
  1003                           	callstack 0
  1004  0000E9                     	ds	4
  1005                           
  1006                           	psect	cstackBANK0
  1007  0000B4                     __pcstackBANK0:
  1008                           	callstack 0
  1009  0000B4                     ??___fltol:
  1010  0000B4                     pick_and_place@Componnt:
  1011                           	callstack 0
  1012                           
  1013                           ; 1 bytes @ 0x0
  1014  0000B4                     	ds	1
  1015  0000B5                     pick_and_place@i:
  1016                           	callstack 0
  1017                           
  1018                           ; 2 bytes @ 0x1
  1019  0000B5                     	ds	2
  1020  0000B7                     _pick_and_place$584:
  1021                           	callstack 0
  1022                           
  1023                           ; 2 bytes @ 0x3
  1024  0000B7                     	ds	2
  1025  0000B9                     pick_and_place@i_585:
  1026                           	callstack 0
  1027                           
  1028                           ; 2 bytes @ 0x5
  1029  0000B9                     	ds	2
  1030  0000BB                     _pick_and_place$587:
  1031                           	callstack 0
  1032                           
  1033                           ; 2 bytes @ 0x7
  1034  0000BB                     	ds	2
  1035  0000BD                     pick_and_place@i_588:
  1036                           	callstack 0
  1037                           
  1038                           ; 2 bytes @ 0x9
  1039  0000BD                     	ds	2
  1040  0000BF                     _pick_and_place$590:
  1041                           	callstack 0
  1042                           
  1043                           ; 2 bytes @ 0xB
  1044  0000BF                     	ds	2
  1045  0000C1                     pick_and_place@i_596:
  1046                           	callstack 0
  1047                           
  1048                           ; 2 bytes @ 0xD
  1049  0000C1                     	ds	2
  1050  0000C3                     _pick_and_place$597:
  1051                           	callstack 0
  1052                           
  1053                           ; 2 bytes @ 0xF
  1054  0000C3                     	ds	2
  1055  0000C5                     pick_and_place@i_598:
  1056                           	callstack 0
  1057                           
  1058                           ; 2 bytes @ 0x11
  1059  0000C5                     	ds	2
  1060  0000C7                     _pick_and_place$599:
  1061                           	callstack 0
  1062                           
  1063                           ; 2 bytes @ 0x13
  1064  0000C7                     	ds	2
  1065  0000C9                     pick_and_place@i_600:
  1066                           	callstack 0
  1067                           
  1068                           ; 2 bytes @ 0x15
  1069  0000C9                     	ds	2
  1070  0000CB                     _pick_and_place$601:
  1071                           	callstack 0
  1072                           
  1073                           ; 2 bytes @ 0x17
  1074  0000CB                     	ds	2
  1075  0000CD                     pick_and_place@i_591:
  1076                           	callstack 0
  1077                           
  1078                           ; 2 bytes @ 0x19
  1079  0000CD                     	ds	2
  1080  0000CF                     pick_and_place@i_594:
  1081                           	callstack 0
  1082                           
  1083                           ; 2 bytes @ 0x1B
  1084  0000CF                     	ds	2
  1085  0000D1                     pick_and_place@i_602:
  1086                           	callstack 0
  1087                           
  1088                           ; 2 bytes @ 0x1D
  1089  0000D1                     	ds	2
  1090  0000D3                     pick_and_place@i_604:
  1091                           	callstack 0
  1092                           
  1093                           ; 2 bytes @ 0x1F
  1094  0000D3                     	ds	2
  1095                           
  1096                           	psect	cstackCOMRAM
  1097  000001                     __pcstackCOMRAM:
  1098                           	callstack 0
  1099  000001                     ??_Rx_char_USART:
  1100  000001                     
  1101                           ; 2 bytes @ 0x0
  1102  000001                     	ds	5
  1103  000006                     Rx_char_USART@i:
  1104                           	callstack 0
  1105                           
  1106                           ; 2 bytes @ 0x5
  1107  000006                     	ds	2
  1108  000008                     ?_strlen:
  1109                           	callstack 0
  1110  000008                     ?_isspace:
  1111                           	callstack 0
  1112  000008                     ?_isdigit:
  1113                           	callstack 0
  1114  000008                     ?___wmul:
  1115                           	callstack 0
  1116  000008                     ?___fladd:
  1117                           	callstack 0
  1118  000008                     ?___flmul:
  1119                           	callstack 0
  1120  000008                     ?___flneg:
  1121                           	callstack 0
  1122  000008                     ?___xxtofl:
  1123                           	callstack 0
  1124  000008                     serial_tx_char@val:
  1125                           	callstack 0
  1126  000008                     fetch_parameters@Componnt:
  1127                           	callstack 0
  1128  000008                     ms_delay@val:
  1129                           	callstack 0
  1130  000008                     ___wmul@multiplier:
  1131                           	callstack 0
  1132  000008                     isdigit@c:
  1133                           	callstack 0
  1134  000008                     isspace@c:
  1135                           	callstack 0
  1136  000008                     strlen@s:
  1137                           	callstack 0
  1138  000008                     ___flneg@f1:
  1139                           	callstack 0
  1140  000008                     ___fladd@b:
  1141                           	callstack 0
  1142  000008                     ___flmul@b:
  1143                           	callstack 0
  1144  000008                     ___xxtofl@val:
  1145                           	callstack 0
  1146                           
  1147                           ; 4 bytes @ 0x7
  1148  000008                     	ds	1
  1149  000009                     print_string@strng:
  1150                           	callstack 0
  1151                           
  1152                           ; 2 bytes @ 0x8
  1153  000009                     	ds	1
  1154  00000A                     ??_isspace:
  1155  00000A                     ??_isdigit:
  1156  00000A                     ms_delay@i:
  1157                           	callstack 0
  1158  00000A                     ___wmul@multiplicand:
  1159                           	callstack 0
  1160  00000A                     strlen@a:
  1161                           	callstack 0
  1162                           
  1163                           ; 2 bytes @ 0x9
  1164  00000A                     	ds	1
  1165  00000B                     ??_print_string:
  1166                           
  1167                           ; 1 bytes @ 0xA
  1168  00000B                     	ds	1
  1169  00000C                     ??___xxtofl:
  1170  00000C                     ?___memrchr:
  1171                           	callstack 0
  1172  00000C                     ms_delay@j:
  1173                           	callstack 0
  1174  00000C                     ___wmul@product:
  1175                           	callstack 0
  1176  00000C                     memmove@d1:
  1177                           	callstack 0
  1178  00000C                     strncat@d:
  1179                           	callstack 0
  1180  00000C                     ___memrchr@m:
  1181                           	callstack 0
  1182  00000C                     ___fladd@a:
  1183                           	callstack 0
  1184  00000C                     ___flmul@a:
  1185                           	callstack 0
  1186                           
  1187                           ; 4 bytes @ 0xB
  1188  00000C                     	ds	1
  1189  00000D                     print_string@i:
  1190                           	callstack 0
  1191                           
  1192                           ; 2 bytes @ 0xC
  1193  00000D                     	ds	1
  1194  00000E                     X_axis@direction:
  1195                           	callstack 0
  1196  00000E                     Y_axis@direction:
  1197                           	callstack 0
  1198  00000E                     Z_axis@direction:
  1199                           	callstack 0
  1200  00000E                     Twister@direction:
  1201                           	callstack 0
  1202  00000E                     _isspace$1090:
  1203                           	callstack 0
  1204  00000E                     memmove@s1:
  1205                           	callstack 0
  1206  00000E                     strncat@s:
  1207                           	callstack 0
  1208  00000E                     ___memrchr@c:
  1209                           	callstack 0
  1210                           
  1211                           ; 2 bytes @ 0xD
  1212  00000E                     	ds	1
  1213  00000F                     ??_change_sequence:
  1214  00000F                     ??_return_to_initial:
  1215  00000F                     ?_atoi:
  1216                           	callstack 0
  1217  00000F                     atoi@s:
  1218                           	callstack 0
  1219                           
  1220                           ; 2 bytes @ 0xE
  1221  00000F                     	ds	1
  1222  000010                     ??___fladd:
  1223  000010                     ??___flmul:
  1224  000010                     ___xxtofl@sign:
  1225                           	callstack 0
  1226  000010                     return_to_initial@i:
  1227                           	callstack 0
  1228  000010                     memmove@n:
  1229                           	callstack 0
  1230  000010                     strncat@n:
  1231                           	callstack 0
  1232  000010                     ___memrchr@n:
  1233                           	callstack 0
  1234                           
  1235                           ; 2 bytes @ 0xF
  1236  000010                     	ds	1
  1237  000011                     ??_atoi:
  1238  000011                     ___xxtofl@exp:
  1239                           	callstack 0
  1240                           
  1241                           ; 1 bytes @ 0x10
  1242  000011                     	ds	1
  1243  000012                     ??_memmove:
  1244  000012                     ??___memrchr:
  1245  000012                     change_sequence@i:
  1246                           	callstack 0
  1247  000012                     return_to_initial@i_608:
  1248                           	callstack 0
  1249  000012                     ___xxtofl@arg:
  1250                           	callstack 0
  1251                           
  1252                           ; 4 bytes @ 0x11
  1253  000012                     	ds	2
  1254  000014                     ___fladd@signs:
  1255                           	callstack 0
  1256  000014                     ___flmul@sign:
  1257                           	callstack 0
  1258  000014                     return_to_initial@i_609:
  1259                           	callstack 0
  1260  000014                     memmove@d:
  1261                           	callstack 0
  1262  000014                     ___memrchr@s:
  1263                           	callstack 0
  1264                           
  1265                           ; 2 bytes @ 0x13
  1266  000014                     	ds	1
  1267  000015                     ___fladd@aexp:
  1268                           	callstack 0
  1269  000015                     atoi@neg:
  1270                           	callstack 0
  1271  000015                     ___flmul@grs:
  1272                           	callstack 0
  1273                           
  1274                           ; 4 bytes @ 0x14
  1275  000015                     	ds	1
  1276  000016                     ?_strrchr:
  1277                           	callstack 0
  1278  000016                     ?___fldiv:
  1279                           	callstack 0
  1280  000016                     ___fladd@bexp:
  1281                           	callstack 0
  1282  000016                     return_to_initial@i_610:
  1283                           	callstack 0
  1284  000016                     memmove@s:
  1285                           	callstack 0
  1286  000016                     strrchr@s:
  1287                           	callstack 0
  1288  000016                     ___fldiv@b:
  1289                           	callstack 0
  1290                           
  1291                           ; 4 bytes @ 0x15
  1292  000016                     	ds	1
  1293  000017                     ___fladd@grs:
  1294                           	callstack 0
  1295  000017                     _atoi$1072:
  1296                           	callstack 0
  1297                           
  1298                           ; 2 bytes @ 0x16
  1299  000017                     	ds	1
  1300  000018                     ?___flsub:
  1301                           	callstack 0
  1302  000018                     strrchr@c:
  1303                           	callstack 0
  1304  000018                     ___flsub@b:
  1305                           	callstack 0
  1306                           
  1307                           ; 4 bytes @ 0x17
  1308  000018                     	ds	1
  1309  000019                     ___flmul@aexp:
  1310                           	callstack 0
  1311  000019                     _atoi$1074:
  1312                           	callstack 0
  1313                           
  1314                           ; 2 bytes @ 0x18
  1315  000019                     	ds	1
  1316  00001A                     ___flmul@bexp:
  1317                           	callstack 0
  1318  00001A                     remove_component@ptr:
  1319                           	callstack 0
  1320  00001A                     ___fldiv@a:
  1321                           	callstack 0
  1322                           
  1323                           ; 4 bytes @ 0x19
  1324  00001A                     	ds	1
  1325  00001B                     _atoi$1073:
  1326                           	callstack 0
  1327  00001B                     ___flmul@prod:
  1328                           	callstack 0
  1329                           
  1330                           ; 4 bytes @ 0x1A
  1331  00001B                     	ds	1
  1332  00001C                     remove_component@indxToDel:
  1333                           	callstack 0
  1334  00001C                     atoi@n:
  1335                           	callstack 0
  1336  00001C                     ___flsub@a:
  1337                           	callstack 0
  1338                           
  1339                           ; 4 bytes @ 0x1B
  1340  00001C                     	ds	2
  1341  00001E                     ??_add_component:
  1342  00001E                     ??___fldiv:
  1343  00001E                     remove_component@rm_comp:
  1344                           	callstack 0
  1345                           
  1346                           ; 1 bytes @ 0x1D
  1347  00001E                     	ds	1
  1348  00001F                     ___flmul@temp:
  1349                           	callstack 0
  1350                           
  1351                           ; 2 bytes @ 0x1E
  1352  00001F                     	ds	1
  1353  000020                     add_component@add_componnt:
  1354                           	callstack 0
  1355                           
  1356                           ; 1 bytes @ 0x1F
  1357  000020                     	ds	2
  1358  000022                     ___fldiv@rem:
  1359                           	callstack 0
  1360                           
  1361                           ; 4 bytes @ 0x21
  1362  000022                     	ds	4
  1363  000026                     ___fldiv@sign:
  1364                           	callstack 0
  1365                           
  1366                           ; 1 bytes @ 0x25
  1367  000026                     	ds	1
  1368  000027                     ___fldiv@new_exp:
  1369                           	callstack 0
  1370                           
  1371                           ; 2 bytes @ 0x26
  1372  000027                     	ds	2
  1373  000029                     ___fldiv@grs:
  1374                           	callstack 0
  1375                           
  1376                           ; 4 bytes @ 0x28
  1377  000029                     	ds	4
  1378  00002D                     ___fldiv@bexp:
  1379                           	callstack 0
  1380                           
  1381                           ; 1 bytes @ 0x2C
  1382  00002D                     	ds	1
  1383  00002E                     ___fldiv@aexp:
  1384                           	callstack 0
  1385                           
  1386                           ; 1 bytes @ 0x2D
  1387  00002E                     	ds	1
  1388  00002F                     ___flge@ff1:
  1389                           	callstack 0
  1390                           
  1391                           ; 4 bytes @ 0x2E
  1392  00002F                     	ds	4
  1393  000033                     ___flge@ff2:
  1394                           	callstack 0
  1395                           
  1396                           ; 4 bytes @ 0x32
  1397  000033                     	ds	4
  1398  000037                     ??___flge:
  1399                           
  1400                           ; 1 bytes @ 0x36
  1401  000037                     	ds	4
  1402  00003B                     ??_pick_and_place:
  1403  00003B                     ?_roundf:
  1404                           	callstack 0
  1405  00003B                     roundf@x:
  1406                           	callstack 0
  1407                           
  1408                           ; 4 bytes @ 0x3A
  1409  00003B                     	ds	2
  1410  00003D                     ??_start_up_menu:
  1411                           
  1412                           ; 1 bytes @ 0x3C
  1413  00003D                     	ds	2
  1414  00003F                     ??_roundf:
  1415                           
  1416                           ; 1 bytes @ 0x3E
  1417  00003F                     	ds	1
  1418  000040                     start_up_menu@i:
  1419                           	callstack 0
  1420                           
  1421                           ; 2 bytes @ 0x3F
  1422  000040                     	ds	3
  1423  000043                     _roundf$1341:
  1424                           	callstack 0
  1425                           
  1426                           ; 4 bytes @ 0x42
  1427  000043                     	ds	4
  1428  000047                     roundf@e:
  1429                           	callstack 0
  1430                           
  1431                           ; 2 bytes @ 0x46
  1432  000047                     	ds	2
  1433  000049                     _roundf$1340:
  1434                           	callstack 0
  1435                           
  1436                           ; 4 bytes @ 0x48
  1437  000049                     	ds	4
  1438  00004D                     roundf@u:
  1439                           	callstack 0
  1440                           
  1441                           ; 4 bytes @ 0x4C
  1442  00004D                     	ds	4
  1443  000051                     roundf@y:
  1444                           	callstack 0
  1445                           
  1446                           ; 4 bytes @ 0x50
  1447  000051                     	ds	4
  1448  000055                     ?___fltol:
  1449                           	callstack 0
  1450  000055                     ___fltol@f1:
  1451                           	callstack 0
  1452                           
  1453                           ; 4 bytes @ 0x54
  1454  000055                     	ds	4
  1455  000059                     ___fltol@sign1:
  1456                           	callstack 0
  1457                           
  1458                           ; 1 bytes @ 0x58
  1459  000059                     	ds	1
  1460  00005A                     ___fltol@exp1:
  1461                           	callstack 0
  1462                           
  1463                           ; 1 bytes @ 0x59
  1464  00005A                     	ds	1
  1465  00005B                     
  1466                           ; 1 bytes @ 0x5A
  1467 ;;
  1468 ;;Main: autosize = 0, tempsize = 0, incstack = 0, save=0
  1469 ;;
  1470 ;; *************** function _main *****************
  1471 ;; Defined at:
  1472 ;;		line 188 in file "main.c"
  1473 ;; Parameters:    Size  Location     Type
  1474 ;;		None
  1475 ;; Auto vars:     Size  Location     Type
  1476 ;;  RX_Char         1    0        unsigned char 
  1477 ;; Return value:  Size  Location     Type
  1478 ;;                  1    wreg      void 
  1479 ;; Registers used:
  1480 ;;		wreg, fsr1l, fsr1h, fsr2l, fsr2h, status,2, status,0, tblptrl, tblptrh, tblptru, prodl, prodh, cstack
  1481 ;; Tracked objects:
  1482 ;;		On entry : 0/0
  1483 ;;		On exit  : 0/0
  1484 ;;		Unchanged: 0/0
  1485 ;; Data sizes:     COMRAM   BANK0   BANK1   BANK2   BANK3   BANK4   BANK5
  1486 ;;      Params:         0       0       0       0       0       0       0
  1487 ;;      Locals:         0       0       0       0       0       0       0
  1488 ;;      Temps:          0       0       0       0       0       0       0
  1489 ;;      Totals:         0       0       0       0       0       0       0
  1490 ;;Total ram usage:        0 bytes
  1491 ;; Hardware stack levels required when called: 5
  1492 ;; This function calls:
  1493 ;;		_init_PORTS
  1494 ;;		_init_USART
  1495 ;;		_init_interrupts
  1496 ;;		_start_up_menu
  1497 ;; This function is called by:
  1498 ;;		Startup code after reset
  1499 ;; This function uses a non-reentrant model
  1500 ;;
  1501                           
  1502                           	psect	text0
  1503  0030A6                     __ptext0:
  1504                           	callstack 0
  1505  0030A6                     _main:
  1506                           	callstack 26
  1507  0030A6  FFFF               	dw	65535	; assembler added errata NOP
  1508                           
  1509                           ;main.c: 192:     init_PORTS();
  1510  0030A8  EC32  F018         	call	_init_PORTS	;wreg free
  1511  0030AC                     
  1512                           ;main.c: 193:     init_USART();
  1513  0030AC  ECE0  F017         	call	_init_USART	;wreg free
  1514  0030B0                     
  1515                           ;main.c: 194:     init_interrupts();
  1516  0030B0  EC6E  F018         	call	_init_interrupts	;wreg free
  1517  0030B4                     
  1518                           ;main.c: 196:     (INTCONbits.GIE = 1);
  1519  0030B4  8EF2               	bsf	242,7,c	;volatile
  1520  0030B6                     l4614:
  1521  0030B6  FFFF               	dw	65535	; assembler added errata NOP
  1522                           
  1523                           ;main.c: 199:         start_up_menu();
  1524  0030B8  ECE5  F00F         	call	_start_up_menu	;wreg free
  1525  0030BC  EF5B  F018         	goto	l4614
  1526  0030C0  EF43  F000         	goto	start
  1527  0030C4                     __end_of_main:
  1528                           	callstack 0
  1529                           
  1530 ;; *************** function _start_up_menu *****************
  1531 ;; Defined at:
  1532 ;;		line 207 in file "main.c"
  1533 ;; Parameters:    Size  Location     Type
  1534 ;;		None
  1535 ;; Auto vars:     Size  Location     Type
  1536 ;;  i               2   63[COMRAM] int 
  1537 ;; Return value:  Size  Location     Type
  1538 ;;                  1    wreg      void 
  1539 ;; Registers used:
  1540 ;;		wreg, fsr1l, fsr1h, fsr2l, fsr2h, status,2, status,0, tblptrl, tblptrh, tblptru, prodl, prodh, cstack
  1541 ;; Tracked objects:
  1542 ;;		On entry : 0/0
  1543 ;;		On exit  : 0/0
  1544 ;;		Unchanged: 0/0
  1545 ;; Data sizes:     COMRAM   BANK0   BANK1   BANK2   BANK3   BANK4   BANK5
  1546 ;;      Params:         0       0       0       0       0       0       0
  1547 ;;      Locals:         2       0       0       0       0       0       0
  1548 ;;      Temps:          3       0       0       0       0       0       0
  1549 ;;      Totals:         5       0       0       0       0       0       0
  1550 ;;Total ram usage:        5 bytes
  1551 ;; Hardware stack levels used: 1
  1552 ;; Hardware stack levels required when called: 4
  1553 ;; This function calls:
  1554 ;;		_add_component
  1555 ;;		_change_sequence
  1556 ;;		_pick_and_place
  1557 ;;		_print_string
  1558 ;;		_remove_component
  1559 ;;		_return_to_initial
  1560 ;; This function is called by:
  1561 ;;		_main
  1562 ;; This function uses a non-reentrant model
  1563 ;;
  1564                           
  1565                           	psect	text1
  1566  001FCA                     __ptext1:
  1567                           	callstack 0
  1568  001FCA                     _start_up_menu:
  1569                           	callstack 0
  1570  001FCA  FFFF               	dw	65535	; assembler added errata NOP
  1571  001FCC                     
  1572                           ;main.c: 209:     print_string("\n\n1. Start Sequence\n2. Change sequence\n3. Add new co
      +                          mponent\n4. Remove a component");
  1573  001FCC  0E89               	movlw	low STR_1
  1574  001FCE  6E09               	movwf	print_string@strng^0,c
  1575  001FD0  0E7D               	movlw	high STR_1
  1576  001FD2  6E0A               	movwf	(print_string@strng+1)^0,c
  1577  001FD4  EC00  F016         	call	_print_string	;wreg free
  1578  001FD8                     l4566:
  1579  001FD8  FFFF               	dw	65535	; assembler added errata NOP
  1580                           
  1581                           ;main.c: 212:         if(New_char_RX){
  1582  001FDA  5074               	movf	_New_char_RX^0,w,c
  1583  001FDC  B4D8               	btfsc	status,2,c
  1584  001FDE  EFF3  F00F         	goto	u5481
  1585  001FE2  EFF6  F00F         	goto	u5480
  1586  001FE6                     u5481:
  1587  001FE6  FFFF               	dw	65535	; assembler added errata NOP
  1588  001FE8  EFEC  F00F         	goto	l4566
  1589  001FEC                     u5480:
  1590  001FEC  FFFF               	dw	65535	; assembler added errata NOP
  1591  001FEE                     
  1592                           ;main.c: 213:             New_char_RX=0;
  1593  001FEE  0E00               	movlw	0
  1594  001FF0  6E74               	movwf	_New_char_RX^0,c
  1595                           
  1596                           ;main.c: 214:             switch(State){
  1597  001FF2  EF65  F010         	goto	l4598
  1598  001FF6                     l4570:
  1599  001FF6  FFFF               	dw	65535	; assembler added errata NOP
  1600                           
  1601                           ;main.c: 216:                     print_string("\nStarting sequence:");
  1602  001FF8  0ED3               	movlw	low STR_2
  1603  001FFA  6E09               	movwf	print_string@strng^0,c
  1604  001FFC  0E7F               	movlw	high STR_2
  1605  001FFE  6E0A               	movwf	(print_string@strng+1)^0,c
  1606  002000  EC00  F016         	call	_print_string	;wreg free
  1607                           
  1608                           ;main.c: 217:                     print_string(sequence);
  1609  002004  0EE9               	movlw	low _sequence
  1610  002006  6E09               	movwf	print_string@strng^0,c
  1611  002008  0E00               	movlw	high _sequence
  1612  00200A  6E0A               	movwf	(print_string@strng+1)^0,c
  1613  00200C  EC00  F016         	call	_print_string	;wreg free
  1614                           
  1615                           ;main.c: 218:                     print_string("\nEnter 'Q' to exit to MAIN MENU");
  1616  002010  0EBC               	movlw	low STR_3
  1617  002012  6E09               	movwf	print_string@strng^0,c
  1618  002014  0E7E               	movlw	high STR_3
  1619  002016  6E0A               	movwf	(print_string@strng+1)^0,c
  1620  002018  EC00  F016         	call	_print_string	;wreg free
  1621                           
  1622                           ;main.c: 219:                     while(!New_char_RX){
  1623  00201C  EF3F  F010         	goto	l4580
  1624  002020                     l4572:
  1625  002020  FFFF               	dw	65535	; assembler added errata NOP
  1626                           
  1627                           ;main.c: 220:                         int i =0;
  1628  002022  0E00               	movlw	0
  1629  002024  6E41               	movwf	(start_up_menu@i+1)^0,c
  1630  002026  0E00               	movlw	0
  1631  002028  6E40               	movwf	start_up_menu@i^0,c
  1632  00202A                     l4574:
  1633  00202A  FFFF               	dw	65535	; assembler added errata NOP
  1634                           
  1635                           ;main.c: 222:                             pick_and_place(sequence[i]);
  1636  00202C  0EE9               	movlw	low _sequence
  1637  00202E  2440               	addwf	start_up_menu@i^0,w,c
  1638  002030  6ED9               	movwf	fsr2l,c
  1639  002032  0E00               	movlw	high _sequence
  1640  002034  2041               	addwfc	(start_up_menu@i+1)^0,w,c
  1641  002036  6EDA               	movwf	fsr2h,c
  1642  002038  50DF               	movf	indf2,w,c
  1643  00203A  EC45  F000         	call	_pick_and_place
  1644  00203E                     
  1645                           ;main.c: 223:                         }while(sequence[i++]!='\n'&& !stop);
  1646  00203E  5040               	movf	start_up_menu@i^0,w,c
  1647  002040  6E3D               	movwf	??_start_up_menu^0,c
  1648  002042  5041               	movf	(start_up_menu@i+1)^0,w,c
  1649  002044  6E3E               	movwf	(??_start_up_menu+1)^0,c
  1650  002046  4A40               	infsnz	start_up_menu@i^0,f,c
  1651  002048  2A41               	incf	(start_up_menu@i+1)^0,f,c
  1652  00204A  0EE9               	movlw	low _sequence
  1653  00204C  243D               	addwf	??_start_up_menu^0,w,c
  1654  00204E  6ED9               	movwf	fsr2l,c
  1655  002050  0E00               	movlw	high _sequence
  1656  002052  203E               	addwfc	(??_start_up_menu+1)^0,w,c
  1657  002054  6EDA               	movwf	fsr2h,c
  1658  002056  0E0A               	movlw	10
  1659  002058  18DE               	xorwf	postinc2,w,c
  1660  00205A  B4D8               	btfsc	status,2,c
  1661  00205C  EF32  F010         	goto	u5491
  1662  002060  EF35  F010         	goto	u5490
  1663  002064                     u5491:
  1664  002064  FFFF               	dw	65535	; assembler added errata NOP
  1665  002066  EF3F  F010         	goto	l4580
  1666  00206A                     u5490:
  1667  00206A  FFFF               	dw	65535	; assembler added errata NOP
  1668  00206C  5073               	movf	_stop^0,w,c
  1669  00206E  B4D8               	btfsc	status,2,c
  1670  002070  EF3C  F010         	goto	u5501
  1671  002074  EF3F  F010         	goto	u5500
  1672  002078                     u5501:
  1673  002078  FFFF               	dw	65535	; assembler added errata NOP
  1674  00207A  EF15  F010         	goto	l4574
  1675  00207E                     u5500:
  1676  00207E                     l4580:
  1677  00207E  FFFF               	dw	65535	; assembler added errata NOP
  1678                           
  1679                           ;main.c: 219:                     while(!New_char_RX){
  1680  002080  5074               	movf	_New_char_RX^0,w,c
  1681  002082  B4D8               	btfsc	status,2,c
  1682  002084  EF46  F010         	goto	u5511
  1683  002088  EF49  F010         	goto	u5510
  1684  00208C                     u5511:
  1685  00208C  FFFF               	dw	65535	; assembler added errata NOP
  1686  00208E  EF10  F010         	goto	l4572
  1687  002092                     u5510:
  1688  002092  FFFF               	dw	65535	; assembler added errata NOP
  1689  002094  EF88  F010         	goto	l196
  1690  002098                     l4582:
  1691  002098  FFFF               	dw	65535	; assembler added errata NOP
  1692                           
  1693                           ;main.c: 228:                     change_sequence();
  1694  00209A  ECB4  F015         	call	_change_sequence	;wreg free
  1695  00209E                     l4584:
  1696  00209E  FFFF               	dw	65535	; assembler added errata NOP
  1697                           
  1698                           ;main.c: 229:                     return_to_initial();
  1699  0020A0  ECDF  F012         	call	_return_to_initial	;wreg free
  1700                           
  1701                           ;main.c: 230:                     break;
  1702  0020A4  EF88  F010         	goto	l196
  1703  0020A8                     l4586:
  1704  0020A8  FFFF               	dw	65535	; assembler added errata NOP
  1705                           
  1706                           ;main.c: 233:                     add_component();
  1707  0020AA  ECF7  F00C         	call	_add_component	;wreg free
  1708  0020AE  EF4F  F010         	goto	l4584
  1709  0020B2                     l4590:
  1710  0020B2  FFFF               	dw	65535	; assembler added errata NOP
  1711                           
  1712                           ;main.c: 238:                     remove_component();
  1713  0020B4  EC57  F012         	call	_remove_component	;wreg free
  1714  0020B8  EF4F  F010         	goto	l4584
  1715  0020BC                     l4594:
  1716  0020BC  FFFF               	dw	65535	; assembler added errata NOP
  1717                           
  1718                           ;main.c: 243:                     New_char_RX=0;
  1719  0020BE  0E00               	movlw	0
  1720  0020C0  6E74               	movwf	_New_char_RX^0,c
  1721                           
  1722                           ;main.c: 244:                     stop=0;
  1723  0020C2  0E00               	movlw	0
  1724  0020C4  6E73               	movwf	_stop^0,c
  1725                           
  1726                           ;main.c: 245:                     break;
  1727  0020C6  EF88  F010         	goto	l196
  1728  0020CA                     l4598:
  1729  0020CA  FFFF               	dw	65535	; assembler added errata NOP
  1730  0020CC  5076               	movf	_State^0,w,c
  1731  0020CE  6E3D               	movwf	??_start_up_menu^0,c
  1732  0020D0  6A3E               	clrf	(??_start_up_menu+1)^0,c
  1733                           
  1734                           ; Switch on 2 bytes has been partitioned into a top level switch of size 1, and 1 sub-sw
      +                          itches
  1735                           ; Switch size 1, requested type "simple"
  1736                           ; Number of cases is 1, Range of values is 0 to 0
  1737                           ; switch strategies available:
  1738                           ; Name         Instructions Cycles
  1739                           ; simple_byte            4     3 (average)
  1740                           ;	Chosen strategy is simple_byte
  1741  0020D2  503E               	movf	(??_start_up_menu+1)^0,w,c
  1742  0020D4  0A00               	xorlw	0	; case 0
  1743  0020D6  B4D8               	btfsc	status,2,c
  1744  0020D8  EF70  F010         	goto	l4680
  1745  0020DC  EF88  F010         	goto	l196
  1746  0020E0                     l4680:
  1747  0020E0  FFFF               	dw	65535	; assembler added errata NOP
  1748                           
  1749                           ; Switch size 1, requested type "simple"
  1750                           ; Number of cases is 5, Range of values is 49 to 81
  1751                           ; switch strategies available:
  1752                           ; Name         Instructions Cycles
  1753                           ; simple_byte           16     9 (average)
  1754                           ;	Chosen strategy is simple_byte
  1755  0020E2  503D               	movf	??_start_up_menu^0,w,c
  1756  0020E4  0A31               	xorlw	49	; case 49
  1757  0020E6  B4D8               	btfsc	status,2,c
  1758  0020E8  EFFB  F00F         	goto	l4570
  1759  0020EC  0A03               	xorlw	3	; case 50
  1760  0020EE  B4D8               	btfsc	status,2,c
  1761  0020F0  EF4C  F010         	goto	l4582
  1762  0020F4  0A01               	xorlw	1	; case 51
  1763  0020F6  B4D8               	btfsc	status,2,c
  1764  0020F8  EF54  F010         	goto	l4586
  1765  0020FC  0A07               	xorlw	7	; case 52
  1766  0020FE  B4D8               	btfsc	status,2,c
  1767  002100  EF59  F010         	goto	l4590
  1768  002104  0A65               	xorlw	101	; case 81
  1769  002106  B4D8               	btfsc	status,2,c
  1770  002108  EF5E  F010         	goto	l4594
  1771  00210C  EF88  F010         	goto	l196
  1772  002110                     l196:
  1773  002110  FFFF               	dw	65535	; assembler added errata NOP
  1774  002112  0012               	return		;funcret
  1775  002114  FFFF               	dw	65535	; errata NOP
  1776  002116                     __end_of_start_up_menu:
  1777                           	callstack 0
  1778                           
  1779 ;; *************** function _return_to_initial *****************
  1780 ;; Defined at:
  1781 ;;		line 592 in file "main.c"
  1782 ;; Parameters:    Size  Location     Type
  1783 ;;		None
  1784 ;; Auto vars:     Size  Location     Type
  1785 ;;  i               2   21[COMRAM] int 
  1786 ;;  i               2   19[COMRAM] int 
  1787 ;;  i               2   17[COMRAM] int 
  1788 ;;  i               2   15[COMRAM] int 
  1789 ;; Return value:  Size  Location     Type
  1790 ;;                  1    wreg      void 
  1791 ;; Registers used:
  1792 ;;		wreg, status,2, status,0, cstack
  1793 ;; Tracked objects:
  1794 ;;		On entry : 0/0
  1795 ;;		On exit  : 0/0
  1796 ;;		Unchanged: 0/0
  1797 ;; Data sizes:     COMRAM   BANK0   BANK1   BANK2   BANK3   BANK4   BANK5
  1798 ;;      Params:         0       0       0       0       0       0       0
  1799 ;;      Locals:         8       0       0       0       0       0       0
  1800 ;;      Temps:          1       0       0       0       0       0       0
  1801 ;;      Totals:         9       0       0       0       0       0       0
  1802 ;;Total ram usage:        9 bytes
  1803 ;; Hardware stack levels used: 1
  1804 ;; Hardware stack levels required when called: 3
  1805 ;; This function calls:
  1806 ;;		_Twister
  1807 ;;		_X_axis
  1808 ;;		_Y_axis
  1809 ;;		_Z_axis
  1810 ;; This function is called by:
  1811 ;;		_start_up_menu
  1812 ;; This function uses a non-reentrant model
  1813 ;;
  1814                           
  1815                           	psect	text2
  1816  0025BE                     __ptext2:
  1817                           	callstack 0
  1818  0025BE                     _return_to_initial:
  1819                           	callstack 0
  1820  0025BE  FFFF               	dw	65535	; assembler added errata NOP
  1821  0025C0                     
  1822                           ;main.c: 594:     for(int i = 0; i<X_diff; i++){X_axis(1);}
  1823  0025C0  0E00               	movlw	0
  1824  0025C2  6E11               	movwf	(return_to_initial@i+1)^0,c
  1825  0025C4  0E00               	movlw	0
  1826  0025C6  6E10               	movwf	return_to_initial@i^0,c
  1827  0025C8  EFEC  F012         	goto	l4476
  1828  0025CC                     l4472:
  1829  0025CC  FFFF               	dw	65535	; assembler added errata NOP
  1830  0025CE  0E01               	movlw	1
  1831  0025D0  ECD2  F014         	call	_X_axis
  1832  0025D4  4A10               	infsnz	return_to_initial@i^0,f,c
  1833  0025D6  2A11               	incf	(return_to_initial@i+1)^0,f,c
  1834  0025D8                     l4476:
  1835  0025D8  FFFF               	dw	65535	; assembler added errata NOP
  1836  0025DA  5061               	movf	_X_diff^0,w,c
  1837  0025DC  5C10               	subwf	return_to_initial@i^0,w,c
  1838  0025DE  5011               	movf	(return_to_initial@i+1)^0,w,c
  1839  0025E0  0A80               	xorlw	128
  1840  0025E2  6E0F               	movwf	??_return_to_initial^0,c
  1841  0025E4  5062               	movf	(_X_diff+1)^0,w,c
  1842  0025E6  0A80               	xorlw	128
  1843  0025E8  580F               	subwfb	??_return_to_initial^0,w,c
  1844  0025EA  A0D8               	btfss	status,0,c
  1845  0025EC  EFFA  F012         	goto	u5361
  1846  0025F0  EFFD  F012         	goto	u5360
  1847  0025F4                     u5361:
  1848  0025F4  FFFF               	dw	65535	; assembler added errata NOP
  1849  0025F6  EFE6  F012         	goto	l4472
  1850  0025FA                     u5360:
  1851  0025FA  FFFF               	dw	65535	; assembler added errata NOP
  1852  0025FC                     
  1853                           ;main.c: 595:     for(int i = 0; i<Y_diff; i++){Y_axis(1);}
  1854  0025FC  0E00               	movlw	0
  1855  0025FE  6E13               	movwf	(return_to_initial@i_608+1)^0,c
  1856  002600  0E00               	movlw	0
  1857  002602  6E12               	movwf	return_to_initial@i_608^0,c
  1858  002604  EF0A  F013         	goto	l4484
  1859  002608                     l4480:
  1860  002608  FFFF               	dw	65535	; assembler added errata NOP
  1861  00260A  0E01               	movlw	1
  1862  00260C  EC59  F014         	call	_Y_axis
  1863  002610  4A12               	infsnz	return_to_initial@i_608^0,f,c
  1864  002612  2A13               	incf	(return_to_initial@i_608+1)^0,f,c
  1865  002614                     l4484:
  1866  002614  FFFF               	dw	65535	; assembler added errata NOP
  1867  002616  505F               	movf	_Y_diff^0,w,c
  1868  002618  5C12               	subwf	return_to_initial@i_608^0,w,c
  1869  00261A  5013               	movf	(return_to_initial@i_608+1)^0,w,c
  1870  00261C  0A80               	xorlw	128
  1871  00261E  6E0F               	movwf	??_return_to_initial^0,c
  1872  002620  5060               	movf	(_Y_diff+1)^0,w,c
  1873  002622  0A80               	xorlw	128
  1874  002624  580F               	subwfb	??_return_to_initial^0,w,c
  1875  002626  A0D8               	btfss	status,0,c
  1876  002628  EF18  F013         	goto	u5371
  1877  00262C  EF1B  F013         	goto	u5370
  1878  002630                     u5371:
  1879  002630  FFFF               	dw	65535	; assembler added errata NOP
  1880  002632  EF04  F013         	goto	l4480
  1881  002636                     u5370:
  1882  002636  FFFF               	dw	65535	; assembler added errata NOP
  1883  002638                     
  1884                           ;main.c: 596:     for(int i = 0; i<Angle_diff; i++){Twister(1);}
  1885  002638  0E00               	movlw	0
  1886  00263A  6E15               	movwf	(return_to_initial@i_609+1)^0,c
  1887  00263C  0E00               	movlw	0
  1888  00263E  6E14               	movwf	return_to_initial@i_609^0,c
  1889  002640  EF28  F013         	goto	l4492
  1890  002644                     l4488:
  1891  002644  FFFF               	dw	65535	; assembler added errata NOP
  1892  002646  0E01               	movlw	1
  1893  002648  EC4B  F015         	call	_Twister
  1894  00264C  4A14               	infsnz	return_to_initial@i_609^0,f,c
  1895  00264E  2A15               	incf	(return_to_initial@i_609+1)^0,f,c
  1896  002650                     l4492:
  1897  002650  FFFF               	dw	65535	; assembler added errata NOP
  1898  002652  505D               	movf	_Angle_diff^0,w,c
  1899  002654  5C14               	subwf	return_to_initial@i_609^0,w,c
  1900  002656  5015               	movf	(return_to_initial@i_609+1)^0,w,c
  1901  002658  0A80               	xorlw	128
  1902  00265A  6E0F               	movwf	??_return_to_initial^0,c
  1903  00265C  505E               	movf	(_Angle_diff+1)^0,w,c
  1904  00265E  0A80               	xorlw	128
  1905  002660  580F               	subwfb	??_return_to_initial^0,w,c
  1906  002662  A0D8               	btfss	status,0,c
  1907  002664  EF36  F013         	goto	u5381
  1908  002668  EF39  F013         	goto	u5380
  1909  00266C                     u5381:
  1910  00266C  FFFF               	dw	65535	; assembler added errata NOP
  1911  00266E  EF22  F013         	goto	l4488
  1912  002672                     u5380:
  1913  002672  FFFF               	dw	65535	; assembler added errata NOP
  1914  002674                     
  1915                           ;main.c: 597:     for(int i=0; i<3 && !stop; i++){Z_axis("0");}
  1916  002674  0E00               	movlw	0
  1917  002676  6E17               	movwf	(return_to_initial@i_610+1)^0,c
  1918  002678  0E00               	movlw	0
  1919  00267A  6E16               	movwf	return_to_initial@i_610^0,c
  1920  00267C  EF46  F013         	goto	l4500
  1921  002680                     l4496:
  1922  002680  FFFF               	dw	65535	; assembler added errata NOP
  1923  002682  0EFA               	movlw	STR_19& (0+255)
  1924  002684  ECE0  F013         	call	_Z_axis
  1925  002688  4A16               	infsnz	return_to_initial@i_610^0,f,c
  1926  00268A  2A17               	incf	(return_to_initial@i_610+1)^0,f,c
  1927  00268C                     l4500:
  1928  00268C  FFFF               	dw	65535	; assembler added errata NOP
  1929  00268E  BE17               	btfsc	(return_to_initial@i_610+1)^0,7,c
  1930  002690  EF56  F013         	goto	u5390
  1931  002694  5017               	movf	(return_to_initial@i_610+1)^0,w,c
  1932  002696  E107               	bnz	u5391
  1933  002698  0E03               	movlw	3
  1934  00269A  5C16               	subwf	return_to_initial@i_610^0,w,c
  1935  00269C  B0D8               	btfsc	status,0,c
  1936  00269E  EF53  F013         	goto	u5391
  1937  0026A2  EF56  F013         	goto	u5390
  1938  0026A6                     u5391:
  1939  0026A6  FFFF               	dw	65535	; assembler added errata NOP
  1940  0026A8  EF60  F013         	goto	l389
  1941  0026AC                     u5390:
  1942  0026AC  FFFF               	dw	65535	; assembler added errata NOP
  1943  0026AE  5073               	movf	_stop^0,w,c
  1944  0026B0  B4D8               	btfsc	status,2,c
  1945  0026B2  EF5D  F013         	goto	u5401
  1946  0026B6  EF60  F013         	goto	u5400
  1947  0026BA                     u5401:
  1948  0026BA  FFFF               	dw	65535	; assembler added errata NOP
  1949  0026BC  EF40  F013         	goto	l4496
  1950  0026C0                     u5400:
  1951  0026C0                     l389:
  1952  0026C0  FFFF               	dw	65535	; assembler added errata NOP
  1953  0026C2  0012               	return		;funcret
  1954  0026C4  FFFF               	dw	65535	; errata NOP
  1955  0026C6                     __end_of_return_to_initial:
  1956                           	callstack 0
  1957                           
  1958 ;; *************** function _remove_component *****************
  1959 ;; Defined at:
  1960 ;;		line 341 in file "main.c"
  1961 ;; Parameters:    Size  Location     Type
  1962 ;;		None
  1963 ;; Auto vars:     Size  Location     Type
  1964 ;;  indxToDel       2   27[COMRAM] int 
  1965 ;;  ptr             2   25[COMRAM] PTR unsigned char 
  1966 ;;		 -> NULL(0), sequence(4), 
  1967 ;;  rm_comp         1   29[COMRAM] unsigned char 
  1968 ;; Return value:  Size  Location     Type
  1969 ;;                  1    wreg      void 
  1970 ;; Registers used:
  1971 ;;		wreg, fsr1l, fsr1h, fsr2l, fsr2h, status,2, status,0, tblptrl, tblptrh, tblptru, cstack
  1972 ;; Tracked objects:
  1973 ;;		On entry : 0/0
  1974 ;;		On exit  : 0/0
  1975 ;;		Unchanged: 0/0
  1976 ;; Data sizes:     COMRAM   BANK0   BANK1   BANK2   BANK3   BANK4   BANK5
  1977 ;;      Params:         0       0       0       0       0       0       0
  1978 ;;      Locals:         5       0       0       0       0       0       0
  1979 ;;      Temps:          0       0       0       0       0       0       0
  1980 ;;      Totals:         5       0       0       0       0       0       0
  1981 ;;Total ram usage:        5 bytes
  1982 ;; Hardware stack levels used: 1
  1983 ;; Hardware stack levels required when called: 3
  1984 ;; This function calls:
  1985 ;;		_memmove
  1986 ;;		_print_string
  1987 ;;		_serial_tx_char
  1988 ;;		_strlen
  1989 ;;		_strrchr
  1990 ;; This function is called by:
  1991 ;;		_start_up_menu
  1992 ;; This function uses a non-reentrant model
  1993 ;;
  1994                           
  1995                           	psect	text3
  1996  0024AE                     __ptext3:
  1997                           	callstack 0
  1998  0024AE                     _remove_component:
  1999                           	callstack 0
  2000  0024AE  FFFF               	dw	65535	; assembler added errata NOP
  2001  0024B0                     
  2002                           ;main.c: 342:     print_string("\nWhich component would you like to remove from the  seq
      +                          uence?\n");
  2003  0024B0  0E21               	movlw	low STR_15
  2004  0024B2  6E09               	movwf	print_string@strng^0,c
  2005  0024B4  0E7E               	movlw	high STR_15
  2006  0024B6  6E0A               	movwf	(print_string@strng+1)^0,c
  2007  0024B8  EC00  F016         	call	_print_string	;wreg free
  2008                           
  2009                           ;main.c: 343:     print_string(sequence);
  2010  0024BC  0EE9               	movlw	low _sequence
  2011  0024BE  6E09               	movwf	print_string@strng^0,c
  2012  0024C0  0E00               	movlw	high _sequence
  2013  0024C2  6E0A               	movwf	(print_string@strng+1)^0,c
  2014  0024C4  EC00  F016         	call	_print_string	;wreg free
  2015  0024C8                     l3726:
  2016  0024C8  FFFF               	dw	65535	; assembler added errata NOP
  2017                           
  2018                           ;main.c: 345:         if(New_char_RX){
  2019  0024CA  5074               	movf	_New_char_RX^0,w,c
  2020  0024CC  B4D8               	btfsc	status,2,c
  2021  0024CE  EF6B  F012         	goto	u4181
  2022  0024D2  EF6E  F012         	goto	u4180
  2023  0024D6                     u4181:
  2024  0024D6  FFFF               	dw	65535	; assembler added errata NOP
  2025  0024D8  EF64  F012         	goto	l3726
  2026  0024DC                     u4180:
  2027  0024DC  FFFF               	dw	65535	; assembler added errata NOP
  2028  0024DE                     
  2029                           ;main.c: 346:             New_char_RX=0;
  2030  0024DE  0E00               	movlw	0
  2031  0024E0  6E74               	movwf	_New_char_RX^0,c
  2032  0024E2                     
  2033                           ;main.c: 347:             char rm_comp = input_str[0];
  2034  0024E2  C0DF  F01E         	movff	_input_str,remove_component@rm_comp	;volatile
  2035  0024E6                     
  2036                           ;main.c: 348:             char *ptr;;main.c: 349:             int indxToDel;;main.c: 350
      +                          :             ptr=strrchr(sequence,rm_comp);
  2037  0024E6  0EE9               	movlw	low _sequence
  2038  0024E8  6E16               	movwf	strrchr@s^0,c
  2039  0024EA  0E00               	movlw	high _sequence
  2040  0024EC  6E17               	movwf	(strrchr@s+1)^0,c
  2041  0024EE  C01E  F018         	movff	remove_component@rm_comp,strrchr@c
  2042  0024F2  6A19               	clrf	(strrchr@c+1)^0,c
  2043  0024F4  EC00  F018         	call	_strrchr	;wreg free
  2044  0024F8  C016  F01A         	movff	?_strrchr,remove_component@ptr
  2045  0024FC  C017  F01B         	movff	?_strrchr+1,remove_component@ptr+1
  2046  002500                     
  2047                           ;main.c: 352:             if (rm_comp=='Q'){
  2048  002500  0E51               	movlw	81
  2049  002502  181E               	xorwf	remove_component@rm_comp^0,w,c
  2050  002504  A4D8               	btfss	status,2,c
  2051  002506  EF87  F012         	goto	u4191
  2052  00250A  EF8A  F012         	goto	u4190
  2053  00250E                     u4191:
  2054  00250E  FFFF               	dw	65535	; assembler added errata NOP
  2055  002510  EF8D  F012         	goto	l3740
  2056  002514                     u4190:
  2057  002514  FFFF               	dw	65535	; assembler added errata NOP
  2058  002516  EFDA  F012         	goto	l3758
  2059  00251A                     l3740:
  2060  00251A  FFFF               	dw	65535	; assembler added errata NOP
  2061  00251C  501A               	movf	remove_component@ptr^0,w,c
  2062  00251E  101B               	iorwf	(remove_component@ptr+1)^0,w,c
  2063  002520  B4D8               	btfsc	status,2,c
  2064  002522  EF95  F012         	goto	u4201
  2065  002526  EF98  F012         	goto	u4200
  2066  00252A                     u4201:
  2067  00252A  FFFF               	dw	65535	; assembler added errata NOP
  2068  00252C  EFC6  F012         	goto	l3754
  2069  002530                     u4200:
  2070  002530  FFFF               	dw	65535	; assembler added errata NOP
  2071  002532                     
  2072                           ;main.c: 356:                 indxToDel = ptr - sequence;
  2073  002532  0EE9               	movlw	low _sequence
  2074  002534  5C1A               	subwf	remove_component@ptr^0,w,c
  2075  002536  6E1C               	movwf	remove_component@indxToDel^0,c
  2076  002538  0E00               	movlw	high _sequence
  2077  00253A  581B               	subwfb	(remove_component@ptr+1)^0,w,c
  2078  00253C  6E1D               	movwf	(remove_component@indxToDel+1)^0,c
  2079  00253E                     
  2080                           ;main.c: 357:                 memmove(&sequence[indxToDel], &sequence[indxToDel + 1], st
      +                          rlen(sequence) - indxToDel);
  2081  00253E  0EE9               	movlw	low _sequence
  2082  002540  241C               	addwf	remove_component@indxToDel^0,w,c
  2083  002542  6E0C               	movwf	memmove@d1^0,c
  2084  002544  0E00               	movlw	high _sequence
  2085  002546  201D               	addwfc	(remove_component@indxToDel+1)^0,w,c
  2086  002548  6E0D               	movwf	(memmove@d1+1)^0,c
  2087  00254A  0EEA               	movlw	low (_sequence+1)
  2088  00254C  241C               	addwf	remove_component@indxToDel^0,w,c
  2089  00254E  6E0E               	movwf	memmove@s1^0,c
  2090  002550  0E00               	movlw	high (_sequence+1)
  2091  002552  201D               	addwfc	(remove_component@indxToDel+1)^0,w,c
  2092  002554  6E0F               	movwf	(memmove@s1+1)^0,c
  2093  002556  0EE9               	movlw	low _sequence
  2094  002558  6E08               	movwf	strlen@s^0,c
  2095  00255A  0E00               	movlw	high _sequence
  2096  00255C  6E09               	movwf	(strlen@s+1)^0,c
  2097  00255E  EC7D  F017         	call	_strlen	;wreg free
  2098  002562  501C               	movf	remove_component@indxToDel^0,w,c
  2099  002564  5C08               	subwf	?_strlen^0,w,c
  2100  002566  6E10               	movwf	memmove@n^0,c
  2101  002568  501D               	movf	(remove_component@indxToDel+1)^0,w,c
  2102  00256A  5809               	subwfb	(?_strlen+1)^0,w,c
  2103  00256C  6E11               	movwf	(memmove@n+1)^0,c
  2104  00256E  EC63  F013         	call	_memmove	;wreg free
  2105  002572                     
  2106                           ;main.c: 358:                 print_string("\ncomponent removed: ");
  2107  002572  0EBE               	movlw	low STR_16
  2108  002574  6E09               	movwf	print_string@strng^0,c
  2109  002576  0E7F               	movlw	high STR_16
  2110  002578  6E0A               	movwf	(print_string@strng+1)^0,c
  2111  00257A  EC00  F016         	call	_print_string	;wreg free
  2112  00257E                     
  2113                           ;main.c: 359:                 serial_tx_char(rm_comp);
  2114  00257E  501E               	movf	remove_component@rm_comp^0,w,c
  2115  002580  EC43  F018         	call	_serial_tx_char
  2116  002584                     
  2117                           ;main.c: 360:                 stop=0;
  2118  002584  0E00               	movlw	0
  2119  002586  6E73               	movwf	_stop^0,c
  2120                           
  2121                           ;main.c: 361:                 break;
  2122  002588  EFDA  F012         	goto	l3758
  2123  00258C                     l3754:
  2124  00258C  FFFF               	dw	65535	; assembler added errata NOP
  2125                           
  2126                           ;main.c: 365:                 print_string("\ncomponent is not in the sequence. Try sele
      +                          cting another component: \n");
  2127  00258E  0EDB               	movlw	low STR_17
  2128  002590  6E09               	movwf	print_string@strng^0,c
  2129  002592  0E7D               	movlw	high STR_17
  2130  002594  6E0A               	movwf	(print_string@strng+1)^0,c
  2131  002596  EC00  F016         	call	_print_string	;wreg free
  2132  00259A                     l3756:
  2133  00259A  FFFF               	dw	65535	; assembler added errata NOP
  2134  00259C  5074               	movf	_New_char_RX^0,w,c
  2135  00259E  B4D8               	btfsc	status,2,c
  2136  0025A0  EFD4  F012         	goto	u4211
  2137  0025A4  EFD7  F012         	goto	u4210
  2138  0025A8                     u4211:
  2139  0025A8  FFFF               	dw	65535	; assembler added errata NOP
  2140  0025AA  EFCD  F012         	goto	l3756
  2141  0025AE                     u4210:
  2142  0025AE  FFFF               	dw	65535	; assembler added errata NOP
  2143  0025B0  EF64  F012         	goto	l3726
  2144  0025B4                     l3758:
  2145  0025B4  FFFF               	dw	65535	; assembler added errata NOP
  2146                           
  2147                           ;main.c: 370:     New_char_RX=0;
  2148  0025B6  0E00               	movlw	0
  2149  0025B8  6E74               	movwf	_New_char_RX^0,c
  2150  0025BA  0012               	return		;funcret
  2151  0025BC  FFFF               	dw	65535	; errata NOP
  2152  0025BE                     __end_of_remove_component:
  2153                           	callstack 0
  2154                           
  2155 ;; *************** function _strrchr *****************
  2156 ;; Defined at:
  2157 ;;		line 5 in file "/opt/microchip/xc8/v2.32/pic/sources/c99/common/strrchr.c"
  2158 ;; Parameters:    Size  Location     Type
  2159 ;;  s               2   21[COMRAM] PTR const unsigned char 
  2160 ;;		 -> sequence(4), 
  2161 ;;  c               2   23[COMRAM] int 
  2162 ;; Auto vars:     Size  Location     Type
  2163 ;;		None
  2164 ;; Return value:  Size  Location     Type
  2165 ;;                  2   21[COMRAM] PTR unsigned char 
  2166 ;; Registers used:
  2167 ;;		wreg, fsr2l, fsr2h, status,2, status,0, cstack
  2168 ;; Tracked objects:
  2169 ;;		On entry : 0/0
  2170 ;;		On exit  : 0/0
  2171 ;;		Unchanged: 0/0
  2172 ;; Data sizes:     COMRAM   BANK0   BANK1   BANK2   BANK3   BANK4   BANK5
  2173 ;;      Params:         4       0       0       0       0       0       0
  2174 ;;      Locals:         0       0       0       0       0       0       0
  2175 ;;      Temps:          0       0       0       0       0       0       0
  2176 ;;      Totals:         4       0       0       0       0       0       0
  2177 ;;Total ram usage:        4 bytes
  2178 ;; Hardware stack levels used: 1
  2179 ;; Hardware stack levels required when called: 2
  2180 ;; This function calls:
  2181 ;;		___memrchr
  2182 ;;		_strlen
  2183 ;; This function is called by:
  2184 ;;		_remove_component
  2185 ;; This function uses a non-reentrant model
  2186 ;;
  2187                           
  2188                           	psect	text4
  2189  003000                     __ptext4:
  2190                           	callstack 0
  2191  003000                     _strrchr:
  2192                           	callstack 0
  2193  003000  FFFF               	dw	65535	; assembler added errata NOP
  2194  003002  C016  F00C         	movff	strrchr@s,___memrchr@m
  2195  003006  C017  F00D         	movff	strrchr@s+1,___memrchr@m+1
  2196  00300A  C018  F00E         	movff	strrchr@c,___memrchr@c
  2197  00300E  C019  F00F         	movff	strrchr@c+1,___memrchr@c+1
  2198  003012  C016  F008         	movff	strrchr@s,strlen@s
  2199  003016  C017  F009         	movff	strrchr@s+1,strlen@s+1
  2200  00301A  EC7D  F017         	call	_strlen	;wreg free
  2201  00301E  0E01               	movlw	1
  2202  003020  2408               	addwf	?_strlen^0,w,c
  2203  003022  6E10               	movwf	___memrchr@n^0,c
  2204  003024  0E00               	movlw	0
  2205  003026  2009               	addwfc	(?_strlen+1)^0,w,c
  2206  003028  6E11               	movwf	(___memrchr@n+1)^0,c
  2207  00302A  EC8A  F016         	call	___memrchr	;wreg free
  2208  00302E  C00C  F016         	movff	?___memrchr,?_strrchr
  2209  003032  C00D  F017         	movff	?___memrchr+1,?_strrchr+1
  2210  003036  0012               	return		;funcret
  2211  003038  FFFF               	dw	65535	; errata NOP
  2212  00303A                     __end_of_strrchr:
  2213                           	callstack 0
  2214                           
  2215 ;; *************** function ___memrchr *****************
  2216 ;; Defined at:
  2217 ;;		line 4 in file "/opt/microchip/xc8/v2.32/pic/sources/c99/common/memrchr.c"
  2218 ;; Parameters:    Size  Location     Type
  2219 ;;  m               2   11[COMRAM] PTR const void 
  2220 ;;		 -> sequence(4), 
  2221 ;;  c               2   13[COMRAM] int 
  2222 ;;  n               2   15[COMRAM] unsigned int 
  2223 ;; Auto vars:     Size  Location     Type
  2224 ;;  s               2   19[COMRAM] PTR const unsigned char 
  2225 ;;		 -> sequence(4), 
  2226 ;; Return value:  Size  Location     Type
  2227 ;;                  2   11[COMRAM] PTR void 
  2228 ;; Registers used:
  2229 ;;		wreg, fsr2l, fsr2h, status,2, status,0
  2230 ;; Tracked objects:
  2231 ;;		On entry : 0/0
  2232 ;;		On exit  : 0/0
  2233 ;;		Unchanged: 0/0
  2234 ;; Data sizes:     COMRAM   BANK0   BANK1   BANK2   BANK3   BANK4   BANK5
  2235 ;;      Params:         6       0       0       0       0       0       0
  2236 ;;      Locals:         2       0       0       0       0       0       0
  2237 ;;      Temps:          2       0       0       0       0       0       0
  2238 ;;      Totals:        10       0       0       0       0       0       0
  2239 ;;Total ram usage:       10 bytes
  2240 ;; Hardware stack levels used: 1
  2241 ;; Hardware stack levels required when called: 1
  2242 ;; This function calls:
  2243 ;;		Nothing
  2244 ;; This function is called by:
  2245 ;;		_strrchr
  2246 ;; This function uses a non-reentrant model
  2247 ;;
  2248                           
  2249                           	psect	text5
  2250  002D14                     __ptext5:
  2251                           	callstack 0
  2252  002D14                     ___memrchr:
  2253                           	callstack 0
  2254  002D14  FFFF               	dw	65535	; assembler added errata NOP
  2255  002D16  C00C  F014         	movff	___memrchr@m,___memrchr@s
  2256  002D1A  C00D  F015         	movff	___memrchr@m+1,___memrchr@s+1
  2257  002D1E  C00E  F00E         	movff	___memrchr@c,___memrchr@c
  2258  002D22  6A0F               	clrf	(___memrchr@c+1)^0,c
  2259  002D24  EFB4  F016         	goto	l2814
  2260  002D28                     l2808:
  2261  002D28  FFFF               	dw	65535	; assembler added errata NOP
  2262  002D2A  5010               	movf	___memrchr@n^0,w,c
  2263  002D2C  2414               	addwf	___memrchr@s^0,w,c
  2264  002D2E  6ED9               	movwf	fsr2l,c
  2265  002D30  5011               	movf	(___memrchr@n+1)^0,w,c
  2266  002D32  2015               	addwfc	(___memrchr@s+1)^0,w,c
  2267  002D34  6EDA               	movwf	fsr2h,c
  2268  002D36  50DF               	movf	indf2,w,c
  2269  002D38  6E12               	movwf	??___memrchr^0,c
  2270  002D3A  6A13               	clrf	(??___memrchr+1)^0,c
  2271  002D3C  500E               	movf	___memrchr@c^0,w,c
  2272  002D3E  1812               	xorwf	??___memrchr^0,w,c
  2273  002D40  E107               	bnz	u2661
  2274  002D42  500F               	movf	(___memrchr@c+1)^0,w,c
  2275  002D44  1813               	xorwf	(??___memrchr+1)^0,w,c
  2276  002D46  A4D8               	btfss	status,2,c
  2277  002D48  EFA8  F016         	goto	u2661
  2278  002D4C  EFAB  F016         	goto	u2660
  2279  002D50                     u2661:
  2280  002D50  FFFF               	dw	65535	; assembler added errata NOP
  2281  002D52  EFB4  F016         	goto	l2814
  2282  002D56                     u2660:
  2283  002D56  FFFF               	dw	65535	; assembler added errata NOP
  2284  002D58  5010               	movf	___memrchr@n^0,w,c
  2285  002D5A  2414               	addwf	___memrchr@s^0,w,c
  2286  002D5C  6E0C               	movwf	?___memrchr^0,c
  2287  002D5E  5011               	movf	(___memrchr@n+1)^0,w,c
  2288  002D60  2015               	addwfc	(___memrchr@s+1)^0,w,c
  2289  002D62  6E0D               	movwf	(?___memrchr+1)^0,c
  2290  002D64  EFC8  F016         	goto	l1179
  2291  002D68                     l2814:
  2292  002D68  FFFF               	dw	65535	; assembler added errata NOP
  2293  002D6A  0610               	decf	___memrchr@n^0,f,c
  2294  002D6C  A0D8               	btfss	status,0,c
  2295  002D6E  0611               	decf	(___memrchr@n+1)^0,f,c
  2296  002D70  2810               	incf	___memrchr@n^0,w,c
  2297  002D72  E106               	bnz	u2671
  2298  002D74  2811               	incf	(___memrchr@n+1)^0,w,c
  2299  002D76  A4D8               	btfss	status,2,c
  2300  002D78  EFC0  F016         	goto	u2671
  2301  002D7C  EFC3  F016         	goto	u2670
  2302  002D80                     u2671:
  2303  002D80  FFFF               	dw	65535	; assembler added errata NOP
  2304  002D82  EF94  F016         	goto	l2808
  2305  002D86                     u2670:
  2306  002D86  FFFF               	dw	65535	; assembler added errata NOP
  2307  002D88  0E00               	movlw	0
  2308  002D8A  6E0C               	movwf	?___memrchr^0,c
  2309  002D8C  0E00               	movlw	0
  2310  002D8E  6E0D               	movwf	(?___memrchr+1)^0,c
  2311  002D90                     l1179:
  2312  002D90  FFFF               	dw	65535	; assembler added errata NOP
  2313  002D92  0012               	return		;funcret
  2314  002D94  FFFF               	dw	65535	; errata NOP
  2315  002D96                     __end_of___memrchr:
  2316                           	callstack 0
  2317                           
  2318 ;; *************** function _memmove *****************
  2319 ;; Defined at:
  2320 ;;		line 4 in file "/opt/microchip/xc8/v2.32/pic/sources/c99/common/memmove.c"
  2321 ;; Parameters:    Size  Location     Type
  2322 ;;  d1              2   11[COMRAM] PTR void 
  2323 ;;		 -> sequence(4), 
  2324 ;;  s1              2   13[COMRAM] PTR const void 
  2325 ;;		 -> sequence(4), 
  2326 ;;  n               2   15[COMRAM] unsigned int 
  2327 ;; Auto vars:     Size  Location     Type
  2328 ;;  s               2   21[COMRAM] PTR const unsigned char 
  2329 ;;		 -> sequence(4), 
  2330 ;;  d               2   19[COMRAM] PTR unsigned char 
  2331 ;;		 -> sequence(4), 
  2332 ;; Return value:  Size  Location     Type
  2333 ;;                  2   11[COMRAM] PTR void 
  2334 ;; Registers used:
  2335 ;;		wreg, fsr1l, fsr1h, fsr2l, fsr2h, status,2, status,0
  2336 ;; Tracked objects:
  2337 ;;		On entry : 0/0
  2338 ;;		On exit  : 0/0
  2339 ;;		Unchanged: 0/0
  2340 ;; Data sizes:     COMRAM   BANK0   BANK1   BANK2   BANK3   BANK4   BANK5
  2341 ;;      Params:         6       0       0       0       0       0       0
  2342 ;;      Locals:         4       0       0       0       0       0       0
  2343 ;;      Temps:          2       0       0       0       0       0       0
  2344 ;;      Totals:        12       0       0       0       0       0       0
  2345 ;;Total ram usage:       12 bytes
  2346 ;; Hardware stack levels used: 1
  2347 ;; Hardware stack levels required when called: 1
  2348 ;; This function calls:
  2349 ;;		Nothing
  2350 ;; This function is called by:
  2351 ;;		_remove_component
  2352 ;; This function uses a non-reentrant model
  2353 ;;
  2354                           
  2355                           	psect	text6
  2356  0026C6                     __ptext6:
  2357                           	callstack 0
  2358  0026C6                     _memmove:
  2359                           	callstack 0
  2360  0026C6  FFFF               	dw	65535	; assembler added errata NOP
  2361  0026C8  C00E  F016         	movff	memmove@s1,memmove@s
  2362  0026CC  C00F  F017         	movff	memmove@s1+1,memmove@s+1
  2363  0026D0  C00C  F014         	movff	memmove@d1,memmove@d
  2364  0026D4  C00D  F015         	movff	memmove@d1+1,memmove@d+1
  2365  0026D8  5014               	movf	memmove@d^0,w,c
  2366  0026DA  5C16               	subwf	memmove@s^0,w,c
  2367  0026DC  5015               	movf	(memmove@d+1)^0,w,c
  2368  0026DE  5817               	subwfb	(memmove@s+1)^0,w,c
  2369  0026E0  B0D8               	btfsc	status,0,c
  2370  0026E2  EF75  F013         	goto	u2801
  2371  0026E6  EF78  F013         	goto	u2800
  2372  0026EA                     u2801:
  2373  0026EA  FFFF               	dw	65535	; assembler added errata NOP
  2374  0026EC  EFB5  F013         	goto	l2906
  2375  0026F0                     u2800:
  2376  0026F0  FFFF               	dw	65535	; assembler added errata NOP
  2377  0026F2  5010               	movf	memmove@n^0,w,c
  2378  0026F4  2416               	addwf	memmove@s^0,w,c
  2379  0026F6  6E12               	movwf	??_memmove^0,c
  2380  0026F8  5011               	movf	(memmove@n+1)^0,w,c
  2381  0026FA  2017               	addwfc	(memmove@s+1)^0,w,c
  2382  0026FC  6E13               	movwf	(??_memmove+1)^0,c
  2383  0026FE  5012               	movf	??_memmove^0,w,c
  2384  002700  5C14               	subwf	memmove@d^0,w,c
  2385  002702  5013               	movf	(??_memmove+1)^0,w,c
  2386  002704  5815               	subwfb	(memmove@d+1)^0,w,c
  2387  002706  B0D8               	btfsc	status,0,c
  2388  002708  EF88  F013         	goto	u2811
  2389  00270C  EF8B  F013         	goto	u2810
  2390  002710                     u2811:
  2391  002710  FFFF               	dw	65535	; assembler added errata NOP
  2392  002712  EFB5  F013         	goto	l2906
  2393  002716                     u2810:
  2394  002716  FFFF               	dw	65535	; assembler added errata NOP
  2395  002718  5010               	movf	memmove@n^0,w,c
  2396  00271A  2616               	addwf	memmove@s^0,f,c
  2397  00271C  5011               	movf	(memmove@n+1)^0,w,c
  2398  00271E  2217               	addwfc	(memmove@s+1)^0,f,c
  2399  002720  5010               	movf	memmove@n^0,w,c
  2400  002722  2614               	addwf	memmove@d^0,f,c
  2401  002724  5011               	movf	(memmove@n+1)^0,w,c
  2402  002726  2215               	addwfc	(memmove@d+1)^0,f,c
  2403  002728                     l2902:
  2404  002728  FFFF               	dw	65535	; assembler added errata NOP
  2405  00272A  0616               	decf	memmove@s^0,f,c
  2406  00272C  A0D8               	btfss	status,0,c
  2407  00272E  0617               	decf	(memmove@s+1)^0,f,c
  2408  002730  C016  FFD9         	movff	memmove@s,fsr2l
  2409  002734  C017  FFDA         	movff	memmove@s+1,fsr2h
  2410  002738  0614               	decf	memmove@d^0,f,c
  2411  00273A  A0D8               	btfss	status,0,c
  2412  00273C  0615               	decf	(memmove@d+1)^0,f,c
  2413  00273E  C014  FFE1         	movff	memmove@d,fsr1l
  2414  002742  C015  FFE2         	movff	memmove@d+1,fsr1h
  2415  002746  CFDF FFE7          	movff	indf2,indf1
  2416  00274A  0610               	decf	memmove@n^0,f,c
  2417  00274C  A0D8               	btfss	status,0,c
  2418  00274E  0611               	decf	(memmove@n+1)^0,f,c
  2419  002750  5010               	movf	memmove@n^0,w,c
  2420  002752  1011               	iorwf	(memmove@n+1)^0,w,c
  2421  002754  A4D8               	btfss	status,2,c
  2422  002756  EFAF  F013         	goto	u2821
  2423  00275A  EFB2  F013         	goto	u2820
  2424  00275E                     u2821:
  2425  00275E  FFFF               	dw	65535	; assembler added errata NOP
  2426  002760  EF94  F013         	goto	l2902
  2427  002764                     u2820:
  2428  002764  FFFF               	dw	65535	; assembler added errata NOP
  2429  002766  EFDD  F013         	goto	l1135
  2430  00276A                     l2906:
  2431  00276A  FFFF               	dw	65535	; assembler added errata NOP
  2432  00276C  5010               	movf	memmove@n^0,w,c
  2433  00276E  1011               	iorwf	(memmove@n+1)^0,w,c
  2434  002770  B4D8               	btfsc	status,2,c
  2435  002772  EFBD  F013         	goto	u2831
  2436  002776  EFC0  F013         	goto	u2830
  2437  00277A                     u2831:
  2438  00277A  FFFF               	dw	65535	; assembler added errata NOP
  2439  00277C  EFDD  F013         	goto	l1135
  2440  002780                     u2830:
  2441  002780  FFFF               	dw	65535	; assembler added errata NOP
  2442  002782                     l2908:
  2443  002782  FFFF               	dw	65535	; assembler added errata NOP
  2444  002784  C016  FFD9         	movff	memmove@s,fsr2l
  2445  002788  C017  FFDA         	movff	memmove@s+1,fsr2h
  2446  00278C  C014  FFE1         	movff	memmove@d,fsr1l
  2447  002790  C015  FFE2         	movff	memmove@d+1,fsr1h
  2448  002794  CFDF FFE7          	movff	indf2,indf1
  2449  002798  4A16               	infsnz	memmove@s^0,f,c
  2450  00279A  2A17               	incf	(memmove@s+1)^0,f,c
  2451  00279C  4A14               	infsnz	memmove@d^0,f,c
  2452  00279E  2A15               	incf	(memmove@d+1)^0,f,c
  2453  0027A0  0610               	decf	memmove@n^0,f,c
  2454  0027A2  A0D8               	btfss	status,0,c
  2455  0027A4  0611               	decf	(memmove@n+1)^0,f,c
  2456  0027A6  5010               	movf	memmove@n^0,w,c
  2457  0027A8  1011               	iorwf	(memmove@n+1)^0,w,c
  2458  0027AA  A4D8               	btfss	status,2,c
  2459  0027AC  EFDA  F013         	goto	u2841
  2460  0027B0  EFDD  F013         	goto	u2840
  2461  0027B4                     u2841:
  2462  0027B4  FFFF               	dw	65535	; assembler added errata NOP
  2463  0027B6  EFC1  F013         	goto	l2908
  2464  0027BA                     u2840:
  2465  0027BA                     l1135:
  2466  0027BA  FFFF               	dw	65535	; assembler added errata NOP
  2467  0027BC  0012               	return		;funcret
  2468  0027BE  FFFF               	dw	65535	; errata NOP
  2469  0027C0                     __end_of_memmove:
  2470                           	callstack 0
  2471                           
  2472 ;; *************** function _pick_and_place *****************
  2473 ;; Defined at:
  2474 ;;		line 552 in file "main.c"
  2475 ;; Parameters:    Size  Location     Type
  2476 ;;  Componnt        1    wreg     unsigned char 
  2477 ;; Auto vars:     Size  Location     Type
  2478 ;;  Componnt        1    0[BANK0 ] unsigned char 
  2479 ;;  i               2   31[BANK0 ] int 
  2480 ;;  i               2   29[BANK0 ] int 
  2481 ;;  i               2   21[BANK0 ] int 
  2482 ;;  i               2   17[BANK0 ] int 
  2483 ;;  i               2   13[BANK0 ] int 
  2484 ;;  i               2   27[BANK0 ] int 
  2485 ;;  i               2   25[BANK0 ] int 
  2486 ;;  i               2    9[BANK0 ] int 
  2487 ;;  i               2    5[BANK0 ] int 
  2488 ;;  i               2    1[BANK0 ] int 
  2489 ;; Return value:  Size  Location     Type
  2490 ;;                  2   65[None  ] int 
  2491 ;; Registers used:
  2492 ;;		wreg, status,2, status,0, cstack
  2493 ;; Tracked objects:
  2494 ;;		On entry : 0/0
  2495 ;;		On exit  : 0/0
  2496 ;;		Unchanged: 0/0
  2497 ;; Data sizes:     COMRAM   BANK0   BANK1   BANK2   BANK3   BANK4   BANK5
  2498 ;;      Params:         0       0       0       0       0       0       0
  2499 ;;      Locals:         0      33       0       0       0       0       0
  2500 ;;      Temps:          2       0       0       0       0       0       0
  2501 ;;      Totals:         2      33       0       0       0       0       0
  2502 ;;Total ram usage:       35 bytes
  2503 ;; Hardware stack levels used: 1
  2504 ;; Hardware stack levels required when called: 3
  2505 ;; This function calls:
  2506 ;;		_Twister
  2507 ;;		_X_axis
  2508 ;;		_Y_axis
  2509 ;;		_Z_axis
  2510 ;;		___fldiv
  2511 ;;		___flge
  2512 ;;		___xxtofl
  2513 ;;		_fetch_parameters
  2514 ;; This function is called by:
  2515 ;;		_start_up_menu
  2516 ;; This function uses a non-reentrant model
  2517 ;;
  2518                           
  2519                           	psect	text7
  2520  00008A                     __ptext7:
  2521                           	callstack 0
  2522  00008A                     _pick_and_place:
  2523                           	callstack 0
  2524  00008A  FFFF               	dw	65535	; assembler added errata NOP
  2525                           
  2526                           ;incstack = 0
  2527                           ;pick_and_place@Componnt stored from wreg
  2528  00008C  0100               	movlb	0	; () banked
  2529  00008E  6FB4               	movwf	pick_and_place@Componnt& (0+255),b
  2530  000090                     
  2531                           ;main.c: 552: int pick_and_place(char Componnt);main.c: 553: {;main.c: 556:     fetch_pa
      +                          rameters(Componnt);
  2532  000090  0100               	movlb	0	; () banked
  2533  000092  51B4               	movf	pick_and_place@Componnt& (0+255),w,b
  2534  000094  EC8B  F010         	call	_fetch_parameters
  2535  000098                     
  2536                           ;main.c: 558:         X_dir=((X_diff<X_Pick)? 1:0);
  2537  000098  506D               	movf	_X_Pick^0,w,c
  2538  00009A  5C61               	subwf	_X_diff^0,w,c
  2539  00009C  5062               	movf	(_X_diff+1)^0,w,c
  2540  00009E  0A80               	xorlw	128
  2541  0000A0  6E3B               	movwf	??_pick_and_place^0,c
  2542  0000A2  506E               	movf	(_X_Pick+1)^0,w,c
  2543  0000A4  0A80               	xorlw	128
  2544  0000A6  583B               	subwfb	??_pick_and_place^0,w,c
  2545  0000A8  A0D8               	btfss	status,0,c
  2546  0000AA  EF59  F000         	goto	u5021
  2547  0000AE  EF5D  F000         	goto	u5020
  2548  0000B2                     u5021:
  2549  0000B2  FFFF               	dw	65535	; assembler added errata NOP
  2550  0000B4  0E01               	movlw	1
  2551  0000B6  EF5F  F000         	goto	u5030
  2552  0000BA                     u5020:
  2553  0000BA  FFFF               	dw	65535	; assembler added errata NOP
  2554  0000BC  0E00               	movlw	0
  2555  0000BE                     u5030:
  2556  0000BE  FFFF               	dw	65535	; assembler added errata NOP
  2557  0000C0  6E72               	movwf	_X_dir^0,c
  2558  0000C2                     
  2559                           ;main.c: 559:         Y_dir=((Y_diff<Y_Pick)? 1:0);
  2560  0000C2  5069               	movf	_Y_Pick^0,w,c
  2561  0000C4  5C5F               	subwf	_Y_diff^0,w,c
  2562  0000C6  5060               	movf	(_Y_diff+1)^0,w,c
  2563  0000C8  0A80               	xorlw	128
  2564  0000CA  6E3B               	movwf	??_pick_and_place^0,c
  2565  0000CC  506A               	movf	(_Y_Pick+1)^0,w,c
  2566  0000CE  0A80               	xorlw	128
  2567  0000D0  583B               	subwfb	??_pick_and_place^0,w,c
  2568  0000D2  A0D8               	btfss	status,0,c
  2569  0000D4  EF6E  F000         	goto	u5041
  2570  0000D8  EF72  F000         	goto	u5040
  2571  0000DC                     u5041:
  2572  0000DC  FFFF               	dw	65535	; assembler added errata NOP
  2573  0000DE  0E01               	movlw	1
  2574  0000E0  EF74  F000         	goto	u5050
  2575  0000E4                     u5040:
  2576  0000E4  FFFF               	dw	65535	; assembler added errata NOP
  2577  0000E6  0E00               	movlw	0
  2578  0000E8                     u5050:
  2579  0000E8  FFFF               	dw	65535	; assembler added errata NOP
  2580  0000EA  6E71               	movwf	_Y_dir^0,c
  2581  0000EC                     
  2582                           ;main.c: 560:         Rot_dir=((Angle_diff<Pick_Angle)? 1:0);
  2583  0000EC  5065               	movf	_Pick_Angle^0,w,c
  2584  0000EE  5C5D               	subwf	_Angle_diff^0,w,c
  2585  0000F0  505E               	movf	(_Angle_diff+1)^0,w,c
  2586  0000F2  0A80               	xorlw	128
  2587  0000F4  6E3B               	movwf	??_pick_and_place^0,c
  2588  0000F6  5066               	movf	(_Pick_Angle+1)^0,w,c
  2589  0000F8  0A80               	xorlw	128
  2590  0000FA  583B               	subwfb	??_pick_and_place^0,w,c
  2591  0000FC  A0D8               	btfss	status,0,c
  2592  0000FE  EF83  F000         	goto	u5061
  2593  000102  EF87  F000         	goto	u5060
  2594  000106                     u5061:
  2595  000106  FFFF               	dw	65535	; assembler added errata NOP
  2596  000108  0E01               	movlw	1
  2597  00010A  EF89  F000         	goto	u5070
  2598  00010E                     u5060:
  2599  00010E  FFFF               	dw	65535	; assembler added errata NOP
  2600  000110  0E00               	movlw	0
  2601  000112                     u5070:
  2602  000112  FFFF               	dw	65535	; assembler added errata NOP
  2603  000114  6E70               	movwf	_Rot_dir^0,c
  2604  000116                     
  2605                           ;main.c: 562:         for(int i = 0; (i<(((X_Pick-X_diff) > 0 ? (X_Pick-X_diff) : -(X_Pi
      +                          ck-X_diff)))) && !stop; i++){X_axis(X_dir);}
  2606  000116  0E00               	movlw	0
  2607  000118  0100               	movlb	0	; () banked
  2608  00011A  6FB6               	movwf	(pick_and_place@i+1)& (0+255),b
  2609  00011C  0E00               	movlw	0
  2610  00011E  6FB5               	movwf	pick_and_place@i& (0+255),b
  2611  000120  EF99  F000         	goto	l4338
  2612  000124                     l4334:
  2613  000124  FFFF               	dw	65535	; assembler added errata NOP
  2614                           
  2615                           ; BSR set to: 0
  2616  000126  5072               	movf	_X_dir^0,w,c
  2617  000128  ECD2  F014         	call	_X_axis
  2618  00012C  0100               	movlb	0	; () banked
  2619  00012E  4BB5               	infsnz	pick_and_place@i& (0+255),f,b
  2620  000130  2BB6               	incf	(pick_and_place@i+1)& (0+255),f,b
  2621  000132                     l4338:
  2622  000132  FFFF               	dw	65535	; assembler added errata NOP
  2623                           
  2624                           ; BSR set to: 0
  2625  000134  5061               	movf	_X_diff^0,w,c
  2626  000136  5C6D               	subwf	_X_Pick^0,w,c
  2627  000138  6E3B               	movwf	??_pick_and_place^0,c
  2628  00013A  5062               	movf	(_X_diff+1)^0,w,c
  2629  00013C  586E               	subwfb	(_X_Pick+1)^0,w,c
  2630  00013E  6E3C               	movwf	(??_pick_and_place+1)^0,c
  2631  000140  BE3C               	btfsc	(??_pick_and_place+1)^0,7,c
  2632  000142  EFAE  F000         	goto	u5080
  2633  000146  503C               	movf	(??_pick_and_place+1)^0,w,c
  2634  000148  E106               	bnz	u5081
  2635  00014A  043B               	decf	??_pick_and_place^0,w,c
  2636  00014C  B0D8               	btfsc	status,0,c
  2637  00014E  EFAB  F000         	goto	u5081
  2638  000152  EFAE  F000         	goto	u5080
  2639  000156                     u5081:
  2640  000156  FFFF               	dw	65535	; assembler added errata NOP
  2641  000158  EFBF  F000         	goto	l4342
  2642  00015C                     u5080:
  2643  00015C  FFFF               	dw	65535	; assembler added errata NOP
  2644  00015E                     
  2645                           ; BSR set to: 0
  2646  00015E  5061               	movf	_X_diff^0,w,c
  2647  000160  5C6D               	subwf	_X_Pick^0,w,c
  2648  000162  6E3B               	movwf	??_pick_and_place^0,c
  2649  000164  5062               	movf	(_X_diff+1)^0,w,c
  2650  000166  586E               	subwfb	(_X_Pick+1)^0,w,c
  2651  000168  6E3C               	movwf	(??_pick_and_place+1)^0,c
  2652  00016A  1E3B               	comf	??_pick_and_place^0,f,c
  2653  00016C  1E3C               	comf	(??_pick_and_place+1)^0,f,c
  2654  00016E  4A3B               	infsnz	??_pick_and_place^0,f,c
  2655  000170  2A3C               	incf	(??_pick_and_place+1)^0,f,c
  2656  000172  C03B  F0B7         	movff	??_pick_and_place,_pick_and_place$584
  2657  000176  C03C  F0B8         	movff	??_pick_and_place+1,_pick_and_place$584+1
  2658  00017A  EFC6  F000         	goto	l317
  2659  00017E                     l4342:
  2660  00017E  FFFF               	dw	65535	; assembler added errata NOP
  2661                           
  2662                           ; BSR set to: 0
  2663  000180  5061               	movf	_X_diff^0,w,c
  2664  000182  5C6D               	subwf	_X_Pick^0,w,c
  2665  000184  6FB7               	movwf	_pick_and_place$584& (0+255),b
  2666  000186  5062               	movf	(_X_diff+1)^0,w,c
  2667  000188  586E               	subwfb	(_X_Pick+1)^0,w,c
  2668  00018A  6FB8               	movwf	(_pick_and_place$584+1)& (0+255),b
  2669  00018C                     l317:
  2670  00018C  FFFF               	dw	65535	; assembler added errata NOP
  2671                           
  2672                           ; BSR set to: 0
  2673  00018E  51B7               	movf	_pick_and_place$584& (0+255),w,b
  2674  000190  5DB5               	subwf	pick_and_place@i& (0+255),w,b
  2675  000192  51B6               	movf	(pick_and_place@i+1)& (0+255),w,b
  2676  000194  0A80               	xorlw	128
  2677  000196  6E3B               	movwf	??_pick_and_place^0,c
  2678  000198  51B8               	movf	(_pick_and_place$584+1)& (0+255),w,b
  2679  00019A  0A80               	xorlw	128
  2680  00019C  583B               	subwfb	??_pick_and_place^0,w,c
  2681  00019E  B0D8               	btfsc	status,0,c
  2682  0001A0  EFD4  F000         	goto	u5091
  2683  0001A4  EFD7  F000         	goto	u5090
  2684  0001A8                     u5091:
  2685  0001A8  FFFF               	dw	65535	; assembler added errata NOP
  2686  0001AA  EFE1  F000         	goto	l4346
  2687  0001AE                     u5090:
  2688  0001AE  FFFF               	dw	65535	; assembler added errata NOP
  2689  0001B0                     
  2690                           ; BSR set to: 0
  2691  0001B0  5073               	movf	_stop^0,w,c
  2692  0001B2  B4D8               	btfsc	status,2,c
  2693  0001B4  EFDE  F000         	goto	u5101
  2694  0001B8  EFE1  F000         	goto	u5100
  2695  0001BC                     u5101:
  2696  0001BC  FFFF               	dw	65535	; assembler added errata NOP
  2697  0001BE  EF92  F000         	goto	l4334
  2698  0001C2                     u5100:
  2699  0001C2                     l4346:
  2700  0001C2  FFFF               	dw	65535	; assembler added errata NOP
  2701                           
  2702                           ; BSR set to: 0
  2703                           ;main.c: 563:         for(int i = 0; (i<(((Y_Pick-Y_diff) > 0 ? (Y_Pick-Y_diff) : -(Y_Pi
      +                          ck-Y_diff)))) && !stop; i++){Y_axis(Y_dir);}
  2704  0001C4  0E00               	movlw	0
  2705  0001C6  6FBA               	movwf	(pick_and_place@i_585+1)& (0+255),b
  2706  0001C8  0E00               	movlw	0
  2707  0001CA  6FB9               	movwf	pick_and_place@i_585& (0+255),b
  2708  0001CC  EFEF  F000         	goto	l4352
  2709  0001D0                     l4348:
  2710  0001D0  FFFF               	dw	65535	; assembler added errata NOP
  2711                           
  2712                           ; BSR set to: 0
  2713  0001D2  5071               	movf	_Y_dir^0,w,c
  2714  0001D4  EC59  F014         	call	_Y_axis
  2715  0001D8  0100               	movlb	0	; () banked
  2716  0001DA  4BB9               	infsnz	pick_and_place@i_585& (0+255),f,b
  2717  0001DC  2BBA               	incf	(pick_and_place@i_585+1)& (0+255),f,b
  2718  0001DE                     l4352:
  2719  0001DE  FFFF               	dw	65535	; assembler added errata NOP
  2720                           
  2721                           ; BSR set to: 0
  2722  0001E0  505F               	movf	_Y_diff^0,w,c
  2723  0001E2  5C69               	subwf	_Y_Pick^0,w,c
  2724  0001E4  6E3B               	movwf	??_pick_and_place^0,c
  2725  0001E6  5060               	movf	(_Y_diff+1)^0,w,c
  2726  0001E8  586A               	subwfb	(_Y_Pick+1)^0,w,c
  2727  0001EA  6E3C               	movwf	(??_pick_and_place+1)^0,c
  2728  0001EC  BE3C               	btfsc	(??_pick_and_place+1)^0,7,c
  2729  0001EE  EF04  F001         	goto	u5110
  2730  0001F2  503C               	movf	(??_pick_and_place+1)^0,w,c
  2731  0001F4  E106               	bnz	u5111
  2732  0001F6  043B               	decf	??_pick_and_place^0,w,c
  2733  0001F8  B0D8               	btfsc	status,0,c
  2734  0001FA  EF01  F001         	goto	u5111
  2735  0001FE  EF04  F001         	goto	u5110
  2736  000202                     u5111:
  2737  000202  FFFF               	dw	65535	; assembler added errata NOP
  2738  000204  EF15  F001         	goto	l4356
  2739  000208                     u5110:
  2740  000208  FFFF               	dw	65535	; assembler added errata NOP
  2741  00020A                     
  2742                           ; BSR set to: 0
  2743  00020A  505F               	movf	_Y_diff^0,w,c
  2744  00020C  5C69               	subwf	_Y_Pick^0,w,c
  2745  00020E  6E3B               	movwf	??_pick_and_place^0,c
  2746  000210  5060               	movf	(_Y_diff+1)^0,w,c
  2747  000212  586A               	subwfb	(_Y_Pick+1)^0,w,c
  2748  000214  6E3C               	movwf	(??_pick_and_place+1)^0,c
  2749  000216  1E3B               	comf	??_pick_and_place^0,f,c
  2750  000218  1E3C               	comf	(??_pick_and_place+1)^0,f,c
  2751  00021A  4A3B               	infsnz	??_pick_and_place^0,f,c
  2752  00021C  2A3C               	incf	(??_pick_and_place+1)^0,f,c
  2753  00021E  C03B  F0BB         	movff	??_pick_and_place,_pick_and_place$587
  2754  000222  C03C  F0BC         	movff	??_pick_and_place+1,_pick_and_place$587+1
  2755  000226  EF1C  F001         	goto	l326
  2756  00022A                     l4356:
  2757  00022A  FFFF               	dw	65535	; assembler added errata NOP
  2758                           
  2759                           ; BSR set to: 0
  2760  00022C  505F               	movf	_Y_diff^0,w,c
  2761  00022E  5C69               	subwf	_Y_Pick^0,w,c
  2762  000230  6FBB               	movwf	_pick_and_place$587& (0+255),b
  2763  000232  5060               	movf	(_Y_diff+1)^0,w,c
  2764  000234  586A               	subwfb	(_Y_Pick+1)^0,w,c
  2765  000236  6FBC               	movwf	(_pick_and_place$587+1)& (0+255),b
  2766  000238                     l326:
  2767  000238  FFFF               	dw	65535	; assembler added errata NOP
  2768                           
  2769                           ; BSR set to: 0
  2770  00023A  51BB               	movf	_pick_and_place$587& (0+255),w,b
  2771  00023C  5DB9               	subwf	pick_and_place@i_585& (0+255),w,b
  2772  00023E  51BA               	movf	(pick_and_place@i_585+1)& (0+255),w,b
  2773  000240  0A80               	xorlw	128
  2774  000242  6E3B               	movwf	??_pick_and_place^0,c
  2775  000244  51BC               	movf	(_pick_and_place$587+1)& (0+255),w,b
  2776  000246  0A80               	xorlw	128
  2777  000248  583B               	subwfb	??_pick_and_place^0,w,c
  2778  00024A  B0D8               	btfsc	status,0,c
  2779  00024C  EF2A  F001         	goto	u5121
  2780  000250  EF2D  F001         	goto	u5120
  2781  000254                     u5121:
  2782  000254  FFFF               	dw	65535	; assembler added errata NOP
  2783  000256  EF37  F001         	goto	l4360
  2784  00025A                     u5120:
  2785  00025A  FFFF               	dw	65535	; assembler added errata NOP
  2786  00025C                     
  2787                           ; BSR set to: 0
  2788  00025C  5073               	movf	_stop^0,w,c
  2789  00025E  B4D8               	btfsc	status,2,c
  2790  000260  EF34  F001         	goto	u5131
  2791  000264  EF37  F001         	goto	u5130
  2792  000268                     u5131:
  2793  000268  FFFF               	dw	65535	; assembler added errata NOP
  2794  00026A  EFE8  F000         	goto	l4348
  2795  00026E                     u5130:
  2796  00026E                     l4360:
  2797  00026E  FFFF               	dw	65535	; assembler added errata NOP
  2798                           
  2799                           ; BSR set to: 0
  2800                           ;main.c: 564:         for(int i = 0; (i<(((Angle_diff-Pick_Angle) > 0 ? (Angle_diff-Pick
      +                          _Angle) : -(Angle_diff-Pick_Angle))/3.6)) && !stop; i++){Twister(Rot_dir);}
  2801  000270  0E00               	movlw	0
  2802  000272  6FBE               	movwf	(pick_and_place@i_588+1)& (0+255),b
  2803  000274  0E00               	movlw	0
  2804  000276  6FBD               	movwf	pick_and_place@i_588& (0+255),b
  2805  000278  EF45  F001         	goto	l4366
  2806  00027C                     l4362:
  2807  00027C  FFFF               	dw	65535	; assembler added errata NOP
  2808  00027E  5070               	movf	_Rot_dir^0,w,c
  2809  000280  EC4B  F015         	call	_Twister
  2810  000284  0100               	movlb	0	; () banked
  2811  000286  4BBD               	infsnz	pick_and_place@i_588& (0+255),f,b
  2812  000288  2BBE               	incf	(pick_and_place@i_588+1)& (0+255),f,b
  2813  00028A                     l4366:
  2814  00028A  FFFF               	dw	65535	; assembler added errata NOP
  2815                           
  2816                           ; BSR set to: 0
  2817  00028C  5065               	movf	_Pick_Angle^0,w,c
  2818  00028E  5C5D               	subwf	_Angle_diff^0,w,c
  2819  000290  6E3B               	movwf	??_pick_and_place^0,c
  2820  000292  5066               	movf	(_Pick_Angle+1)^0,w,c
  2821  000294  585E               	subwfb	(_Angle_diff+1)^0,w,c
  2822  000296  6E3C               	movwf	(??_pick_and_place+1)^0,c
  2823  000298  BE3C               	btfsc	(??_pick_and_place+1)^0,7,c
  2824  00029A  EF5A  F001         	goto	u5140
  2825  00029E  503C               	movf	(??_pick_and_place+1)^0,w,c
  2826  0002A0  E106               	bnz	u5141
  2827  0002A2  043B               	decf	??_pick_and_place^0,w,c
  2828  0002A4  B0D8               	btfsc	status,0,c
  2829  0002A6  EF57  F001         	goto	u5141
  2830  0002AA  EF5A  F001         	goto	u5140
  2831  0002AE                     u5141:
  2832  0002AE  FFFF               	dw	65535	; assembler added errata NOP
  2833  0002B0  EF6B  F001         	goto	l4370
  2834  0002B4                     u5140:
  2835  0002B4  FFFF               	dw	65535	; assembler added errata NOP
  2836  0002B6                     
  2837                           ; BSR set to: 0
  2838  0002B6  5065               	movf	_Pick_Angle^0,w,c
  2839  0002B8  5C5D               	subwf	_Angle_diff^0,w,c
  2840  0002BA  6E3B               	movwf	??_pick_and_place^0,c
  2841  0002BC  5066               	movf	(_Pick_Angle+1)^0,w,c
  2842  0002BE  585E               	subwfb	(_Angle_diff+1)^0,w,c
  2843  0002C0  6E3C               	movwf	(??_pick_and_place+1)^0,c
  2844  0002C2  1E3B               	comf	??_pick_and_place^0,f,c
  2845  0002C4  1E3C               	comf	(??_pick_and_place+1)^0,f,c
  2846  0002C6  4A3B               	infsnz	??_pick_and_place^0,f,c
  2847  0002C8  2A3C               	incf	(??_pick_and_place+1)^0,f,c
  2848  0002CA  C03B  F0BF         	movff	??_pick_and_place,_pick_and_place$590
  2849  0002CE  C03C  F0C0         	movff	??_pick_and_place+1,_pick_and_place$590+1
  2850  0002D2  EF72  F001         	goto	l4372
  2851  0002D6                     l4370:
  2852  0002D6  FFFF               	dw	65535	; assembler added errata NOP
  2853                           
  2854                           ; BSR set to: 0
  2855  0002D8  5065               	movf	_Pick_Angle^0,w,c
  2856  0002DA  5C5D               	subwf	_Angle_diff^0,w,c
  2857  0002DC  6FBF               	movwf	_pick_and_place$590& (0+255),b
  2858  0002DE  5066               	movf	(_Pick_Angle+1)^0,w,c
  2859  0002E0  585E               	subwfb	(_Angle_diff+1)^0,w,c
  2860  0002E2  6FC0               	movwf	(_pick_and_place$590+1)& (0+255),b
  2861  0002E4                     l4372:
  2862  0002E4  FFFF               	dw	65535	; assembler added errata NOP
  2863                           
  2864                           ; BSR set to: 0
  2865  0002E6  C0BD  F008         	movff	pick_and_place@i_588,___xxtofl@val
  2866  0002EA  C0BE  F009         	movff	pick_and_place@i_588+1,___xxtofl@val+1
  2867  0002EE  0E00               	movlw	0
  2868  0002F0  BE09               	btfsc	(___xxtofl@val+1)^0,7,c
  2869  0002F2  0EFF               	movlw	-1
  2870  0002F4  6E0A               	movwf	(___xxtofl@val+2)^0,c
  2871  0002F6  6E0B               	movwf	(___xxtofl@val+3)^0,c
  2872  0002F8  0E01               	movlw	1
  2873  0002FA  EC0A  F00E         	call	___xxtofl
  2874  0002FE  C008  F02F         	movff	?___xxtofl,___flge@ff1
  2875  000302  C009  F030         	movff	?___xxtofl+1,___flge@ff1+1
  2876  000306  C00A  F031         	movff	?___xxtofl+2,___flge@ff1+2
  2877  00030A  C00B  F032         	movff	?___xxtofl+3,___flge@ff1+3
  2878  00030E  0E66               	movlw	102
  2879  000310  6E1A               	movwf	___fldiv@a^0,c
  2880  000312  0E66               	movlw	102
  2881  000314  6E1B               	movwf	(___fldiv@a+1)^0,c
  2882  000316  0E66               	movlw	102
  2883  000318  6E1C               	movwf	(___fldiv@a+2)^0,c
  2884  00031A  0E40               	movlw	64
  2885  00031C  6E1D               	movwf	(___fldiv@a+3)^0,c
  2886  00031E  C0BF  F008         	movff	_pick_and_place$590,___xxtofl@val
  2887  000322  C0C0  F009         	movff	_pick_and_place$590+1,___xxtofl@val+1
  2888  000326  0E00               	movlw	0
  2889  000328  BE09               	btfsc	(___xxtofl@val+1)^0,7,c
  2890  00032A  0EFF               	movlw	-1
  2891  00032C  6E0A               	movwf	(___xxtofl@val+2)^0,c
  2892  00032E  6E0B               	movwf	(___xxtofl@val+3)^0,c
  2893  000330  0E01               	movlw	1
  2894  000332  EC0A  F00E         	call	___xxtofl
  2895  000336  C008  F016         	movff	?___xxtofl,___fldiv@b
  2896  00033A  C009  F017         	movff	?___xxtofl+1,___fldiv@b+1
  2897  00033E  C00A  F018         	movff	?___xxtofl+2,___fldiv@b+2
  2898  000342  C00B  F019         	movff	?___xxtofl+3,___fldiv@b+3
  2899  000346  ECEB  F008         	call	___fldiv	;wreg free
  2900  00034A  C016  F033         	movff	?___fldiv,___flge@ff2
  2901  00034E  C017  F034         	movff	?___fldiv+1,___flge@ff2+1
  2902  000352  C018  F035         	movff	?___fldiv+2,___flge@ff2+2
  2903  000356  C019  F036         	movff	?___fldiv+3,___flge@ff2+3
  2904  00035A  ECC3  F011         	call	___flge	;wreg free
  2905  00035E  B0D8               	btfsc	status,0,c
  2906  000360  EFB4  F001         	goto	u5151
  2907  000364  EFB7  F001         	goto	u5150
  2908  000368                     u5151:
  2909  000368  FFFF               	dw	65535	; assembler added errata NOP
  2910  00036A  EFC1  F001         	goto	l4376
  2911  00036E                     u5150:
  2912  00036E  FFFF               	dw	65535	; assembler added errata NOP
  2913  000370  5073               	movf	_stop^0,w,c
  2914  000372  B4D8               	btfsc	status,2,c
  2915  000374  EFBE  F001         	goto	u5161
  2916  000378  EFC1  F001         	goto	u5160
  2917  00037C                     u5161:
  2918  00037C  FFFF               	dw	65535	; assembler added errata NOP
  2919  00037E  EF3E  F001         	goto	l4362
  2920  000382                     u5160:
  2921  000382                     l4376:
  2922  000382  FFFF               	dw	65535	; assembler added errata NOP
  2923                           
  2924                           ;main.c: 566:         for(int i=0; i<3; i++){Z_axis("1");}
  2925  000384  0E00               	movlw	0
  2926  000386  0100               	movlb	0	; () banked
  2927  000388  6FCE               	movwf	(pick_and_place@i_591+1)& (0+255),b
  2928  00038A  0E00               	movlw	0
  2929  00038C  6FCD               	movwf	pick_and_place@i_591& (0+255),b
  2930  00038E                     l4382:
  2931  00038E  FFFF               	dw	65535	; assembler added errata NOP
  2932                           
  2933                           ; BSR set to: 0
  2934  000390  0EFC               	movlw	STR_18& (0+255)
  2935  000392  ECE0  F013         	call	_Z_axis
  2936  000396  0100               	movlb	0	; () banked
  2937  000398  4BCD               	infsnz	pick_and_place@i_591& (0+255),f,b
  2938  00039A  2BCE               	incf	(pick_and_place@i_591+1)& (0+255),f,b
  2939  00039C                     
  2940                           ; BSR set to: 0
  2941  00039C  BFCE               	btfsc	(pick_and_place@i_591+1)& (0+255),7,b
  2942  00039E  EFDA  F001         	goto	u5171
  2943  0003A2  51CE               	movf	(pick_and_place@i_591+1)& (0+255),w,b
  2944  0003A4  E10A               	bnz	u5170
  2945  0003A6  0E03               	movlw	3
  2946  0003A8  5DCD               	subwf	pick_and_place@i_591& (0+255),w,b
  2947  0003AA  A0D8               	btfss	status,0,c
  2948  0003AC  EFDA  F001         	goto	u5171
  2949  0003B0  EFDD  F001         	goto	u5170
  2950  0003B4                     u5171:
  2951  0003B4  FFFF               	dw	65535	; assembler added errata NOP
  2952  0003B6  EFC7  F001         	goto	l4382
  2953  0003BA                     u5170:
  2954  0003BA  FFFF               	dw	65535	; assembler added errata NOP
  2955  0003BC                     
  2956                           ; BSR set to: 0
  2957                           ;main.c: 569:         for(int i=0; i<3; i++){Z_axis("0");}
  2958  0003BC  0E00               	movlw	0
  2959  0003BE  6FD0               	movwf	(pick_and_place@i_594+1)& (0+255),b
  2960  0003C0  0E00               	movlw	0
  2961  0003C2  6FCF               	movwf	pick_and_place@i_594& (0+255),b
  2962  0003C4                     l4390:
  2963  0003C4  FFFF               	dw	65535	; assembler added errata NOP
  2964                           
  2965                           ; BSR set to: 0
  2966  0003C6  BFD0               	btfsc	(pick_and_place@i_594+1)& (0+255),7,b
  2967  0003C8  EFEF  F001         	goto	u5181
  2968  0003CC  51D0               	movf	(pick_and_place@i_594+1)& (0+255),w,b
  2969  0003CE  E10A               	bnz	u5180
  2970  0003D0  0E03               	movlw	3
  2971  0003D2  5DCF               	subwf	pick_and_place@i_594& (0+255),w,b
  2972  0003D4  A0D8               	btfss	status,0,c
  2973  0003D6  EFEF  F001         	goto	u5181
  2974  0003DA  EFF2  F001         	goto	u5180
  2975  0003DE                     u5181:
  2976  0003DE  FFFF               	dw	65535	; assembler added errata NOP
  2977  0003E0  EFF5  F001         	goto	l4394
  2978  0003E4                     u5180:
  2979  0003E4  FFFF               	dw	65535	; assembler added errata NOP
  2980  0003E6  EFFE  F001         	goto	l4400
  2981  0003EA                     l4394:
  2982  0003EA  FFFF               	dw	65535	; assembler added errata NOP
  2983                           
  2984                           ; BSR set to: 0
  2985  0003EC  0EFA               	movlw	STR_19& (0+255)
  2986  0003EE  ECE0  F013         	call	_Z_axis
  2987  0003F2  0100               	movlb	0	; () banked
  2988  0003F4  4BCF               	infsnz	pick_and_place@i_594& (0+255),f,b
  2989  0003F6  2BD0               	incf	(pick_and_place@i_594+1)& (0+255),f,b
  2990  0003F8  EFE2  F001         	goto	l4390
  2991  0003FC                     l4400:
  2992  0003FC  FFFF               	dw	65535	; assembler added errata NOP
  2993                           
  2994                           ; BSR set to: 0
  2995                           ;main.c: 573:         X_dir=((X_Pick<X_Place)? 1:0);
  2996  0003FE  506B               	movf	_X_Place^0,w,c
  2997  000400  5C6D               	subwf	_X_Pick^0,w,c
  2998  000402  506E               	movf	(_X_Pick+1)^0,w,c
  2999  000404  0A80               	xorlw	128
  3000  000406  6E3B               	movwf	??_pick_and_place^0,c
  3001  000408  506C               	movf	(_X_Place+1)^0,w,c
  3002  00040A  0A80               	xorlw	128
  3003  00040C  583B               	subwfb	??_pick_and_place^0,w,c
  3004  00040E  A0D8               	btfss	status,0,c
  3005  000410  EF0C  F002         	goto	u5191
  3006  000414  EF10  F002         	goto	u5190
  3007  000418                     u5191:
  3008  000418  FFFF               	dw	65535	; assembler added errata NOP
  3009  00041A  0E01               	movlw	1
  3010  00041C  EF12  F002         	goto	u5200
  3011  000420                     u5190:
  3012  000420  FFFF               	dw	65535	; assembler added errata NOP
  3013  000422  0E00               	movlw	0
  3014  000424                     u5200:
  3015  000424  FFFF               	dw	65535	; assembler added errata NOP
  3016  000426  6E72               	movwf	_X_dir^0,c
  3017                           
  3018                           ;main.c: 574:         Y_dir=((Y_Pick<Y_Place)? 1:0);
  3019  000428  5067               	movf	_Y_Place^0,w,c
  3020  00042A  5C69               	subwf	_Y_Pick^0,w,c
  3021  00042C  506A               	movf	(_Y_Pick+1)^0,w,c
  3022  00042E  0A80               	xorlw	128
  3023  000430  6E3B               	movwf	??_pick_and_place^0,c
  3024  000432  5068               	movf	(_Y_Place+1)^0,w,c
  3025  000434  0A80               	xorlw	128
  3026  000436  583B               	subwfb	??_pick_and_place^0,w,c
  3027  000438  A0D8               	btfss	status,0,c
  3028  00043A  EF21  F002         	goto	u5211
  3029  00043E  EF25  F002         	goto	u5210
  3030  000442                     u5211:
  3031  000442  FFFF               	dw	65535	; assembler added errata NOP
  3032  000444  0E01               	movlw	1
  3033  000446  EF27  F002         	goto	u5220
  3034  00044A                     u5210:
  3035  00044A  FFFF               	dw	65535	; assembler added errata NOP
  3036  00044C  0E00               	movlw	0
  3037  00044E                     u5220:
  3038  00044E  FFFF               	dw	65535	; assembler added errata NOP
  3039  000450  6E71               	movwf	_Y_dir^0,c
  3040                           
  3041                           ;main.c: 575:         Rot_dir=((Pick_Angle<Place_Angle)? 1:0);
  3042  000452  5063               	movf	_Place_Angle^0,w,c
  3043  000454  5C65               	subwf	_Pick_Angle^0,w,c
  3044  000456  5066               	movf	(_Pick_Angle+1)^0,w,c
  3045  000458  0A80               	xorlw	128
  3046  00045A  6E3B               	movwf	??_pick_and_place^0,c
  3047  00045C  5064               	movf	(_Place_Angle+1)^0,w,c
  3048  00045E  0A80               	xorlw	128
  3049  000460  583B               	subwfb	??_pick_and_place^0,w,c
  3050  000462  A0D8               	btfss	status,0,c
  3051  000464  EF36  F002         	goto	u5231
  3052  000468  EF3A  F002         	goto	u5230
  3053  00046C                     u5231:
  3054  00046C  FFFF               	dw	65535	; assembler added errata NOP
  3055  00046E  0E01               	movlw	1
  3056  000470  EF3C  F002         	goto	u5240
  3057  000474                     u5230:
  3058  000474  FFFF               	dw	65535	; assembler added errata NOP
  3059  000476  0E00               	movlw	0
  3060  000478                     u5240:
  3061  000478  FFFF               	dw	65535	; assembler added errata NOP
  3062  00047A  6E70               	movwf	_Rot_dir^0,c
  3063  00047C                     
  3064                           ; BSR set to: 0
  3065                           ;main.c: 577:         for(int i = 0; (i<(((X_Place-X_diff) > 0 ? (X_Place-X_diff) : -(X_
      +                          Place-X_diff)))) && !stop; i++){X_axis(X_dir);}
  3066  00047C  0E00               	movlw	0
  3067  00047E  6FC2               	movwf	(pick_and_place@i_596+1)& (0+255),b
  3068  000480  0E00               	movlw	0
  3069  000482  6FC1               	movwf	pick_and_place@i_596& (0+255),b
  3070  000484  EF4B  F002         	goto	l4408
  3071  000488                     l4404:
  3072  000488  FFFF               	dw	65535	; assembler added errata NOP
  3073                           
  3074                           ; BSR set to: 0
  3075  00048A  5072               	movf	_X_dir^0,w,c
  3076  00048C  ECD2  F014         	call	_X_axis
  3077  000490  0100               	movlb	0	; () banked
  3078  000492  4BC1               	infsnz	pick_and_place@i_596& (0+255),f,b
  3079  000494  2BC2               	incf	(pick_and_place@i_596+1)& (0+255),f,b
  3080  000496                     l4408:
  3081  000496  FFFF               	dw	65535	; assembler added errata NOP
  3082                           
  3083                           ; BSR set to: 0
  3084  000498  5061               	movf	_X_diff^0,w,c
  3085  00049A  5C6B               	subwf	_X_Place^0,w,c
  3086  00049C  6E3B               	movwf	??_pick_and_place^0,c
  3087  00049E  5062               	movf	(_X_diff+1)^0,w,c
  3088  0004A0  586C               	subwfb	(_X_Place+1)^0,w,c
  3089  0004A2  6E3C               	movwf	(??_pick_and_place+1)^0,c
  3090  0004A4  BE3C               	btfsc	(??_pick_and_place+1)^0,7,c
  3091  0004A6  EF60  F002         	goto	u5250
  3092  0004AA  503C               	movf	(??_pick_and_place+1)^0,w,c
  3093  0004AC  E106               	bnz	u5251
  3094  0004AE  043B               	decf	??_pick_and_place^0,w,c
  3095  0004B0  B0D8               	btfsc	status,0,c
  3096  0004B2  EF5D  F002         	goto	u5251
  3097  0004B6  EF60  F002         	goto	u5250
  3098  0004BA                     u5251:
  3099  0004BA  FFFF               	dw	65535	; assembler added errata NOP
  3100  0004BC  EF71  F002         	goto	l4412
  3101  0004C0                     u5250:
  3102  0004C0  FFFF               	dw	65535	; assembler added errata NOP
  3103  0004C2                     
  3104                           ; BSR set to: 0
  3105  0004C2  5061               	movf	_X_diff^0,w,c
  3106  0004C4  5C6B               	subwf	_X_Place^0,w,c
  3107  0004C6  6E3B               	movwf	??_pick_and_place^0,c
  3108  0004C8  5062               	movf	(_X_diff+1)^0,w,c
  3109  0004CA  586C               	subwfb	(_X_Place+1)^0,w,c
  3110  0004CC  6E3C               	movwf	(??_pick_and_place+1)^0,c
  3111  0004CE  1E3B               	comf	??_pick_and_place^0,f,c
  3112  0004D0  1E3C               	comf	(??_pick_and_place+1)^0,f,c
  3113  0004D2  4A3B               	infsnz	??_pick_and_place^0,f,c
  3114  0004D4  2A3C               	incf	(??_pick_and_place+1)^0,f,c
  3115  0004D6  C03B  F0C3         	movff	??_pick_and_place,_pick_and_place$597
  3116  0004DA  C03C  F0C4         	movff	??_pick_and_place+1,_pick_and_place$597+1
  3117  0004DE  EF78  F002         	goto	l348
  3118  0004E2                     l4412:
  3119  0004E2  FFFF               	dw	65535	; assembler added errata NOP
  3120                           
  3121                           ; BSR set to: 0
  3122  0004E4  5061               	movf	_X_diff^0,w,c
  3123  0004E6  5C6B               	subwf	_X_Place^0,w,c
  3124  0004E8  6FC3               	movwf	_pick_and_place$597& (0+255),b
  3125  0004EA  5062               	movf	(_X_diff+1)^0,w,c
  3126  0004EC  586C               	subwfb	(_X_Place+1)^0,w,c
  3127  0004EE  6FC4               	movwf	(_pick_and_place$597+1)& (0+255),b
  3128  0004F0                     l348:
  3129  0004F0  FFFF               	dw	65535	; assembler added errata NOP
  3130                           
  3131                           ; BSR set to: 0
  3132  0004F2  51C3               	movf	_pick_and_place$597& (0+255),w,b
  3133  0004F4  5DC1               	subwf	pick_and_place@i_596& (0+255),w,b
  3134  0004F6  51C2               	movf	(pick_and_place@i_596+1)& (0+255),w,b
  3135  0004F8  0A80               	xorlw	128
  3136  0004FA  6E3B               	movwf	??_pick_and_place^0,c
  3137  0004FC  51C4               	movf	(_pick_and_place$597+1)& (0+255),w,b
  3138  0004FE  0A80               	xorlw	128
  3139  000500  583B               	subwfb	??_pick_and_place^0,w,c
  3140  000502  B0D8               	btfsc	status,0,c
  3141  000504  EF86  F002         	goto	u5261
  3142  000508  EF89  F002         	goto	u5260
  3143  00050C                     u5261:
  3144  00050C  FFFF               	dw	65535	; assembler added errata NOP
  3145  00050E  EF93  F002         	goto	l4416
  3146  000512                     u5260:
  3147  000512  FFFF               	dw	65535	; assembler added errata NOP
  3148  000514                     
  3149                           ; BSR set to: 0
  3150  000514  5073               	movf	_stop^0,w,c
  3151  000516  B4D8               	btfsc	status,2,c
  3152  000518  EF90  F002         	goto	u5271
  3153  00051C  EF93  F002         	goto	u5270
  3154  000520                     u5271:
  3155  000520  FFFF               	dw	65535	; assembler added errata NOP
  3156  000522  EF44  F002         	goto	l4404
  3157  000526                     u5270:
  3158  000526                     l4416:
  3159  000526  FFFF               	dw	65535	; assembler added errata NOP
  3160                           
  3161                           ; BSR set to: 0
  3162                           ;main.c: 578:         for(int i = 0; (i<(((Y_Place-Y_diff) > 0 ? (Y_Place-Y_diff) : -(Y_
      +                          Place-Y_diff)))) && !stop; i++){Y_axis(Y_dir);}
  3163  000528  0E00               	movlw	0
  3164  00052A  6FC6               	movwf	(pick_and_place@i_598+1)& (0+255),b
  3165  00052C  0E00               	movlw	0
  3166  00052E  6FC5               	movwf	pick_and_place@i_598& (0+255),b
  3167  000530  EFA1  F002         	goto	l4422
  3168  000534                     l4418:
  3169  000534  FFFF               	dw	65535	; assembler added errata NOP
  3170                           
  3171                           ; BSR set to: 0
  3172  000536  5071               	movf	_Y_dir^0,w,c
  3173  000538  EC59  F014         	call	_Y_axis
  3174  00053C  0100               	movlb	0	; () banked
  3175  00053E  4BC5               	infsnz	pick_and_place@i_598& (0+255),f,b
  3176  000540  2BC6               	incf	(pick_and_place@i_598+1)& (0+255),f,b
  3177  000542                     l4422:
  3178  000542  FFFF               	dw	65535	; assembler added errata NOP
  3179                           
  3180                           ; BSR set to: 0
  3181  000544  505F               	movf	_Y_diff^0,w,c
  3182  000546  5C67               	subwf	_Y_Place^0,w,c
  3183  000548  6E3B               	movwf	??_pick_and_place^0,c
  3184  00054A  5060               	movf	(_Y_diff+1)^0,w,c
  3185  00054C  5868               	subwfb	(_Y_Place+1)^0,w,c
  3186  00054E  6E3C               	movwf	(??_pick_and_place+1)^0,c
  3187  000550  BE3C               	btfsc	(??_pick_and_place+1)^0,7,c
  3188  000552  EFB6  F002         	goto	u5280
  3189  000556  503C               	movf	(??_pick_and_place+1)^0,w,c
  3190  000558  E106               	bnz	u5281
  3191  00055A  043B               	decf	??_pick_and_place^0,w,c
  3192  00055C  B0D8               	btfsc	status,0,c
  3193  00055E  EFB3  F002         	goto	u5281
  3194  000562  EFB6  F002         	goto	u5280
  3195  000566                     u5281:
  3196  000566  FFFF               	dw	65535	; assembler added errata NOP
  3197  000568  EFC7  F002         	goto	l4426
  3198  00056C                     u5280:
  3199  00056C  FFFF               	dw	65535	; assembler added errata NOP
  3200  00056E                     
  3201                           ; BSR set to: 0
  3202  00056E  505F               	movf	_Y_diff^0,w,c
  3203  000570  5C67               	subwf	_Y_Place^0,w,c
  3204  000572  6E3B               	movwf	??_pick_and_place^0,c
  3205  000574  5060               	movf	(_Y_diff+1)^0,w,c
  3206  000576  5868               	subwfb	(_Y_Place+1)^0,w,c
  3207  000578  6E3C               	movwf	(??_pick_and_place+1)^0,c
  3208  00057A  1E3B               	comf	??_pick_and_place^0,f,c
  3209  00057C  1E3C               	comf	(??_pick_and_place+1)^0,f,c
  3210  00057E  4A3B               	infsnz	??_pick_and_place^0,f,c
  3211  000580  2A3C               	incf	(??_pick_and_place+1)^0,f,c
  3212  000582  C03B  F0C7         	movff	??_pick_and_place,_pick_and_place$599
  3213  000586  C03C  F0C8         	movff	??_pick_and_place+1,_pick_and_place$599+1
  3214  00058A  EFCE  F002         	goto	l357
  3215  00058E                     l4426:
  3216  00058E  FFFF               	dw	65535	; assembler added errata NOP
  3217                           
  3218                           ; BSR set to: 0
  3219  000590  505F               	movf	_Y_diff^0,w,c
  3220  000592  5C67               	subwf	_Y_Place^0,w,c
  3221  000594  6FC7               	movwf	_pick_and_place$599& (0+255),b
  3222  000596  5060               	movf	(_Y_diff+1)^0,w,c
  3223  000598  5868               	subwfb	(_Y_Place+1)^0,w,c
  3224  00059A  6FC8               	movwf	(_pick_and_place$599+1)& (0+255),b
  3225  00059C                     l357:
  3226  00059C  FFFF               	dw	65535	; assembler added errata NOP
  3227                           
  3228                           ; BSR set to: 0
  3229  00059E  51C7               	movf	_pick_and_place$599& (0+255),w,b
  3230  0005A0  5DC5               	subwf	pick_and_place@i_598& (0+255),w,b
  3231  0005A2  51C6               	movf	(pick_and_place@i_598+1)& (0+255),w,b
  3232  0005A4  0A80               	xorlw	128
  3233  0005A6  6E3B               	movwf	??_pick_and_place^0,c
  3234  0005A8  51C8               	movf	(_pick_and_place$599+1)& (0+255),w,b
  3235  0005AA  0A80               	xorlw	128
  3236  0005AC  583B               	subwfb	??_pick_and_place^0,w,c
  3237  0005AE  B0D8               	btfsc	status,0,c
  3238  0005B0  EFDC  F002         	goto	u5291
  3239  0005B4  EFDF  F002         	goto	u5290
  3240  0005B8                     u5291:
  3241  0005B8  FFFF               	dw	65535	; assembler added errata NOP
  3242  0005BA  EFE9  F002         	goto	l4430
  3243  0005BE                     u5290:
  3244  0005BE  FFFF               	dw	65535	; assembler added errata NOP
  3245  0005C0                     
  3246                           ; BSR set to: 0
  3247  0005C0  5073               	movf	_stop^0,w,c
  3248  0005C2  B4D8               	btfsc	status,2,c
  3249  0005C4  EFE6  F002         	goto	u5301
  3250  0005C8  EFE9  F002         	goto	u5300
  3251  0005CC                     u5301:
  3252  0005CC  FFFF               	dw	65535	; assembler added errata NOP
  3253  0005CE  EF9A  F002         	goto	l4418
  3254  0005D2                     u5300:
  3255  0005D2                     l4430:
  3256  0005D2  FFFF               	dw	65535	; assembler added errata NOP
  3257                           
  3258                           ; BSR set to: 0
  3259                           ;main.c: 579:         for(int i = 0; (i<(((Pick_Angle-Place_Angle) > 0 ? (Pick_Angle-Pla
      +                          ce_Angle) : -(Pick_Angle-Place_Angle))/3.6)) && !stop; i++){Twister(Rot_dir);}
  3260  0005D4  0E00               	movlw	0
  3261  0005D6  6FCA               	movwf	(pick_and_place@i_600+1)& (0+255),b
  3262  0005D8  0E00               	movlw	0
  3263  0005DA  6FC9               	movwf	pick_and_place@i_600& (0+255),b
  3264  0005DC  EFF7  F002         	goto	l4436
  3265  0005E0                     l4432:
  3266  0005E0  FFFF               	dw	65535	; assembler added errata NOP
  3267  0005E2  5070               	movf	_Rot_dir^0,w,c
  3268  0005E4  EC4B  F015         	call	_Twister
  3269  0005E8  0100               	movlb	0	; () banked
  3270  0005EA  4BC9               	infsnz	pick_and_place@i_600& (0+255),f,b
  3271  0005EC  2BCA               	incf	(pick_and_place@i_600+1)& (0+255),f,b
  3272  0005EE                     l4436:
  3273  0005EE  FFFF               	dw	65535	; assembler added errata NOP
  3274                           
  3275                           ; BSR set to: 0
  3276  0005F0  5063               	movf	_Place_Angle^0,w,c
  3277  0005F2  5C65               	subwf	_Pick_Angle^0,w,c
  3278  0005F4  6E3B               	movwf	??_pick_and_place^0,c
  3279  0005F6  5064               	movf	(_Place_Angle+1)^0,w,c
  3280  0005F8  5866               	subwfb	(_Pick_Angle+1)^0,w,c
  3281  0005FA  6E3C               	movwf	(??_pick_and_place+1)^0,c
  3282  0005FC  BE3C               	btfsc	(??_pick_and_place+1)^0,7,c
  3283  0005FE  EF0C  F003         	goto	u5310
  3284  000602  503C               	movf	(??_pick_and_place+1)^0,w,c
  3285  000604  E106               	bnz	u5311
  3286  000606  043B               	decf	??_pick_and_place^0,w,c
  3287  000608  B0D8               	btfsc	status,0,c
  3288  00060A  EF09  F003         	goto	u5311
  3289  00060E  EF0C  F003         	goto	u5310
  3290  000612                     u5311:
  3291  000612  FFFF               	dw	65535	; assembler added errata NOP
  3292  000614  EF1D  F003         	goto	l4440
  3293  000618                     u5310:
  3294  000618  FFFF               	dw	65535	; assembler added errata NOP
  3295  00061A                     
  3296                           ; BSR set to: 0
  3297  00061A  5063               	movf	_Place_Angle^0,w,c
  3298  00061C  5C65               	subwf	_Pick_Angle^0,w,c
  3299  00061E  6E3B               	movwf	??_pick_and_place^0,c
  3300  000620  5064               	movf	(_Place_Angle+1)^0,w,c
  3301  000622  5866               	subwfb	(_Pick_Angle+1)^0,w,c
  3302  000624  6E3C               	movwf	(??_pick_and_place+1)^0,c
  3303  000626  1E3B               	comf	??_pick_and_place^0,f,c
  3304  000628  1E3C               	comf	(??_pick_and_place+1)^0,f,c
  3305  00062A  4A3B               	infsnz	??_pick_and_place^0,f,c
  3306  00062C  2A3C               	incf	(??_pick_and_place+1)^0,f,c
  3307  00062E  C03B  F0CB         	movff	??_pick_and_place,_pick_and_place$601
  3308  000632  C03C  F0CC         	movff	??_pick_and_place+1,_pick_and_place$601+1
  3309  000636  EF24  F003         	goto	l4442
  3310  00063A                     l4440:
  3311  00063A  FFFF               	dw	65535	; assembler added errata NOP
  3312                           
  3313                           ; BSR set to: 0
  3314  00063C  5063               	movf	_Place_Angle^0,w,c
  3315  00063E  5C65               	subwf	_Pick_Angle^0,w,c
  3316  000640  6FCB               	movwf	_pick_and_place$601& (0+255),b
  3317  000642  5064               	movf	(_Place_Angle+1)^0,w,c
  3318  000644  5866               	subwfb	(_Pick_Angle+1)^0,w,c
  3319  000646  6FCC               	movwf	(_pick_and_place$601+1)& (0+255),b
  3320  000648                     l4442:
  3321  000648  FFFF               	dw	65535	; assembler added errata NOP
  3322                           
  3323                           ; BSR set to: 0
  3324  00064A  C0C9  F008         	movff	pick_and_place@i_600,___xxtofl@val
  3325  00064E  C0CA  F009         	movff	pick_and_place@i_600+1,___xxtofl@val+1
  3326  000652  0E00               	movlw	0
  3327  000654  BE09               	btfsc	(___xxtofl@val+1)^0,7,c
  3328  000656  0EFF               	movlw	-1
  3329  000658  6E0A               	movwf	(___xxtofl@val+2)^0,c
  3330  00065A  6E0B               	movwf	(___xxtofl@val+3)^0,c
  3331  00065C  0E01               	movlw	1
  3332  00065E  EC0A  F00E         	call	___xxtofl
  3333  000662  C008  F02F         	movff	?___xxtofl,___flge@ff1
  3334  000666  C009  F030         	movff	?___xxtofl+1,___flge@ff1+1
  3335  00066A  C00A  F031         	movff	?___xxtofl+2,___flge@ff1+2
  3336  00066E  C00B  F032         	movff	?___xxtofl+3,___flge@ff1+3
  3337  000672  0E66               	movlw	102
  3338  000674  6E1A               	movwf	___fldiv@a^0,c
  3339  000676  0E66               	movlw	102
  3340  000678  6E1B               	movwf	(___fldiv@a+1)^0,c
  3341  00067A  0E66               	movlw	102
  3342  00067C  6E1C               	movwf	(___fldiv@a+2)^0,c
  3343  00067E  0E40               	movlw	64
  3344  000680  6E1D               	movwf	(___fldiv@a+3)^0,c
  3345  000682  C0CB  F008         	movff	_pick_and_place$601,___xxtofl@val
  3346  000686  C0CC  F009         	movff	_pick_and_place$601+1,___xxtofl@val+1
  3347  00068A  0E00               	movlw	0
  3348  00068C  BE09               	btfsc	(___xxtofl@val+1)^0,7,c
  3349  00068E  0EFF               	movlw	-1
  3350  000690  6E0A               	movwf	(___xxtofl@val+2)^0,c
  3351  000692  6E0B               	movwf	(___xxtofl@val+3)^0,c
  3352  000694  0E01               	movlw	1
  3353  000696  EC0A  F00E         	call	___xxtofl
  3354  00069A  C008  F016         	movff	?___xxtofl,___fldiv@b
  3355  00069E  C009  F017         	movff	?___xxtofl+1,___fldiv@b+1
  3356  0006A2  C00A  F018         	movff	?___xxtofl+2,___fldiv@b+2
  3357  0006A6  C00B  F019         	movff	?___xxtofl+3,___fldiv@b+3
  3358  0006AA  ECEB  F008         	call	___fldiv	;wreg free
  3359  0006AE  C016  F033         	movff	?___fldiv,___flge@ff2
  3360  0006B2  C017  F034         	movff	?___fldiv+1,___flge@ff2+1
  3361  0006B6  C018  F035         	movff	?___fldiv+2,___flge@ff2+2
  3362  0006BA  C019  F036         	movff	?___fldiv+3,___flge@ff2+3
  3363  0006BE  ECC3  F011         	call	___flge	;wreg free
  3364  0006C2  B0D8               	btfsc	status,0,c
  3365  0006C4  EF66  F003         	goto	u5321
  3366  0006C8  EF69  F003         	goto	u5320
  3367  0006CC                     u5321:
  3368  0006CC  FFFF               	dw	65535	; assembler added errata NOP
  3369  0006CE  EF73  F003         	goto	l4446
  3370  0006D2                     u5320:
  3371  0006D2  FFFF               	dw	65535	; assembler added errata NOP
  3372  0006D4  5073               	movf	_stop^0,w,c
  3373  0006D6  B4D8               	btfsc	status,2,c
  3374  0006D8  EF70  F003         	goto	u5331
  3375  0006DC  EF73  F003         	goto	u5330
  3376  0006E0                     u5331:
  3377  0006E0  FFFF               	dw	65535	; assembler added errata NOP
  3378  0006E2  EFF0  F002         	goto	l4432
  3379  0006E6                     u5330:
  3380  0006E6                     l4446:
  3381  0006E6  FFFF               	dw	65535	; assembler added errata NOP
  3382                           
  3383                           ;main.c: 580:         for(int i=0; i<3; i++){Z_axis("1");}
  3384  0006E8  0E00               	movlw	0
  3385  0006EA  0100               	movlb	0	; () banked
  3386  0006EC  6FD2               	movwf	(pick_and_place@i_602+1)& (0+255),b
  3387  0006EE  0E00               	movlw	0
  3388  0006F0  6FD1               	movwf	pick_and_place@i_602& (0+255),b
  3389  0006F2                     l4448:
  3390  0006F2  FFFF               	dw	65535	; assembler added errata NOP
  3391                           
  3392                           ; BSR set to: 0
  3393  0006F4  BFD2               	btfsc	(pick_and_place@i_602+1)& (0+255),7,b
  3394  0006F6  EF86  F003         	goto	u5341
  3395  0006FA  51D2               	movf	(pick_and_place@i_602+1)& (0+255),w,b
  3396  0006FC  E10A               	bnz	u5340
  3397  0006FE  0E03               	movlw	3
  3398  000700  5DD1               	subwf	pick_and_place@i_602& (0+255),w,b
  3399  000702  A0D8               	btfss	status,0,c
  3400  000704  EF86  F003         	goto	u5341
  3401  000708  EF89  F003         	goto	u5340
  3402  00070C                     u5341:
  3403  00070C  FFFF               	dw	65535	; assembler added errata NOP
  3404  00070E  EF8C  F003         	goto	l4452
  3405  000712                     u5340:
  3406  000712  FFFF               	dw	65535	; assembler added errata NOP
  3407  000714  EF95  F003         	goto	l4458
  3408  000718                     l4452:
  3409  000718  FFFF               	dw	65535	; assembler added errata NOP
  3410                           
  3411                           ; BSR set to: 0
  3412  00071A  0EFC               	movlw	STR_18& (0+255)
  3413  00071C  ECE0  F013         	call	_Z_axis
  3414  000720  0100               	movlb	0	; () banked
  3415  000722  4BD1               	infsnz	pick_and_place@i_602& (0+255),f,b
  3416  000724  2BD2               	incf	(pick_and_place@i_602+1)& (0+255),f,b
  3417  000726  EF79  F003         	goto	l4448
  3418  00072A                     l4458:
  3419  00072A  FFFF               	dw	65535	; assembler added errata NOP
  3420                           
  3421                           ; BSR set to: 0
  3422                           ;main.c: 583:         for(int i=0; i<3; i++){Z_axis("0");}
  3423  00072C  0E00               	movlw	0
  3424  00072E  6FD4               	movwf	(pick_and_place@i_604+1)& (0+255),b
  3425  000730  0E00               	movlw	0
  3426  000732  6FD3               	movwf	pick_and_place@i_604& (0+255),b
  3427  000734                     l4460:
  3428  000734  FFFF               	dw	65535	; assembler added errata NOP
  3429                           
  3430                           ; BSR set to: 0
  3431  000736  BFD4               	btfsc	(pick_and_place@i_604+1)& (0+255),7,b
  3432  000738  EFA7  F003         	goto	u5351
  3433  00073C  51D4               	movf	(pick_and_place@i_604+1)& (0+255),w,b
  3434  00073E  E10A               	bnz	u5350
  3435  000740  0E03               	movlw	3
  3436  000742  5DD3               	subwf	pick_and_place@i_604& (0+255),w,b
  3437  000744  A0D8               	btfss	status,0,c
  3438  000746  EFA7  F003         	goto	u5351
  3439  00074A  EFAA  F003         	goto	u5350
  3440  00074E                     u5351:
  3441  00074E  FFFF               	dw	65535	; assembler added errata NOP
  3442  000750  EFAD  F003         	goto	l4464
  3443  000754                     u5350:
  3444  000754  FFFF               	dw	65535	; assembler added errata NOP
  3445  000756  EFB6  F003         	goto	l371
  3446  00075A                     l4464:
  3447  00075A  FFFF               	dw	65535	; assembler added errata NOP
  3448                           
  3449                           ; BSR set to: 0
  3450  00075C  0EFA               	movlw	STR_19& (0+255)
  3451  00075E  ECE0  F013         	call	_Z_axis
  3452  000762  0100               	movlb	0	; () banked
  3453  000764  4BD3               	infsnz	pick_and_place@i_604& (0+255),f,b
  3454  000766  2BD4               	incf	(pick_and_place@i_604+1)& (0+255),f,b
  3455  000768  EF9A  F003         	goto	l4460
  3456  00076C                     l371:
  3457  00076C  FFFF               	dw	65535	; assembler added errata NOP
  3458                           
  3459                           ; BSR set to: 0
  3460                           ;main.c: 585:         Angle_diff= Place_Angle;
  3461  00076E  C063  F05D         	movff	_Place_Angle,_Angle_diff
  3462  000772  C064  F05E         	movff	_Place_Angle+1,_Angle_diff+1
  3463                           
  3464                           ;main.c: 586:         X_diff = X_Place;
  3465  000776  C06B  F061         	movff	_X_Place,_X_diff
  3466  00077A  C06C  F062         	movff	_X_Place+1,_X_diff+1
  3467                           
  3468                           ;main.c: 587:         Y_diff = Y_Place;
  3469  00077E  C067  F05F         	movff	_Y_Place,_Y_diff
  3470  000782  C068  F060         	movff	_Y_Place+1,_Y_diff+1
  3471  000786                     
  3472                           ; BSR set to: 0
  3473  000786  0012               	return		;funcret
  3474  000788  FFFF               	dw	65535	; errata NOP
  3475  00078A                     __end_of_pick_and_place:
  3476                           	callstack 0
  3477                           
  3478 ;; *************** function _fetch_parameters *****************
  3479 ;; Defined at:
  3480 ;;		line 511 in file "main.c"
  3481 ;; Parameters:    Size  Location     Type
  3482 ;;  Componnt        1    wreg     unsigned char 
  3483 ;; Auto vars:     Size  Location     Type
  3484 ;;  Componnt        1    7[COMRAM] unsigned char 
  3485 ;; Return value:  Size  Location     Type
  3486 ;;                  2  299[None  ] int 
  3487 ;; Registers used:
  3488 ;;		wreg, status,2, status,0
  3489 ;; Tracked objects:
  3490 ;;		On entry : 0/0
  3491 ;;		On exit  : 0/0
  3492 ;;		Unchanged: 0/0
  3493 ;; Data sizes:     COMRAM   BANK0   BANK1   BANK2   BANK3   BANK4   BANK5
  3494 ;;      Params:         0       0       0       0       0       0       0
  3495 ;;      Locals:         1       0       0       0       0       0       0
  3496 ;;      Temps:          0       0       0       0       0       0       0
  3497 ;;      Totals:         1       0       0       0       0       0       0
  3498 ;;Total ram usage:        1 bytes
  3499 ;; Hardware stack levels used: 1
  3500 ;; Hardware stack levels required when called: 1
  3501 ;; This function calls:
  3502 ;;		Nothing
  3503 ;; This function is called by:
  3504 ;;		_pick_and_place
  3505 ;; This function uses a non-reentrant model
  3506 ;;
  3507                           
  3508                           	psect	text8
  3509  002116                     __ptext8:
  3510                           	callstack 0
  3511  002116                     _fetch_parameters:
  3512                           	callstack 0
  3513  002116  FFFF               	dw	65535	; assembler added errata NOP
  3514                           
  3515                           ; BSR set to: 0
  3516                           ;incstack = 0
  3517                           ;fetch_parameters@Componnt stored from wreg
  3518  002118  6E08               	movwf	fetch_parameters@Componnt^0,c
  3519  00211A                     
  3520                           ;main.c: 512:     if(Componnt=='A')
  3521  00211A  0E41               	movlw	65
  3522  00211C  1808               	xorwf	fetch_parameters@Componnt^0,w,c
  3523  00211E  A4D8               	btfss	status,2,c
  3524  002120  EF94  F010         	goto	u4511
  3525  002124  EF97  F010         	goto	u4510
  3526  002128                     u4511:
  3527  002128  FFFF               	dw	65535	; assembler added errata NOP
  3528  00212A  EFB2  F010         	goto	l4072
  3529  00212E                     u4510:
  3530  00212E  FFFF               	dw	65535	; assembler added errata NOP
  3531  002130                     
  3532                           ;main.c: 513:         {;main.c: 514:             X_Pick=3;
  3533  002130  0E00               	movlw	0
  3534  002132  6E6E               	movwf	(_X_Pick+1)^0,c
  3535  002134  0E03               	movlw	3
  3536  002136  6E6D               	movwf	_X_Pick^0,c
  3537                           
  3538                           ;main.c: 515:             Y_Pick=4;
  3539  002138  0E00               	movlw	0
  3540  00213A  6E6A               	movwf	(_Y_Pick+1)^0,c
  3541  00213C  0E04               	movlw	4
  3542  00213E  6E69               	movwf	_Y_Pick^0,c
  3543                           
  3544                           ;main.c: 516:             Pick_Angle=0;
  3545  002140  0E00               	movlw	0
  3546  002142  6E66               	movwf	(_Pick_Angle+1)^0,c
  3547  002144  0E00               	movlw	0
  3548  002146  6E65               	movwf	_Pick_Angle^0,c
  3549                           
  3550                           ;main.c: 518:             X_Place=17;
  3551  002148  0E00               	movlw	0
  3552  00214A  6E6C               	movwf	(_X_Place+1)^0,c
  3553  00214C  0E11               	movlw	17
  3554  00214E  6E6B               	movwf	_X_Place^0,c
  3555                           
  3556                           ;main.c: 519:             Y_Place=5;
  3557  002150  0E00               	movlw	0
  3558  002152  6E68               	movwf	(_Y_Place+1)^0,c
  3559  002154  0E05               	movlw	5
  3560  002156  6E67               	movwf	_Y_Place^0,c
  3561                           
  3562                           ;main.c: 520:             Place_Angle=270;
  3563  002158  0E01               	movlw	1
  3564  00215A  6E64               	movwf	(_Place_Angle+1)^0,c
  3565  00215C  0E0E               	movlw	14
  3566  00215E  6E63               	movwf	_Place_Angle^0,c
  3567                           
  3568                           ;main.c: 521:         }
  3569  002160  EF24  F011         	goto	l307
  3570  002164                     l4072:
  3571  002164  FFFF               	dw	65535	; assembler added errata NOP
  3572  002166  0E42               	movlw	66
  3573  002168  1808               	xorwf	fetch_parameters@Componnt^0,w,c
  3574  00216A  A4D8               	btfss	status,2,c
  3575  00216C  EFBA  F010         	goto	u4521
  3576  002170  EFBD  F010         	goto	u4520
  3577  002174                     u4521:
  3578  002174  FFFF               	dw	65535	; assembler added errata NOP
  3579  002176  EFD8  F010         	goto	l4076
  3580  00217A                     u4520:
  3581  00217A  FFFF               	dw	65535	; assembler added errata NOP
  3582  00217C                     
  3583                           ;main.c: 523:             X_Pick=3;
  3584  00217C  0E00               	movlw	0
  3585  00217E  6E6E               	movwf	(_X_Pick+1)^0,c
  3586  002180  0E03               	movlw	3
  3587  002182  6E6D               	movwf	_X_Pick^0,c
  3588                           
  3589                           ;main.c: 524:             Y_Pick=10;
  3590  002184  0E00               	movlw	0
  3591  002186  6E6A               	movwf	(_Y_Pick+1)^0,c
  3592  002188  0E0A               	movlw	10
  3593  00218A  6E69               	movwf	_Y_Pick^0,c
  3594                           
  3595                           ;main.c: 525:             Pick_Angle=90;
  3596  00218C  0E00               	movlw	0
  3597  00218E  6E66               	movwf	(_Pick_Angle+1)^0,c
  3598  002190  0E5A               	movlw	90
  3599  002192  6E65               	movwf	_Pick_Angle^0,c
  3600                           
  3601                           ;main.c: 527:             X_Place=10;
  3602  002194  0E00               	movlw	0
  3603  002196  6E6C               	movwf	(_X_Place+1)^0,c
  3604  002198  0E0A               	movlw	10
  3605  00219A  6E6B               	movwf	_X_Place^0,c
  3606                           
  3607                           ;main.c: 528:              Y_Place=5;
  3608  00219C  0E00               	movlw	0
  3609  00219E  6E68               	movwf	(_Y_Place+1)^0,c
  3610  0021A0  0E05               	movlw	5
  3611  0021A2  6E67               	movwf	_Y_Place^0,c
  3612                           
  3613                           ;main.c: 529:             Place_Angle=180;
  3614  0021A4  0E00               	movlw	0
  3615  0021A6  6E64               	movwf	(_Place_Angle+1)^0,c
  3616  0021A8  0EB4               	movlw	180
  3617  0021AA  6E63               	movwf	_Place_Angle^0,c
  3618                           
  3619                           ;main.c: 530:         }
  3620  0021AC  EF24  F011         	goto	l307
  3621  0021B0                     l4076:
  3622  0021B0  FFFF               	dw	65535	; assembler added errata NOP
  3623  0021B2  0E43               	movlw	67
  3624  0021B4  1808               	xorwf	fetch_parameters@Componnt^0,w,c
  3625  0021B6  A4D8               	btfss	status,2,c
  3626  0021B8  EFE0  F010         	goto	u4531
  3627  0021BC  EFE3  F010         	goto	u4530
  3628  0021C0                     u4531:
  3629  0021C0  FFFF               	dw	65535	; assembler added errata NOP
  3630  0021C2  EFFE  F010         	goto	l4080
  3631  0021C6                     u4530:
  3632  0021C6  FFFF               	dw	65535	; assembler added errata NOP
  3633  0021C8                     
  3634                           ;main.c: 532:             X_Pick=3;
  3635  0021C8  0E00               	movlw	0
  3636  0021CA  6E6E               	movwf	(_X_Pick+1)^0,c
  3637  0021CC  0E03               	movlw	3
  3638  0021CE  6E6D               	movwf	_X_Pick^0,c
  3639                           
  3640                           ;main.c: 533:             Y_Pick=15;
  3641  0021D0  0E00               	movlw	0
  3642  0021D2  6E6A               	movwf	(_Y_Pick+1)^0,c
  3643  0021D4  0E0F               	movlw	15
  3644  0021D6  6E69               	movwf	_Y_Pick^0,c
  3645                           
  3646                           ;main.c: 534:             Pick_Angle=90;
  3647  0021D8  0E00               	movlw	0
  3648  0021DA  6E66               	movwf	(_Pick_Angle+1)^0,c
  3649  0021DC  0E5A               	movlw	90
  3650  0021DE  6E65               	movwf	_Pick_Angle^0,c
  3651                           
  3652                           ;main.c: 536:             X_Place=16;
  3653  0021E0  0E00               	movlw	0
  3654  0021E2  6E6C               	movwf	(_X_Place+1)^0,c
  3655  0021E4  0E10               	movlw	16
  3656  0021E6  6E6B               	movwf	_X_Place^0,c
  3657                           
  3658                           ;main.c: 537:             Y_Place=14;
  3659  0021E8  0E00               	movlw	0
  3660  0021EA  6E68               	movwf	(_Y_Place+1)^0,c
  3661  0021EC  0E0E               	movlw	14
  3662  0021EE  6E67               	movwf	_Y_Place^0,c
  3663                           
  3664                           ;main.c: 538:             Place_Angle=270;
  3665  0021F0  0E01               	movlw	1
  3666  0021F2  6E64               	movwf	(_Place_Angle+1)^0,c
  3667  0021F4  0E0E               	movlw	14
  3668  0021F6  6E63               	movwf	_Place_Angle^0,c
  3669                           
  3670                           ;main.c: 539:         }
  3671  0021F8  EF24  F011         	goto	l307
  3672  0021FC                     l4080:
  3673  0021FC  FFFF               	dw	65535	; assembler added errata NOP
  3674  0021FE  0E44               	movlw	68
  3675  002200  1808               	xorwf	fetch_parameters@Componnt^0,w,c
  3676  002202  A4D8               	btfss	status,2,c
  3677  002204  EF06  F011         	goto	u4541
  3678  002208  EF09  F011         	goto	u4540
  3679  00220C                     u4541:
  3680  00220C  FFFF               	dw	65535	; assembler added errata NOP
  3681  00220E  EF24  F011         	goto	l303
  3682  002212                     u4540:
  3683  002212  FFFF               	dw	65535	; assembler added errata NOP
  3684  002214                     
  3685                           ;main.c: 541:             X_Pick=X_Pick_D;
  3686  002214  C05B  F06D         	movff	_X_Pick_D,_X_Pick
  3687  002218  C05C  F06E         	movff	_X_Pick_D+1,_X_Pick+1
  3688                           
  3689                           ;main.c: 542:             Y_Pick=Y_Pick_D;
  3690  00221C  C0AC  F069         	movff	_Y_Pick_D,_Y_Pick
  3691  002220  C0AD  F06A         	movff	_Y_Pick_D+1,_Y_Pick+1
  3692                           
  3693                           ;main.c: 543:             Pick_Angle=Pick_Angle_D;
  3694  002224  C0AA  F065         	movff	_Pick_Angle_D,_Pick_Angle
  3695  002228  C0AB  F066         	movff	_Pick_Angle_D+1,_Pick_Angle+1
  3696                           
  3697                           ;main.c: 545:             X_Place=X_Place_D;
  3698  00222C  C0A8  F06B         	movff	_X_Place_D,_X_Place
  3699  002230  C0A9  F06C         	movff	_X_Place_D+1,_X_Place+1
  3700                           
  3701                           ;main.c: 546:             Y_Place=Y_Place_D;
  3702  002234  C0A6  F067         	movff	_Y_Place_D,_Y_Place
  3703  002238  C0A7  F068         	movff	_Y_Place_D+1,_Y_Place+1
  3704                           
  3705                           ;main.c: 547:             Place_Angle=Place_Angle_D;
  3706  00223C  C0A4  F063         	movff	_Place_Angle_D,_Place_Angle
  3707  002240  C0A5  F064         	movff	_Place_Angle_D+1,_Place_Angle+1
  3708  002244  EF24  F011         	goto	l307
  3709  002248                     l303:
  3710  002248                     l307:
  3711  002248  FFFF               	dw	65535	; assembler added errata NOP
  3712  00224A  0012               	return		;funcret
  3713  00224C  FFFF               	dw	65535	; errata NOP
  3714  00224E                     __end_of_fetch_parameters:
  3715                           	callstack 0
  3716                           
  3717 ;; *************** function ___xxtofl *****************
  3718 ;; Defined at:
  3719 ;;		line 10 in file "/opt/microchip/xc8/v2.32/pic/sources/c99/common/xxtofl.c"
  3720 ;; Parameters:    Size  Location     Type
  3721 ;;  sign            1    wreg     unsigned char 
  3722 ;;  val             4    7[COMRAM] long 
  3723 ;; Auto vars:     Size  Location     Type
  3724 ;;  sign            1   15[COMRAM] unsigned char 
  3725 ;;  arg             4   17[COMRAM] unsigned long 
  3726 ;;  exp             1   16[COMRAM] unsigned char 
  3727 ;; Return value:  Size  Location     Type
  3728 ;;                  4    7[COMRAM] unsigned char 
  3729 ;; Registers used:
  3730 ;;		wreg, status,2, status,0
  3731 ;; Tracked objects:
  3732 ;;		On entry : 0/0
  3733 ;;		On exit  : 0/0
  3734 ;;		Unchanged: 0/0
  3735 ;; Data sizes:     COMRAM   BANK0   BANK1   BANK2   BANK3   BANK4   BANK5
  3736 ;;      Params:         4       0       0       0       0       0       0
  3737 ;;      Locals:         6       0       0       0       0       0       0
  3738 ;;      Temps:          4       0       0       0       0       0       0
  3739 ;;      Totals:        14       0       0       0       0       0       0
  3740 ;;Total ram usage:       14 bytes
  3741 ;; Hardware stack levels used: 1
  3742 ;; Hardware stack levels required when called: 1
  3743 ;; This function calls:
  3744 ;;		Nothing
  3745 ;; This function is called by:
  3746 ;;		_pick_and_place
  3747 ;; This function uses a non-reentrant model
  3748 ;;
  3749                           
  3750                           	psect	text9
  3751  001C14                     __ptext9:
  3752                           	callstack 0
  3753  001C14                     ___xxtofl:
  3754                           	callstack 0
  3755  001C14  FFFF               	dw	65535	; assembler added errata NOP
  3756                           
  3757                           ;incstack = 0
  3758                           ;___xxtofl@sign stored from wreg
  3759  001C16  6E10               	movwf	___xxtofl@sign^0,c
  3760  001C18  5010               	movf	___xxtofl@sign^0,w,c
  3761  001C1A  B4D8               	btfsc	status,2,c
  3762  001C1C  EF12  F00E         	goto	u4831
  3763  001C20  EF15  F00E         	goto	u4830
  3764  001C24                     u4831:
  3765  001C24  FFFF               	dw	65535	; assembler added errata NOP
  3766  001C26  EF3A  F00E         	goto	l1064
  3767  001C2A                     u4830:
  3768  001C2A  FFFF               	dw	65535	; assembler added errata NOP
  3769  001C2C  BE0B               	btfsc	(___xxtofl@val+3)^0,7,c
  3770  001C2E  EF1E  F00E         	goto	u4840
  3771  001C32  EF1B  F00E         	goto	u4841
  3772  001C36                     u4841:
  3773  001C36  FFFF               	dw	65535	; assembler added errata NOP
  3774  001C38  EF3A  F00E         	goto	l1064
  3775  001C3C                     u4840:
  3776  001C3C  FFFF               	dw	65535	; assembler added errata NOP
  3777  001C3E  C008  F00C         	movff	___xxtofl@val,??___xxtofl
  3778  001C42  C009  F00D         	movff	___xxtofl@val+1,??___xxtofl+1
  3779  001C46  C00A  F00E         	movff	___xxtofl@val+2,??___xxtofl+2
  3780  001C4A  C00B  F00F         	movff	___xxtofl@val+3,??___xxtofl+3
  3781  001C4E  1E0C               	comf	??___xxtofl^0,f,c
  3782  001C50  1E0D               	comf	(??___xxtofl+1)^0,f,c
  3783  001C52  1E0E               	comf	(??___xxtofl+2)^0,f,c
  3784  001C54  1E0F               	comf	(??___xxtofl+3)^0,f,c
  3785  001C56  2A0C               	incf	??___xxtofl^0,f,c
  3786  001C58  0E00               	movlw	0
  3787  001C5A  220D               	addwfc	(??___xxtofl+1)^0,f,c
  3788  001C5C  220E               	addwfc	(??___xxtofl+2)^0,f,c
  3789  001C5E  220F               	addwfc	(??___xxtofl+3)^0,f,c
  3790  001C60  C00C  F012         	movff	??___xxtofl,___xxtofl@arg
  3791  001C64  C00D  F013         	movff	??___xxtofl+1,___xxtofl@arg+1
  3792  001C68  C00E  F014         	movff	??___xxtofl+2,___xxtofl@arg+2
  3793  001C6C  C00F  F015         	movff	??___xxtofl+3,___xxtofl@arg+3
  3794  001C70  EF43  F00E         	goto	l4250
  3795  001C74                     l1064:
  3796  001C74  FFFF               	dw	65535	; assembler added errata NOP
  3797  001C76  C008  F012         	movff	___xxtofl@val,___xxtofl@arg
  3798  001C7A  C009  F013         	movff	___xxtofl@val+1,___xxtofl@arg+1
  3799  001C7E  C00A  F014         	movff	___xxtofl@val+2,___xxtofl@arg+2
  3800  001C82  C00B  F015         	movff	___xxtofl@val+3,___xxtofl@arg+3
  3801  001C86                     l4250:
  3802  001C86  FFFF               	dw	65535	; assembler added errata NOP
  3803  001C88  5008               	movf	___xxtofl@val^0,w,c
  3804  001C8A  1009               	iorwf	(___xxtofl@val+1)^0,w,c
  3805  001C8C  100A               	iorwf	(___xxtofl@val+2)^0,w,c
  3806  001C8E  100B               	iorwf	(___xxtofl@val+3)^0,w,c
  3807  001C90  A4D8               	btfss	status,2,c
  3808  001C92  EF4D  F00E         	goto	u4851
  3809  001C96  EF50  F00E         	goto	u4850
  3810  001C9A                     u4851:
  3811  001C9A  FFFF               	dw	65535	; assembler added errata NOP
  3812  001C9C  EF5B  F00E         	goto	l4256
  3813  001CA0                     u4850:
  3814  001CA0  FFFF               	dw	65535	; assembler added errata NOP
  3815  001CA2  0E00               	movlw	0
  3816  001CA4  6E08               	movwf	?___xxtofl^0,c
  3817  001CA6  0E00               	movlw	0
  3818  001CA8  6E09               	movwf	(?___xxtofl+1)^0,c
  3819  001CAA  0E00               	movlw	0
  3820  001CAC  6E0A               	movwf	(?___xxtofl+2)^0,c
  3821  001CAE  0E00               	movlw	0
  3822  001CB0  6E0B               	movwf	(?___xxtofl+3)^0,c
  3823  001CB2  EF03  F00F         	goto	l1067
  3824  001CB6                     l4256:
  3825  001CB6  FFFF               	dw	65535	; assembler added errata NOP
  3826  001CB8  0E96               	movlw	150
  3827  001CBA  6E11               	movwf	___xxtofl@exp^0,c
  3828  001CBC  EF67  F00E         	goto	l4260
  3829  001CC0                     l4258:
  3830  001CC0  FFFF               	dw	65535	; assembler added errata NOP
  3831  001CC2  2A11               	incf	___xxtofl@exp^0,f,c
  3832  001CC4  90D8               	bcf	status,0,c
  3833  001CC6  3215               	rrcf	(___xxtofl@arg+3)^0,f,c
  3834  001CC8  3214               	rrcf	(___xxtofl@arg+2)^0,f,c
  3835  001CCA  3213               	rrcf	(___xxtofl@arg+1)^0,f,c
  3836  001CCC  3212               	rrcf	___xxtofl@arg^0,f,c
  3837  001CCE                     l4260:
  3838  001CCE  FFFF               	dw	65535	; assembler added errata NOP
  3839  001CD0  0E00               	movlw	0
  3840  001CD2  1412               	andwf	___xxtofl@arg^0,w,c
  3841  001CD4  6E0C               	movwf	??___xxtofl^0,c
  3842  001CD6  0E00               	movlw	0
  3843  001CD8  1413               	andwf	(___xxtofl@arg+1)^0,w,c
  3844  001CDA  6E0D               	movwf	(??___xxtofl+1)^0,c
  3845  001CDC  0E00               	movlw	0
  3846  001CDE  1414               	andwf	(___xxtofl@arg+2)^0,w,c
  3847  001CE0  6E0E               	movwf	(??___xxtofl+2)^0,c
  3848  001CE2  0EFE               	movlw	254
  3849  001CE4  1415               	andwf	(___xxtofl@arg+3)^0,w,c
  3850  001CE6  6E0F               	movwf	(??___xxtofl+3)^0,c
  3851  001CE8  500C               	movf	??___xxtofl^0,w,c
  3852  001CEA  100D               	iorwf	(??___xxtofl+1)^0,w,c
  3853  001CEC  100E               	iorwf	(??___xxtofl+2)^0,w,c
  3854  001CEE  100F               	iorwf	(??___xxtofl+3)^0,w,c
  3855  001CF0  A4D8               	btfss	status,2,c
  3856  001CF2  EF7D  F00E         	goto	u4861
  3857  001CF6  EF80  F00E         	goto	u4860
  3858  001CFA                     u4861:
  3859  001CFA  FFFF               	dw	65535	; assembler added errata NOP
  3860  001CFC  EF60  F00E         	goto	l4258
  3861  001D00                     u4860:
  3862  001D00  FFFF               	dw	65535	; assembler added errata NOP
  3863  001D02  EF90  F00E         	goto	l1071
  3864  001D06                     l4262:
  3865  001D06  FFFF               	dw	65535	; assembler added errata NOP
  3866  001D08  2A11               	incf	___xxtofl@exp^0,f,c
  3867  001D0A  0E01               	movlw	1
  3868  001D0C  2612               	addwf	___xxtofl@arg^0,f,c
  3869  001D0E  0E00               	movlw	0
  3870  001D10  2213               	addwfc	(___xxtofl@arg+1)^0,f,c
  3871  001D12  2214               	addwfc	(___xxtofl@arg+2)^0,f,c
  3872  001D14  2215               	addwfc	(___xxtofl@arg+3)^0,f,c
  3873  001D16  90D8               	bcf	status,0,c
  3874  001D18  3215               	rrcf	(___xxtofl@arg+3)^0,f,c
  3875  001D1A  3214               	rrcf	(___xxtofl@arg+2)^0,f,c
  3876  001D1C  3213               	rrcf	(___xxtofl@arg+1)^0,f,c
  3877  001D1E  3212               	rrcf	___xxtofl@arg^0,f,c
  3878  001D20                     l1071:
  3879  001D20  FFFF               	dw	65535	; assembler added errata NOP
  3880  001D22  0E00               	movlw	0
  3881  001D24  1412               	andwf	___xxtofl@arg^0,w,c
  3882  001D26  6E0C               	movwf	??___xxtofl^0,c
  3883  001D28  0E00               	movlw	0
  3884  001D2A  1413               	andwf	(___xxtofl@arg+1)^0,w,c
  3885  001D2C  6E0D               	movwf	(??___xxtofl+1)^0,c
  3886  001D2E  0E00               	movlw	0
  3887  001D30  1414               	andwf	(___xxtofl@arg+2)^0,w,c
  3888  001D32  6E0E               	movwf	(??___xxtofl+2)^0,c
  3889  001D34  0EFF               	movlw	255
  3890  001D36  1415               	andwf	(___xxtofl@arg+3)^0,w,c
  3891  001D38  6E0F               	movwf	(??___xxtofl+3)^0,c
  3892  001D3A  500C               	movf	??___xxtofl^0,w,c
  3893  001D3C  100D               	iorwf	(??___xxtofl+1)^0,w,c
  3894  001D3E  100E               	iorwf	(??___xxtofl+2)^0,w,c
  3895  001D40  100F               	iorwf	(??___xxtofl+3)^0,w,c
  3896  001D42  A4D8               	btfss	status,2,c
  3897  001D44  EFA6  F00E         	goto	u4871
  3898  001D48  EFA9  F00E         	goto	u4870
  3899  001D4C                     u4871:
  3900  001D4C  FFFF               	dw	65535	; assembler added errata NOP
  3901  001D4E  EF83  F00E         	goto	l4262
  3902  001D52                     u4870:
  3903  001D52  FFFF               	dw	65535	; assembler added errata NOP
  3904  001D54  EFB3  F00E         	goto	l4270
  3905  001D58                     l4268:
  3906  001D58  FFFF               	dw	65535	; assembler added errata NOP
  3907  001D5A  0611               	decf	___xxtofl@exp^0,f,c
  3908  001D5C  90D8               	bcf	status,0,c
  3909  001D5E  3612               	rlcf	___xxtofl@arg^0,f,c
  3910  001D60  3613               	rlcf	(___xxtofl@arg+1)^0,f,c
  3911  001D62  3614               	rlcf	(___xxtofl@arg+2)^0,f,c
  3912  001D64  3615               	rlcf	(___xxtofl@arg+3)^0,f,c
  3913  001D66                     l4270:
  3914  001D66  FFFF               	dw	65535	; assembler added errata NOP
  3915  001D68  BE14               	btfsc	(___xxtofl@arg+2)^0,7,c
  3916  001D6A  EFB9  F00E         	goto	u4881
  3917  001D6E  EFBC  F00E         	goto	u4880
  3918  001D72                     u4881:
  3919  001D72  FFFF               	dw	65535	; assembler added errata NOP
  3920  001D74  EFC6  F00E         	goto	l1078
  3921  001D78                     u4880:
  3922  001D78  FFFF               	dw	65535	; assembler added errata NOP
  3923  001D7A  0E02               	movlw	2
  3924  001D7C  6011               	cpfslt	___xxtofl@exp^0,c
  3925  001D7E  EFC3  F00E         	goto	u4891
  3926  001D82  EFC6  F00E         	goto	u4890
  3927  001D86                     u4891:
  3928  001D86  FFFF               	dw	65535	; assembler added errata NOP
  3929  001D88  EFAC  F00E         	goto	l4268
  3930  001D8C                     u4890:
  3931  001D8C                     l1078:
  3932  001D8C  FFFF               	dw	65535	; assembler added errata NOP
  3933  001D8E  B011               	btfsc	___xxtofl@exp^0,0,c
  3934  001D90  EFCC  F00E         	goto	u4901
  3935  001D94  EFCF  F00E         	goto	u4900
  3936  001D98                     u4901:
  3937  001D98  FFFF               	dw	65535	; assembler added errata NOP
  3938  001D9A  EFD1  F00E         	goto	l4276
  3939  001D9E                     u4900:
  3940  001D9E  FFFF               	dw	65535	; assembler added errata NOP
  3941  001DA0  9E14               	bcf	(___xxtofl@arg+2)^0,7,c
  3942  001DA2                     l4276:
  3943  001DA2  FFFF               	dw	65535	; assembler added errata NOP
  3944  001DA4  90D8               	bcf	status,0,c
  3945  001DA6  3211               	rrcf	___xxtofl@exp^0,f,c
  3946  001DA8  C011  F00C         	movff	___xxtofl@exp,??___xxtofl
  3947  001DAC  6A0D               	clrf	(??___xxtofl+1)^0,c
  3948  001DAE  6A0E               	clrf	(??___xxtofl+2)^0,c
  3949  001DB0  6A0F               	clrf	(??___xxtofl+3)^0,c
  3950  001DB2  C00C  F00F         	movff	??___xxtofl,??___xxtofl+3
  3951  001DB6  6A0E               	clrf	(??___xxtofl+2)^0,c
  3952  001DB8  6A0D               	clrf	(??___xxtofl+1)^0,c
  3953  001DBA  6A0C               	clrf	??___xxtofl^0,c
  3954  001DBC  500C               	movf	??___xxtofl^0,w,c
  3955  001DBE  1212               	iorwf	___xxtofl@arg^0,f,c
  3956  001DC0  500D               	movf	(??___xxtofl+1)^0,w,c
  3957  001DC2  1213               	iorwf	(___xxtofl@arg+1)^0,f,c
  3958  001DC4  500E               	movf	(??___xxtofl+2)^0,w,c
  3959  001DC6  1214               	iorwf	(___xxtofl@arg+2)^0,f,c
  3960  001DC8  500F               	movf	(??___xxtofl+3)^0,w,c
  3961  001DCA  1215               	iorwf	(___xxtofl@arg+3)^0,f,c
  3962  001DCC  5010               	movf	___xxtofl@sign^0,w,c
  3963  001DCE  B4D8               	btfsc	status,2,c
  3964  001DD0  EFEC  F00E         	goto	u4911
  3965  001DD4  EFEF  F00E         	goto	u4910
  3966  001DD8                     u4911:
  3967  001DD8  FFFF               	dw	65535	; assembler added errata NOP
  3968  001DDA  EFFA  F00E         	goto	l4286
  3969  001DDE                     u4910:
  3970  001DDE  FFFF               	dw	65535	; assembler added errata NOP
  3971  001DE0  BE0B               	btfsc	(___xxtofl@val+3)^0,7,c
  3972  001DE2  EFF8  F00E         	goto	u4920
  3973  001DE6  EFF5  F00E         	goto	u4921
  3974  001DEA                     u4921:
  3975  001DEA  FFFF               	dw	65535	; assembler added errata NOP
  3976  001DEC  EFFA  F00E         	goto	l4286
  3977  001DF0                     u4920:
  3978  001DF0  FFFF               	dw	65535	; assembler added errata NOP
  3979  001DF2  8E15               	bsf	(___xxtofl@arg+3)^0,7,c
  3980  001DF4                     l4286:
  3981  001DF4  FFFF               	dw	65535	; assembler added errata NOP
  3982  001DF6  C012  F008         	movff	___xxtofl@arg,?___xxtofl
  3983  001DFA  C013  F009         	movff	___xxtofl@arg+1,?___xxtofl+1
  3984  001DFE  C014  F00A         	movff	___xxtofl@arg+2,?___xxtofl+2
  3985  001E02  C015  F00B         	movff	___xxtofl@arg+3,?___xxtofl+3
  3986  001E06                     l1067:
  3987  001E06  FFFF               	dw	65535	; assembler added errata NOP
  3988  001E08  0012               	return		;funcret
  3989  001E0A  FFFF               	dw	65535	; errata NOP
  3990  001E0C                     __end_of___xxtofl:
  3991                           	callstack 0
  3992                           
  3993 ;; *************** function ___fldiv *****************
  3994 ;; Defined at:
  3995 ;;		line 11 in file "/opt/microchip/xc8/v2.32/pic/sources/c99/common/sprcdiv.c"
  3996 ;; Parameters:    Size  Location     Type
  3997 ;;  b               4   21[COMRAM] unsigned char 
  3998 ;;  a               4   25[COMRAM] unsigned char 
  3999 ;; Auto vars:     Size  Location     Type
  4000 ;;  grs             4   40[COMRAM] unsigned long 
  4001 ;;  rem             4   33[COMRAM] unsigned long 
  4002 ;;  new_exp         2   38[COMRAM] short 
  4003 ;;  aexp            1   45[COMRAM] unsigned char 
  4004 ;;  bexp            1   44[COMRAM] unsigned char 
  4005 ;;  sign            1   37[COMRAM] unsigned char 
  4006 ;; Return value:  Size  Location     Type
  4007 ;;                  4   21[COMRAM] unsigned char 
  4008 ;; Registers used:
  4009 ;;		wreg, status,2, status,0
  4010 ;; Tracked objects:
  4011 ;;		On entry : 0/0
  4012 ;;		On exit  : 0/0
  4013 ;;		Unchanged: 0/0
  4014 ;; Data sizes:     COMRAM   BANK0   BANK1   BANK2   BANK3   BANK4   BANK5
  4015 ;;      Params:         8       0       0       0       0       0       0
  4016 ;;      Locals:        13       0       0       0       0       0       0
  4017 ;;      Temps:          4       0       0       0       0       0       0
  4018 ;;      Totals:        25       0       0       0       0       0       0
  4019 ;;Total ram usage:       25 bytes
  4020 ;; Hardware stack levels used: 1
  4021 ;; Hardware stack levels required when called: 1
  4022 ;; This function calls:
  4023 ;;		Nothing
  4024 ;; This function is called by:
  4025 ;;		_pick_and_place
  4026 ;; This function uses a non-reentrant model
  4027 ;;
  4028                           
  4029                           	psect	text10
  4030  0011D6                     __ptext10:
  4031                           	callstack 0
  4032  0011D6                     ___fldiv:
  4033                           	callstack 0
  4034  0011D6  FFFF               	dw	65535	; assembler added errata NOP
  4035  0011D8  5019               	movf	(___fldiv@b+3)^0,w,c
  4036  0011DA  0B80               	andlw	128
  4037  0011DC  6E26               	movwf	___fldiv@sign^0,c
  4038  0011DE  5019               	movf	(___fldiv@b+3)^0,w,c
  4039  0011E0  2419               	addwf	(___fldiv@b+3)^0,w,c
  4040  0011E2  6E2D               	movwf	___fldiv@bexp^0,c
  4041  0011E4  AE18               	btfss	(___fldiv@b+2)^0,7,c
  4042  0011E6  EFF7  F008         	goto	u4551
  4043  0011EA  EFFA  F008         	goto	u4550
  4044  0011EE                     u4551:
  4045  0011EE  FFFF               	dw	65535	; assembler added errata NOP
  4046  0011F0  EFFC  F008         	goto	l4090
  4047  0011F4                     u4550:
  4048  0011F4  FFFF               	dw	65535	; assembler added errata NOP
  4049  0011F6  802D               	bsf	___fldiv@bexp^0,0,c
  4050  0011F8                     l4090:
  4051  0011F8  FFFF               	dw	65535	; assembler added errata NOP
  4052  0011FA  502D               	movf	___fldiv@bexp^0,w,c
  4053  0011FC  B4D8               	btfsc	status,2,c
  4054  0011FE  EF03  F009         	goto	u4561
  4055  001202  EF06  F009         	goto	u4560
  4056  001206                     u4561:
  4057  001206  FFFF               	dw	65535	; assembler added errata NOP
  4058  001208  EF1F  F009         	goto	l4100
  4059  00120C                     u4560:
  4060  00120C  FFFF               	dw	65535	; assembler added errata NOP
  4061  00120E  282D               	incf	___fldiv@bexp^0,w,c
  4062  001210  A4D8               	btfss	status,2,c
  4063  001212  EF0D  F009         	goto	u4571
  4064  001216  EF10  F009         	goto	u4570
  4065  00121A                     u4571:
  4066  00121A  FFFF               	dw	65535	; assembler added errata NOP
  4067  00121C  EF19  F009         	goto	l4096
  4068  001220                     u4570:
  4069  001220  FFFF               	dw	65535	; assembler added errata NOP
  4070  001222  0E00               	movlw	0
  4071  001224  6E16               	movwf	___fldiv@b^0,c
  4072  001226  0E00               	movlw	0
  4073  001228  6E17               	movwf	(___fldiv@b+1)^0,c
  4074  00122A  0E00               	movlw	0
  4075  00122C  6E18               	movwf	(___fldiv@b+2)^0,c
  4076  00122E  0E00               	movlw	0
  4077  001230  6E19               	movwf	(___fldiv@b+3)^0,c
  4078  001232                     l4096:
  4079  001232  FFFF               	dw	65535	; assembler added errata NOP
  4080  001234  8E18               	bsf	(___fldiv@b+2)^0,7,c
  4081  001236  0E00               	movlw	0
  4082  001238  6E19               	movwf	(___fldiv@b+3)^0,c
  4083  00123A  EF28  F009         	goto	l4102
  4084  00123E                     l4100:
  4085  00123E  FFFF               	dw	65535	; assembler added errata NOP
  4086  001240  0E00               	movlw	0
  4087  001242  6E16               	movwf	___fldiv@b^0,c
  4088  001244  0E00               	movlw	0
  4089  001246  6E17               	movwf	(___fldiv@b+1)^0,c
  4090  001248  0E00               	movlw	0
  4091  00124A  6E18               	movwf	(___fldiv@b+2)^0,c
  4092  00124C  0E00               	movlw	0
  4093  00124E  6E19               	movwf	(___fldiv@b+3)^0,c
  4094  001250                     l4102:
  4095  001250  FFFF               	dw	65535	; assembler added errata NOP
  4096  001252  501D               	movf	(___fldiv@a+3)^0,w,c
  4097  001254  0B80               	andlw	128
  4098  001256  1A26               	xorwf	___fldiv@sign^0,f,c
  4099  001258  501D               	movf	(___fldiv@a+3)^0,w,c
  4100  00125A  241D               	addwf	(___fldiv@a+3)^0,w,c
  4101  00125C  6E2E               	movwf	___fldiv@aexp^0,c
  4102  00125E  AE1C               	btfss	(___fldiv@a+2)^0,7,c
  4103  001260  EF34  F009         	goto	u4581
  4104  001264  EF37  F009         	goto	u4580
  4105  001268                     u4581:
  4106  001268  FFFF               	dw	65535	; assembler added errata NOP
  4107  00126A  EF39  F009         	goto	l4110
  4108  00126E                     u4580:
  4109  00126E  FFFF               	dw	65535	; assembler added errata NOP
  4110  001270  802E               	bsf	___fldiv@aexp^0,0,c
  4111  001272                     l4110:
  4112  001272  FFFF               	dw	65535	; assembler added errata NOP
  4113  001274  502E               	movf	___fldiv@aexp^0,w,c
  4114  001276  B4D8               	btfsc	status,2,c
  4115  001278  EF40  F009         	goto	u4591
  4116  00127C  EF43  F009         	goto	u4590
  4117  001280                     u4591:
  4118  001280  FFFF               	dw	65535	; assembler added errata NOP
  4119  001282  EF5C  F009         	goto	l4120
  4120  001286                     u4590:
  4121  001286  FFFF               	dw	65535	; assembler added errata NOP
  4122  001288  282E               	incf	___fldiv@aexp^0,w,c
  4123  00128A  A4D8               	btfss	status,2,c
  4124  00128C  EF4A  F009         	goto	u4601
  4125  001290  EF4D  F009         	goto	u4600
  4126  001294                     u4601:
  4127  001294  FFFF               	dw	65535	; assembler added errata NOP
  4128  001296  EF56  F009         	goto	l4116
  4129  00129A                     u4600:
  4130  00129A  FFFF               	dw	65535	; assembler added errata NOP
  4131  00129C  0E00               	movlw	0
  4132  00129E  6E1A               	movwf	___fldiv@a^0,c
  4133  0012A0  0E00               	movlw	0
  4134  0012A2  6E1B               	movwf	(___fldiv@a+1)^0,c
  4135  0012A4  0E00               	movlw	0
  4136  0012A6  6E1C               	movwf	(___fldiv@a+2)^0,c
  4137  0012A8  0E00               	movlw	0
  4138  0012AA  6E1D               	movwf	(___fldiv@a+3)^0,c
  4139  0012AC                     l4116:
  4140  0012AC  FFFF               	dw	65535	; assembler added errata NOP
  4141  0012AE  8E1C               	bsf	(___fldiv@a+2)^0,7,c
  4142  0012B0  0E00               	movlw	0
  4143  0012B2  6E1D               	movwf	(___fldiv@a+3)^0,c
  4144  0012B4  EF65  F009         	goto	l4122
  4145  0012B8                     l4120:
  4146  0012B8  FFFF               	dw	65535	; assembler added errata NOP
  4147  0012BA  0E00               	movlw	0
  4148  0012BC  6E1A               	movwf	___fldiv@a^0,c
  4149  0012BE  0E00               	movlw	0
  4150  0012C0  6E1B               	movwf	(___fldiv@a+1)^0,c
  4151  0012C2  0E00               	movlw	0
  4152  0012C4  6E1C               	movwf	(___fldiv@a+2)^0,c
  4153  0012C6  0E00               	movlw	0
  4154  0012C8  6E1D               	movwf	(___fldiv@a+3)^0,c
  4155  0012CA                     l4122:
  4156  0012CA  FFFF               	dw	65535	; assembler added errata NOP
  4157  0012CC  501A               	movf	___fldiv@a^0,w,c
  4158  0012CE  101B               	iorwf	(___fldiv@a+1)^0,w,c
  4159  0012D0  101C               	iorwf	(___fldiv@a+2)^0,w,c
  4160  0012D2  101D               	iorwf	(___fldiv@a+3)^0,w,c
  4161  0012D4  A4D8               	btfss	status,2,c
  4162  0012D6  EF6F  F009         	goto	u4611
  4163  0012DA  EF72  F009         	goto	u4610
  4164  0012DE                     u4611:
  4165  0012DE  FFFF               	dw	65535	; assembler added errata NOP
  4166  0012E0  EF8C  F009         	goto	l4134
  4167  0012E4                     u4610:
  4168  0012E4  FFFF               	dw	65535	; assembler added errata NOP
  4169  0012E6  0E00               	movlw	0
  4170  0012E8  6E16               	movwf	___fldiv@b^0,c
  4171  0012EA  0E00               	movlw	0
  4172  0012EC  6E17               	movwf	(___fldiv@b+1)^0,c
  4173  0012EE  0E00               	movlw	0
  4174  0012F0  6E18               	movwf	(___fldiv@b+2)^0,c
  4175  0012F2  0E00               	movlw	0
  4176  0012F4  6E19               	movwf	(___fldiv@b+3)^0,c
  4177  0012F6  0E80               	movlw	128
  4178  0012F8  1218               	iorwf	(___fldiv@b+2)^0,f,c
  4179  0012FA  0E7F               	movlw	127
  4180  0012FC  1219               	iorwf	(___fldiv@b+3)^0,f,c
  4181  0012FE                     l4128:
  4182  0012FE  FFFF               	dw	65535	; assembler added errata NOP
  4183  001300  5026               	movf	___fldiv@sign^0,w,c
  4184  001302  1219               	iorwf	(___fldiv@b+3)^0,f,c
  4185  001304  C016  F016         	movff	___fldiv@b,?___fldiv
  4186  001308  C017  F017         	movff	___fldiv@b+1,?___fldiv+1
  4187  00130C  C018  F018         	movff	___fldiv@b+2,?___fldiv+2
  4188  001310  C019  F019         	movff	___fldiv@b+3,?___fldiv+3
  4189  001314  EF01  F00B         	goto	l991
  4190  001318                     l4134:
  4191  001318  FFFF               	dw	65535	; assembler added errata NOP
  4192  00131A  502D               	movf	___fldiv@bexp^0,w,c
  4193  00131C  A4D8               	btfss	status,2,c
  4194  00131E  EF93  F009         	goto	u4621
  4195  001322  EF96  F009         	goto	u4620
  4196  001326                     u4621:
  4197  001326  FFFF               	dw	65535	; assembler added errata NOP
  4198  001328  EFA1  F009         	goto	l4142
  4199  00132C                     u4620:
  4200  00132C  FFFF               	dw	65535	; assembler added errata NOP
  4201  00132E  0E00               	movlw	0
  4202  001330  6E16               	movwf	?___fldiv^0,c
  4203  001332  0E00               	movlw	0
  4204  001334  6E17               	movwf	(?___fldiv+1)^0,c
  4205  001336  0E00               	movlw	0
  4206  001338  6E18               	movwf	(?___fldiv+2)^0,c
  4207  00133A  0E00               	movlw	0
  4208  00133C  6E19               	movwf	(?___fldiv+3)^0,c
  4209  00133E  EF01  F00B         	goto	l991
  4210  001342                     l4142:
  4211  001342  FFFF               	dw	65535	; assembler added errata NOP
  4212  001344  502E               	movf	___fldiv@aexp^0,w,c
  4213  001346  C02D  F01E         	movff	___fldiv@bexp,??___fldiv
  4214  00134A  6A1F               	clrf	(??___fldiv+1)^0,c
  4215  00134C  5E1E               	subwf	??___fldiv^0,f,c
  4216  00134E  0E00               	movlw	0
  4217  001350  5A1F               	subwfb	(??___fldiv+1)^0,f,c
  4218  001352  0E7F               	movlw	127
  4219  001354  241E               	addwf	??___fldiv^0,w,c
  4220  001356  6E27               	movwf	___fldiv@new_exp^0,c
  4221  001358  0E00               	movlw	0
  4222  00135A  201F               	addwfc	(??___fldiv+1)^0,w,c
  4223  00135C  6E28               	movwf	(___fldiv@new_exp+1)^0,c
  4224  00135E  C016  F022         	movff	___fldiv@b,___fldiv@rem
  4225  001362  C017  F023         	movff	___fldiv@b+1,___fldiv@rem+1
  4226  001366  C018  F024         	movff	___fldiv@b+2,___fldiv@rem+2
  4227  00136A  C019  F025         	movff	___fldiv@b+3,___fldiv@rem+3
  4228  00136E  0E00               	movlw	0
  4229  001370  6E16               	movwf	___fldiv@b^0,c
  4230  001372  0E00               	movlw	0
  4231  001374  6E17               	movwf	(___fldiv@b+1)^0,c
  4232  001376  0E00               	movlw	0
  4233  001378  6E18               	movwf	(___fldiv@b+2)^0,c
  4234  00137A  0E00               	movlw	0
  4235  00137C  6E19               	movwf	(___fldiv@b+3)^0,c
  4236  00137E  0E00               	movlw	0
  4237  001380  6E29               	movwf	___fldiv@grs^0,c
  4238  001382  0E00               	movlw	0
  4239  001384  6E2A               	movwf	(___fldiv@grs+1)^0,c
  4240  001386  0E00               	movlw	0
  4241  001388  6E2B               	movwf	(___fldiv@grs+2)^0,c
  4242  00138A  0E00               	movlw	0
  4243  00138C  6E2C               	movwf	(___fldiv@grs+3)^0,c
  4244  00138E  0E00               	movlw	0
  4245  001390  6E2E               	movwf	___fldiv@aexp^0,c
  4246  001392  EF0D  F00A         	goto	l993
  4247  001396                     l4152:
  4248  001396  FFFF               	dw	65535	; assembler added errata NOP
  4249  001398  502E               	movf	___fldiv@aexp^0,w,c
  4250  00139A  B4D8               	btfsc	status,2,c
  4251  00139C  EFD2  F009         	goto	u4631
  4252  0013A0  EFD5  F009         	goto	u4630
  4253  0013A4                     u4631:
  4254  0013A4  FFFF               	dw	65535	; assembler added errata NOP
  4255  0013A6  EFF0  F009         	goto	l4160
  4256  0013AA                     u4630:
  4257  0013AA  FFFF               	dw	65535	; assembler added errata NOP
  4258  0013AC  90D8               	bcf	status,0,c
  4259  0013AE  3622               	rlcf	___fldiv@rem^0,f,c
  4260  0013B0  3623               	rlcf	(___fldiv@rem+1)^0,f,c
  4261  0013B2  3624               	rlcf	(___fldiv@rem+2)^0,f,c
  4262  0013B4  3625               	rlcf	(___fldiv@rem+3)^0,f,c
  4263  0013B6  90D8               	bcf	status,0,c
  4264  0013B8  3616               	rlcf	___fldiv@b^0,f,c
  4265  0013BA  3617               	rlcf	(___fldiv@b+1)^0,f,c
  4266  0013BC  3618               	rlcf	(___fldiv@b+2)^0,f,c
  4267  0013BE  3619               	rlcf	(___fldiv@b+3)^0,f,c
  4268  0013C0  AE2C               	btfss	(___fldiv@grs+3)^0,7,c
  4269  0013C2  EFE5  F009         	goto	u4641
  4270  0013C6  EFE8  F009         	goto	u4640
  4271  0013CA                     u4641:
  4272  0013CA  FFFF               	dw	65535	; assembler added errata NOP
  4273  0013CC  EFEA  F009         	goto	l996
  4274  0013D0                     u4640:
  4275  0013D0  FFFF               	dw	65535	; assembler added errata NOP
  4276  0013D2  8016               	bsf	___fldiv@b^0,0,c
  4277  0013D4                     l996:
  4278  0013D4  FFFF               	dw	65535	; assembler added errata NOP
  4279  0013D6  90D8               	bcf	status,0,c
  4280  0013D8  3629               	rlcf	___fldiv@grs^0,f,c
  4281  0013DA  362A               	rlcf	(___fldiv@grs+1)^0,f,c
  4282  0013DC  362B               	rlcf	(___fldiv@grs+2)^0,f,c
  4283  0013DE  362C               	rlcf	(___fldiv@grs+3)^0,f,c
  4284  0013E0                     l4160:
  4285  0013E0  FFFF               	dw	65535	; assembler added errata NOP
  4286  0013E2  501A               	movf	___fldiv@a^0,w,c
  4287  0013E4  5C22               	subwf	___fldiv@rem^0,w,c
  4288  0013E6  501B               	movf	(___fldiv@a+1)^0,w,c
  4289  0013E8  5823               	subwfb	(___fldiv@rem+1)^0,w,c
  4290  0013EA  501C               	movf	(___fldiv@a+2)^0,w,c
  4291  0013EC  5824               	subwfb	(___fldiv@rem+2)^0,w,c
  4292  0013EE  501D               	movf	(___fldiv@a+3)^0,w,c
  4293  0013F0  5825               	subwfb	(___fldiv@rem+3)^0,w,c
  4294  0013F2  A0D8               	btfss	status,0,c
  4295  0013F4  EFFE  F009         	goto	u4651
  4296  0013F8  EF01  F00A         	goto	u4650
  4297  0013FC                     u4651:
  4298  0013FC  FFFF               	dw	65535	; assembler added errata NOP
  4299  0013FE  EF0B  F00A         	goto	l4166
  4300  001402                     u4650:
  4301  001402  FFFF               	dw	65535	; assembler added errata NOP
  4302  001404  8C2C               	bsf	(___fldiv@grs+3)^0,6,c
  4303  001406  501A               	movf	___fldiv@a^0,w,c
  4304  001408  5E22               	subwf	___fldiv@rem^0,f,c
  4305  00140A  501B               	movf	(___fldiv@a+1)^0,w,c
  4306  00140C  5A23               	subwfb	(___fldiv@rem+1)^0,f,c
  4307  00140E  501C               	movf	(___fldiv@a+2)^0,w,c
  4308  001410  5A24               	subwfb	(___fldiv@rem+2)^0,f,c
  4309  001412  501D               	movf	(___fldiv@a+3)^0,w,c
  4310  001414  5A25               	subwfb	(___fldiv@rem+3)^0,f,c
  4311  001416                     l4166:
  4312  001416  FFFF               	dw	65535	; assembler added errata NOP
  4313  001418  2A2E               	incf	___fldiv@aexp^0,f,c
  4314  00141A                     l993:
  4315  00141A  FFFF               	dw	65535	; assembler added errata NOP
  4316  00141C  0E19               	movlw	25
  4317  00141E  642E               	cpfsgt	___fldiv@aexp^0,c
  4318  001420  EF14  F00A         	goto	u4661
  4319  001424  EF17  F00A         	goto	u4660
  4320  001428                     u4661:
  4321  001428  FFFF               	dw	65535	; assembler added errata NOP
  4322  00142A  EFCB  F009         	goto	l4152
  4323  00142E                     u4660:
  4324  00142E  FFFF               	dw	65535	; assembler added errata NOP
  4325  001430  5022               	movf	___fldiv@rem^0,w,c
  4326  001432  1023               	iorwf	(___fldiv@rem+1)^0,w,c
  4327  001434  1024               	iorwf	(___fldiv@rem+2)^0,w,c
  4328  001436  1025               	iorwf	(___fldiv@rem+3)^0,w,c
  4329  001438  B4D8               	btfsc	status,2,c
  4330  00143A  EF21  F00A         	goto	u4671
  4331  00143E  EF24  F00A         	goto	u4670
  4332  001442                     u4671:
  4333  001442  FFFF               	dw	65535	; assembler added errata NOP
  4334  001444  EF41  F00A         	goto	l4178
  4335  001448                     u4670:
  4336  001448  FFFF               	dw	65535	; assembler added errata NOP
  4337  00144A  8029               	bsf	___fldiv@grs^0,0,c
  4338  00144C  EF41  F00A         	goto	l4178
  4339  001450                     l4172:
  4340  001450  FFFF               	dw	65535	; assembler added errata NOP
  4341  001452  90D8               	bcf	status,0,c
  4342  001454  3616               	rlcf	___fldiv@b^0,f,c
  4343  001456  3617               	rlcf	(___fldiv@b+1)^0,f,c
  4344  001458  3618               	rlcf	(___fldiv@b+2)^0,f,c
  4345  00145A  3619               	rlcf	(___fldiv@b+3)^0,f,c
  4346  00145C  AE2C               	btfss	(___fldiv@grs+3)^0,7,c
  4347  00145E  EF33  F00A         	goto	u4681
  4348  001462  EF36  F00A         	goto	u4680
  4349  001466                     u4681:
  4350  001466  FFFF               	dw	65535	; assembler added errata NOP
  4351  001468  EF38  F00A         	goto	l1002
  4352  00146C                     u4680:
  4353  00146C  FFFF               	dw	65535	; assembler added errata NOP
  4354  00146E  8016               	bsf	___fldiv@b^0,0,c
  4355  001470                     l1002:
  4356  001470  FFFF               	dw	65535	; assembler added errata NOP
  4357  001472  90D8               	bcf	status,0,c
  4358  001474  3629               	rlcf	___fldiv@grs^0,f,c
  4359  001476  362A               	rlcf	(___fldiv@grs+1)^0,f,c
  4360  001478  362B               	rlcf	(___fldiv@grs+2)^0,f,c
  4361  00147A  362C               	rlcf	(___fldiv@grs+3)^0,f,c
  4362  00147C  0627               	decf	___fldiv@new_exp^0,f,c
  4363  00147E  A0D8               	btfss	status,0,c
  4364  001480  0628               	decf	(___fldiv@new_exp+1)^0,f,c
  4365  001482                     l4178:
  4366  001482  FFFF               	dw	65535	; assembler added errata NOP
  4367  001484  AE18               	btfss	(___fldiv@b+2)^0,7,c
  4368  001486  EF47  F00A         	goto	u4691
  4369  00148A  EF4A  F00A         	goto	u4690
  4370  00148E                     u4691:
  4371  00148E  FFFF               	dw	65535	; assembler added errata NOP
  4372  001490  EF28  F00A         	goto	l4172
  4373  001494                     u4690:
  4374  001494  FFFF               	dw	65535	; assembler added errata NOP
  4375  001496  0E00               	movlw	0
  4376  001498  6E2E               	movwf	___fldiv@aexp^0,c
  4377  00149A  AE2C               	btfss	(___fldiv@grs+3)^0,7,c
  4378  00149C  EF52  F00A         	goto	u4701
  4379  0014A0  EF55  F00A         	goto	u4700
  4380  0014A4                     u4701:
  4381  0014A4  FFFF               	dw	65535	; assembler added errata NOP
  4382  0014A6  EF80  F00A         	goto	l1004
  4383  0014AA                     u4700:
  4384  0014AA  FFFF               	dw	65535	; assembler added errata NOP
  4385  0014AC  0EFF               	movlw	255
  4386  0014AE  1429               	andwf	___fldiv@grs^0,w,c
  4387  0014B0  6E1E               	movwf	??___fldiv^0,c
  4388  0014B2  0EFF               	movlw	255
  4389  0014B4  142A               	andwf	(___fldiv@grs+1)^0,w,c
  4390  0014B6  6E1F               	movwf	(??___fldiv+1)^0,c
  4391  0014B8  0EFF               	movlw	255
  4392  0014BA  142B               	andwf	(___fldiv@grs+2)^0,w,c
  4393  0014BC  6E20               	movwf	(??___fldiv+2)^0,c
  4394  0014BE  0E7F               	movlw	127
  4395  0014C0  142C               	andwf	(___fldiv@grs+3)^0,w,c
  4396  0014C2  6E21               	movwf	(??___fldiv+3)^0,c
  4397  0014C4  501E               	movf	??___fldiv^0,w,c
  4398  0014C6  101F               	iorwf	(??___fldiv+1)^0,w,c
  4399  0014C8  1020               	iorwf	(??___fldiv+2)^0,w,c
  4400  0014CA  1021               	iorwf	(??___fldiv+3)^0,w,c
  4401  0014CC  B4D8               	btfsc	status,2,c
  4402  0014CE  EF6B  F00A         	goto	u4711
  4403  0014D2  EF6E  F00A         	goto	u4710
  4404  0014D6                     u4711:
  4405  0014D6  FFFF               	dw	65535	; assembler added errata NOP
  4406  0014D8  EF74  F00A         	goto	l1005
  4407  0014DC                     u4710:
  4408  0014DC  FFFF               	dw	65535	; assembler added errata NOP
  4409  0014DE                     l4186:
  4410  0014DE  FFFF               	dw	65535	; assembler added errata NOP
  4411  0014E0  0E01               	movlw	1
  4412  0014E2  6E2E               	movwf	___fldiv@aexp^0,c
  4413  0014E4  EF80  F00A         	goto	l1004
  4414  0014E8                     l1005:
  4415  0014E8  FFFF               	dw	65535	; assembler added errata NOP
  4416  0014EA  A016               	btfss	___fldiv@b^0,0,c
  4417  0014EC  EF7A  F00A         	goto	u4721
  4418  0014F0  EF7D  F00A         	goto	u4720
  4419  0014F4                     u4721:
  4420  0014F4  FFFF               	dw	65535	; assembler added errata NOP
  4421  0014F6  EF80  F00A         	goto	l1004
  4422  0014FA                     u4720:
  4423  0014FA  FFFF               	dw	65535	; assembler added errata NOP
  4424  0014FC  EF6F  F00A         	goto	l4186
  4425  001500                     l1004:
  4426  001500  FFFF               	dw	65535	; assembler added errata NOP
  4427  001502  502E               	movf	___fldiv@aexp^0,w,c
  4428  001504  B4D8               	btfsc	status,2,c
  4429  001506  EF87  F00A         	goto	u4731
  4430  00150A  EF8A  F00A         	goto	u4730
  4431  00150E                     u4731:
  4432  00150E  FFFF               	dw	65535	; assembler added errata NOP
  4433  001510  EFB1  F00A         	goto	l4198
  4434  001514                     u4730:
  4435  001514  FFFF               	dw	65535	; assembler added errata NOP
  4436  001516  0E01               	movlw	1
  4437  001518  2616               	addwf	___fldiv@b^0,f,c
  4438  00151A  0E00               	movlw	0
  4439  00151C  2217               	addwfc	(___fldiv@b+1)^0,f,c
  4440  00151E  2218               	addwfc	(___fldiv@b+2)^0,f,c
  4441  001520  2219               	addwfc	(___fldiv@b+3)^0,f,c
  4442  001522  A019               	btfss	(___fldiv@b+3)^0,0,c
  4443  001524  EF96  F00A         	goto	u4741
  4444  001528  EF99  F00A         	goto	u4740
  4445  00152C                     u4741:
  4446  00152C  FFFF               	dw	65535	; assembler added errata NOP
  4447  00152E  EFB1  F00A         	goto	l4198
  4448  001532                     u4740:
  4449  001532  FFFF               	dw	65535	; assembler added errata NOP
  4450  001534  C016  F01E         	movff	___fldiv@b,??___fldiv
  4451  001538  C017  F01F         	movff	___fldiv@b+1,??___fldiv+1
  4452  00153C  C018  F020         	movff	___fldiv@b+2,??___fldiv+2
  4453  001540  C019  F021         	movff	___fldiv@b+3,??___fldiv+3
  4454  001544  3421               	rlcf	(??___fldiv+3)^0,w,c
  4455  001546  3221               	rrcf	(??___fldiv+3)^0,f,c
  4456  001548  3220               	rrcf	(??___fldiv+2)^0,f,c
  4457  00154A  321F               	rrcf	(??___fldiv+1)^0,f,c
  4458  00154C  321E               	rrcf	??___fldiv^0,f,c
  4459  00154E  C01E  F016         	movff	??___fldiv,___fldiv@b
  4460  001552  C01F  F017         	movff	??___fldiv+1,___fldiv@b+1
  4461  001556  C020  F018         	movff	??___fldiv+2,___fldiv@b+2
  4462  00155A  C021  F019         	movff	??___fldiv+3,___fldiv@b+3
  4463  00155E  4A27               	infsnz	___fldiv@new_exp^0,f,c
  4464  001560  2A28               	incf	(___fldiv@new_exp+1)^0,f,c
  4465  001562                     l4198:
  4466  001562  FFFF               	dw	65535	; assembler added errata NOP
  4467  001564  BE28               	btfsc	(___fldiv@new_exp+1)^0,7,c
  4468  001566  EFBD  F00A         	goto	u4751
  4469  00156A  5028               	movf	(___fldiv@new_exp+1)^0,w,c
  4470  00156C  E109               	bnz	u4750
  4471  00156E  2827               	incf	___fldiv@new_exp^0,w,c
  4472  001570  A0D8               	btfss	status,0,c
  4473  001572  EFBD  F00A         	goto	u4751
  4474  001576  EFC0  F00A         	goto	u4750
  4475  00157A                     u4751:
  4476  00157A  FFFF               	dw	65535	; assembler added errata NOP
  4477  00157C  EFCC  F00A         	goto	l4202
  4478  001580                     u4750:
  4479  001580  FFFF               	dw	65535	; assembler added errata NOP
  4480  001582  0E00               	movlw	0
  4481  001584  6E28               	movwf	(___fldiv@new_exp+1)^0,c
  4482  001586  6827               	setf	___fldiv@new_exp^0,c
  4483  001588  0E00               	movlw	0
  4484  00158A  6E16               	movwf	___fldiv@b^0,c
  4485  00158C  0E00               	movlw	0
  4486  00158E  6E17               	movwf	(___fldiv@b+1)^0,c
  4487  001590  0E00               	movlw	0
  4488  001592  6E18               	movwf	(___fldiv@b+2)^0,c
  4489  001594  0E00               	movlw	0
  4490  001596  6E19               	movwf	(___fldiv@b+3)^0,c
  4491  001598                     l4202:
  4492  001598  FFFF               	dw	65535	; assembler added errata NOP
  4493  00159A  BE28               	btfsc	(___fldiv@new_exp+1)^0,7,c
  4494  00159C  EFDB  F00A         	goto	u4760
  4495  0015A0  5028               	movf	(___fldiv@new_exp+1)^0,w,c
  4496  0015A2  E106               	bnz	u4761
  4497  0015A4  0427               	decf	___fldiv@new_exp^0,w,c
  4498  0015A6  B0D8               	btfsc	status,0,c
  4499  0015A8  EFD8  F00A         	goto	u4761
  4500  0015AC  EFDB  F00A         	goto	u4760
  4501  0015B0                     u4761:
  4502  0015B0  FFFF               	dw	65535	; assembler added errata NOP
  4503  0015B2  EFEA  F00A         	goto	l4206
  4504  0015B6                     u4760:
  4505  0015B6  FFFF               	dw	65535	; assembler added errata NOP
  4506  0015B8  0E00               	movlw	0
  4507  0015BA  6E28               	movwf	(___fldiv@new_exp+1)^0,c
  4508  0015BC  0E00               	movlw	0
  4509  0015BE  6E27               	movwf	___fldiv@new_exp^0,c
  4510  0015C0  0E00               	movlw	0
  4511  0015C2  6E16               	movwf	___fldiv@b^0,c
  4512  0015C4  0E00               	movlw	0
  4513  0015C6  6E17               	movwf	(___fldiv@b+1)^0,c
  4514  0015C8  0E00               	movlw	0
  4515  0015CA  6E18               	movwf	(___fldiv@b+2)^0,c
  4516  0015CC  0E00               	movlw	0
  4517  0015CE  6E19               	movwf	(___fldiv@b+3)^0,c
  4518  0015D0  0E00               	movlw	0
  4519  0015D2  6E26               	movwf	___fldiv@sign^0,c
  4520  0015D4                     l4206:
  4521  0015D4  FFFF               	dw	65535	; assembler added errata NOP
  4522  0015D6  C027  F02D         	movff	___fldiv@new_exp,___fldiv@bexp
  4523  0015DA  A02D               	btfss	___fldiv@bexp^0,0,c
  4524  0015DC  EFF2  F00A         	goto	u4771
  4525  0015E0  EFF5  F00A         	goto	u4770
  4526  0015E4                     u4771:
  4527  0015E4  FFFF               	dw	65535	; assembler added errata NOP
  4528  0015E6  EFF9  F00A         	goto	l4212
  4529  0015EA                     u4770:
  4530  0015EA  FFFF               	dw	65535	; assembler added errata NOP
  4531  0015EC  8E18               	bsf	(___fldiv@b+2)^0,7,c
  4532  0015EE  EFFB  F00A         	goto	l4214
  4533  0015F2                     l4212:
  4534  0015F2  FFFF               	dw	65535	; assembler added errata NOP
  4535  0015F4  9E18               	bcf	(___fldiv@b+2)^0,7,c
  4536  0015F6                     l4214:
  4537  0015F6  FFFF               	dw	65535	; assembler added errata NOP
  4538  0015F8  90D8               	bcf	status,0,c
  4539  0015FA  302D               	rrcf	___fldiv@bexp^0,w,c
  4540  0015FC  6E19               	movwf	(___fldiv@b+3)^0,c
  4541  0015FE  EF7F  F009         	goto	l4128
  4542  001602                     l991:
  4543  001602  FFFF               	dw	65535	; assembler added errata NOP
  4544  001604  0012               	return		;funcret
  4545  001606  FFFF               	dw	65535	; errata NOP
  4546  001608                     __end_of___fldiv:
  4547                           	callstack 0
  4548                           
  4549 ;; *************** function _Z_axis *****************
  4550 ;; Defined at:
  4551 ;;		line 445 in file "main.c"
  4552 ;; Parameters:    Size  Location     Type
  4553 ;;  direction       1    wreg     unsigned char 
  4554 ;; Auto vars:     Size  Location     Type
  4555 ;;  direction       1   13[COMRAM] unsigned char 
  4556 ;; Return value:  Size  Location     Type
  4557 ;;                  1    wreg      void 
  4558 ;; Registers used:
  4559 ;;		wreg, status,2, status,0, cstack
  4560 ;; Tracked objects:
  4561 ;;		On entry : 0/0
  4562 ;;		On exit  : 0/0
  4563 ;;		Unchanged: 0/0
  4564 ;; Data sizes:     COMRAM   BANK0   BANK1   BANK2   BANK3   BANK4   BANK5
  4565 ;;      Params:         0       0       0       0       0       0       0
  4566 ;;      Locals:         1       0       0       0       0       0       0
  4567 ;;      Temps:          0       0       0       0       0       0       0
  4568 ;;      Totals:         1       0       0       0       0       0       0
  4569 ;;Total ram usage:        1 bytes
  4570 ;; Hardware stack levels used: 1
  4571 ;; Hardware stack levels required when called: 2
  4572 ;; This function calls:
  4573 ;;		_ms_delay
  4574 ;; This function is called by:
  4575 ;;		_pick_and_place
  4576 ;;		_return_to_initial
  4577 ;;		_Z_axis_and_Tweezer
  4578 ;; This function uses a non-reentrant model
  4579 ;;
  4580                           
  4581                           	psect	text11
  4582  0027C0                     __ptext11:
  4583                           	callstack 0
  4584  0027C0                     _Z_axis:
  4585                           	callstack 0
  4586  0027C0  FFFF               	dw	65535	; assembler added errata NOP
  4587                           
  4588                           ;incstack = 0
  4589                           ;Z_axis@direction stored from wreg
  4590  0027C2  6E0E               	movwf	Z_axis@direction^0,c
  4591  0027C4                     
  4592                           ;main.c: 446:     if(!New_char_RX){
  4593  0027C4  5074               	movf	_New_char_RX^0,w,c
  4594  0027C6  A4D8               	btfss	status,2,c
  4595  0027C8  EFE8  F013         	goto	u4451
  4596  0027CC  EFEB  F013         	goto	u4450
  4597  0027D0                     u4451:
  4598  0027D0  FFFF               	dw	65535	; assembler added errata NOP
  4599  0027D2  EF53  F014         	goto	l4034
  4600  0027D6                     u4450:
  4601  0027D6  FFFF               	dw	65535	; assembler added errata NOP
  4602  0027D8                     
  4603                           ;main.c: 447:     if (direction == 0){
  4604  0027D8  500E               	movf	Z_axis@direction^0,w,c
  4605  0027DA  A4D8               	btfss	status,2,c
  4606  0027DC  EFF2  F013         	goto	u4461
  4607  0027E0  EFF5  F013         	goto	u4460
  4608  0027E4                     u4461:
  4609  0027E4  FFFF               	dw	65535	; assembler added errata NOP
  4610  0027E6  EF1E  F014         	goto	l4018
  4611  0027EA                     u4460:
  4612  0027EA  FFFF               	dw	65535	; assembler added errata NOP
  4613  0027EC                     
  4614                           ;main.c: 448:         PORTD = 0b00000011;
  4615  0027EC  0E03               	movlw	3
  4616  0027EE  6E83               	movwf	131,c	;volatile
  4617  0027F0                     
  4618                           ;main.c: 449:         ms_delay(1);
  4619  0027F0  0E00               	movlw	0
  4620  0027F2  6E09               	movwf	(ms_delay@val+1)^0,c
  4621  0027F4  0E01               	movlw	1
  4622  0027F6  6E08               	movwf	ms_delay@val^0,c
  4623  0027F8  EC2A  F017         	call	_ms_delay	;wreg free
  4624  0027FC                     
  4625                           ;main.c: 450:         PORTD = 0b00000110;
  4626  0027FC  0E06               	movlw	6
  4627  0027FE  6E83               	movwf	131,c	;volatile
  4628                           
  4629                           ;main.c: 451:         ms_delay(1);
  4630  002800  0E00               	movlw	0
  4631  002802  6E09               	movwf	(ms_delay@val+1)^0,c
  4632  002804  0E01               	movlw	1
  4633  002806  6E08               	movwf	ms_delay@val^0,c
  4634  002808  EC2A  F017         	call	_ms_delay	;wreg free
  4635  00280C                     
  4636                           ;main.c: 452:         PORTD = 0b00001100;
  4637  00280C  0E0C               	movlw	12
  4638  00280E  6E83               	movwf	131,c	;volatile
  4639  002810                     
  4640                           ;main.c: 453:         ms_delay(1);
  4641  002810  0E00               	movlw	0
  4642  002812  6E09               	movwf	(ms_delay@val+1)^0,c
  4643  002814  0E01               	movlw	1
  4644  002816  6E08               	movwf	ms_delay@val^0,c
  4645  002818  EC2A  F017         	call	_ms_delay	;wreg free
  4646                           
  4647                           ;main.c: 454:         PORTD = 0b00001001;
  4648  00281C  0E09               	movlw	9
  4649  00281E  6E83               	movwf	131,c	;volatile
  4650  002820                     
  4651                           ;main.c: 455:         ms_delay(1);
  4652  002820  0E00               	movlw	0
  4653  002822  6E09               	movwf	(ms_delay@val+1)^0,c
  4654  002824  0E01               	movlw	1
  4655  002826  6E08               	movwf	ms_delay@val^0,c
  4656  002828  EC2A  F017         	call	_ms_delay	;wreg free
  4657  00282C                     
  4658                           ;main.c: 456:         PORTD = 0b00000011;
  4659  00282C  0E03               	movlw	3
  4660  00282E  6E83               	movwf	131,c	;volatile
  4661                           
  4662                           ;main.c: 457:         ms_delay(1);
  4663  002830  0E00               	movlw	0
  4664  002832  6E09               	movwf	(ms_delay@val+1)^0,c
  4665  002834  0E01               	movlw	1
  4666  002836  6E08               	movwf	ms_delay@val^0,c
  4667  002838  EC2A  F017         	call	_ms_delay	;wreg free
  4668  00283C                     l4018:
  4669  00283C  FFFF               	dw	65535	; assembler added errata NOP
  4670                           
  4671                           ;main.c: 459:     if (direction == 1){
  4672  00283E  040E               	decf	Z_axis@direction^0,w,c
  4673  002840  A4D8               	btfss	status,2,c
  4674  002842  EF25  F014         	goto	u4471
  4675  002846  EF28  F014         	goto	u4470
  4676  00284A                     u4471:
  4677  00284A  FFFF               	dw	65535	; assembler added errata NOP
  4678  00284C  EF56  F014         	goto	l282
  4679  002850                     u4470:
  4680  002850  FFFF               	dw	65535	; assembler added errata NOP
  4681  002852                     
  4682                           ;main.c: 460:         PORTD = 0b00001001;
  4683  002852  0E09               	movlw	9
  4684  002854  6E83               	movwf	131,c	;volatile
  4685  002856                     
  4686                           ;main.c: 461:         ms_delay(1);
  4687  002856  0E00               	movlw	0
  4688  002858  6E09               	movwf	(ms_delay@val+1)^0,c
  4689  00285A  0E01               	movlw	1
  4690  00285C  6E08               	movwf	ms_delay@val^0,c
  4691  00285E  EC2A  F017         	call	_ms_delay	;wreg free
  4692  002862                     
  4693                           ;main.c: 462:         PORTD = 0b00001100;
  4694  002862  0E0C               	movlw	12
  4695  002864  6E83               	movwf	131,c	;volatile
  4696                           
  4697                           ;main.c: 463:         ms_delay(1);
  4698  002866  0E00               	movlw	0
  4699  002868  6E09               	movwf	(ms_delay@val+1)^0,c
  4700  00286A  0E01               	movlw	1
  4701  00286C  6E08               	movwf	ms_delay@val^0,c
  4702  00286E  EC2A  F017         	call	_ms_delay	;wreg free
  4703  002872                     
  4704                           ;main.c: 464:         PORTD = 0b00000110;
  4705  002872  0E06               	movlw	6
  4706  002874  6E83               	movwf	131,c	;volatile
  4707  002876                     
  4708                           ;main.c: 465:         ms_delay(1);
  4709  002876  0E00               	movlw	0
  4710  002878  6E09               	movwf	(ms_delay@val+1)^0,c
  4711  00287A  0E01               	movlw	1
  4712  00287C  6E08               	movwf	ms_delay@val^0,c
  4713  00287E  EC2A  F017         	call	_ms_delay	;wreg free
  4714                           
  4715                           ;main.c: 466:         PORTD = 0b00000011;
  4716  002882  0E03               	movlw	3
  4717  002884  6E83               	movwf	131,c	;volatile
  4718  002886                     
  4719                           ;main.c: 467:         ms_delay(1);
  4720  002886  0E00               	movlw	0
  4721  002888  6E09               	movwf	(ms_delay@val+1)^0,c
  4722  00288A  0E01               	movlw	1
  4723  00288C  6E08               	movwf	ms_delay@val^0,c
  4724  00288E  EC2A  F017         	call	_ms_delay	;wreg free
  4725  002892                     
  4726                           ;main.c: 468:         PORTD = 0b00001001;
  4727  002892  0E09               	movlw	9
  4728  002894  6E83               	movwf	131,c	;volatile
  4729                           
  4730                           ;main.c: 469:         ms_delay(1);
  4731  002896  0E00               	movlw	0
  4732  002898  6E09               	movwf	(ms_delay@val+1)^0,c
  4733  00289A  0E01               	movlw	1
  4734  00289C  6E08               	movwf	ms_delay@val^0,c
  4735  00289E  EC2A  F017         	call	_ms_delay	;wreg free
  4736  0028A2  EF56  F014         	goto	l282
  4737  0028A6                     l4034:
  4738  0028A6  FFFF               	dw	65535	; assembler added errata NOP
  4739                           
  4740                           ;main.c: 472:         stop=1;
  4741  0028A8  0E01               	movlw	1
  4742  0028AA  6E73               	movwf	_stop^0,c
  4743  0028AC                     l282:
  4744  0028AC  FFFF               	dw	65535	; assembler added errata NOP
  4745  0028AE  0012               	return		;funcret
  4746  0028B0  FFFF               	dw	65535	; errata NOP
  4747  0028B2                     __end_of_Z_axis:
  4748                           	callstack 0
  4749                           
  4750 ;; *************** function _Y_axis *****************
  4751 ;; Defined at:
  4752 ;;		line 414 in file "main.c"
  4753 ;; Parameters:    Size  Location     Type
  4754 ;;  direction       1    wreg     unsigned char 
  4755 ;; Auto vars:     Size  Location     Type
  4756 ;;  direction       1   13[COMRAM] unsigned char 
  4757 ;; Return value:  Size  Location     Type
  4758 ;;                  1    wreg      void 
  4759 ;; Registers used:
  4760 ;;		wreg, status,2, status,0, cstack
  4761 ;; Tracked objects:
  4762 ;;		On entry : 0/0
  4763 ;;		On exit  : 0/0
  4764 ;;		Unchanged: 0/0
  4765 ;; Data sizes:     COMRAM   BANK0   BANK1   BANK2   BANK3   BANK4   BANK5
  4766 ;;      Params:         0       0       0       0       0       0       0
  4767 ;;      Locals:         1       0       0       0       0       0       0
  4768 ;;      Temps:          0       0       0       0       0       0       0
  4769 ;;      Totals:         1       0       0       0       0       0       0
  4770 ;;Total ram usage:        1 bytes
  4771 ;; Hardware stack levels used: 1
  4772 ;; Hardware stack levels required when called: 2
  4773 ;; This function calls:
  4774 ;;		_ms_delay
  4775 ;; This function is called by:
  4776 ;;		_pick_and_place
  4777 ;;		_return_to_initial
  4778 ;; This function uses a non-reentrant model
  4779 ;;
  4780                           
  4781                           	psect	text12
  4782  0028B2                     __ptext12:
  4783                           	callstack 0
  4784  0028B2                     _Y_axis:
  4785                           	callstack 0
  4786  0028B2  FFFF               	dw	65535	; assembler added errata NOP
  4787                           
  4788                           ;incstack = 0
  4789                           ;Y_axis@direction stored from wreg
  4790  0028B4  6E0E               	movwf	Y_axis@direction^0,c
  4791  0028B6                     
  4792                           ;main.c: 415:     if(!New_char_RX){
  4793  0028B6  5074               	movf	_New_char_RX^0,w,c
  4794  0028B8  A4D8               	btfss	status,2,c
  4795  0028BA  EF61  F014         	goto	u4421
  4796  0028BE  EF64  F014         	goto	u4420
  4797  0028C2                     u4421:
  4798  0028C2  FFFF               	dw	65535	; assembler added errata NOP
  4799  0028C4  EFCC  F014         	goto	l3998
  4800  0028C8                     u4420:
  4801  0028C8  FFFF               	dw	65535	; assembler added errata NOP
  4802  0028CA                     
  4803                           ;main.c: 416:     if (direction == 0){
  4804  0028CA  500E               	movf	Y_axis@direction^0,w,c
  4805  0028CC  A4D8               	btfss	status,2,c
  4806  0028CE  EF6B  F014         	goto	u4431
  4807  0028D2  EF6E  F014         	goto	u4430
  4808  0028D6                     u4431:
  4809  0028D6  FFFF               	dw	65535	; assembler added errata NOP
  4810  0028D8  EF97  F014         	goto	l3982
  4811  0028DC                     u4430:
  4812  0028DC  FFFF               	dw	65535	; assembler added errata NOP
  4813  0028DE                     
  4814                           ;main.c: 417:         PORTB = 0b00110000;
  4815  0028DE  0E30               	movlw	48
  4816  0028E0  6E81               	movwf	129,c	;volatile
  4817  0028E2                     
  4818                           ;main.c: 418:         ms_delay(1);
  4819  0028E2  0E00               	movlw	0
  4820  0028E4  6E09               	movwf	(ms_delay@val+1)^0,c
  4821  0028E6  0E01               	movlw	1
  4822  0028E8  6E08               	movwf	ms_delay@val^0,c
  4823  0028EA  EC2A  F017         	call	_ms_delay	;wreg free
  4824  0028EE                     
  4825                           ;main.c: 419:         PORTB = 0b01100000;
  4826  0028EE  0E60               	movlw	96
  4827  0028F0  6E81               	movwf	129,c	;volatile
  4828                           
  4829                           ;main.c: 420:         ms_delay(1);
  4830  0028F2  0E00               	movlw	0
  4831  0028F4  6E09               	movwf	(ms_delay@val+1)^0,c
  4832  0028F6  0E01               	movlw	1
  4833  0028F8  6E08               	movwf	ms_delay@val^0,c
  4834  0028FA  EC2A  F017         	call	_ms_delay	;wreg free
  4835  0028FE                     
  4836                           ;main.c: 421:         PORTB = 0b11000000;
  4837  0028FE  0EC0               	movlw	192
  4838  002900  6E81               	movwf	129,c	;volatile
  4839  002902                     
  4840                           ;main.c: 422:         ms_delay(1);
  4841  002902  0E00               	movlw	0
  4842  002904  6E09               	movwf	(ms_delay@val+1)^0,c
  4843  002906  0E01               	movlw	1
  4844  002908  6E08               	movwf	ms_delay@val^0,c
  4845  00290A  EC2A  F017         	call	_ms_delay	;wreg free
  4846                           
  4847                           ;main.c: 423:         PORTB = 0b10010000;
  4848  00290E  0E90               	movlw	144
  4849  002910  6E81               	movwf	129,c	;volatile
  4850  002912                     
  4851                           ;main.c: 424:         ms_delay(1);
  4852  002912  0E00               	movlw	0
  4853  002914  6E09               	movwf	(ms_delay@val+1)^0,c
  4854  002916  0E01               	movlw	1
  4855  002918  6E08               	movwf	ms_delay@val^0,c
  4856  00291A  EC2A  F017         	call	_ms_delay	;wreg free
  4857  00291E                     
  4858                           ;main.c: 425:         PORTB = 0b00110000;
  4859  00291E  0E30               	movlw	48
  4860  002920  6E81               	movwf	129,c	;volatile
  4861                           
  4862                           ;main.c: 426:         ms_delay(1);
  4863  002922  0E00               	movlw	0
  4864  002924  6E09               	movwf	(ms_delay@val+1)^0,c
  4865  002926  0E01               	movlw	1
  4866  002928  6E08               	movwf	ms_delay@val^0,c
  4867  00292A  EC2A  F017         	call	_ms_delay	;wreg free
  4868  00292E                     l3982:
  4869  00292E  FFFF               	dw	65535	; assembler added errata NOP
  4870                           
  4871                           ;main.c: 428:     if (direction == 1){
  4872  002930  040E               	decf	Y_axis@direction^0,w,c
  4873  002932  A4D8               	btfss	status,2,c
  4874  002934  EF9E  F014         	goto	u4441
  4875  002938  EFA1  F014         	goto	u4440
  4876  00293C                     u4441:
  4877  00293C  FFFF               	dw	65535	; assembler added errata NOP
  4878  00293E  EFCF  F014         	goto	l275
  4879  002942                     u4440:
  4880  002942  FFFF               	dw	65535	; assembler added errata NOP
  4881  002944                     
  4882                           ;main.c: 429:         PORTB = 0b10010000;
  4883  002944  0E90               	movlw	144
  4884  002946  6E81               	movwf	129,c	;volatile
  4885  002948                     
  4886                           ;main.c: 430:         ms_delay(1);
  4887  002948  0E00               	movlw	0
  4888  00294A  6E09               	movwf	(ms_delay@val+1)^0,c
  4889  00294C  0E01               	movlw	1
  4890  00294E  6E08               	movwf	ms_delay@val^0,c
  4891  002950  EC2A  F017         	call	_ms_delay	;wreg free
  4892  002954                     
  4893                           ;main.c: 431:         PORTB = 0b11000000;
  4894  002954  0EC0               	movlw	192
  4895  002956  6E81               	movwf	129,c	;volatile
  4896                           
  4897                           ;main.c: 432:         ms_delay(1);
  4898  002958  0E00               	movlw	0
  4899  00295A  6E09               	movwf	(ms_delay@val+1)^0,c
  4900  00295C  0E01               	movlw	1
  4901  00295E  6E08               	movwf	ms_delay@val^0,c
  4902  002960  EC2A  F017         	call	_ms_delay	;wreg free
  4903  002964                     
  4904                           ;main.c: 433:         PORTB = 0b01100000;
  4905  002964  0E60               	movlw	96
  4906  002966  6E81               	movwf	129,c	;volatile
  4907  002968                     
  4908                           ;main.c: 434:         ms_delay(1);
  4909  002968  0E00               	movlw	0
  4910  00296A  6E09               	movwf	(ms_delay@val+1)^0,c
  4911  00296C  0E01               	movlw	1
  4912  00296E  6E08               	movwf	ms_delay@val^0,c
  4913  002970  EC2A  F017         	call	_ms_delay	;wreg free
  4914                           
  4915                           ;main.c: 435:         PORTB = 0b00110000;
  4916  002974  0E30               	movlw	48
  4917  002976  6E81               	movwf	129,c	;volatile
  4918  002978                     
  4919                           ;main.c: 436:         ms_delay(1);
  4920  002978  0E00               	movlw	0
  4921  00297A  6E09               	movwf	(ms_delay@val+1)^0,c
  4922  00297C  0E01               	movlw	1
  4923  00297E  6E08               	movwf	ms_delay@val^0,c
  4924  002980  EC2A  F017         	call	_ms_delay	;wreg free
  4925  002984                     
  4926                           ;main.c: 437:         PORTB = 0b10010000;
  4927  002984  0E90               	movlw	144
  4928  002986  6E81               	movwf	129,c	;volatile
  4929                           
  4930                           ;main.c: 438:         ms_delay(1);
  4931  002988  0E00               	movlw	0
  4932  00298A  6E09               	movwf	(ms_delay@val+1)^0,c
  4933  00298C  0E01               	movlw	1
  4934  00298E  6E08               	movwf	ms_delay@val^0,c
  4935  002990  EC2A  F017         	call	_ms_delay	;wreg free
  4936  002994  EFCF  F014         	goto	l275
  4937  002998                     l3998:
  4938  002998  FFFF               	dw	65535	; assembler added errata NOP
  4939                           
  4940                           ;main.c: 441:         stop=1;
  4941  00299A  0E01               	movlw	1
  4942  00299C  6E73               	movwf	_stop^0,c
  4943  00299E                     l275:
  4944  00299E  FFFF               	dw	65535	; assembler added errata NOP
  4945  0029A0  0012               	return		;funcret
  4946  0029A2  FFFF               	dw	65535	; errata NOP
  4947  0029A4                     __end_of_Y_axis:
  4948                           	callstack 0
  4949                           
  4950 ;; *************** function _X_axis *****************
  4951 ;; Defined at:
  4952 ;;		line 383 in file "main.c"
  4953 ;; Parameters:    Size  Location     Type
  4954 ;;  direction       1    wreg     unsigned char 
  4955 ;; Auto vars:     Size  Location     Type
  4956 ;;  direction       1   13[COMRAM] unsigned char 
  4957 ;; Return value:  Size  Location     Type
  4958 ;;                  1    wreg      void 
  4959 ;; Registers used:
  4960 ;;		wreg, status,2, status,0, cstack
  4961 ;; Tracked objects:
  4962 ;;		On entry : 0/0
  4963 ;;		On exit  : 0/0
  4964 ;;		Unchanged: 0/0
  4965 ;; Data sizes:     COMRAM   BANK0   BANK1   BANK2   BANK3   BANK4   BANK5
  4966 ;;      Params:         0       0       0       0       0       0       0
  4967 ;;      Locals:         1       0       0       0       0       0       0
  4968 ;;      Temps:          0       0       0       0       0       0       0
  4969 ;;      Totals:         1       0       0       0       0       0       0
  4970 ;;Total ram usage:        1 bytes
  4971 ;; Hardware stack levels used: 1
  4972 ;; Hardware stack levels required when called: 2
  4973 ;; This function calls:
  4974 ;;		_ms_delay
  4975 ;; This function is called by:
  4976 ;;		_pick_and_place
  4977 ;;		_return_to_initial
  4978 ;; This function uses a non-reentrant model
  4979 ;;
  4980                           
  4981                           	psect	text13
  4982  0029A4                     __ptext13:
  4983                           	callstack 0
  4984  0029A4                     _X_axis:
  4985                           	callstack 0
  4986  0029A4  FFFF               	dw	65535	; assembler added errata NOP
  4987                           
  4988                           ;incstack = 0
  4989                           ;X_axis@direction stored from wreg
  4990  0029A6  6E0E               	movwf	X_axis@direction^0,c
  4991  0029A8                     
  4992                           ;main.c: 384:     if(!New_char_RX){
  4993  0029A8  5074               	movf	_New_char_RX^0,w,c
  4994  0029AA  A4D8               	btfss	status,2,c
  4995  0029AC  EFDA  F014         	goto	u4391
  4996  0029B0  EFDD  F014         	goto	u4390
  4997  0029B4                     u4391:
  4998  0029B4  FFFF               	dw	65535	; assembler added errata NOP
  4999  0029B6  EF45  F015         	goto	l3962
  5000  0029BA                     u4390:
  5001  0029BA  FFFF               	dw	65535	; assembler added errata NOP
  5002  0029BC                     
  5003                           ;main.c: 385:     if (direction == 0){
  5004  0029BC  500E               	movf	X_axis@direction^0,w,c
  5005  0029BE  A4D8               	btfss	status,2,c
  5006  0029C0  EFE4  F014         	goto	u4401
  5007  0029C4  EFE7  F014         	goto	u4400
  5008  0029C8                     u4401:
  5009  0029C8  FFFF               	dw	65535	; assembler added errata NOP
  5010  0029CA  EF10  F015         	goto	l3946
  5011  0029CE                     u4400:
  5012  0029CE  FFFF               	dw	65535	; assembler added errata NOP
  5013  0029D0                     
  5014                           ;main.c: 386:         PORTB = 0b00000011;
  5015  0029D0  0E03               	movlw	3
  5016  0029D2  6E81               	movwf	129,c	;volatile
  5017  0029D4                     
  5018                           ;main.c: 387:         ms_delay(1);
  5019  0029D4  0E00               	movlw	0
  5020  0029D6  6E09               	movwf	(ms_delay@val+1)^0,c
  5021  0029D8  0E01               	movlw	1
  5022  0029DA  6E08               	movwf	ms_delay@val^0,c
  5023  0029DC  EC2A  F017         	call	_ms_delay	;wreg free
  5024  0029E0                     
  5025                           ;main.c: 388:         PORTB = 0b00000110;
  5026  0029E0  0E06               	movlw	6
  5027  0029E2  6E81               	movwf	129,c	;volatile
  5028                           
  5029                           ;main.c: 389:         ms_delay(1);
  5030  0029E4  0E00               	movlw	0
  5031  0029E6  6E09               	movwf	(ms_delay@val+1)^0,c
  5032  0029E8  0E01               	movlw	1
  5033  0029EA  6E08               	movwf	ms_delay@val^0,c
  5034  0029EC  EC2A  F017         	call	_ms_delay	;wreg free
  5035  0029F0                     
  5036                           ;main.c: 390:         PORTB = 0b00001100;
  5037  0029F0  0E0C               	movlw	12
  5038  0029F2  6E81               	movwf	129,c	;volatile
  5039  0029F4                     
  5040                           ;main.c: 391:         ms_delay(1);
  5041  0029F4  0E00               	movlw	0
  5042  0029F6  6E09               	movwf	(ms_delay@val+1)^0,c
  5043  0029F8  0E01               	movlw	1
  5044  0029FA  6E08               	movwf	ms_delay@val^0,c
  5045  0029FC  EC2A  F017         	call	_ms_delay	;wreg free
  5046                           
  5047                           ;main.c: 392:         PORTB = 0b00001001;
  5048  002A00  0E09               	movlw	9
  5049  002A02  6E81               	movwf	129,c	;volatile
  5050  002A04                     
  5051                           ;main.c: 393:         ms_delay(1);
  5052  002A04  0E00               	movlw	0
  5053  002A06  6E09               	movwf	(ms_delay@val+1)^0,c
  5054  002A08  0E01               	movlw	1
  5055  002A0A  6E08               	movwf	ms_delay@val^0,c
  5056  002A0C  EC2A  F017         	call	_ms_delay	;wreg free
  5057  002A10                     
  5058                           ;main.c: 394:         PORTB = 0b00000011;
  5059  002A10  0E03               	movlw	3
  5060  002A12  6E81               	movwf	129,c	;volatile
  5061                           
  5062                           ;main.c: 395:         ms_delay(1);
  5063  002A14  0E00               	movlw	0
  5064  002A16  6E09               	movwf	(ms_delay@val+1)^0,c
  5065  002A18  0E01               	movlw	1
  5066  002A1A  6E08               	movwf	ms_delay@val^0,c
  5067  002A1C  EC2A  F017         	call	_ms_delay	;wreg free
  5068  002A20                     l3946:
  5069  002A20  FFFF               	dw	65535	; assembler added errata NOP
  5070                           
  5071                           ;main.c: 397:     if (direction == 1){
  5072  002A22  040E               	decf	X_axis@direction^0,w,c
  5073  002A24  A4D8               	btfss	status,2,c
  5074  002A26  EF17  F015         	goto	u4411
  5075  002A2A  EF1A  F015         	goto	u4410
  5076  002A2E                     u4411:
  5077  002A2E  FFFF               	dw	65535	; assembler added errata NOP
  5078  002A30  EF48  F015         	goto	l268
  5079  002A34                     u4410:
  5080  002A34  FFFF               	dw	65535	; assembler added errata NOP
  5081  002A36                     
  5082                           ;main.c: 398:         PORTB = 0b00001001;
  5083  002A36  0E09               	movlw	9
  5084  002A38  6E81               	movwf	129,c	;volatile
  5085  002A3A                     
  5086                           ;main.c: 399:         ms_delay(1);
  5087  002A3A  0E00               	movlw	0
  5088  002A3C  6E09               	movwf	(ms_delay@val+1)^0,c
  5089  002A3E  0E01               	movlw	1
  5090  002A40  6E08               	movwf	ms_delay@val^0,c
  5091  002A42  EC2A  F017         	call	_ms_delay	;wreg free
  5092  002A46                     
  5093                           ;main.c: 400:         PORTB = 0b00001100;
  5094  002A46  0E0C               	movlw	12
  5095  002A48  6E81               	movwf	129,c	;volatile
  5096                           
  5097                           ;main.c: 401:         ms_delay(1);
  5098  002A4A  0E00               	movlw	0
  5099  002A4C  6E09               	movwf	(ms_delay@val+1)^0,c
  5100  002A4E  0E01               	movlw	1
  5101  002A50  6E08               	movwf	ms_delay@val^0,c
  5102  002A52  EC2A  F017         	call	_ms_delay	;wreg free
  5103  002A56                     
  5104                           ;main.c: 402:         PORTB = 0b00000110;
  5105  002A56  0E06               	movlw	6
  5106  002A58  6E81               	movwf	129,c	;volatile
  5107  002A5A                     
  5108                           ;main.c: 403:         ms_delay(1);
  5109  002A5A  0E00               	movlw	0
  5110  002A5C  6E09               	movwf	(ms_delay@val+1)^0,c
  5111  002A5E  0E01               	movlw	1
  5112  002A60  6E08               	movwf	ms_delay@val^0,c
  5113  002A62  EC2A  F017         	call	_ms_delay	;wreg free
  5114                           
  5115                           ;main.c: 404:         PORTB = 0b00000011;
  5116  002A66  0E03               	movlw	3
  5117  002A68  6E81               	movwf	129,c	;volatile
  5118  002A6A                     
  5119                           ;main.c: 405:         ms_delay(1);
  5120  002A6A  0E00               	movlw	0
  5121  002A6C  6E09               	movwf	(ms_delay@val+1)^0,c
  5122  002A6E  0E01               	movlw	1
  5123  002A70  6E08               	movwf	ms_delay@val^0,c
  5124  002A72  EC2A  F017         	call	_ms_delay	;wreg free
  5125  002A76                     
  5126                           ;main.c: 406:         PORTB = 0b00001001;
  5127  002A76  0E09               	movlw	9
  5128  002A78  6E81               	movwf	129,c	;volatile
  5129                           
  5130                           ;main.c: 407:         ms_delay(1);
  5131  002A7A  0E00               	movlw	0
  5132  002A7C  6E09               	movwf	(ms_delay@val+1)^0,c
  5133  002A7E  0E01               	movlw	1
  5134  002A80  6E08               	movwf	ms_delay@val^0,c
  5135  002A82  EC2A  F017         	call	_ms_delay	;wreg free
  5136  002A86  EF48  F015         	goto	l268
  5137  002A8A                     l3962:
  5138  002A8A  FFFF               	dw	65535	; assembler added errata NOP
  5139                           
  5140                           ;main.c: 410:         stop=1;
  5141  002A8C  0E01               	movlw	1
  5142  002A8E  6E73               	movwf	_stop^0,c
  5143  002A90                     l268:
  5144  002A90  FFFF               	dw	65535	; assembler added errata NOP
  5145  002A92  0012               	return		;funcret
  5146  002A94  FFFF               	dw	65535	; errata NOP
  5147  002A96                     __end_of_X_axis:
  5148                           	callstack 0
  5149                           
  5150 ;; *************** function _Twister *****************
  5151 ;; Defined at:
  5152 ;;		line 476 in file "main.c"
  5153 ;; Parameters:    Size  Location     Type
  5154 ;;  direction       1    wreg     unsigned char 
  5155 ;; Auto vars:     Size  Location     Type
  5156 ;;  direction       1   13[COMRAM] unsigned char 
  5157 ;; Return value:  Size  Location     Type
  5158 ;;                  1    wreg      void 
  5159 ;; Registers used:
  5160 ;;		wreg, status,2, status,0, cstack
  5161 ;; Tracked objects:
  5162 ;;		On entry : 0/0
  5163 ;;		On exit  : 0/0
  5164 ;;		Unchanged: 0/0
  5165 ;; Data sizes:     COMRAM   BANK0   BANK1   BANK2   BANK3   BANK4   BANK5
  5166 ;;      Params:         0       0       0       0       0       0       0
  5167 ;;      Locals:         1       0       0       0       0       0       0
  5168 ;;      Temps:          0       0       0       0       0       0       0
  5169 ;;      Totals:         1       0       0       0       0       0       0
  5170 ;;Total ram usage:        1 bytes
  5171 ;; Hardware stack levels used: 1
  5172 ;; Hardware stack levels required when called: 2
  5173 ;; This function calls:
  5174 ;;		_ms_delay
  5175 ;; This function is called by:
  5176 ;;		_pick_and_place
  5177 ;;		_return_to_initial
  5178 ;; This function uses a non-reentrant model
  5179 ;;
  5180                           
  5181                           	psect	text14
  5182  002A96                     __ptext14:
  5183                           	callstack 0
  5184  002A96                     _Twister:
  5185                           	callstack 0
  5186  002A96  FFFF               	dw	65535	; assembler added errata NOP
  5187                           
  5188                           ;incstack = 0
  5189                           ;Twister@direction stored from wreg
  5190  002A98  6E0E               	movwf	Twister@direction^0,c
  5191  002A9A                     
  5192                           ;main.c: 477:     if(!New_char_RX){
  5193  002A9A  5074               	movf	_New_char_RX^0,w,c
  5194  002A9C  A4D8               	btfss	status,2,c
  5195  002A9E  EF53  F015         	goto	u4481
  5196  002AA2  EF56  F015         	goto	u4480
  5197  002AA6                     u4481:
  5198  002AA6  FFFF               	dw	65535	; assembler added errata NOP
  5199  002AA8  EFAE  F015         	goto	l4066
  5200  002AAC                     u4480:
  5201  002AAC  FFFF               	dw	65535	; assembler added errata NOP
  5202  002AAE                     
  5203                           ;main.c: 478:     if (direction == 0){
  5204  002AAE  500E               	movf	Twister@direction^0,w,c
  5205  002AB0  A4D8               	btfss	status,2,c
  5206  002AB2  EF5D  F015         	goto	u4491
  5207  002AB6  EF60  F015         	goto	u4490
  5208  002ABA                     u4491:
  5209  002ABA  FFFF               	dw	65535	; assembler added errata NOP
  5210  002ABC  EF81  F015         	goto	l4052
  5211  002AC0                     u4490:
  5212  002AC0  FFFF               	dw	65535	; assembler added errata NOP
  5213  002AC2                     
  5214                           ;main.c: 479:         PORTD = 0b00110000;
  5215  002AC2  0E30               	movlw	48
  5216  002AC4  6E83               	movwf	131,c	;volatile
  5217  002AC6                     
  5218                           ;main.c: 480:         ms_delay(1);
  5219  002AC6  0E00               	movlw	0
  5220  002AC8  6E09               	movwf	(ms_delay@val+1)^0,c
  5221  002ACA  0E01               	movlw	1
  5222  002ACC  6E08               	movwf	ms_delay@val^0,c
  5223  002ACE  EC2A  F017         	call	_ms_delay	;wreg free
  5224  002AD2                     
  5225                           ;main.c: 481:         PORTD = 0b11000000;
  5226  002AD2  0EC0               	movlw	192
  5227  002AD4  6E83               	movwf	131,c	;volatile
  5228                           
  5229                           ;main.c: 482:         ms_delay(1);
  5230  002AD6  0E00               	movlw	0
  5231  002AD8  6E09               	movwf	(ms_delay@val+1)^0,c
  5232  002ADA  0E01               	movlw	1
  5233  002ADC  6E08               	movwf	ms_delay@val^0,c
  5234  002ADE  EC2A  F017         	call	_ms_delay	;wreg free
  5235  002AE2                     
  5236                           ;main.c: 483:         PORTD = 0b10010000;
  5237  002AE2  0E90               	movlw	144
  5238  002AE4  6E83               	movwf	131,c	;volatile
  5239  002AE6                     
  5240                           ;main.c: 484:         ms_delay(1);
  5241  002AE6  0E00               	movlw	0
  5242  002AE8  6E09               	movwf	(ms_delay@val+1)^0,c
  5243  002AEA  0E01               	movlw	1
  5244  002AEC  6E08               	movwf	ms_delay@val^0,c
  5245  002AEE  EC2A  F017         	call	_ms_delay	;wreg free
  5246                           
  5247                           ;main.c: 485:         PORTD = 0b00110000;
  5248  002AF2  0E30               	movlw	48
  5249  002AF4  6E83               	movwf	131,c	;volatile
  5250  002AF6                     
  5251                           ;main.c: 486:         ms_delay(1);
  5252  002AF6  0E00               	movlw	0
  5253  002AF8  6E09               	movwf	(ms_delay@val+1)^0,c
  5254  002AFA  0E01               	movlw	1
  5255  002AFC  6E08               	movwf	ms_delay@val^0,c
  5256  002AFE  EC2A  F017         	call	_ms_delay	;wreg free
  5257  002B02                     l4052:
  5258  002B02  FFFF               	dw	65535	; assembler added errata NOP
  5259                           
  5260                           ;main.c: 488:     if (direction == 1){
  5261  002B04  040E               	decf	Twister@direction^0,w,c
  5262  002B06  A4D8               	btfss	status,2,c
  5263  002B08  EF88  F015         	goto	u4501
  5264  002B0C  EF8B  F015         	goto	u4500
  5265  002B10                     u4501:
  5266  002B10  FFFF               	dw	65535	; assembler added errata NOP
  5267  002B12  EFB1  F015         	goto	l289
  5268  002B16                     u4500:
  5269  002B16  FFFF               	dw	65535	; assembler added errata NOP
  5270  002B18                     
  5271                           ;main.c: 489:         PORTD = 0b10010000;
  5272  002B18  0E90               	movlw	144
  5273  002B1A  6E83               	movwf	131,c	;volatile
  5274  002B1C                     
  5275                           ;main.c: 490:         ms_delay(1);
  5276  002B1C  0E00               	movlw	0
  5277  002B1E  6E09               	movwf	(ms_delay@val+1)^0,c
  5278  002B20  0E01               	movlw	1
  5279  002B22  6E08               	movwf	ms_delay@val^0,c
  5280  002B24  EC2A  F017         	call	_ms_delay	;wreg free
  5281  002B28                     
  5282                           ;main.c: 491:         PORTD = 0b01100000;
  5283  002B28  0E60               	movlw	96
  5284  002B2A  6E83               	movwf	131,c	;volatile
  5285                           
  5286                           ;main.c: 492:         ms_delay(1);
  5287  002B2C  0E00               	movlw	0
  5288  002B2E  6E09               	movwf	(ms_delay@val+1)^0,c
  5289  002B30  0E01               	movlw	1
  5290  002B32  6E08               	movwf	ms_delay@val^0,c
  5291  002B34  EC2A  F017         	call	_ms_delay	;wreg free
  5292  002B38                     
  5293                           ;main.c: 493:         PORTD = 0b00110000;
  5294  002B38  0E30               	movlw	48
  5295  002B3A  6E83               	movwf	131,c	;volatile
  5296  002B3C                     
  5297                           ;main.c: 494:         ms_delay(1);
  5298  002B3C  0E00               	movlw	0
  5299  002B3E  6E09               	movwf	(ms_delay@val+1)^0,c
  5300  002B40  0E01               	movlw	1
  5301  002B42  6E08               	movwf	ms_delay@val^0,c
  5302  002B44  EC2A  F017         	call	_ms_delay	;wreg free
  5303                           
  5304                           ;main.c: 495:         PORTD = 0b10010000;
  5305  002B48  0E90               	movlw	144
  5306  002B4A  6E83               	movwf	131,c	;volatile
  5307  002B4C                     
  5308                           ;main.c: 496:         ms_delay(1);
  5309  002B4C  0E00               	movlw	0
  5310  002B4E  6E09               	movwf	(ms_delay@val+1)^0,c
  5311  002B50  0E01               	movlw	1
  5312  002B52  6E08               	movwf	ms_delay@val^0,c
  5313  002B54  EC2A  F017         	call	_ms_delay	;wreg free
  5314  002B58  EFB1  F015         	goto	l289
  5315  002B5C                     l4066:
  5316  002B5C  FFFF               	dw	65535	; assembler added errata NOP
  5317                           
  5318                           ;main.c: 500:         stop=1;
  5319  002B5E  0E01               	movlw	1
  5320  002B60  6E73               	movwf	_stop^0,c
  5321  002B62                     l289:
  5322  002B62  FFFF               	dw	65535	; assembler added errata NOP
  5323  002B64  0012               	return		;funcret
  5324  002B66  FFFF               	dw	65535	; errata NOP
  5325  002B68                     __end_of_Twister:
  5326                           	callstack 0
  5327                           
  5328 ;; *************** function _ms_delay *****************
  5329 ;; Defined at:
  5330 ;;		line 505 in file "main.c"
  5331 ;; Parameters:    Size  Location     Type
  5332 ;;  val             2    7[COMRAM] unsigned int 
  5333 ;; Auto vars:     Size  Location     Type
  5334 ;;  j               2   11[COMRAM] unsigned int 
  5335 ;;  i               2    9[COMRAM] unsigned int 
  5336 ;; Return value:  Size  Location     Type
  5337 ;;                  1    wreg      void 
  5338 ;; Registers used:
  5339 ;;		wreg, status,2, status,0
  5340 ;; Tracked objects:
  5341 ;;		On entry : 0/0
  5342 ;;		On exit  : 0/0
  5343 ;;		Unchanged: 0/0
  5344 ;; Data sizes:     COMRAM   BANK0   BANK1   BANK2   BANK3   BANK4   BANK5
  5345 ;;      Params:         2       0       0       0       0       0       0
  5346 ;;      Locals:         4       0       0       0       0       0       0
  5347 ;;      Temps:          0       0       0       0       0       0       0
  5348 ;;      Totals:         6       0       0       0       0       0       0
  5349 ;;Total ram usage:        6 bytes
  5350 ;; Hardware stack levels used: 1
  5351 ;; Hardware stack levels required when called: 1
  5352 ;; This function calls:
  5353 ;;		Nothing
  5354 ;; This function is called by:
  5355 ;;		_X_axis
  5356 ;;		_Y_axis
  5357 ;;		_Z_axis
  5358 ;;		_Twister
  5359 ;; This function uses a non-reentrant model
  5360 ;;
  5361                           
  5362                           	psect	text15
  5363  002E54                     __ptext15:
  5364                           	callstack 0
  5365  002E54                     _ms_delay:
  5366                           	callstack 0
  5367  002E54  FFFF               	dw	65535	; assembler added errata NOP
  5368  002E56                     
  5369                           ;main.c: 505: void ms_delay(unsigned int val);main.c: 506: {;main.c: 507:      unsigned 
      +                          int i,j;;main.c: 508:         for(i=0;i<val;i++)
  5370  002E56  0E00               	movlw	0
  5371  002E58  6E0B               	movwf	(ms_delay@i+1)^0,c
  5372  002E5A  0E00               	movlw	0
  5373  002E5C  6E0A               	movwf	ms_delay@i^0,c
  5374  002E5E  EF48  F017         	goto	l3926
  5375  002E62                     l3914:
  5376  002E62  FFFF               	dw	65535	; assembler added errata NOP
  5377                           
  5378                           ;main.c: 509:             for(j=0;j<1650;j++);
  5379  002E64  0E00               	movlw	0
  5380  002E66  6E0D               	movwf	(ms_delay@j+1)^0,c
  5381  002E68  0E00               	movlw	0
  5382  002E6A  6E0C               	movwf	ms_delay@j^0,c
  5383  002E6C                     l3920:
  5384  002E6C  FFFF               	dw	65535	; assembler added errata NOP
  5385  002E6E  4A0C               	infsnz	ms_delay@j^0,f,c
  5386  002E70  2A0D               	incf	(ms_delay@j+1)^0,f,c
  5387  002E72  0E72               	movlw	114
  5388  002E74  5C0C               	subwf	ms_delay@j^0,w,c
  5389  002E76  0E06               	movlw	6
  5390  002E78  580D               	subwfb	(ms_delay@j+1)^0,w,c
  5391  002E7A  A0D8               	btfss	status,0,c
  5392  002E7C  EF42  F017         	goto	u4371
  5393  002E80  EF45  F017         	goto	u4370
  5394  002E84                     u4371:
  5395  002E84  FFFF               	dw	65535	; assembler added errata NOP
  5396  002E86  EF36  F017         	goto	l3920
  5397  002E8A                     u4370:
  5398  002E8A  FFFF               	dw	65535	; assembler added errata NOP
  5399  002E8C  4A0A               	infsnz	ms_delay@i^0,f,c
  5400  002E8E  2A0B               	incf	(ms_delay@i+1)^0,f,c
  5401  002E90                     l3926:
  5402  002E90  FFFF               	dw	65535	; assembler added errata NOP
  5403  002E92  5008               	movf	ms_delay@val^0,w,c
  5404  002E94  5C0A               	subwf	ms_delay@i^0,w,c
  5405  002E96  5009               	movf	(ms_delay@val+1)^0,w,c
  5406  002E98  580B               	subwfb	(ms_delay@i+1)^0,w,c
  5407  002E9A  A0D8               	btfss	status,0,c
  5408  002E9C  EF52  F017         	goto	u4381
  5409  002EA0  EF55  F017         	goto	u4380
  5410  002EA4                     u4381:
  5411  002EA4  FFFF               	dw	65535	; assembler added errata NOP
  5412  002EA6  EF31  F017         	goto	l3914
  5413  002EAA                     u4380:
  5414  002EAA  FFFF               	dw	65535	; assembler added errata NOP
  5415  002EAC  0012               	return		;funcret
  5416  002EAE  FFFF               	dw	65535	; errata NOP
  5417  002EB0                     __end_of_ms_delay:
  5418                           	callstack 0
  5419                           
  5420 ;; *************** function _change_sequence *****************
  5421 ;; Defined at:
  5422 ;;		line 252 in file "main.c"
  5423 ;; Parameters:    Size  Location     Type
  5424 ;;		None
  5425 ;; Auto vars:     Size  Location     Type
  5426 ;;  i               2   17[COMRAM] int 
  5427 ;; Return value:  Size  Location     Type
  5428 ;;                  1    wreg      void 
  5429 ;; Registers used:
  5430 ;;		wreg, fsr1l, fsr1h, fsr2l, fsr2h, status,2, status,0, tblptrl, tblptrh, tblptru, cstack
  5431 ;; Tracked objects:
  5432 ;;		On entry : 0/0
  5433 ;;		On exit  : 0/0
  5434 ;;		Unchanged: 0/0
  5435 ;; Data sizes:     COMRAM   BANK0   BANK1   BANK2   BANK3   BANK4   BANK5
  5436 ;;      Params:         0       0       0       0       0       0       0
  5437 ;;      Locals:         2       0       0       0       0       0       0
  5438 ;;      Temps:          3       0       0       0       0       0       0
  5439 ;;      Totals:         5       0       0       0       0       0       0
  5440 ;;Total ram usage:        5 bytes
  5441 ;; Hardware stack levels used: 1
  5442 ;; Hardware stack levels required when called: 3
  5443 ;; This function calls:
  5444 ;;		_print_string
  5445 ;; This function is called by:
  5446 ;;		_start_up_menu
  5447 ;; This function uses a non-reentrant model
  5448 ;;
  5449                           
  5450                           	psect	text16
  5451  002B68                     __ptext16:
  5452                           	callstack 0
  5453  002B68                     _change_sequence:
  5454                           	callstack 0
  5455  002B68  FFFF               	dw	65535	; assembler added errata NOP
  5456  002B6A                     
  5457                           ;main.c: 253:     print_string("\nThe current sequence is: ");
  5458  002B6A  0E89               	movlw	low STR_4
  5459  002B6C  6E09               	movwf	print_string@strng^0,c
  5460  002B6E  0E7F               	movlw	high STR_4
  5461  002B70  6E0A               	movwf	(print_string@strng+1)^0,c
  5462  002B72  EC00  F016         	call	_print_string	;wreg free
  5463                           
  5464                           ;main.c: 254:     print_string(sequence);
  5465  002B76  0EE9               	movlw	low _sequence
  5466  002B78  6E09               	movwf	print_string@strng^0,c
  5467  002B7A  0E00               	movlw	high _sequence
  5468  002B7C  6E0A               	movwf	(print_string@strng+1)^0,c
  5469  002B7E  EC00  F016         	call	_print_string	;wreg free
  5470                           
  5471                           ;main.c: 255:     print_string("\nPlease give the new sequence as input\r");
  5472  002B82  0E94               	movlw	low STR_5
  5473  002B84  6E09               	movwf	print_string@strng^0,c
  5474  002B86  0E7E               	movlw	high STR_5
  5475  002B88  6E0A               	movwf	(print_string@strng+1)^0,c
  5476  002B8A  EC00  F016         	call	_print_string	;wreg free
  5477  002B8E                     
  5478                           ;main.c: 256:     int i = 0;
  5479  002B8E  0E00               	movlw	0
  5480  002B90  6E13               	movwf	(change_sequence@i+1)^0,c
  5481  002B92  0E00               	movlw	0
  5482  002B94  6E12               	movwf	change_sequence@i^0,c
  5483  002B96                     l3606:
  5484  002B96  FFFF               	dw	65535	; assembler added errata NOP
  5485                           
  5486                           ;main.c: 258:         if(New_char_RX){
  5487  002B98  5074               	movf	_New_char_RX^0,w,c
  5488  002B9A  B4D8               	btfsc	status,2,c
  5489  002B9C  EFD2  F015         	goto	u4021
  5490  002BA0  EFD5  F015         	goto	u4020
  5491  002BA4                     u4021:
  5492  002BA4  FFFF               	dw	65535	; assembler added errata NOP
  5493  002BA6  EFCB  F015         	goto	l3606
  5494  002BAA                     u4020:
  5495  002BAA  FFFF               	dw	65535	; assembler added errata NOP
  5496  002BAC                     l3608:
  5497  002BAC  FFFF               	dw	65535	; assembler added errata NOP
  5498                           
  5499                           ;main.c: 260:                 sequence[i]=input_str[i];
  5500  002BAE  0EDF               	movlw	low _input_str
  5501  002BB0  2412               	addwf	change_sequence@i^0,w,c
  5502  002BB2  6ED9               	movwf	fsr2l,c
  5503  002BB4  0E00               	movlw	high _input_str
  5504  002BB6  2013               	addwfc	(change_sequence@i+1)^0,w,c
  5505  002BB8  6EDA               	movwf	fsr2h,c
  5506  002BBA  0EE9               	movlw	low _sequence
  5507  002BBC  2412               	addwf	change_sequence@i^0,w,c
  5508  002BBE  6EE1               	movwf	fsr1l,c
  5509  002BC0  0E00               	movlw	high _sequence
  5510  002BC2  2013               	addwfc	(change_sequence@i+1)^0,w,c
  5511  002BC4  6EE2               	movwf	fsr1h,c
  5512  002BC6  CFDF FFE7          	movff	indf2,indf1
  5513  002BCA                     
  5514                           ;main.c: 261:             }while(input_str[i++]!='\n');
  5515  002BCA  5012               	movf	change_sequence@i^0,w,c
  5516  002BCC  6E0F               	movwf	??_change_sequence^0,c
  5517  002BCE  5013               	movf	(change_sequence@i+1)^0,w,c
  5518  002BD0  6E10               	movwf	(??_change_sequence+1)^0,c
  5519  002BD2  4A12               	infsnz	change_sequence@i^0,f,c
  5520  002BD4  2A13               	incf	(change_sequence@i+1)^0,f,c
  5521  002BD6  0EDF               	movlw	low _input_str
  5522  002BD8  240F               	addwf	??_change_sequence^0,w,c
  5523  002BDA  6ED9               	movwf	fsr2l,c
  5524  002BDC  0E00               	movlw	high _input_str
  5525  002BDE  2010               	addwfc	(??_change_sequence+1)^0,w,c
  5526  002BE0  6EDA               	movwf	fsr2h,c
  5527  002BE2  0E0A               	movlw	10
  5528  002BE4  18DE               	xorwf	postinc2,w,c
  5529  002BE6  A4D8               	btfss	status,2,c
  5530  002BE8  EFF8  F015         	goto	u4031
  5531  002BEC  EFFB  F015         	goto	u4030
  5532  002BF0                     u4031:
  5533  002BF0  FFFF               	dw	65535	; assembler added errata NOP
  5534  002BF2  EFD6  F015         	goto	l3608
  5535  002BF6                     u4030:
  5536  002BF6  FFFF               	dw	65535	; assembler added errata NOP
  5537  002BF8                     
  5538                           ;main.c: 262:             New_char_RX=0;
  5539  002BF8  0E00               	movlw	0
  5540  002BFA  6E74               	movwf	_New_char_RX^0,c
  5541  002BFC  0012               	return		;funcret
  5542  002BFE  FFFF               	dw	65535	; errata NOP
  5543  002C00                     __end_of_change_sequence:
  5544                           	callstack 0
  5545                           
  5546 ;; *************** function _add_component *****************
  5547 ;; Defined at:
  5548 ;;		line 268 in file "main.c"
  5549 ;; Parameters:    Size  Location     Type
  5550 ;;		None
  5551 ;; Auto vars:     Size  Location     Type
  5552 ;;  add_componnt    1   31[COMRAM] unsigned char [1]
  5553 ;; Return value:  Size  Location     Type
  5554 ;;                  1    wreg      void 
  5555 ;; Registers used:
  5556 ;;		wreg, fsr1l, fsr1h, fsr2l, fsr2h, status,2, status,0, tblptrl, tblptrh, tblptru, prodl, prodh, cstack
  5557 ;; Tracked objects:
  5558 ;;		On entry : 0/0
  5559 ;;		On exit  : 0/0
  5560 ;;		Unchanged: 0/0
  5561 ;; Data sizes:     COMRAM   BANK0   BANK1   BANK2   BANK3   BANK4   BANK5
  5562 ;;      Params:         0       0       0       0       0       0       0
  5563 ;;      Locals:         1       0       0       0       0       0       0
  5564 ;;      Temps:          2       0       0       0       0       0       0
  5565 ;;      Totals:         3       0       0       0       0       0       0
  5566 ;;Total ram usage:        3 bytes
  5567 ;; Hardware stack levels used: 1
  5568 ;; Hardware stack levels required when called: 3
  5569 ;; This function calls:
  5570 ;;		_atoi
  5571 ;;		_print_string
  5572 ;;		_serial_tx_char
  5573 ;;		_strncat
  5574 ;; This function is called by:
  5575 ;;		_start_up_menu
  5576 ;; This function uses a non-reentrant model
  5577 ;;
  5578                           
  5579                           	psect	text17
  5580  0019EE                     __ptext17:
  5581                           	callstack 0
  5582  0019EE                     _add_component:
  5583                           	callstack 0
  5584  0019EE  FFFF               	dw	65535	; assembler added errata NOP
  5585  0019F0                     
  5586                           ;main.c: 269:     char add_componnt[1]=" ";
  5587  0019F0  C075  F020         	movff	add_component@F3128,add_component@add_componnt
  5588  0019F4                     
  5589                           ;main.c: 270:     print_string("\nThe Current sequence is:");
  5590  0019F4  0EA4               	movlw	low STR_6
  5591  0019F6  6E09               	movwf	print_string@strng^0,c
  5592  0019F8  0E7F               	movlw	high STR_6
  5593  0019FA  6E0A               	movwf	(print_string@strng+1)^0,c
  5594  0019FC  EC00  F016         	call	_print_string	;wreg free
  5595                           
  5596                           ;main.c: 271:     print_string(sequence);
  5597  001A00  0EE9               	movlw	low _sequence
  5598  001A02  6E09               	movwf	print_string@strng^0,c
  5599  001A04  0E00               	movlw	high _sequence
  5600  001A06  6E0A               	movwf	(print_string@strng+1)^0,c
  5601  001A08  EC00  F016         	call	_print_string	;wreg free
  5602                           
  5603                           ;main.c: 272:     print_string("\nEnter the component you want to add: A, B, C or D?");
  5604  001A0C  0E60               	movlw	low STR_7
  5605  001A0E  6E09               	movwf	print_string@strng^0,c
  5606  001A10  0E7E               	movlw	high STR_7
  5607  001A12  6E0A               	movwf	(print_string@strng+1)^0,c
  5608  001A14  EC00  F016         	call	_print_string	;wreg free
  5609  001A18                     l3652:
  5610  001A18  FFFF               	dw	65535	; assembler added errata NOP
  5611                           
  5612                           ;main.c: 274:         if(New_char_RX){
  5613  001A1A  5074               	movf	_New_char_RX^0,w,c
  5614  001A1C  B4D8               	btfsc	status,2,c
  5615  001A1E  EF13  F00D         	goto	u4091
  5616  001A22  EF16  F00D         	goto	u4090
  5617  001A26                     u4091:
  5618  001A26  FFFF               	dw	65535	; assembler added errata NOP
  5619  001A28  EF0C  F00D         	goto	l3652
  5620  001A2C                     u4090:
  5621  001A2C  FFFF               	dw	65535	; assembler added errata NOP
  5622  001A2E                     
  5623                           ;main.c: 275:             add_componnt[0]=input_str[0];
  5624  001A2E  C0DF  F020         	movff	_input_str,add_component@add_componnt	;volatile
  5625  001A32                     
  5626                           ;main.c: 276:             if(add_componnt=='D'){
  5627  001A32  0E20               	movlw	low add_component@add_componnt
  5628  001A34  6E1E               	movwf	??_add_component^0,c
  5629  001A36  0E00               	movlw	high add_component@add_componnt
  5630  001A38  6E1F               	movwf	(??_add_component+1)^0,c
  5631  001A3A  0E44               	movlw	68
  5632  001A3C  181E               	xorwf	??_add_component^0,w,c
  5633  001A3E  101F               	iorwf	(??_add_component+1)^0,w,c
  5634  001A40  A4D8               	btfss	status,2,c
  5635  001A42  EF25  F00D         	goto	u4101
  5636  001A46  EF28  F00D         	goto	u4100
  5637  001A4A                     u4101:
  5638  001A4A  FFFF               	dw	65535	; assembler added errata NOP
  5639  001A4C  EFDC  F00D         	goto	l3710
  5640  001A50                     u4100:
  5641  001A50  FFFF               	dw	65535	; assembler added errata NOP
  5642  001A52                     
  5643                           ;main.c: 277:                 New_char_RX=0;
  5644  001A52  0E00               	movlw	0
  5645  001A54  6E74               	movwf	_New_char_RX^0,c
  5646  001A56                     
  5647                           ;main.c: 278:                 print_string("\nEnter the pick position X:");
  5648  001A56  0E51               	movlw	low STR_8
  5649  001A58  6E09               	movwf	print_string@strng^0,c
  5650  001A5A  0E7F               	movlw	high STR_8
  5651  001A5C  6E0A               	movwf	(print_string@strng+1)^0,c
  5652  001A5E  EC00  F016         	call	_print_string	;wreg free
  5653  001A62                     l3662:
  5654  001A62  FFFF               	dw	65535	; assembler added errata NOP
  5655                           
  5656                           ;main.c: 280:                     if(New_char_RX){
  5657  001A64  5074               	movf	_New_char_RX^0,w,c
  5658  001A66  B4D8               	btfsc	status,2,c
  5659  001A68  EF38  F00D         	goto	u4111
  5660  001A6C  EF3B  F00D         	goto	u4110
  5661  001A70                     u4111:
  5662  001A70  FFFF               	dw	65535	; assembler added errata NOP
  5663  001A72  EF31  F00D         	goto	l3662
  5664  001A76                     u4110:
  5665  001A76  FFFF               	dw	65535	; assembler added errata NOP
  5666  001A78                     
  5667                           ;main.c: 281:                         X_Pick_D=atoi(input_str);
  5668  001A78  0EDF               	movlw	low _input_str
  5669  001A7A  6E0F               	movwf	atoi@s^0,c
  5670  001A7C  0E00               	movlw	high _input_str
  5671  001A7E  6E10               	movwf	(atoi@s+1)^0,c
  5672  001A80  EC06  F00F         	call	_atoi	;wreg free
  5673  001A84  C00F  F05B         	movff	?_atoi,_X_Pick_D
  5674  001A88  C010  F05C         	movff	?_atoi+1,_X_Pick_D+1
  5675  001A8C                     
  5676                           ;main.c: 282:                         New_char_RX=0;
  5677  001A8C  0E00               	movlw	0
  5678  001A8E  6E74               	movwf	_New_char_RX^0,c
  5679  001A90                     
  5680                           ;main.c: 286:                 print_string("\nEnter the pick position Y:");
  5681  001A90  0E6D               	movlw	low STR_9
  5682  001A92  6E09               	movwf	print_string@strng^0,c
  5683  001A94  0E7F               	movlw	high STR_9
  5684  001A96  6E0A               	movwf	(print_string@strng+1)^0,c
  5685  001A98  EC00  F016         	call	_print_string	;wreg free
  5686  001A9C                     l3670:
  5687  001A9C  FFFF               	dw	65535	; assembler added errata NOP
  5688                           
  5689                           ;main.c: 288:                     if(New_char_RX){
  5690  001A9E  5074               	movf	_New_char_RX^0,w,c
  5691  001AA0  B4D8               	btfsc	status,2,c
  5692  001AA2  EF55  F00D         	goto	u4121
  5693  001AA6  EF58  F00D         	goto	u4120
  5694  001AAA                     u4121:
  5695  001AAA  FFFF               	dw	65535	; assembler added errata NOP
  5696  001AAC  EF4E  F00D         	goto	l3670
  5697  001AB0                     u4120:
  5698  001AB0  FFFF               	dw	65535	; assembler added errata NOP
  5699  001AB2                     
  5700                           ;main.c: 289:                         Y_Pick_D=(atoi(input_str));
  5701  001AB2  0EDF               	movlw	low _input_str
  5702  001AB4  6E0F               	movwf	atoi@s^0,c
  5703  001AB6  0E00               	movlw	high _input_str
  5704  001AB8  6E10               	movwf	(atoi@s+1)^0,c
  5705  001ABA  EC06  F00F         	call	_atoi	;wreg free
  5706  001ABE  C00F  F0AC         	movff	?_atoi,_Y_Pick_D
  5707  001AC2  C010  F0AD         	movff	?_atoi+1,_Y_Pick_D+1
  5708  001AC6                     
  5709                           ;main.c: 290:                         New_char_RX=0;
  5710  001AC6  0E00               	movlw	0
  5711  001AC8  6E74               	movwf	_New_char_RX^0,c
  5712  001ACA                     
  5713                           ;main.c: 294:                 print_string("\nEnter the pick orientation:");
  5714  001ACA  0E34               	movlw	low STR_10
  5715  001ACC  6E09               	movwf	print_string@strng^0,c
  5716  001ACE  0E7F               	movlw	high STR_10
  5717  001AD0  6E0A               	movwf	(print_string@strng+1)^0,c
  5718  001AD2  EC00  F016         	call	_print_string	;wreg free
  5719  001AD6                     l3678:
  5720  001AD6  FFFF               	dw	65535	; assembler added errata NOP
  5721                           
  5722                           ;main.c: 296:                     if(New_char_RX){
  5723  001AD8  5074               	movf	_New_char_RX^0,w,c
  5724  001ADA  B4D8               	btfsc	status,2,c
  5725  001ADC  EF72  F00D         	goto	u4131
  5726  001AE0  EF75  F00D         	goto	u4130
  5727  001AE4                     u4131:
  5728  001AE4  FFFF               	dw	65535	; assembler added errata NOP
  5729  001AE6  EF6B  F00D         	goto	l3678
  5730  001AEA                     u4130:
  5731  001AEA  FFFF               	dw	65535	; assembler added errata NOP
  5732  001AEC                     
  5733                           ;main.c: 297:                         Pick_Angle_D=(atoi(input_str));
  5734  001AEC  0EDF               	movlw	low _input_str
  5735  001AEE  6E0F               	movwf	atoi@s^0,c
  5736  001AF0  0E00               	movlw	high _input_str
  5737  001AF2  6E10               	movwf	(atoi@s+1)^0,c
  5738  001AF4  EC06  F00F         	call	_atoi	;wreg free
  5739  001AF8  C00F  F0AA         	movff	?_atoi,_Pick_Angle_D
  5740  001AFC  C010  F0AB         	movff	?_atoi+1,_Pick_Angle_D+1
  5741  001B00                     
  5742                           ;main.c: 298:                         New_char_RX=0;
  5743  001B00  0E00               	movlw	0
  5744  001B02  6E74               	movwf	_New_char_RX^0,c
  5745  001B04                     
  5746                           ;main.c: 302:                 print_string("\nEnter the place position X:");
  5747  001B04  0EFA               	movlw	low STR_11
  5748  001B06  6E09               	movwf	print_string@strng^0,c
  5749  001B08  0E7E               	movlw	high STR_11
  5750  001B0A  6E0A               	movwf	(print_string@strng+1)^0,c
  5751  001B0C  EC00  F016         	call	_print_string	;wreg free
  5752  001B10                     l3686:
  5753  001B10  FFFF               	dw	65535	; assembler added errata NOP
  5754                           
  5755                           ;main.c: 304:                     if(New_char_RX){
  5756  001B12  5074               	movf	_New_char_RX^0,w,c
  5757  001B14  B4D8               	btfsc	status,2,c
  5758  001B16  EF8F  F00D         	goto	u4141
  5759  001B1A  EF92  F00D         	goto	u4140
  5760  001B1E                     u4141:
  5761  001B1E  FFFF               	dw	65535	; assembler added errata NOP
  5762  001B20  EF88  F00D         	goto	l3686
  5763  001B24                     u4140:
  5764  001B24  FFFF               	dw	65535	; assembler added errata NOP
  5765  001B26                     
  5766                           ;main.c: 305:                         X_Place_D=(atoi(input_str));
  5767  001B26  0EDF               	movlw	low _input_str
  5768  001B28  6E0F               	movwf	atoi@s^0,c
  5769  001B2A  0E00               	movlw	high _input_str
  5770  001B2C  6E10               	movwf	(atoi@s+1)^0,c
  5771  001B2E  EC06  F00F         	call	_atoi	;wreg free
  5772  001B32  C00F  F0A8         	movff	?_atoi,_X_Place_D
  5773  001B36  C010  F0A9         	movff	?_atoi+1,_X_Place_D+1
  5774  001B3A                     
  5775                           ;main.c: 306:                         New_char_RX=0;
  5776  001B3A  0E00               	movlw	0
  5777  001B3C  6E74               	movwf	_New_char_RX^0,c
  5778  001B3E                     
  5779                           ;main.c: 310:                 print_string("\nEnter the place position Y:");
  5780  001B3E  0E17               	movlw	low STR_12
  5781  001B40  6E09               	movwf	print_string@strng^0,c
  5782  001B42  0E7F               	movlw	high STR_12
  5783  001B44  6E0A               	movwf	(print_string@strng+1)^0,c
  5784  001B46  EC00  F016         	call	_print_string	;wreg free
  5785  001B4A                     l3694:
  5786  001B4A  FFFF               	dw	65535	; assembler added errata NOP
  5787                           
  5788                           ;main.c: 312:                     if(New_char_RX){
  5789  001B4C  5074               	movf	_New_char_RX^0,w,c
  5790  001B4E  B4D8               	btfsc	status,2,c
  5791  001B50  EFAC  F00D         	goto	u4151
  5792  001B54  EFAF  F00D         	goto	u4150
  5793  001B58                     u4151:
  5794  001B58  FFFF               	dw	65535	; assembler added errata NOP
  5795  001B5A  EFA5  F00D         	goto	l3694
  5796  001B5E                     u4150:
  5797  001B5E  FFFF               	dw	65535	; assembler added errata NOP
  5798  001B60                     
  5799                           ;main.c: 313:                         Y_Place_D=(atoi(input_str));
  5800  001B60  0EDF               	movlw	low _input_str
  5801  001B62  6E0F               	movwf	atoi@s^0,c
  5802  001B64  0E00               	movlw	high _input_str
  5803  001B66  6E10               	movwf	(atoi@s+1)^0,c
  5804  001B68  EC06  F00F         	call	_atoi	;wreg free
  5805  001B6C  C00F  F0A6         	movff	?_atoi,_Y_Place_D
  5806  001B70  C010  F0A7         	movff	?_atoi+1,_Y_Place_D+1
  5807  001B74                     
  5808                           ;main.c: 314:                         New_char_RX=0;
  5809  001B74  0E00               	movlw	0
  5810  001B76  6E74               	movwf	_New_char_RX^0,c
  5811  001B78                     
  5812                           ;main.c: 318:                 print_string("\nEnter the place orientation:");
  5813  001B78  0EDC               	movlw	low STR_13
  5814  001B7A  6E09               	movwf	print_string@strng^0,c
  5815  001B7C  0E7E               	movlw	high STR_13
  5816  001B7E  6E0A               	movwf	(print_string@strng+1)^0,c
  5817  001B80  EC00  F016         	call	_print_string	;wreg free
  5818  001B84                     l3702:
  5819  001B84  FFFF               	dw	65535	; assembler added errata NOP
  5820                           
  5821                           ;main.c: 320:                         if(New_char_RX){
  5822  001B86  5074               	movf	_New_char_RX^0,w,c
  5823  001B88  B4D8               	btfsc	status,2,c
  5824  001B8A  EFC9  F00D         	goto	u4161
  5825  001B8E  EFCC  F00D         	goto	u4160
  5826  001B92                     u4161:
  5827  001B92  FFFF               	dw	65535	; assembler added errata NOP
  5828  001B94  EFC2  F00D         	goto	l3702
  5829  001B98                     u4160:
  5830  001B98  FFFF               	dw	65535	; assembler added errata NOP
  5831  001B9A                     
  5832                           ;main.c: 321:                         Place_Angle_D=(atoi(input_str));
  5833  001B9A  0EDF               	movlw	low _input_str
  5834  001B9C  6E0F               	movwf	atoi@s^0,c
  5835  001B9E  0E00               	movlw	high _input_str
  5836  001BA0  6E10               	movwf	(atoi@s+1)^0,c
  5837  001BA2  EC06  F00F         	call	_atoi	;wreg free
  5838  001BA6  C00F  F0A4         	movff	?_atoi,_Place_Angle_D
  5839  001BAA  C010  F0A5         	movff	?_atoi+1,_Place_Angle_D+1
  5840  001BAE                     l3706:
  5841  001BAE  FFFF               	dw	65535	; assembler added errata NOP
  5842                           
  5843                           ;main.c: 322:                         New_char_RX=0;
  5844  001BB0  0E00               	movlw	0
  5845  001BB2  6E74               	movwf	_New_char_RX^0,c
  5846                           
  5847                           ;main.c: 323:                         break;
  5848  001BB4  EFEC  F00D         	goto	l3714
  5849  001BB8                     l3710:
  5850  001BB8  FFFF               	dw	65535	; assembler added errata NOP
  5851  001BBA  5074               	movf	_New_char_RX^0,w,c
  5852  001BBC  B4D8               	btfsc	status,2,c
  5853  001BBE  EFE3  F00D         	goto	u4171
  5854  001BC2  EFE6  F00D         	goto	u4170
  5855  001BC6                     u4171:
  5856  001BC6  FFFF               	dw	65535	; assembler added errata NOP
  5857  001BC8  EFE9  F00D         	goto	l211
  5858  001BCC                     u4170:
  5859  001BCC  FFFF               	dw	65535	; assembler added errata NOP
  5860  001BCE  EFD7  F00D         	goto	l3706
  5861  001BD2                     l211:
  5862  001BD2  FFFF               	dw	65535	; assembler added errata NOP
  5863  001BD4  EF0C  F00D         	goto	l3652
  5864  001BD8                     l3714:
  5865  001BD8  FFFF               	dw	65535	; assembler added errata NOP
  5866                           
  5867                           ;main.c: 334:     State='0';
  5868  001BDA  0E30               	movlw	48
  5869  001BDC  6E76               	movwf	_State^0,c
  5870  001BDE                     
  5871                           ;main.c: 335:     strncat(sequence,add_componnt,1);
  5872  001BDE  0EE9               	movlw	low _sequence
  5873  001BE0  6E0C               	movwf	strncat@d^0,c
  5874  001BE2  0E00               	movlw	high _sequence
  5875  001BE4  6E0D               	movwf	(strncat@d+1)^0,c
  5876  001BE6  0E20               	movlw	low add_component@add_componnt
  5877  001BE8  6E0E               	movwf	strncat@s^0,c
  5878  001BEA  0E00               	movlw	high add_component@add_componnt
  5879  001BEC  6E0F               	movwf	(strncat@s+1)^0,c
  5880  001BEE  0E00               	movlw	0
  5881  001BF0  6E11               	movwf	(strncat@n+1)^0,c
  5882  001BF2  0E01               	movlw	1
  5883  001BF4  6E10               	movwf	strncat@n^0,c
  5884  001BF6  EC47  F016         	call	_strncat	;wreg free
  5885  001BFA                     
  5886                           ;main.c: 336:     print_string("\nComponent Added: ");
  5887  001BFA  0EE7               	movlw	low STR_14
  5888  001BFC  6E09               	movwf	print_string@strng^0,c
  5889  001BFE  0E7F               	movlw	high STR_14
  5890  001C00  6E0A               	movwf	(print_string@strng+1)^0,c
  5891  001C02  EC00  F016         	call	_print_string	;wreg free
  5892  001C06                     
  5893                           ;main.c: 337:     serial_tx_char(add_componnt[0]);
  5894  001C06  5020               	movf	add_component@add_componnt^0,w,c
  5895  001C08  EC43  F018         	call	_serial_tx_char
  5896  001C0C                     
  5897                           ;main.c: 338:     New_char_RX=0;
  5898  001C0C  0E00               	movlw	0
  5899  001C0E  6E74               	movwf	_New_char_RX^0,c
  5900  001C10  0012               	return		;funcret
  5901  001C12  FFFF               	dw	65535	; errata NOP
  5902  001C14                     __end_of_add_component:
  5903                           	callstack 0
  5904                           
  5905 ;; *************** function _strncat *****************
  5906 ;; Defined at:
  5907 ;;		line 3 in file "/opt/microchip/xc8/v2.32/pic/sources/c99/common/strncat.c"
  5908 ;; Parameters:    Size  Location     Type
  5909 ;;  d               2   11[COMRAM] PTR unsigned char 
  5910 ;;		 -> sequence(4), 
  5911 ;;  s               2   13[COMRAM] PTR const unsigned char 
  5912 ;;		 -> add_component@add_componnt(1), 
  5913 ;;  n               2   15[COMRAM] unsigned int 
  5914 ;; Auto vars:     Size  Location     Type
  5915 ;;  a               2    0        PTR unsigned char 
  5916 ;;		 -> sequence(4), 
  5917 ;; Return value:  Size  Location     Type
  5918 ;;                  2   11[COMRAM] PTR unsigned char 
  5919 ;; Registers used:
  5920 ;;		wreg, fsr1l, fsr1h, fsr2l, fsr2h, status,2, status,0, cstack
  5921 ;; Tracked objects:
  5922 ;;		On entry : 0/0
  5923 ;;		On exit  : 0/0
  5924 ;;		Unchanged: 0/0
  5925 ;; Data sizes:     COMRAM   BANK0   BANK1   BANK2   BANK3   BANK4   BANK5
  5926 ;;      Params:         6       0       0       0       0       0       0
  5927 ;;      Locals:         0       0       0       0       0       0       0
  5928 ;;      Temps:          0       0       0       0       0       0       0
  5929 ;;      Totals:         6       0       0       0       0       0       0
  5930 ;;Total ram usage:        6 bytes
  5931 ;; Hardware stack levels used: 1
  5932 ;; Hardware stack levels required when called: 2
  5933 ;; This function calls:
  5934 ;;		_strlen
  5935 ;; This function is called by:
  5936 ;;		_add_component
  5937 ;; This function uses a non-reentrant model
  5938 ;;
  5939                           
  5940                           	psect	text18
  5941  002C8E                     __ptext18:
  5942                           	callstack 0
  5943  002C8E                     _strncat:
  5944                           	callstack 0
  5945  002C8E  FFFF               	dw	65535	; assembler added errata NOP
  5946  002C90  C00C  F008         	movff	strncat@d,strlen@s
  5947  002C94  C00D  F009         	movff	strncat@d+1,strlen@s+1
  5948  002C98  EC7D  F017         	call	_strlen	;wreg free
  5949  002C9C  5008               	movf	?_strlen^0,w,c
  5950  002C9E  260C               	addwf	strncat@d^0,f,c
  5951  002CA0  5009               	movf	(?_strlen+1)^0,w,c
  5952  002CA2  220D               	addwfc	(strncat@d+1)^0,f,c
  5953  002CA4  EF66  F016         	goto	l2882
  5954  002CA8                     l2874:
  5955  002CA8  FFFF               	dw	65535	; assembler added errata NOP
  5956  002CAA  0610               	decf	strncat@n^0,f,c
  5957  002CAC  A0D8               	btfss	status,0,c
  5958  002CAE  0611               	decf	(strncat@n+1)^0,f,c
  5959  002CB0  C00E  FFD9         	movff	strncat@s,fsr2l
  5960  002CB4  C00F  FFDA         	movff	strncat@s+1,fsr2h
  5961  002CB8  C00C  FFE1         	movff	strncat@d,fsr1l
  5962  002CBC  C00D  FFE2         	movff	strncat@d+1,fsr1h
  5963  002CC0  CFDF FFE7          	movff	indf2,indf1
  5964  002CC4  4A0E               	infsnz	strncat@s^0,f,c
  5965  002CC6  2A0F               	incf	(strncat@s+1)^0,f,c
  5966  002CC8  4A0C               	infsnz	strncat@d^0,f,c
  5967  002CCA  2A0D               	incf	(strncat@d+1)^0,f,c
  5968  002CCC                     l2882:
  5969  002CCC  FFFF               	dw	65535	; assembler added errata NOP
  5970  002CCE  5010               	movf	strncat@n^0,w,c
  5971  002CD0  1011               	iorwf	(strncat@n+1)^0,w,c
  5972  002CD2  B4D8               	btfsc	status,2,c
  5973  002CD4  EF6E  F016         	goto	u2781
  5974  002CD8  EF71  F016         	goto	u2780
  5975  002CDC                     u2781:
  5976  002CDC  FFFF               	dw	65535	; assembler added errata NOP
  5977  002CDE  EF7F  F016         	goto	l2886
  5978  002CE2                     u2780:
  5979  002CE2  FFFF               	dw	65535	; assembler added errata NOP
  5980  002CE4  C00E  FFD9         	movff	strncat@s,fsr2l
  5981  002CE8  C00F  FFDA         	movff	strncat@s+1,fsr2h
  5982  002CEC  50DF               	movf	indf2,w,c
  5983  002CEE  A4D8               	btfss	status,2,c
  5984  002CF0  EF7C  F016         	goto	u2791
  5985  002CF4  EF7F  F016         	goto	u2790
  5986  002CF8                     u2791:
  5987  002CF8  FFFF               	dw	65535	; assembler added errata NOP
  5988  002CFA  EF54  F016         	goto	l2874
  5989  002CFE                     u2790:
  5990  002CFE                     l2886:
  5991  002CFE  FFFF               	dw	65535	; assembler added errata NOP
  5992  002D00  C00C  FFD9         	movff	strncat@d,fsr2l
  5993  002D04  C00D  FFDA         	movff	strncat@d+1,fsr2h
  5994  002D08  0E00               	movlw	0
  5995  002D0A  6EDF               	movwf	indf2,c
  5996  002D0C  4A0C               	infsnz	strncat@d^0,f,c
  5997  002D0E  2A0D               	incf	(strncat@d+1)^0,f,c
  5998  002D10  0012               	return		;funcret
  5999  002D12  FFFF               	dw	65535	; errata NOP
  6000  002D14                     __end_of_strncat:
  6001                           	callstack 0
  6002                           
  6003 ;; *************** function _strlen *****************
  6004 ;; Defined at:
  6005 ;;		line 5 in file "/opt/microchip/xc8/v2.32/pic/sources/c99/common/strlen.c"
  6006 ;; Parameters:    Size  Location     Type
  6007 ;;  s               2    7[COMRAM] PTR const unsigned char 
  6008 ;;		 -> sequence(4), 
  6009 ;; Auto vars:     Size  Location     Type
  6010 ;;  a               2    9[COMRAM] PTR const unsigned char 
  6011 ;;		 -> sequence(4), 
  6012 ;; Return value:  Size  Location     Type
  6013 ;;                  2    7[COMRAM] unsigned int 
  6014 ;; Registers used:
  6015 ;;		wreg, fsr2l, fsr2h, status,2, status,0
  6016 ;; Tracked objects:
  6017 ;;		On entry : 0/0
  6018 ;;		On exit  : 0/0
  6019 ;;		Unchanged: 0/0
  6020 ;; Data sizes:     COMRAM   BANK0   BANK1   BANK2   BANK3   BANK4   BANK5
  6021 ;;      Params:         2       0       0       0       0       0       0
  6022 ;;      Locals:         2       0       0       0       0       0       0
  6023 ;;      Temps:          0       0       0       0       0       0       0
  6024 ;;      Totals:         4       0       0       0       0       0       0
  6025 ;;Total ram usage:        4 bytes
  6026 ;; Hardware stack levels used: 1
  6027 ;; Hardware stack levels required when called: 1
  6028 ;; This function calls:
  6029 ;;		Nothing
  6030 ;; This function is called by:
  6031 ;;		_remove_component
  6032 ;;		_strncat
  6033 ;;		_strrchr
  6034 ;; This function uses a non-reentrant model
  6035 ;;
  6036                           
  6037                           	psect	text19
  6038  002EFA                     __ptext19:
  6039                           	callstack 0
  6040  002EFA                     _strlen:
  6041                           	callstack 0
  6042  002EFA  FFFF               	dw	65535	; assembler added errata NOP
  6043  002EFC  C008  F00A         	movff	strlen@s,strlen@a
  6044  002F00  C009  F00B         	movff	strlen@s+1,strlen@a+1
  6045  002F04  EF87  F017         	goto	l2558
  6046  002F08                     l2556:
  6047  002F08  FFFF               	dw	65535	; assembler added errata NOP
  6048  002F0A  4A08               	infsnz	strlen@s^0,f,c
  6049  002F0C  2A09               	incf	(strlen@s+1)^0,f,c
  6050  002F0E                     l2558:
  6051  002F0E  FFFF               	dw	65535	; assembler added errata NOP
  6052  002F10  C008  FFD9         	movff	strlen@s,fsr2l
  6053  002F14  C009  FFDA         	movff	strlen@s+1,fsr2h
  6054  002F18  50DF               	movf	indf2,w,c
  6055  002F1A  A4D8               	btfss	status,2,c
  6056  002F1C  EF92  F017         	goto	u2201
  6057  002F20  EF95  F017         	goto	u2200
  6058  002F24                     u2201:
  6059  002F24  FFFF               	dw	65535	; assembler added errata NOP
  6060  002F26  EF84  F017         	goto	l2556
  6061  002F2A                     u2200:
  6062  002F2A  FFFF               	dw	65535	; assembler added errata NOP
  6063  002F2C  500A               	movf	strlen@a^0,w,c
  6064  002F2E  5C08               	subwf	strlen@s^0,w,c
  6065  002F30  6E08               	movwf	?_strlen^0,c
  6066  002F32  500B               	movf	(strlen@a+1)^0,w,c
  6067  002F34  5809               	subwfb	(strlen@s+1)^0,w,c
  6068  002F36  6E09               	movwf	(?_strlen+1)^0,c
  6069  002F38  0012               	return		;funcret
  6070  002F3A  FFFF               	dw	65535	; errata NOP
  6071  002F3C                     __end_of_strlen:
  6072                           	callstack 0
  6073                           
  6074 ;; *************** function _print_string *****************
  6075 ;; Defined at:
  6076 ;;		line 375 in file "main.c"
  6077 ;; Parameters:    Size  Location     Type
  6078 ;;  strng           2    8[COMRAM] PTR unsigned char 
  6079 ;;		 -> STR_17(70), STR_16(21), STR_15(63), STR_14(19), 
  6080 ;;		 -> STR_13(30), STR_12(29), STR_11(29), STR_10(29), 
  6081 ;;		 -> STR_9(28), STR_8(28), STR_7(52), STR_6(26), 
  6082 ;;		 -> STR_5(40), STR_4(27), STR_3(32), sequence(4), 
  6083 ;;		 -> STR_2(20), STR_1(82), 
  6084 ;; Auto vars:     Size  Location     Type
  6085 ;;  i               2   12[COMRAM] int 
  6086 ;; Return value:  Size  Location     Type
  6087 ;;                  1    wreg      void 
  6088 ;; Registers used:
  6089 ;;		wreg, fsr1l, fsr1h, status,2, status,0, tblptrl, tblptrh, tblptru, cstack
  6090 ;; Tracked objects:
  6091 ;;		On entry : 0/0
  6092 ;;		On exit  : 0/0
  6093 ;;		Unchanged: 0/0
  6094 ;; Data sizes:     COMRAM   BANK0   BANK1   BANK2   BANK3   BANK4   BANK5
  6095 ;;      Params:         2       0       0       0       0       0       0
  6096 ;;      Locals:         2       0       0       0       0       0       0
  6097 ;;      Temps:          2       0       0       0       0       0       0
  6098 ;;      Totals:         6       0       0       0       0       0       0
  6099 ;;Total ram usage:        6 bytes
  6100 ;; Hardware stack levels used: 1
  6101 ;; Hardware stack levels required when called: 2
  6102 ;; This function calls:
  6103 ;;		_serial_tx_char
  6104 ;; This function is called by:
  6105 ;;		_start_up_menu
  6106 ;;		_change_sequence
  6107 ;;		_add_component
  6108 ;;		_remove_component
  6109 ;; This function uses a non-reentrant model
  6110 ;;
  6111                           
  6112                           	psect	text20
  6113  002C00                     __ptext20:
  6114                           	callstack 0
  6115  002C00                     _print_string:
  6116                           	callstack 0
  6117  002C00  FFFF               	dw	65535	; assembler added errata NOP
  6118  002C02                     
  6119                           ;main.c: 375: void print_string(char strng[]);main.c: 376: {;main.c: 377:     for(int i 
      +                          =0; strng[i]!=((void*)0); i++){
  6120  002C02  0E00               	movlw	0
  6121  002C04  6E0E               	movwf	(print_string@i+1)^0,c
  6122  002C06  0E00               	movlw	0
  6123  002C08  6E0D               	movwf	print_string@i^0,c
  6124  002C0A  EF23  F016         	goto	l2826
  6125  002C0E                     l2822:
  6126  002C0E  FFFF               	dw	65535	; assembler added errata NOP
  6127                           
  6128                           ;main.c: 378:         serial_tx_char(strng[i]);
  6129  002C10  500D               	movf	print_string@i^0,w,c
  6130  002C12  2409               	addwf	print_string@strng^0,w,c
  6131  002C14  6E0B               	movwf	??_print_string^0,c
  6132  002C16  500E               	movf	(print_string@i+1)^0,w,c
  6133  002C18  200A               	addwfc	(print_string@strng+1)^0,w,c
  6134  002C1A  6E0C               	movwf	(??_print_string+1)^0,c
  6135  002C1C  C00B  FFF6         	movff	??_print_string,tblptrl
  6136  002C20  C00C  FFF7         	movff	??_print_string+1,tblptrh
  6137  002C24  6AF8               	clrf	tblptru,c
  6138  002C26  0E05               	movlw	(high __ramtop+-1)
  6139  002C28  64F7               	cpfsgt	tblptrh,c
  6140  002C2A  D004               	bra	u2687
  6141  002C2C  0008               	tblrd		*
  6142  002C2E  FFFF               	dw	65535	; errata NOP
  6143  002C30  50F5               	movf	tablat,w,c
  6144  002C32  D005               	bra	u2680
  6145  002C34                     u2687:
  6146  002C34  CFF6 FFE1          	movff	tblptrl,fsr1l
  6147  002C38  CFF7 FFE2          	movff	tblptrh,fsr1h
  6148  002C3C  50E7               	movf	indf1,w,c
  6149  002C3E                     u2680:
  6150  002C3E  EC43  F018         	call	_serial_tx_char
  6151  002C42                     
  6152                           ;main.c: 379:     }
  6153  002C42  4A0D               	infsnz	print_string@i^0,f,c
  6154  002C44  2A0E               	incf	(print_string@i+1)^0,f,c
  6155  002C46                     l2826:
  6156  002C46  FFFF               	dw	65535	; assembler added errata NOP
  6157  002C48  500D               	movf	print_string@i^0,w,c
  6158  002C4A  2409               	addwf	print_string@strng^0,w,c
  6159  002C4C  6E0B               	movwf	??_print_string^0,c
  6160  002C4E  500E               	movf	(print_string@i+1)^0,w,c
  6161  002C50  200A               	addwfc	(print_string@strng+1)^0,w,c
  6162  002C52  6E0C               	movwf	(??_print_string+1)^0,c
  6163  002C54  C00B  FFF6         	movff	??_print_string,tblptrl
  6164  002C58  C00C  FFF7         	movff	??_print_string+1,tblptrh
  6165  002C5C  6AF8               	clrf	tblptru,c
  6166  002C5E  0E05               	movlw	(high __ramtop+-1)
  6167  002C60  64F7               	cpfsgt	tblptrh,c
  6168  002C62  D004               	bra	u2697
  6169  002C64  0008               	tblrd		*
  6170  002C66  FFFF               	dw	65535	; errata NOP
  6171  002C68  50F5               	movf	tablat,w,c
  6172  002C6A  D005               	bra	u2690
  6173  002C6C                     u2697:
  6174  002C6C  CFF6 FFE1          	movff	tblptrl,fsr1l
  6175  002C70  CFF7 FFE2          	movff	tblptrh,fsr1h
  6176  002C74  50E7               	movf	indf1,w,c
  6177  002C76                     u2690:
  6178  002C76  0900               	iorlw	0
  6179  002C78  A4D8               	btfss	status,2,c
  6180  002C7A  EF41  F016         	goto	u2701
  6181  002C7E  EF44  F016         	goto	u2700
  6182  002C82                     u2701:
  6183  002C82  FFFF               	dw	65535	; assembler added errata NOP
  6184  002C84  EF07  F016         	goto	l2822
  6185  002C88                     u2700:
  6186  002C88  FFFF               	dw	65535	; assembler added errata NOP
  6187  002C8A  0012               	return		;funcret
  6188  002C8C  FFFF               	dw	65535	; errata NOP
  6189  002C8E                     __end_of_print_string:
  6190                           	callstack 0
  6191                           
  6192 ;; *************** function _serial_tx_char *****************
  6193 ;; Defined at:
  6194 ;;		line 44 in file "serial_rs232.c"
  6195 ;; Parameters:    Size  Location     Type
  6196 ;;  val             1    wreg     unsigned char 
  6197 ;; Auto vars:     Size  Location     Type
  6198 ;;  val             1    7[COMRAM] unsigned char 
  6199 ;; Return value:  Size  Location     Type
  6200 ;;                  1    wreg      void 
  6201 ;; Registers used:
  6202 ;;		wreg
  6203 ;; Tracked objects:
  6204 ;;		On entry : 0/0
  6205 ;;		On exit  : 0/0
  6206 ;;		Unchanged: 0/0
  6207 ;; Data sizes:     COMRAM   BANK0   BANK1   BANK2   BANK3   BANK4   BANK5
  6208 ;;      Params:         0       0       0       0       0       0       0
  6209 ;;      Locals:         1       0       0       0       0       0       0
  6210 ;;      Temps:          0       0       0       0       0       0       0
  6211 ;;      Totals:         1       0       0       0       0       0       0
  6212 ;;Total ram usage:        1 bytes
  6213 ;; Hardware stack levels used: 1
  6214 ;; Hardware stack levels required when called: 1
  6215 ;; This function calls:
  6216 ;;		Nothing
  6217 ;; This function is called by:
  6218 ;;		_add_component
  6219 ;;		_remove_component
  6220 ;;		_print_string
  6221 ;; This function uses a non-reentrant model
  6222 ;;
  6223                           
  6224                           	psect	text21
  6225  003086                     __ptext21:
  6226                           	callstack 0
  6227  003086                     _serial_tx_char:
  6228                           	callstack 0
  6229  003086  FFFF               	dw	65535	; assembler added errata NOP
  6230                           
  6231                           ;incstack = 0
  6232                           ;serial_tx_char@val stored from wreg
  6233  003088  6E08               	movwf	serial_tx_char@val^0,c
  6234  00308A                     
  6235                           ;serial_rs232.c: 44: void serial_tx_char(unsigned char val);serial_rs232.c: 45: {;serial
      +                          _rs232.c: 46:   TXREG=val;
  6236  00308A  C008  FFAD         	movff	serial_tx_char@val,4013	;volatile
  6237  00308E                     l48:
  6238  00308E  FFFF               	dw	65535	; assembler added errata NOP
  6239  003090  A2AC               	btfss	172,1,c	;volatile
  6240  003092  EF4D  F018         	goto	u2191
  6241  003096  EF50  F018         	goto	u2190
  6242  00309A                     u2191:
  6243  00309A  FFFF               	dw	65535	; assembler added errata NOP
  6244  00309C  EF47  F018         	goto	l48
  6245  0030A0                     u2190:
  6246  0030A0  FFFF               	dw	65535	; assembler added errata NOP
  6247  0030A2  0012               	return		;funcret
  6248  0030A4  FFFF               	dw	65535	; errata NOP
  6249  0030A6                     __end_of_serial_tx_char:
  6250                           	callstack 0
  6251                           
  6252 ;; *************** function _atoi *****************
  6253 ;; Defined at:
  6254 ;;		line 4 in file "/opt/microchip/xc8/v2.32/pic/sources/c99/common/atoi.c"
  6255 ;; Parameters:    Size  Location     Type
  6256 ;;  s               2   14[COMRAM] PTR const unsigned char 
  6257 ;;		 -> input_str(10), 
  6258 ;; Auto vars:     Size  Location     Type
  6259 ;;  n               2   27[COMRAM] int 
  6260 ;;  neg             2   20[COMRAM] int 
  6261 ;; Return value:  Size  Location     Type
  6262 ;;                  2   14[COMRAM] int 
  6263 ;; Registers used:
  6264 ;;		wreg, fsr2l, fsr2h, status,2, status,0, prodl, prodh, cstack
  6265 ;; Tracked objects:
  6266 ;;		On entry : 0/0
  6267 ;;		On exit  : 0/0
  6268 ;;		Unchanged: 0/0
  6269 ;; Data sizes:     COMRAM   BANK0   BANK1   BANK2   BANK3   BANK4   BANK5
  6270 ;;      Params:         2       0       0       0       0       0       0
  6271 ;;      Locals:         9       0       0       0       0       0       0
  6272 ;;      Temps:          4       0       0       0       0       0       0
  6273 ;;      Totals:        15       0       0       0       0       0       0
  6274 ;;Total ram usage:       15 bytes
  6275 ;; Hardware stack levels used: 1
  6276 ;; Hardware stack levels required when called: 2
  6277 ;; This function calls:
  6278 ;;		___wmul
  6279 ;;		_isdigit
  6280 ;;		_isspace
  6281 ;; This function is called by:
  6282 ;;		_add_component
  6283 ;; This function uses a non-reentrant model
  6284 ;;
  6285                           
  6286                           	psect	text22
  6287  001E0C                     __ptext22:
  6288                           	callstack 0
  6289  001E0C                     _atoi:
  6290                           	callstack 0
  6291  001E0C  FFFF               	dw	65535	; assembler added errata NOP
  6292  001E0E  0E00               	movlw	0
  6293  001E10  6E1D               	movwf	(atoi@n+1)^0,c
  6294  001E12  0E00               	movlw	0
  6295  001E14  6E1C               	movwf	atoi@n^0,c
  6296  001E16  0E00               	movlw	0
  6297  001E18  6E16               	movwf	(atoi@neg+1)^0,c
  6298  001E1A  0E00               	movlw	0
  6299  001E1C  6E15               	movwf	atoi@neg^0,c
  6300  001E1E  EF14  F00F         	goto	l2832
  6301  001E22                     l2830:
  6302  001E22  FFFF               	dw	65535	; assembler added errata NOP
  6303  001E24  4A0F               	infsnz	atoi@s^0,f,c
  6304  001E26  2A10               	incf	(atoi@s+1)^0,f,c
  6305  001E28                     l2832:
  6306  001E28  FFFF               	dw	65535	; assembler added errata NOP
  6307  001E2A  0E01               	movlw	1
  6308  001E2C  6E1B               	movwf	_atoi$1073^0,c
  6309  001E2E  C00F  FFD9         	movff	atoi@s,fsr2l
  6310  001E32  C010  FFDA         	movff	atoi@s+1,fsr2h
  6311  001E36  0E20               	movlw	32
  6312  001E38  18DE               	xorwf	postinc2,w,c
  6313  001E3A  B4D8               	btfsc	status,2,c
  6314  001E3C  EF22  F00F         	goto	u2711
  6315  001E40  EF25  F00F         	goto	u2710
  6316  001E44                     u2711:
  6317  001E44  FFFF               	dw	65535	; assembler added errata NOP
  6318  001E46  EF44  F00F         	goto	l2840
  6319  001E4A                     u2710:
  6320  001E4A  FFFF               	dw	65535	; assembler added errata NOP
  6321  001E4C  0EF7               	movlw	247
  6322  001E4E  6E11               	movwf	??_atoi^0,c
  6323  001E50  0EFF               	movlw	255
  6324  001E52  6E12               	movwf	(??_atoi+1)^0,c
  6325  001E54  C00F  FFD9         	movff	atoi@s,fsr2l
  6326  001E58  C010  FFDA         	movff	atoi@s+1,fsr2h
  6327  001E5C  50DF               	movf	indf2,w,c
  6328  001E5E  6E13               	movwf	(??_atoi+2)^0,c
  6329  001E60  6A14               	clrf	(??_atoi+3)^0,c
  6330  001E62  5011               	movf	??_atoi^0,w,c
  6331  001E64  2613               	addwf	(??_atoi+2)^0,f,c
  6332  001E66  5012               	movf	(??_atoi+1)^0,w,c
  6333  001E68  2214               	addwfc	(??_atoi+3)^0,f,c
  6334  001E6A  5014               	movf	(??_atoi+3)^0,w,c
  6335  001E6C  E10A               	bnz	u2720
  6336  001E6E  0E05               	movlw	5
  6337  001E70  5C13               	subwf	(??_atoi+2)^0,w,c
  6338  001E72  A0D8               	btfss	status,0,c
  6339  001E74  EF3E  F00F         	goto	u2721
  6340  001E78  EF41  F00F         	goto	u2720
  6341  001E7C                     u2721:
  6342  001E7C  FFFF               	dw	65535	; assembler added errata NOP
  6343  001E7E  EF44  F00F         	goto	l2840
  6344  001E82                     u2720:
  6345  001E82  FFFF               	dw	65535	; assembler added errata NOP
  6346  001E84  0E00               	movlw	0
  6347  001E86  6E1B               	movwf	_atoi$1073^0,c
  6348  001E88                     l2840:
  6349  001E88  FFFF               	dw	65535	; assembler added errata NOP
  6350  001E8A  C01B  F017         	movff	_atoi$1073,_atoi$1072
  6351  001E8E  6A18               	clrf	(_atoi$1072+1)^0,c
  6352  001E90  5017               	movf	_atoi$1072^0,w,c
  6353  001E92  1018               	iorwf	(_atoi$1072+1)^0,w,c
  6354  001E94  A4D8               	btfss	status,2,c
  6355  001E96  EF4F  F00F         	goto	u2731
  6356  001E9A  EF52  F00F         	goto	u2730
  6357  001E9E                     u2731:
  6358  001E9E  FFFF               	dw	65535	; assembler added errata NOP
  6359  001EA0  EF11  F00F         	goto	l2830
  6360  001EA4                     u2730:
  6361  001EA4  FFFF               	dw	65535	; assembler added errata NOP
  6362  001EA6  EF5F  F00F         	goto	l2850
  6363  001EAA                     l2846:
  6364  001EAA  FFFF               	dw	65535	; assembler added errata NOP
  6365  001EAC  0E00               	movlw	0
  6366  001EAE  6E16               	movwf	(atoi@neg+1)^0,c
  6367  001EB0  0E01               	movlw	1
  6368  001EB2  6E15               	movwf	atoi@neg^0,c
  6369  001EB4                     l2848:
  6370  001EB4  FFFF               	dw	65535	; assembler added errata NOP
  6371  001EB6  4A0F               	infsnz	atoi@s^0,f,c
  6372  001EB8  2A10               	incf	(atoi@s+1)^0,f,c
  6373  001EBA  EF97  F00F         	goto	l2856
  6374  001EBE                     l2850:
  6375  001EBE  FFFF               	dw	65535	; assembler added errata NOP
  6376  001EC0  C00F  FFD9         	movff	atoi@s,fsr2l
  6377  001EC4  C010  FFDA         	movff	atoi@s+1,fsr2h
  6378  001EC8  50DF               	movf	indf2,w,c
  6379  001ECA  6E11               	movwf	??_atoi^0,c
  6380  001ECC  6A12               	clrf	(??_atoi+1)^0,c
  6381                           
  6382                           ; Switch on 2 bytes has been partitioned into a top level switch of size 1, and 1 sub-sw
      +                          itches
  6383                           ; Switch size 1, requested type "simple"
  6384                           ; Number of cases is 1, Range of values is 0 to 0
  6385                           ; switch strategies available:
  6386                           ; Name         Instructions Cycles
  6387                           ; simple_byte            4     3 (average)
  6388                           ;	Chosen strategy is simple_byte
  6389  001ECE  5012               	movf	(??_atoi+1)^0,w,c
  6390  001ED0  0A00               	xorlw	0	; case 0
  6391  001ED2  B4D8               	btfsc	status,2,c
  6392  001ED4  EF6E  F00F         	goto	l4682
  6393  001ED8  EF97  F00F         	goto	l2856
  6394  001EDC                     l4682:
  6395  001EDC  FFFF               	dw	65535	; assembler added errata NOP
  6396                           
  6397                           ; Switch size 1, requested type "simple"
  6398                           ; Number of cases is 2, Range of values is 43 to 45
  6399                           ; switch strategies available:
  6400                           ; Name         Instructions Cycles
  6401                           ; simple_byte            7     4 (average)
  6402                           ;	Chosen strategy is simple_byte
  6403  001EDE  5011               	movf	??_atoi^0,w,c
  6404  001EE0  0A2B               	xorlw	43	; case 43
  6405  001EE2  B4D8               	btfsc	status,2,c
  6406  001EE4  EF5A  F00F         	goto	l2848
  6407  001EE8  0A06               	xorlw	6	; case 45
  6408  001EEA  B4D8               	btfsc	status,2,c
  6409  001EEC  EF55  F00F         	goto	l2846
  6410  001EF0  EF97  F00F         	goto	l2856
  6411  001EF4                     l2852:
  6412  001EF4  FFFF               	dw	65535	; assembler added errata NOP
  6413  001EF6  C01C  F008         	movff	atoi@n,___wmul@multiplier
  6414  001EFA  C01D  F009         	movff	atoi@n+1,___wmul@multiplier+1
  6415  001EFE  0E00               	movlw	0
  6416  001F00  6E0B               	movwf	(___wmul@multiplicand+1)^0,c
  6417  001F02  0E0A               	movlw	10
  6418  001F04  6E0A               	movwf	___wmul@multiplicand^0,c
  6419  001F06  EC1D  F018         	call	___wmul	;wreg free
  6420  001F0A  C00F  FFD9         	movff	atoi@s,fsr2l
  6421  001F0E  C010  FFDA         	movff	atoi@s+1,fsr2h
  6422  001F12  50DF               	movf	indf2,w,c
  6423  001F14  6E11               	movwf	??_atoi^0,c
  6424  001F16  5011               	movf	??_atoi^0,w,c
  6425  001F18  5E08               	subwf	?___wmul^0,f,c
  6426  001F1A  0E00               	movlw	0
  6427  001F1C  5A09               	subwfb	(?___wmul+1)^0,f,c
  6428  001F1E  0E30               	movlw	48
  6429  001F20  2408               	addwf	?___wmul^0,w,c
  6430  001F22  6E1C               	movwf	atoi@n^0,c
  6431  001F24  0E00               	movlw	0
  6432  001F26  2009               	addwfc	(?___wmul+1)^0,w,c
  6433  001F28  6E1D               	movwf	(atoi@n+1)^0,c
  6434  001F2A  EF5A  F00F         	goto	l2848
  6435  001F2E                     l2856:
  6436  001F2E  FFFF               	dw	65535	; assembler added errata NOP
  6437  001F30  0ED0               	movlw	208
  6438  001F32  6E11               	movwf	??_atoi^0,c
  6439  001F34  0EFF               	movlw	255
  6440  001F36  6E12               	movwf	(??_atoi+1)^0,c
  6441  001F38  C00F  FFD9         	movff	atoi@s,fsr2l
  6442  001F3C  C010  FFDA         	movff	atoi@s+1,fsr2h
  6443  001F40  50DF               	movf	indf2,w,c
  6444  001F42  6E13               	movwf	(??_atoi+2)^0,c
  6445  001F44  6A14               	clrf	(??_atoi+3)^0,c
  6446  001F46  5011               	movf	??_atoi^0,w,c
  6447  001F48  2613               	addwf	(??_atoi+2)^0,f,c
  6448  001F4A  5012               	movf	(??_atoi+1)^0,w,c
  6449  001F4C  2214               	addwfc	(??_atoi+3)^0,f,c
  6450  001F4E  5014               	movf	(??_atoi+3)^0,w,c
  6451  001F50  E10B               	bnz	u2740
  6452  001F52  0E0A               	movlw	10
  6453  001F54  5C13               	subwf	(??_atoi+2)^0,w,c
  6454  001F56  A0D8               	btfss	status,0,c
  6455  001F58  EFB0  F00F         	goto	u2741
  6456  001F5C  EFB4  F00F         	goto	u2740
  6457  001F60                     u2741:
  6458  001F60  FFFF               	dw	65535	; assembler added errata NOP
  6459  001F62  0E01               	movlw	1
  6460  001F64  EFB6  F00F         	goto	u2750
  6461  001F68                     u2740:
  6462  001F68  FFFF               	dw	65535	; assembler added errata NOP
  6463  001F6A  0E00               	movlw	0
  6464  001F6C                     u2750:
  6465  001F6C  FFFF               	dw	65535	; assembler added errata NOP
  6466  001F6E  6E19               	movwf	_atoi$1074^0,c
  6467  001F70  6A1A               	clrf	(_atoi$1074+1)^0,c
  6468  001F72  5019               	movf	_atoi$1074^0,w,c
  6469  001F74  101A               	iorwf	(_atoi$1074+1)^0,w,c
  6470  001F76  A4D8               	btfss	status,2,c
  6471  001F78  EFC0  F00F         	goto	u2761
  6472  001F7C  EFC3  F00F         	goto	u2760
  6473  001F80                     u2761:
  6474  001F80  FFFF               	dw	65535	; assembler added errata NOP
  6475  001F82  EF7A  F00F         	goto	l2852
  6476  001F86                     u2760:
  6477  001F86  FFFF               	dw	65535	; assembler added errata NOP
  6478  001F88  5015               	movf	atoi@neg^0,w,c
  6479  001F8A  1016               	iorwf	(atoi@neg+1)^0,w,c
  6480  001F8C  A4D8               	btfss	status,2,c
  6481  001F8E  EFCB  F00F         	goto	u2771
  6482  001F92  EFCE  F00F         	goto	u2770
  6483  001F96                     u2771:
  6484  001F96  FFFF               	dw	65535	; assembler added errata NOP
  6485  001F98  EFDD  F00F         	goto	l1108
  6486  001F9C                     u2770:
  6487  001F9C  FFFF               	dw	65535	; assembler added errata NOP
  6488  001F9E  C01C  F011         	movff	atoi@n,??_atoi
  6489  001FA2  C01D  F012         	movff	atoi@n+1,??_atoi+1
  6490  001FA6  1E11               	comf	??_atoi^0,f,c
  6491  001FA8  1E12               	comf	(??_atoi+1)^0,f,c
  6492  001FAA  4A11               	infsnz	??_atoi^0,f,c
  6493  001FAC  2A12               	incf	(??_atoi+1)^0,f,c
  6494  001FAE  C011  F00F         	movff	??_atoi,?_atoi
  6495  001FB2  C012  F010         	movff	??_atoi+1,?_atoi+1
  6496  001FB6  EFE2  F00F         	goto	l1111
  6497  001FBA                     l1108:
  6498  001FBA  FFFF               	dw	65535	; assembler added errata NOP
  6499  001FBC  C01C  F00F         	movff	atoi@n,?_atoi
  6500  001FC0  C01D  F010         	movff	atoi@n+1,?_atoi+1
  6501  001FC4                     l1111:
  6502  001FC4  FFFF               	dw	65535	; assembler added errata NOP
  6503  001FC6  0012               	return		;funcret
  6504  001FC8  FFFF               	dw	65535	; errata NOP
  6505  001FCA                     __end_of_atoi:
  6506                           	callstack 0
  6507                           
  6508 ;; *************** function _isspace *****************
  6509 ;; Defined at:
  6510 ;;		line 5 in file "/opt/microchip/xc8/v2.32/pic/sources/c99/common/isspace.c"
  6511 ;; Parameters:    Size  Location     Type
  6512 ;;  c               2    7[COMRAM] int 
  6513 ;; Auto vars:     Size  Location     Type
  6514 ;;		None
  6515 ;; Return value:  Size  Location     Type
  6516 ;;                  2    7[COMRAM] int 
  6517 ;; Registers used:
  6518 ;;		wreg, status,2, status,0
  6519 ;; Tracked objects:
  6520 ;;		On entry : 0/0
  6521 ;;		On exit  : 0/0
  6522 ;;		Unchanged: 0/0
  6523 ;; Data sizes:     COMRAM   BANK0   BANK1   BANK2   BANK3   BANK4   BANK5
  6524 ;;      Params:         2       0       0       0       0       0       0
  6525 ;;      Locals:         1       0       0       0       0       0       0
  6526 ;;      Temps:          4       0       0       0       0       0       0
  6527 ;;      Totals:         7       0       0       0       0       0       0
  6528 ;;Total ram usage:        7 bytes
  6529 ;; Hardware stack levels used: 1
  6530 ;; Hardware stack levels required when called: 1
  6531 ;; This function calls:
  6532 ;;		Nothing
  6533 ;; This function is called by:
  6534 ;;		_atoi
  6535 ;; This function uses a non-reentrant model
  6536 ;;
  6537                           
  6538                           	psect	text23
  6539  002D96                     __ptext23:
  6540                           	callstack 0
  6541  002D96                     _isspace:
  6542                           	callstack 26
  6543  002D96  FFFF               	dw	65535	; assembler added errata NOP
  6544  002D98  0E01               	movlw	1
  6545  002D9A  6E0E               	movwf	_isspace$1090^0,c
  6546  002D9C  0E20               	movlw	32
  6547  002D9E  1808               	xorwf	isspace@c^0,w,c
  6548  002DA0  1009               	iorwf	(isspace@c+1)^0,w,c
  6549  002DA2  B4D8               	btfsc	status,2,c
  6550  002DA4  EFD6  F016         	goto	u2621
  6551  002DA8  EFD9  F016         	goto	u2620
  6552  002DAC                     u2621:
  6553  002DAC  FFFF               	dw	65535	; assembler added errata NOP
  6554  002DAE  EFF5  F016         	goto	l2796
  6555  002DB2                     u2620:
  6556  002DB2  FFFF               	dw	65535	; assembler added errata NOP
  6557  002DB4  0EF7               	movlw	247
  6558  002DB6  6E0A               	movwf	??_isspace^0,c
  6559  002DB8  0EFF               	movlw	255
  6560  002DBA  6E0B               	movwf	(??_isspace+1)^0,c
  6561  002DBC  C008  F00C         	movff	isspace@c,??_isspace+2
  6562  002DC0  C009  F00D         	movff	isspace@c+1,??_isspace+3
  6563  002DC4  500A               	movf	??_isspace^0,w,c
  6564  002DC6  260C               	addwf	(??_isspace+2)^0,f,c
  6565  002DC8  500B               	movf	(??_isspace+1)^0,w,c
  6566  002DCA  220D               	addwfc	(??_isspace+3)^0,f,c
  6567  002DCC  500D               	movf	(??_isspace+3)^0,w,c
  6568  002DCE  E10A               	bnz	u2630
  6569  002DD0  0E05               	movlw	5
  6570  002DD2  5C0C               	subwf	(??_isspace+2)^0,w,c
  6571  002DD4  A0D8               	btfss	status,0,c
  6572  002DD6  EFEF  F016         	goto	u2631
  6573  002DDA  EFF2  F016         	goto	u2630
  6574  002DDE                     u2631:
  6575  002DDE  FFFF               	dw	65535	; assembler added errata NOP
  6576  002DE0  EFF5  F016         	goto	l2796
  6577  002DE4                     u2630:
  6578  002DE4  FFFF               	dw	65535	; assembler added errata NOP
  6579  002DE6  0E00               	movlw	0
  6580  002DE8  6E0E               	movwf	_isspace$1090^0,c
  6581  002DEA                     l2796:
  6582  002DEA  FFFF               	dw	65535	; assembler added errata NOP
  6583  002DEC  C00E  F008         	movff	_isspace$1090,?_isspace
  6584  002DF0  6A09               	clrf	(?_isspace+1)^0,c
  6585  002DF2  0012               	return		;funcret
  6586  002DF4  FFFF               	dw	65535	; errata NOP
  6587  002DF6                     __end_of_isspace:
  6588                           	callstack 0
  6589                           
  6590 ;; *************** function _isdigit *****************
  6591 ;; Defined at:
  6592 ;;		line 5 in file "/opt/microchip/xc8/v2.32/pic/sources/c99/common/isdigit.c"
  6593 ;; Parameters:    Size  Location     Type
  6594 ;;  c               2    7[COMRAM] int 
  6595 ;; Auto vars:     Size  Location     Type
  6596 ;;		None
  6597 ;; Return value:  Size  Location     Type
  6598 ;;                  2    7[COMRAM] int 
  6599 ;; Registers used:
  6600 ;;		wreg, status,2, status,0
  6601 ;; Tracked objects:
  6602 ;;		On entry : 0/0
  6603 ;;		On exit  : 0/0
  6604 ;;		Unchanged: 0/0
  6605 ;; Data sizes:     COMRAM   BANK0   BANK1   BANK2   BANK3   BANK4   BANK5
  6606 ;;      Params:         2       0       0       0       0       0       0
  6607 ;;      Locals:         0       0       0       0       0       0       0
  6608 ;;      Temps:          4       0       0       0       0       0       0
  6609 ;;      Totals:         6       0       0       0       0       0       0
  6610 ;;Total ram usage:        6 bytes
  6611 ;; Hardware stack levels used: 1
  6612 ;; Hardware stack levels required when called: 1
  6613 ;; This function calls:
  6614 ;;		Nothing
  6615 ;; This function is called by:
  6616 ;;		_atoi
  6617 ;; This function uses a non-reentrant model
  6618 ;;
  6619                           
  6620                           	psect	text24
  6621  002F3C                     __ptext24:
  6622                           	callstack 0
  6623  002F3C                     _isdigit:
  6624                           	callstack 26
  6625  002F3C  FFFF               	dw	65535	; assembler added errata NOP
  6626  002F3E  0ED0               	movlw	208
  6627  002F40  6E0A               	movwf	??_isdigit^0,c
  6628  002F42  0EFF               	movlw	255
  6629  002F44  6E0B               	movwf	(??_isdigit+1)^0,c
  6630  002F46  C008  F00C         	movff	isdigit@c,??_isdigit+2
  6631  002F4A  C009  F00D         	movff	isdigit@c+1,??_isdigit+3
  6632  002F4E  500A               	movf	??_isdigit^0,w,c
  6633  002F50  260C               	addwf	(??_isdigit+2)^0,f,c
  6634  002F52  500B               	movf	(??_isdigit+1)^0,w,c
  6635  002F54  220D               	addwfc	(??_isdigit+3)^0,f,c
  6636  002F56  500D               	movf	(??_isdigit+3)^0,w,c
  6637  002F58  E10B               	bnz	u2640
  6638  002F5A  0E0A               	movlw	10
  6639  002F5C  5C0C               	subwf	(??_isdigit+2)^0,w,c
  6640  002F5E  A0D8               	btfss	status,0,c
  6641  002F60  EFB4  F017         	goto	u2641
  6642  002F64  EFB8  F017         	goto	u2640
  6643  002F68                     u2641:
  6644  002F68  FFFF               	dw	65535	; assembler added errata NOP
  6645  002F6A  0E01               	movlw	1
  6646  002F6C  EFBA  F017         	goto	u2650
  6647  002F70                     u2640:
  6648  002F70  FFFF               	dw	65535	; assembler added errata NOP
  6649  002F72  0E00               	movlw	0
  6650  002F74                     u2650:
  6651  002F74  FFFF               	dw	65535	; assembler added errata NOP
  6652  002F76  6E08               	movwf	?_isdigit^0,c
  6653  002F78  6A09               	clrf	(?_isdigit+1)^0,c
  6654  002F7A  0012               	return		;funcret
  6655  002F7C  FFFF               	dw	65535	; errata NOP
  6656  002F7E                     __end_of_isdigit:
  6657                           	callstack 0
  6658                           
  6659 ;; *************** function ___wmul *****************
  6660 ;; Defined at:
  6661 ;;		line 15 in file "/opt/microchip/xc8/v2.32/pic/sources/c99/common/Umul16.c"
  6662 ;; Parameters:    Size  Location     Type
  6663 ;;  multiplier      2    7[COMRAM] unsigned int 
  6664 ;;  multiplicand    2    9[COMRAM] unsigned int 
  6665 ;; Auto vars:     Size  Location     Type
  6666 ;;  product         2   11[COMRAM] unsigned int 
  6667 ;; Return value:  Size  Location     Type
  6668 ;;                  2    7[COMRAM] unsigned int 
  6669 ;; Registers used:
  6670 ;;		wreg, status,2, status,0, prodl, prodh
  6671 ;; Tracked objects:
  6672 ;;		On entry : 0/0
  6673 ;;		On exit  : 0/0
  6674 ;;		Unchanged: 0/0
  6675 ;; Data sizes:     COMRAM   BANK0   BANK1   BANK2   BANK3   BANK4   BANK5
  6676 ;;      Params:         4       0       0       0       0       0       0
  6677 ;;      Locals:         2       0       0       0       0       0       0
  6678 ;;      Temps:          0       0       0       0       0       0       0
  6679 ;;      Totals:         6       0       0       0       0       0       0
  6680 ;;Total ram usage:        6 bytes
  6681 ;; Hardware stack levels used: 1
  6682 ;; Hardware stack levels required when called: 1
  6683 ;; This function calls:
  6684 ;;		Nothing
  6685 ;; This function is called by:
  6686 ;;		_atoi
  6687 ;; This function uses a non-reentrant model
  6688 ;;
  6689                           
  6690                           	psect	text25
  6691  00303A                     __ptext25:
  6692                           	callstack 0
  6693  00303A                     ___wmul:
  6694                           	callstack 0
  6695  00303A  FFFF               	dw	65535	; assembler added errata NOP
  6696  00303C  5008               	movf	___wmul@multiplier^0,w,c
  6697  00303E  020A               	mulwf	___wmul@multiplicand^0,c
  6698  003040  CFF3 F00C          	movff	prodl,___wmul@product
  6699  003044  CFF4 F00D          	movff	prodh,___wmul@product+1
  6700  003048  5008               	movf	___wmul@multiplier^0,w,c
  6701  00304A  020B               	mulwf	(___wmul@multiplicand+1)^0,c
  6702  00304C  50F3               	movf	243,w,c
  6703  00304E  260D               	addwf	(___wmul@product+1)^0,f,c
  6704  003050  5009               	movf	(___wmul@multiplier+1)^0,w,c
  6705  003052  020A               	mulwf	___wmul@multiplicand^0,c
  6706  003054  50F3               	movf	243,w,c
  6707  003056  260D               	addwf	(___wmul@product+1)^0,f,c
  6708  003058  C00C  F008         	movff	___wmul@product,?___wmul
  6709  00305C  C00D  F009         	movff	___wmul@product+1,?___wmul+1
  6710  003060  0012               	return		;funcret
  6711  003062  FFFF               	dw	65535	; errata NOP
  6712  003064                     __end_of___wmul:
  6713                           	callstack 0
  6714                           
  6715 ;; *************** function _init_interrupts *****************
  6716 ;; Defined at:
  6717 ;;		line 27 in file "init_PIC.c"
  6718 ;; Parameters:    Size  Location     Type
  6719 ;;		None
  6720 ;; Auto vars:     Size  Location     Type
  6721 ;;		None
  6722 ;; Return value:  Size  Location     Type
  6723 ;;                  1    wreg      void 
  6724 ;; Registers used:
  6725 ;;		None
  6726 ;; Tracked objects:
  6727 ;;		On entry : 0/0
  6728 ;;		On exit  : 0/0
  6729 ;;		Unchanged: 0/0
  6730 ;; Data sizes:     COMRAM   BANK0   BANK1   BANK2   BANK3   BANK4   BANK5
  6731 ;;      Params:         0       0       0       0       0       0       0
  6732 ;;      Locals:         0       0       0       0       0       0       0
  6733 ;;      Temps:          0       0       0       0       0       0       0
  6734 ;;      Totals:         0       0       0       0       0       0       0
  6735 ;;Total ram usage:        0 bytes
  6736 ;; Hardware stack levels used: 1
  6737 ;; Hardware stack levels required when called: 1
  6738 ;; This function calls:
  6739 ;;		Nothing
  6740 ;; This function is called by:
  6741 ;;		_main
  6742 ;; This function uses a non-reentrant model
  6743 ;;
  6744                           
  6745                           	psect	text26
  6746  0030DC                     __ptext26:
  6747                           	callstack 0
  6748  0030DC                     _init_interrupts:
  6749                           	callstack 0
  6750  0030DC  FFFF               	dw	65535	; assembler added errata NOP
  6751  0030DE                     
  6752                           ;init_PIC.c: 29:     PIR1bits.RCIF = 0;
  6753  0030DE  9A9E               	bcf	158,5,c	;volatile
  6754                           
  6755                           ;init_PIC.c: 30:  PIE1bits.RCIE = 1;
  6756  0030E0  8A9D               	bsf	157,5,c	;volatile
  6757                           
  6758                           ;init_PIC.c: 31:  INTCONbits.PEIE = 1;
  6759  0030E2  8CF2               	bsf	242,6,c	;volatile
  6760  0030E4  0012               	return		;funcret
  6761  0030E6  FFFF               	dw	65535	; errata NOP
  6762  0030E8                     __end_of_init_interrupts:
  6763                           	callstack 0
  6764                           
  6765 ;; *************** function _init_USART *****************
  6766 ;; Defined at:
  6767 ;;		line 17 in file "serial_rs232.c"
  6768 ;; Parameters:    Size  Location     Type
  6769 ;;		None
  6770 ;; Auto vars:     Size  Location     Type
  6771 ;;		None
  6772 ;; Return value:  Size  Location     Type
  6773 ;;                  1    wreg      void 
  6774 ;; Registers used:
  6775 ;;		wreg, status,2, status,0, prodl, prodh, cstack
  6776 ;; Tracked objects:
  6777 ;;		On entry : 0/0
  6778 ;;		On exit  : 0/0
  6779 ;;		Unchanged: 0/0
  6780 ;; Data sizes:     COMRAM   BANK0   BANK1   BANK2   BANK3   BANK4   BANK5
  6781 ;;      Params:         0       0       0       0       0       0       0
  6782 ;;      Locals:         0       0       0       0       0       0       0
  6783 ;;      Temps:          0       0       0       0       0       0       0
  6784 ;;      Totals:         0       0       0       0       0       0       0
  6785 ;;Total ram usage:        0 bytes
  6786 ;; Hardware stack levels used: 1
  6787 ;; Hardware stack levels required when called: 4
  6788 ;; This function calls:
  6789 ;;		___fltol
  6790 ;;		_roundf
  6791 ;; This function is called by:
  6792 ;;		_main
  6793 ;; This function uses a non-reentrant model
  6794 ;;
  6795                           
  6796                           	psect	text27
  6797  002FC0                     __ptext27:
  6798                           	callstack 0
  6799  002FC0                     _init_USART:
  6800                           	callstack 0
  6801  002FC0  FFFF               	dw	65535	; assembler added errata NOP
  6802  002FC2                     
  6803                           ;serial_rs232.c: 33:     SPBRG = roundf(((Fosc / desired_BaudRate)/16)-1);
  6804  002FC2  0E55               	movlw	85
  6805  002FC4  6E3B               	movwf	roundf@x^0,c
  6806  002FC6  0E55               	movlw	85
  6807  002FC8  6E3C               	movwf	(roundf@x+1)^0,c
  6808  002FCA  0EC8               	movlw	200
  6809  002FCC  6E3D               	movwf	(roundf@x+2)^0,c
  6810  002FCE  0E41               	movlw	65
  6811  002FD0  6E3E               	movwf	(roundf@x+3)^0,c
  6812  002FD2  EC04  F00B         	call	_roundf	;wreg free
  6813  002FD6  C03B  F055         	movff	?_roundf,___fltol@f1
  6814  002FDA  C03C  F056         	movff	?_roundf+1,___fltol@f1+1
  6815  002FDE  C03D  F057         	movff	?_roundf+2,___fltol@f1+2
  6816  002FE2  C03E  F058         	movff	?_roundf+3,___fltol@f1+3
  6817  002FE6  EC27  F011         	call	___fltol	;wreg free
  6818  002FEA  5055               	movf	?___fltol^0,w,c
  6819  002FEC  6EAF               	movwf	175,c	;volatile
  6820  002FEE                     
  6821                           ;serial_rs232.c: 35:  TXSTAbits.TX9=0;
  6822  002FEE  9CAC               	bcf	172,6,c	;volatile
  6823  002FF0                     
  6824                           ;serial_rs232.c: 36:     TXSTAbits.TXEN=1;
  6825  002FF0  8AAC               	bsf	172,5,c	;volatile
  6826  002FF2                     
  6827                           ;serial_rs232.c: 37:     TXSTAbits.SYNC=0;
  6828  002FF2  98AC               	bcf	172,4,c	;volatile
  6829  002FF4                     
  6830                           ;serial_rs232.c: 38:     TXSTAbits.BRGH=1;
  6831  002FF4  84AC               	bsf	172,2,c	;volatile
  6832  002FF6                     
  6833                           ;serial_rs232.c: 39:     RCSTAbits.SPEN=1;
  6834  002FF6  8EAB               	bsf	171,7,c	;volatile
  6835  002FF8                     
  6836                           ;serial_rs232.c: 40:     RCSTAbits.RX9=0;
  6837  002FF8  9CAB               	bcf	171,6,c	;volatile
  6838  002FFA                     
  6839                           ;serial_rs232.c: 41:     RCSTAbits.CREN=1;
  6840  002FFA  88AB               	bsf	171,4,c	;volatile
  6841  002FFC  0012               	return		;funcret
  6842  002FFE  FFFF               	dw	65535	; errata NOP
  6843  003000                     __end_of_init_USART:
  6844                           	callstack 0
  6845                           
  6846 ;; *************** function _roundf *****************
  6847 ;; Defined at:
  6848 ;;		line 12 in file "/opt/microchip/xc8/v2.32/pic/sources/c99/common/roundf.c"
  6849 ;; Parameters:    Size  Location     Type
  6850 ;;  x               4   58[COMRAM] float 
  6851 ;; Auto vars:     Size  Location     Type
  6852 ;;  y               4   80[COMRAM] float 
  6853 ;;  u               4   76[COMRAM] struct .
  6854 ;;  e               2   70[COMRAM] int 
  6855 ;; Return value:  Size  Location     Type
  6856 ;;                  4   58[COMRAM] float 
  6857 ;; Registers used:
  6858 ;;		wreg, status,2, status,0, prodl, prodh, cstack
  6859 ;; Tracked objects:
  6860 ;;		On entry : 0/0
  6861 ;;		On exit  : 0/0
  6862 ;;		Unchanged: 0/0
  6863 ;; Data sizes:     COMRAM   BANK0   BANK1   BANK2   BANK3   BANK4   BANK5
  6864 ;;      Params:         4       0       0       0       0       0       0
  6865 ;;      Locals:        18       0       0       0       0       0       0
  6866 ;;      Temps:          4       0       0       0       0       0       0
  6867 ;;      Totals:        26       0       0       0       0       0       0
  6868 ;;Total ram usage:       26 bytes
  6869 ;; Hardware stack levels used: 1
  6870 ;; Hardware stack levels required when called: 3
  6871 ;; This function calls:
  6872 ;;		___fladd
  6873 ;;		___flge
  6874 ;;		___flmul
  6875 ;;		___flneg
  6876 ;;		___flsub
  6877 ;; This function is called by:
  6878 ;;		_init_USART
  6879 ;; This function uses a non-reentrant model
  6880 ;;
  6881                           
  6882                           	psect	text28
  6883  001608                     __ptext28:
  6884                           	callstack 0
  6885  001608                     _roundf:
  6886                           	callstack 0
  6887  001608  FFFF               	dw	65535	; assembler added errata NOP
  6888  00160A  C09E  F04D         	movff	roundf@F528,roundf@u
  6889  00160E  C09F  F04E         	movff	roundf@F528+1,roundf@u+1
  6890  001612  C0A0  F04F         	movff	roundf@F528+2,roundf@u+2
  6891  001616  C0A1  F050         	movff	roundf@F528+3,roundf@u+3
  6892  00161A  C03B  F04D         	movff	roundf@x,roundf@u
  6893  00161E  C03C  F04E         	movff	roundf@x+1,roundf@u+1
  6894  001622  C03D  F04F         	movff	roundf@x+2,roundf@u+2
  6895  001626  C03E  F050         	movff	roundf@x+3,roundf@u+3
  6896  00162A  C04D  F03F         	movff	roundf@u,??_roundf
  6897  00162E  C04E  F040         	movff	roundf@u+1,??_roundf+1
  6898  001632  C04F  F041         	movff	roundf@u+2,??_roundf+2
  6899  001636  C050  F042         	movff	roundf@u+3,??_roundf+3
  6900  00163A  0E18               	movlw	24
  6901  00163C  EF26  F00B         	goto	u4930
  6902  001640                     u4935:
  6903  001640  FFFF               	dw	65535	; assembler added errata NOP
  6904  001642  90D8               	bcf	status,0,c
  6905  001644  3242               	rrcf	(??_roundf+3)^0,f,c
  6906  001646  3241               	rrcf	(??_roundf+2)^0,f,c
  6907  001648  3240               	rrcf	(??_roundf+1)^0,f,c
  6908  00164A  323F               	rrcf	??_roundf^0,f,c
  6909  00164C                     u4930:
  6910  00164C  FFFF               	dw	65535	; assembler added errata NOP
  6911  00164E  2EE8               	decfsz	wreg,f,c
  6912  001650  EF20  F00B         	goto	u4935
  6913  001654  503F               	movf	??_roundf^0,w,c
  6914  001656  6E47               	movwf	roundf@e^0,c
  6915  001658  6A48               	clrf	(roundf@e+1)^0,c
  6916  00165A  BE48               	btfsc	(roundf@e+1)^0,7,c
  6917  00165C  EF39  F00B         	goto	u4941
  6918  001660  5048               	movf	(roundf@e+1)^0,w,c
  6919  001662  E10A               	bnz	u4940
  6920  001664  0E96               	movlw	150
  6921  001666  5C47               	subwf	roundf@e^0,w,c
  6922  001668  A0D8               	btfss	status,0,c
  6923  00166A  EF39  F00B         	goto	u4941
  6924  00166E  EF3C  F00B         	goto	u4940
  6925  001672                     u4941:
  6926  001672  FFFF               	dw	65535	; assembler added errata NOP
  6927  001674  EF47  F00B         	goto	l4296
  6928  001678                     u4940:
  6929  001678  FFFF               	dw	65535	; assembler added errata NOP
  6930  00167A  C03B  F03B         	movff	roundf@x,?_roundf
  6931  00167E  C03C  F03C         	movff	roundf@x+1,?_roundf+1
  6932  001682  C03D  F03D         	movff	roundf@x+2,?_roundf+2
  6933  001686  C03E  F03E         	movff	roundf@x+3,?_roundf+3
  6934  00168A  EFF4  F00C         	goto	l1143
  6935  00168E                     l4296:
  6936  00168E  FFFF               	dw	65535	; assembler added errata NOP
  6937  001690  C04D  F03F         	movff	roundf@u,??_roundf
  6938  001694  C04E  F040         	movff	roundf@u+1,??_roundf+1
  6939  001698  C04F  F041         	movff	roundf@u+2,??_roundf+2
  6940  00169C  C050  F042         	movff	roundf@u+3,??_roundf+3
  6941  0016A0  0E20               	movlw	32
  6942  0016A2  EF59  F00B         	goto	u4950
  6943  0016A6                     u4955:
  6944  0016A6  FFFF               	dw	65535	; assembler added errata NOP
  6945  0016A8  90D8               	bcf	status,0,c
  6946  0016AA  3242               	rrcf	(??_roundf+3)^0,f,c
  6947  0016AC  3241               	rrcf	(??_roundf+2)^0,f,c
  6948  0016AE  3240               	rrcf	(??_roundf+1)^0,f,c
  6949  0016B0  323F               	rrcf	??_roundf^0,f,c
  6950  0016B2                     u4950:
  6951  0016B2  FFFF               	dw	65535	; assembler added errata NOP
  6952  0016B4  2EE8               	decfsz	wreg,f,c
  6953  0016B6  EF53  F00B         	goto	u4955
  6954  0016BA  503F               	movf	??_roundf^0,w,c
  6955  0016BC  1040               	iorwf	(??_roundf+1)^0,w,c
  6956  0016BE  1041               	iorwf	(??_roundf+2)^0,w,c
  6957  0016C0  1042               	iorwf	(??_roundf+3)^0,w,c
  6958  0016C2  B4D8               	btfsc	status,2,c
  6959  0016C4  EF66  F00B         	goto	u4961
  6960  0016C8  EF69  F00B         	goto	u4960
  6961  0016CC                     u4961:
  6962  0016CC  FFFF               	dw	65535	; assembler added errata NOP
  6963  0016CE  EF7C  F00B         	goto	l4300
  6964  0016D2                     u4960:
  6965  0016D2  FFFF               	dw	65535	; assembler added errata NOP
  6966  0016D4  C03B  F008         	movff	roundf@x,___flneg@f1
  6967  0016D8  C03C  F009         	movff	roundf@x+1,___flneg@f1+1
  6968  0016DC  C03D  F00A         	movff	roundf@x+2,___flneg@f1+2
  6969  0016E0  C03E  F00B         	movff	roundf@x+3,___flneg@f1+3
  6970  0016E4  ECBF  F017         	call	___flneg	;wreg free
  6971  0016E8  C008  F03B         	movff	?___flneg,roundf@x
  6972  0016EC  C009  F03C         	movff	?___flneg+1,roundf@x+1
  6973  0016F0  C00A  F03D         	movff	?___flneg+2,roundf@x+2
  6974  0016F4  C00B  F03E         	movff	?___flneg+3,roundf@x+3
  6975  0016F8                     l4300:
  6976  0016F8  FFFF               	dw	65535	; assembler added errata NOP
  6977  0016FA  BE48               	btfsc	(roundf@e+1)^0,7,c
  6978  0016FC  EF8C  F00B         	goto	u4970
  6979  001700  5048               	movf	(roundf@e+1)^0,w,c
  6980  001702  E107               	bnz	u4971
  6981  001704  0E7E               	movlw	126
  6982  001706  5C47               	subwf	roundf@e^0,w,c
  6983  001708  B0D8               	btfsc	status,0,c
  6984  00170A  EF89  F00B         	goto	u4971
  6985  00170E  EF8C  F00B         	goto	u4970
  6986  001712                     u4971:
  6987  001712  FFFF               	dw	65535	; assembler added errata NOP
  6988  001714  EFA9  F00B         	goto	l4306
  6989  001718                     u4970:
  6990  001718  FFFF               	dw	65535	; assembler added errata NOP
  6991  00171A  C04D  F008         	movff	roundf@u,___flmul@b
  6992  00171E  C04E  F009         	movff	roundf@u+1,___flmul@b+1
  6993  001722  C04F  F00A         	movff	roundf@u+2,___flmul@b+2
  6994  001726  C050  F00B         	movff	roundf@u+3,___flmul@b+3
  6995  00172A  0E00               	movlw	0
  6996  00172C  6E0C               	movwf	___flmul@a^0,c
  6997  00172E  0E00               	movlw	0
  6998  001730  6E0D               	movwf	(___flmul@a+1)^0,c
  6999  001732  0E00               	movlw	0
  7000  001734  6E0E               	movwf	(___flmul@a+2)^0,c
  7001  001736  0E00               	movlw	0
  7002  001738  6E0F               	movwf	(___flmul@a+3)^0,c
  7003  00173A  EC99  F006         	call	___flmul	;wreg free
  7004  00173E  C008  F03B         	movff	?___flmul,?_roundf
  7005  001742  C009  F03C         	movff	?___flmul+1,?_roundf+1
  7006  001746  C00A  F03D         	movff	?___flmul+2,?_roundf+2
  7007  00174A  C00B  F03E         	movff	?___flmul+3,?_roundf+3
  7008  00174E  EFF4  F00C         	goto	l1143
  7009  001752                     l4306:
  7010  001752  FFFF               	dw	65535	; assembler added errata NOP
  7011  001754  0E00               	movlw	0
  7012  001756  6E0C               	movwf	___fladd@a^0,c
  7013  001758  0E00               	movlw	0
  7014  00175A  6E0D               	movwf	(___fladd@a+1)^0,c
  7015  00175C  0E00               	movlw	0
  7016  00175E  6E0E               	movwf	(___fladd@a+2)^0,c
  7017  001760  0E4B               	movlw	75
  7018  001762  6E0F               	movwf	(___fladd@a+3)^0,c
  7019  001764  C03B  F008         	movff	roundf@x,___fladd@b
  7020  001768  C03C  F009         	movff	roundf@x+1,___fladd@b+1
  7021  00176C  C03D  F00A         	movff	roundf@x+2,___fladd@b+2
  7022  001770  C03E  F00B         	movff	roundf@x+3,___fladd@b+3
  7023  001774  ECC5  F003         	call	___fladd	;wreg free
  7024  001778  C008  F049         	movff	?___fladd,_roundf$1340
  7025  00177C  C009  F04A         	movff	?___fladd+1,_roundf$1340+1
  7026  001780  C00A  F04B         	movff	?___fladd+2,_roundf$1340+2
  7027  001784  C00B  F04C         	movff	?___fladd+3,_roundf$1340+3
  7028  001788  0E00               	movlw	0
  7029  00178A  6E0C               	movwf	___fladd@a^0,c
  7030  00178C  0E00               	movlw	0
  7031  00178E  6E0D               	movwf	(___fladd@a+1)^0,c
  7032  001790  0E00               	movlw	0
  7033  001792  6E0E               	movwf	(___fladd@a+2)^0,c
  7034  001794  0ECB               	movlw	203
  7035  001796  6E0F               	movwf	(___fladd@a+3)^0,c
  7036  001798  C049  F008         	movff	_roundf$1340,___fladd@b
  7037  00179C  C04A  F009         	movff	_roundf$1340+1,___fladd@b+1
  7038  0017A0  C04B  F00A         	movff	_roundf$1340+2,___fladd@b+2
  7039  0017A4  C04C  F00B         	movff	_roundf$1340+3,___fladd@b+3
  7040  0017A8  ECC5  F003         	call	___fladd	;wreg free
  7041  0017AC  C008  F043         	movff	?___fladd,_roundf$1341
  7042  0017B0  C009  F044         	movff	?___fladd+1,_roundf$1341+1
  7043  0017B4  C00A  F045         	movff	?___fladd+2,_roundf$1341+2
  7044  0017B8  C00B  F046         	movff	?___fladd+3,_roundf$1341+3
  7045  0017BC  C043  F018         	movff	_roundf$1341,___flsub@b
  7046  0017C0  C044  F019         	movff	_roundf$1341+1,___flsub@b+1
  7047  0017C4  C045  F01A         	movff	_roundf$1341+2,___flsub@b+2
  7048  0017C8  C046  F01B         	movff	_roundf$1341+3,___flsub@b+3
  7049  0017CC  C03B  F01C         	movff	roundf@x,___flsub@a
  7050  0017D0  C03C  F01D         	movff	roundf@x+1,___flsub@a+1
  7051  0017D4  C03D  F01E         	movff	roundf@x+2,___flsub@a+2
  7052  0017D8  C03E  F01F         	movff	roundf@x+3,___flsub@a+3
  7053  0017DC  EC58  F017         	call	___flsub	;wreg free
  7054  0017E0  C018  F051         	movff	?___flsub,roundf@y
  7055  0017E4  C019  F052         	movff	?___flsub+1,roundf@y+1
  7056  0017E8  C01A  F053         	movff	?___flsub+2,roundf@y+2
  7057  0017EC  C01B  F054         	movff	?___flsub+3,roundf@y+3
  7058  0017F0  0E00               	movlw	0
  7059  0017F2  6E2F               	movwf	___flge@ff1^0,c
  7060  0017F4  0E00               	movlw	0
  7061  0017F6  6E30               	movwf	(___flge@ff1+1)^0,c
  7062  0017F8  0E00               	movlw	0
  7063  0017FA  6E31               	movwf	(___flge@ff1+2)^0,c
  7064  0017FC  0E3F               	movlw	63
  7065  0017FE  6E32               	movwf	(___flge@ff1+3)^0,c
  7066  001800  C051  F033         	movff	roundf@y,___flge@ff2
  7067  001804  C052  F034         	movff	roundf@y+1,___flge@ff2+1
  7068  001808  C053  F035         	movff	roundf@y+2,___flge@ff2+2
  7069  00180C  C054  F036         	movff	roundf@y+3,___flge@ff2+3
  7070  001810  ECC3  F011         	call	___flge	;wreg free
  7071  001814  B0D8               	btfsc	status,0,c
  7072  001816  EF0F  F00C         	goto	u4981
  7073  00181A  EF12  F00C         	goto	u4980
  7074  00181E                     u4981:
  7075  00181E  FFFF               	dw	65535	; assembler added errata NOP
  7076  001820  EF49  F00C         	goto	l4310
  7077  001824                     u4980:
  7078  001824  FFFF               	dw	65535	; assembler added errata NOP
  7079  001826  C03B  F00C         	movff	roundf@x,___fladd@a
  7080  00182A  C03C  F00D         	movff	roundf@x+1,___fladd@a+1
  7081  00182E  C03D  F00E         	movff	roundf@x+2,___fladd@a+2
  7082  001832  C03E  F00F         	movff	roundf@x+3,___fladd@a+3
  7083  001836  C051  F008         	movff	roundf@y,___fladd@b
  7084  00183A  C052  F009         	movff	roundf@y+1,___fladd@b+1
  7085  00183E  C053  F00A         	movff	roundf@y+2,___fladd@b+2
  7086  001842  C054  F00B         	movff	roundf@y+3,___fladd@b+3
  7087  001846  ECC5  F003         	call	___fladd	;wreg free
  7088  00184A  C008  F049         	movff	?___fladd,_roundf$1340
  7089  00184E  C009  F04A         	movff	?___fladd+1,_roundf$1340+1
  7090  001852  C00A  F04B         	movff	?___fladd+2,_roundf$1340+2
  7091  001856  C00B  F04C         	movff	?___fladd+3,_roundf$1340+3
  7092  00185A  C049  F008         	movff	_roundf$1340,___fladd@b
  7093  00185E  C04A  F009         	movff	_roundf$1340+1,___fladd@b+1
  7094  001862  C04B  F00A         	movff	_roundf$1340+2,___fladd@b+2
  7095  001866  C04C  F00B         	movff	_roundf$1340+3,___fladd@b+3
  7096  00186A  0E00               	movlw	0
  7097  00186C  6E0C               	movwf	___fladd@a^0,c
  7098  00186E  0E00               	movlw	0
  7099  001870  6E0D               	movwf	(___fladd@a+1)^0,c
  7100  001872  0E80               	movlw	128
  7101  001874  6E0E               	movwf	(___fladd@a+2)^0,c
  7102  001876  0EBF               	movlw	191
  7103  001878  6E0F               	movwf	(___fladd@a+3)^0,c
  7104  00187A  ECC5  F003         	call	___fladd	;wreg free
  7105  00187E  C008  F051         	movff	?___fladd,roundf@y
  7106  001882  C009  F052         	movff	?___fladd+1,roundf@y+1
  7107  001886  C00A  F053         	movff	?___fladd+2,roundf@y+2
  7108  00188A  C00B  F054         	movff	?___fladd+3,roundf@y+3
  7109  00188E  EFB6  F00C         	goto	l4316
  7110  001892                     l4310:
  7111  001892  FFFF               	dw	65535	; assembler added errata NOP
  7112  001894  0E00               	movlw	0
  7113  001896  6E2F               	movwf	___flge@ff1^0,c
  7114  001898  0E00               	movlw	0
  7115  00189A  6E30               	movwf	(___flge@ff1+1)^0,c
  7116  00189C  0E00               	movlw	0
  7117  00189E  6E31               	movwf	(___flge@ff1+2)^0,c
  7118  0018A0  0EBF               	movlw	191
  7119  0018A2  6E32               	movwf	(___flge@ff1+3)^0,c
  7120  0018A4  C051  F033         	movff	roundf@y,___flge@ff2
  7121  0018A8  C052  F034         	movff	roundf@y+1,___flge@ff2+1
  7122  0018AC  C053  F035         	movff	roundf@y+2,___flge@ff2+2
  7123  0018B0  C054  F036         	movff	roundf@y+3,___flge@ff2+3
  7124  0018B4  ECC3  F011         	call	___flge	;wreg free
  7125  0018B8  A0D8               	btfss	status,0,c
  7126  0018BA  EF61  F00C         	goto	u4991
  7127  0018BE  EF64  F00C         	goto	u4990
  7128  0018C2                     u4991:
  7129  0018C2  FFFF               	dw	65535	; assembler added errata NOP
  7130  0018C4  EF9B  F00C         	goto	l4314
  7131  0018C8                     u4990:
  7132  0018C8  FFFF               	dw	65535	; assembler added errata NOP
  7133  0018CA  C03B  F00C         	movff	roundf@x,___fladd@a
  7134  0018CE  C03C  F00D         	movff	roundf@x+1,___fladd@a+1
  7135  0018D2  C03D  F00E         	movff	roundf@x+2,___fladd@a+2
  7136  0018D6  C03E  F00F         	movff	roundf@x+3,___fladd@a+3
  7137  0018DA  C051  F008         	movff	roundf@y,___fladd@b
  7138  0018DE  C052  F009         	movff	roundf@y+1,___fladd@b+1
  7139  0018E2  C053  F00A         	movff	roundf@y+2,___fladd@b+2
  7140  0018E6  C054  F00B         	movff	roundf@y+3,___fladd@b+3
  7141  0018EA  ECC5  F003         	call	___fladd	;wreg free
  7142  0018EE  C008  F049         	movff	?___fladd,_roundf$1340
  7143  0018F2  C009  F04A         	movff	?___fladd+1,_roundf$1340+1
  7144  0018F6  C00A  F04B         	movff	?___fladd+2,_roundf$1340+2
  7145  0018FA  C00B  F04C         	movff	?___fladd+3,_roundf$1340+3
  7146  0018FE  C049  F008         	movff	_roundf$1340,___fladd@b
  7147  001902  C04A  F009         	movff	_roundf$1340+1,___fladd@b+1
  7148  001906  C04B  F00A         	movff	_roundf$1340+2,___fladd@b+2
  7149  00190A  C04C  F00B         	movff	_roundf$1340+3,___fladd@b+3
  7150  00190E  0E00               	movlw	0
  7151  001910  6E0C               	movwf	___fladd@a^0,c
  7152  001912  0E00               	movlw	0
  7153  001914  6E0D               	movwf	(___fladd@a+1)^0,c
  7154  001916  0E80               	movlw	128
  7155  001918  6E0E               	movwf	(___fladd@a+2)^0,c
  7156  00191A  0E3F               	movlw	63
  7157  00191C  6E0F               	movwf	(___fladd@a+3)^0,c
  7158  00191E  ECC5  F003         	call	___fladd	;wreg free
  7159  001922  C008  F051         	movff	?___fladd,roundf@y
  7160  001926  C009  F052         	movff	?___fladd+1,roundf@y+1
  7161  00192A  C00A  F053         	movff	?___fladd+2,roundf@y+2
  7162  00192E  C00B  F054         	movff	?___fladd+3,roundf@y+3
  7163  001932  EFB6  F00C         	goto	l4316
  7164  001936                     l4314:
  7165  001936  FFFF               	dw	65535	; assembler added errata NOP
  7166  001938  C051  F008         	movff	roundf@y,___fladd@b
  7167  00193C  C052  F009         	movff	roundf@y+1,___fladd@b+1
  7168  001940  C053  F00A         	movff	roundf@y+2,___fladd@b+2
  7169  001944  C054  F00B         	movff	roundf@y+3,___fladd@b+3
  7170  001948  C03B  F00C         	movff	roundf@x,___fladd@a
  7171  00194C  C03C  F00D         	movff	roundf@x+1,___fladd@a+1
  7172  001950  C03D  F00E         	movff	roundf@x+2,___fladd@a+2
  7173  001954  C03E  F00F         	movff	roundf@x+3,___fladd@a+3
  7174  001958  ECC5  F003         	call	___fladd	;wreg free
  7175  00195C  C008  F051         	movff	?___fladd,roundf@y
  7176  001960  C009  F052         	movff	?___fladd+1,roundf@y+1
  7177  001964  C00A  F053         	movff	?___fladd+2,roundf@y+2
  7178  001968  C00B  F054         	movff	?___fladd+3,roundf@y+3
  7179  00196C                     l4316:
  7180  00196C  FFFF               	dw	65535	; assembler added errata NOP
  7181  00196E  C04D  F03F         	movff	roundf@u,??_roundf
  7182  001972  C04E  F040         	movff	roundf@u+1,??_roundf+1
  7183  001976  C04F  F041         	movff	roundf@u+2,??_roundf+2
  7184  00197A  C050  F042         	movff	roundf@u+3,??_roundf+3
  7185  00197E  0E20               	movlw	32
  7186  001980  EFC8  F00C         	goto	u5000
  7187  001984                     u5005:
  7188  001984  FFFF               	dw	65535	; assembler added errata NOP
  7189  001986  90D8               	bcf	status,0,c
  7190  001988  3242               	rrcf	(??_roundf+3)^0,f,c
  7191  00198A  3241               	rrcf	(??_roundf+2)^0,f,c
  7192  00198C  3240               	rrcf	(??_roundf+1)^0,f,c
  7193  00198E  323F               	rrcf	??_roundf^0,f,c
  7194  001990                     u5000:
  7195  001990  FFFF               	dw	65535	; assembler added errata NOP
  7196  001992  2EE8               	decfsz	wreg,f,c
  7197  001994  EFC2  F00C         	goto	u5005
  7198  001998  503F               	movf	??_roundf^0,w,c
  7199  00199A  1040               	iorwf	(??_roundf+1)^0,w,c
  7200  00199C  1041               	iorwf	(??_roundf+2)^0,w,c
  7201  00199E  1042               	iorwf	(??_roundf+3)^0,w,c
  7202  0019A0  B4D8               	btfsc	status,2,c
  7203  0019A2  EFD5  F00C         	goto	u5011
  7204  0019A6  EFD8  F00C         	goto	u5010
  7205  0019AA                     u5011:
  7206  0019AA  FFFF               	dw	65535	; assembler added errata NOP
  7207  0019AC  EFEB  F00C         	goto	l4320
  7208  0019B0                     u5010:
  7209  0019B0  FFFF               	dw	65535	; assembler added errata NOP
  7210  0019B2  C051  F008         	movff	roundf@y,___flneg@f1
  7211  0019B6  C052  F009         	movff	roundf@y+1,___flneg@f1+1
  7212  0019BA  C053  F00A         	movff	roundf@y+2,___flneg@f1+2
  7213  0019BE  C054  F00B         	movff	roundf@y+3,___flneg@f1+3
  7214  0019C2  ECBF  F017         	call	___flneg	;wreg free
  7215  0019C6  C008  F051         	movff	?___flneg,roundf@y
  7216  0019CA  C009  F052         	movff	?___flneg+1,roundf@y+1
  7217  0019CE  C00A  F053         	movff	?___flneg+2,roundf@y+2
  7218  0019D2  C00B  F054         	movff	?___flneg+3,roundf@y+3
  7219  0019D6                     l4320:
  7220  0019D6  FFFF               	dw	65535	; assembler added errata NOP
  7221  0019D8  C051  F03B         	movff	roundf@y,?_roundf
  7222  0019DC  C052  F03C         	movff	roundf@y+1,?_roundf+1
  7223  0019E0  C053  F03D         	movff	roundf@y+2,?_roundf+2
  7224  0019E4  C054  F03E         	movff	roundf@y+3,?_roundf+3
  7225  0019E8                     l1143:
  7226  0019E8  FFFF               	dw	65535	; assembler added errata NOP
  7227  0019EA  0012               	return		;funcret
  7228  0019EC  FFFF               	dw	65535	; errata NOP
  7229  0019EE                     __end_of_roundf:
  7230                           	callstack 0
  7231                           
  7232 ;; *************** function ___flsub *****************
  7233 ;; Defined at:
  7234 ;;		line 245 in file "/opt/microchip/xc8/v2.32/pic/sources/c99/common/sprcadd.c"
  7235 ;; Parameters:    Size  Location     Type
  7236 ;;  b               4   23[COMRAM] float 
  7237 ;;  a               4   27[COMRAM] float 
  7238 ;; Auto vars:     Size  Location     Type
  7239 ;;		None
  7240 ;; Return value:  Size  Location     Type
  7241 ;;                  4   23[COMRAM] float 
  7242 ;; Registers used:
  7243 ;;		wreg, status,2, status,0, cstack
  7244 ;; Tracked objects:
  7245 ;;		On entry : 0/0
  7246 ;;		On exit  : 0/0
  7247 ;;		Unchanged: 0/0
  7248 ;; Data sizes:     COMRAM   BANK0   BANK1   BANK2   BANK3   BANK4   BANK5
  7249 ;;      Params:         8       0       0       0       0       0       0
  7250 ;;      Locals:         0       0       0       0       0       0       0
  7251 ;;      Temps:          0       0       0       0       0       0       0
  7252 ;;      Totals:         8       0       0       0       0       0       0
  7253 ;;Total ram usage:        8 bytes
  7254 ;; Hardware stack levels used: 1
  7255 ;; Hardware stack levels required when called: 2
  7256 ;; This function calls:
  7257 ;;		___fladd
  7258 ;; This function is called by:
  7259 ;;		_roundf
  7260 ;; This function uses a non-reentrant model
  7261 ;;
  7262                           
  7263                           	psect	text29
  7264  002EB0                     __ptext29:
  7265                           	callstack 0
  7266  002EB0                     ___flsub:
  7267                           	callstack 0
  7268  002EB0  FFFF               	dw	65535	; assembler added errata NOP
  7269  002EB2  0E00               	movlw	0
  7270  002EB4  1A1C               	xorwf	___flsub@a^0,f,c
  7271  002EB6  0E00               	movlw	0
  7272  002EB8  1A1D               	xorwf	(___flsub@a+1)^0,f,c
  7273  002EBA  0E00               	movlw	0
  7274  002EBC  1A1E               	xorwf	(___flsub@a+2)^0,f,c
  7275  002EBE  0E80               	movlw	128
  7276  002EC0  1A1F               	xorwf	(___flsub@a+3)^0,f,c
  7277  002EC2  C018  F008         	movff	___flsub@b,___fladd@b
  7278  002EC6  C019  F009         	movff	___flsub@b+1,___fladd@b+1
  7279  002ECA  C01A  F00A         	movff	___flsub@b+2,___fladd@b+2
  7280  002ECE  C01B  F00B         	movff	___flsub@b+3,___fladd@b+3
  7281  002ED2  C01C  F00C         	movff	___flsub@a,___fladd@a
  7282  002ED6  C01D  F00D         	movff	___flsub@a+1,___fladd@a+1
  7283  002EDA  C01E  F00E         	movff	___flsub@a+2,___fladd@a+2
  7284  002EDE  C01F  F00F         	movff	___flsub@a+3,___fladd@a+3
  7285  002EE2  ECC5  F003         	call	___fladd	;wreg free
  7286  002EE6  C008  F018         	movff	?___fladd,?___flsub
  7287  002EEA  C009  F019         	movff	?___fladd+1,?___flsub+1
  7288  002EEE  C00A  F01A         	movff	?___fladd+2,?___flsub+2
  7289  002EF2  C00B  F01B         	movff	?___fladd+3,?___flsub+3
  7290  002EF6  0012               	return		;funcret
  7291  002EF8  FFFF               	dw	65535	; errata NOP
  7292  002EFA                     __end_of___flsub:
  7293                           	callstack 0
  7294                           
  7295 ;; *************** function ___fladd *****************
  7296 ;; Defined at:
  7297 ;;		line 10 in file "/opt/microchip/xc8/v2.32/pic/sources/c99/common/sprcadd.c"
  7298 ;; Parameters:    Size  Location     Type
  7299 ;;  b               4    7[COMRAM] float 
  7300 ;;  a               4   11[COMRAM] float 
  7301 ;; Auto vars:     Size  Location     Type
  7302 ;;  grs             1   22[COMRAM] unsigned char 
  7303 ;;  bexp            1   21[COMRAM] unsigned char 
  7304 ;;  aexp            1   20[COMRAM] unsigned char 
  7305 ;;  signs           1   19[COMRAM] unsigned char 
  7306 ;; Return value:  Size  Location     Type
  7307 ;;                  4    7[COMRAM] unsigned char 
  7308 ;; Registers used:
  7309 ;;		wreg, status,2, status,0
  7310 ;; Tracked objects:
  7311 ;;		On entry : 0/0
  7312 ;;		On exit  : 0/0
  7313 ;;		Unchanged: 0/0
  7314 ;; Data sizes:     COMRAM   BANK0   BANK1   BANK2   BANK3   BANK4   BANK5
  7315 ;;      Params:         8       0       0       0       0       0       0
  7316 ;;      Locals:         4       0       0       0       0       0       0
  7317 ;;      Temps:          4       0       0       0       0       0       0
  7318 ;;      Totals:        16       0       0       0       0       0       0
  7319 ;;Total ram usage:       16 bytes
  7320 ;; Hardware stack levels used: 1
  7321 ;; Hardware stack levels required when called: 1
  7322 ;; This function calls:
  7323 ;;		Nothing
  7324 ;; This function is called by:
  7325 ;;		___flsub
  7326 ;;		_roundf
  7327 ;; This function uses a non-reentrant model
  7328 ;;
  7329                           
  7330                           	psect	text30
  7331  00078A                     __ptext30:
  7332                           	callstack 0
  7333  00078A                     ___fladd:
  7334                           	callstack 0
  7335  00078A  FFFF               	dw	65535	; assembler added errata NOP
  7336  00078C  500B               	movf	(___fladd@b+3)^0,w,c
  7337  00078E  0B80               	andlw	128
  7338  000790  6E14               	movwf	___fladd@signs^0,c
  7339  000792  500B               	movf	(___fladd@b+3)^0,w,c
  7340  000794  240B               	addwf	(___fladd@b+3)^0,w,c
  7341  000796  6E16               	movwf	___fladd@bexp^0,c
  7342  000798  AE0A               	btfss	(___fladd@b+2)^0,7,c
  7343  00079A  EFD1  F003         	goto	u2231
  7344  00079E  EFD4  F003         	goto	u2230
  7345  0007A2                     u2231:
  7346  0007A2  FFFF               	dw	65535	; assembler added errata NOP
  7347  0007A4  EFD6  F003         	goto	l2592
  7348  0007A8                     u2230:
  7349  0007A8  FFFF               	dw	65535	; assembler added errata NOP
  7350  0007AA  8016               	bsf	___fladd@bexp^0,0,c
  7351  0007AC                     l2592:
  7352  0007AC  FFFF               	dw	65535	; assembler added errata NOP
  7353  0007AE  5016               	movf	___fladd@bexp^0,w,c
  7354  0007B0  B4D8               	btfsc	status,2,c
  7355  0007B2  EFDD  F003         	goto	u2241
  7356  0007B6  EFE0  F003         	goto	u2240
  7357  0007BA                     u2241:
  7358  0007BA  FFFF               	dw	65535	; assembler added errata NOP
  7359  0007BC  EFF9  F003         	goto	l2602
  7360  0007C0                     u2240:
  7361  0007C0  FFFF               	dw	65535	; assembler added errata NOP
  7362  0007C2  2816               	incf	___fladd@bexp^0,w,c
  7363  0007C4  A4D8               	btfss	status,2,c
  7364  0007C6  EFE7  F003         	goto	u2251
  7365  0007CA  EFEA  F003         	goto	u2250
  7366  0007CE                     u2251:
  7367  0007CE  FFFF               	dw	65535	; assembler added errata NOP
  7368  0007D0  EFF3  F003         	goto	l2598
  7369  0007D4                     u2250:
  7370  0007D4  FFFF               	dw	65535	; assembler added errata NOP
  7371  0007D6  0E00               	movlw	0
  7372  0007D8  6E08               	movwf	___fladd@b^0,c
  7373  0007DA  0E00               	movlw	0
  7374  0007DC  6E09               	movwf	(___fladd@b+1)^0,c
  7375  0007DE  0E00               	movlw	0
  7376  0007E0  6E0A               	movwf	(___fladd@b+2)^0,c
  7377  0007E2  0E00               	movlw	0
  7378  0007E4  6E0B               	movwf	(___fladd@b+3)^0,c
  7379  0007E6                     l2598:
  7380  0007E6  FFFF               	dw	65535	; assembler added errata NOP
  7381  0007E8  8E0A               	bsf	(___fladd@b+2)^0,7,c
  7382  0007EA  0E00               	movlw	0
  7383  0007EC  6E0B               	movwf	(___fladd@b+3)^0,c
  7384  0007EE  EF02  F004         	goto	l2604
  7385  0007F2                     l2602:
  7386  0007F2  FFFF               	dw	65535	; assembler added errata NOP
  7387  0007F4  0E00               	movlw	0
  7388  0007F6  6E08               	movwf	___fladd@b^0,c
  7389  0007F8  0E00               	movlw	0
  7390  0007FA  6E09               	movwf	(___fladd@b+1)^0,c
  7391  0007FC  0E00               	movlw	0
  7392  0007FE  6E0A               	movwf	(___fladd@b+2)^0,c
  7393  000800  0E00               	movlw	0
  7394  000802  6E0B               	movwf	(___fladd@b+3)^0,c
  7395  000804                     l2604:
  7396  000804  FFFF               	dw	65535	; assembler added errata NOP
  7397  000806  500F               	movf	(___fladd@a+3)^0,w,c
  7398  000808  0B80               	andlw	128
  7399  00080A  6E15               	movwf	___fladd@aexp^0,c
  7400  00080C  5014               	movf	___fladd@signs^0,w,c
  7401  00080E  1815               	xorwf	___fladd@aexp^0,w,c
  7402  000810  B4D8               	btfsc	status,2,c
  7403  000812  EF0D  F004         	goto	u2261
  7404  000816  EF10  F004         	goto	u2260
  7405  00081A                     u2261:
  7406  00081A  FFFF               	dw	65535	; assembler added errata NOP
  7407  00081C  EF12  F004         	goto	l2610
  7408  000820                     u2260:
  7409  000820  FFFF               	dw	65535	; assembler added errata NOP
  7410  000822  8C14               	bsf	___fladd@signs^0,6,c
  7411  000824                     l2610:
  7412  000824  FFFF               	dw	65535	; assembler added errata NOP
  7413  000826  500F               	movf	(___fladd@a+3)^0,w,c
  7414  000828  240F               	addwf	(___fladd@a+3)^0,w,c
  7415  00082A  6E15               	movwf	___fladd@aexp^0,c
  7416  00082C  AE0E               	btfss	(___fladd@a+2)^0,7,c
  7417  00082E  EF1B  F004         	goto	u2271
  7418  000832  EF1E  F004         	goto	u2270
  7419  000836                     u2271:
  7420  000836  FFFF               	dw	65535	; assembler added errata NOP
  7421  000838  EF20  F004         	goto	l2616
  7422  00083C                     u2270:
  7423  00083C  FFFF               	dw	65535	; assembler added errata NOP
  7424  00083E  8015               	bsf	___fladd@aexp^0,0,c
  7425  000840                     l2616:
  7426  000840  FFFF               	dw	65535	; assembler added errata NOP
  7427  000842  5015               	movf	___fladd@aexp^0,w,c
  7428  000844  B4D8               	btfsc	status,2,c
  7429  000846  EF27  F004         	goto	u2281
  7430  00084A  EF2A  F004         	goto	u2280
  7431  00084E                     u2281:
  7432  00084E  FFFF               	dw	65535	; assembler added errata NOP
  7433  000850  EF43  F004         	goto	l2626
  7434  000854                     u2280:
  7435  000854  FFFF               	dw	65535	; assembler added errata NOP
  7436  000856  2815               	incf	___fladd@aexp^0,w,c
  7437  000858  A4D8               	btfss	status,2,c
  7438  00085A  EF31  F004         	goto	u2291
  7439  00085E  EF34  F004         	goto	u2290
  7440  000862                     u2291:
  7441  000862  FFFF               	dw	65535	; assembler added errata NOP
  7442  000864  EF3D  F004         	goto	l2622
  7443  000868                     u2290:
  7444  000868  FFFF               	dw	65535	; assembler added errata NOP
  7445  00086A  0E00               	movlw	0
  7446  00086C  6E0C               	movwf	___fladd@a^0,c
  7447  00086E  0E00               	movlw	0
  7448  000870  6E0D               	movwf	(___fladd@a+1)^0,c
  7449  000872  0E00               	movlw	0
  7450  000874  6E0E               	movwf	(___fladd@a+2)^0,c
  7451  000876  0E00               	movlw	0
  7452  000878  6E0F               	movwf	(___fladd@a+3)^0,c
  7453  00087A                     l2622:
  7454  00087A  FFFF               	dw	65535	; assembler added errata NOP
  7455  00087C  8E0E               	bsf	(___fladd@a+2)^0,7,c
  7456  00087E  0E00               	movlw	0
  7457  000880  6E0F               	movwf	(___fladd@a+3)^0,c
  7458  000882  EF4C  F004         	goto	l2628
  7459  000886                     l2626:
  7460  000886  FFFF               	dw	65535	; assembler added errata NOP
  7461  000888  0E00               	movlw	0
  7462  00088A  6E0C               	movwf	___fladd@a^0,c
  7463  00088C  0E00               	movlw	0
  7464  00088E  6E0D               	movwf	(___fladd@a+1)^0,c
  7465  000890  0E00               	movlw	0
  7466  000892  6E0E               	movwf	(___fladd@a+2)^0,c
  7467  000894  0E00               	movlw	0
  7468  000896  6E0F               	movwf	(___fladd@a+3)^0,c
  7469  000898                     l2628:
  7470  000898  FFFF               	dw	65535	; assembler added errata NOP
  7471  00089A  5016               	movf	___fladd@bexp^0,w,c
  7472  00089C  5C15               	subwf	___fladd@aexp^0,w,c
  7473  00089E  B0D8               	btfsc	status,0,c
  7474  0008A0  EF54  F004         	goto	u2301
  7475  0008A4  EF57  F004         	goto	u2300
  7476  0008A8                     u2301:
  7477  0008A8  FFFF               	dw	65535	; assembler added errata NOP
  7478  0008AA  EF82  F004         	goto	l2664
  7479  0008AE                     u2300:
  7480  0008AE  FFFF               	dw	65535	; assembler added errata NOP
  7481  0008B0  AC14               	btfss	___fladd@signs^0,6,c
  7482  0008B2  EF5D  F004         	goto	u2311
  7483  0008B6  EF60  F004         	goto	u2310
  7484  0008BA                     u2311:
  7485  0008BA  FFFF               	dw	65535	; assembler added errata NOP
  7486  0008BC  EF63  F004         	goto	l2634
  7487  0008C0                     u2310:
  7488  0008C0  FFFF               	dw	65535	; assembler added errata NOP
  7489  0008C2  0E80               	movlw	128
  7490  0008C4  1A14               	xorwf	___fladd@signs^0,f,c
  7491  0008C6                     l2634:
  7492  0008C6  FFFF               	dw	65535	; assembler added errata NOP
  7493  0008C8  C016  F017         	movff	___fladd@bexp,___fladd@grs
  7494  0008CC  C015  F016         	movff	___fladd@aexp,___fladd@bexp
  7495  0008D0  C017  F015         	movff	___fladd@grs,___fladd@aexp
  7496  0008D4  C008  F017         	movff	___fladd@b,___fladd@grs
  7497  0008D8  C00C  F008         	movff	___fladd@a,___fladd@b
  7498  0008DC  C017  F00C         	movff	___fladd@grs,___fladd@a
  7499  0008E0  C009  F017         	movff	___fladd@b+1,___fladd@grs
  7500  0008E4  C00D  F009         	movff	___fladd@a+1,___fladd@b+1
  7501  0008E8  C017  F00D         	movff	___fladd@grs,___fladd@a+1
  7502  0008EC  C00A  F017         	movff	___fladd@b+2,___fladd@grs
  7503  0008F0  C00E  F00A         	movff	___fladd@a+2,___fladd@b+2
  7504  0008F4  C017  F00E         	movff	___fladd@grs,___fladd@a+2
  7505  0008F8  C00B  F017         	movff	___fladd@b+3,___fladd@grs
  7506  0008FC  C00F  F00B         	movff	___fladd@a+3,___fladd@b+3
  7507  000900  C017  F00F         	movff	___fladd@grs,___fladd@a+3
  7508  000904                     l2664:
  7509  000904  FFFF               	dw	65535	; assembler added errata NOP
  7510  000906  0E00               	movlw	0
  7511  000908  6E17               	movwf	___fladd@grs^0,c
  7512  00090A  5016               	movf	___fladd@bexp^0,w,c
  7513  00090C  C015  F010         	movff	___fladd@aexp,??___fladd
  7514  000910  6A11               	clrf	(??___fladd+1)^0,c
  7515  000912  5E10               	subwf	??___fladd^0,f,c
  7516  000914  0E00               	movlw	0
  7517  000916  5A11               	subwfb	(??___fladd+1)^0,f,c
  7518  000918  BE11               	btfsc	(??___fladd+1)^0,7,c
  7519  00091A  EF98  F004         	goto	u2321
  7520  00091E  5011               	movf	(??___fladd+1)^0,w,c
  7521  000920  E10A               	bnz	u2320
  7522  000922  0E1A               	movlw	26
  7523  000924  5C10               	subwf	??___fladd^0,w,c
  7524  000926  A0D8               	btfss	status,0,c
  7525  000928  EF98  F004         	goto	u2321
  7526  00092C  EF9B  F004         	goto	u2320
  7527  000930                     u2321:
  7528  000930  FFFF               	dw	65535	; assembler added errata NOP
  7529  000932  EFDE  F004         	goto	l938
  7530  000936                     u2320:
  7531  000936  FFFF               	dw	65535	; assembler added errata NOP
  7532  000938  5008               	movf	___fladd@b^0,w,c
  7533  00093A  1009               	iorwf	(___fladd@b+1)^0,w,c
  7534  00093C  100A               	iorwf	(___fladd@b+2)^0,w,c
  7535  00093E  100B               	iorwf	(___fladd@b+3)^0,w,c
  7536  000940  A4D8               	btfss	status,2,c
  7537  000942  EFA5  F004         	goto	u2331
  7538  000946  EFA9  F004         	goto	u2330
  7539  00094A                     u2331:
  7540  00094A  FFFF               	dw	65535	; assembler added errata NOP
  7541  00094C  0E01               	movlw	1
  7542  00094E  EFAB  F004         	goto	u2340
  7543  000952                     u2330:
  7544  000952  FFFF               	dw	65535	; assembler added errata NOP
  7545  000954  0E00               	movlw	0
  7546  000956                     u2340:
  7547  000956  FFFF               	dw	65535	; assembler added errata NOP
  7548  000958  6E17               	movwf	___fladd@grs^0,c
  7549  00095A  0E00               	movlw	0
  7550  00095C  6E08               	movwf	___fladd@b^0,c
  7551  00095E  0E00               	movlw	0
  7552  000960  6E09               	movwf	(___fladd@b+1)^0,c
  7553  000962  0E00               	movlw	0
  7554  000964  6E0A               	movwf	(___fladd@b+2)^0,c
  7555  000966  0E00               	movlw	0
  7556  000968  6E0B               	movwf	(___fladd@b+3)^0,c
  7557  00096A  C015  F016         	movff	___fladd@aexp,___fladd@bexp
  7558  00096E  EFE9  F004         	goto	l937
  7559  000972                     l939:
  7560  000972  FFFF               	dw	65535	; assembler added errata NOP
  7561  000974  A017               	btfss	___fladd@grs^0,0,c
  7562  000976  EFBF  F004         	goto	u2351
  7563  00097A  EFC2  F004         	goto	u2350
  7564  00097E                     u2351:
  7565  00097E  FFFF               	dw	65535	; assembler added errata NOP
  7566  000980  EFC9  F004         	goto	l2676
  7567  000984                     u2350:
  7568  000984  FFFF               	dw	65535	; assembler added errata NOP
  7569  000986  90D8               	bcf	status,0,c
  7570  000988  3017               	rrcf	___fladd@grs^0,w,c
  7571  00098A  0901               	iorlw	1
  7572  00098C  6E17               	movwf	___fladd@grs^0,c
  7573  00098E  EFCC  F004         	goto	l2678
  7574  000992                     l2676:
  7575  000992  FFFF               	dw	65535	; assembler added errata NOP
  7576  000994  90D8               	bcf	status,0,c
  7577  000996  3217               	rrcf	___fladd@grs^0,f,c
  7578  000998                     l2678:
  7579  000998  FFFF               	dw	65535	; assembler added errata NOP
  7580  00099A  A008               	btfss	___fladd@b^0,0,c
  7581  00099C  EFD2  F004         	goto	u2361
  7582  0009A0  EFD5  F004         	goto	u2360
  7583  0009A4                     u2361:
  7584  0009A4  FFFF               	dw	65535	; assembler added errata NOP
  7585  0009A6  EFD7  F004         	goto	l2682
  7586  0009AA                     u2360:
  7587  0009AA  FFFF               	dw	65535	; assembler added errata NOP
  7588  0009AC  8E17               	bsf	___fladd@grs^0,7,c
  7589  0009AE                     l2682:
  7590  0009AE  FFFF               	dw	65535	; assembler added errata NOP
  7591  0009B0  340B               	rlcf	(___fladd@b+3)^0,w,c
  7592  0009B2  320B               	rrcf	(___fladd@b+3)^0,f,c
  7593  0009B4  320A               	rrcf	(___fladd@b+2)^0,f,c
  7594  0009B6  3209               	rrcf	(___fladd@b+1)^0,f,c
  7595  0009B8  3208               	rrcf	___fladd@b^0,f,c
  7596  0009BA  2A16               	incf	___fladd@bexp^0,f,c
  7597  0009BC                     l938:
  7598  0009BC  FFFF               	dw	65535	; assembler added errata NOP
  7599  0009BE  5015               	movf	___fladd@aexp^0,w,c
  7600  0009C0  5C16               	subwf	___fladd@bexp^0,w,c
  7601  0009C2  A0D8               	btfss	status,0,c
  7602  0009C4  EFE6  F004         	goto	u2371
  7603  0009C8  EFE9  F004         	goto	u2370
  7604  0009CC                     u2371:
  7605  0009CC  FFFF               	dw	65535	; assembler added errata NOP
  7606  0009CE  EFB9  F004         	goto	l939
  7607  0009D2                     u2370:
  7608  0009D2                     l937:
  7609  0009D2  FFFF               	dw	65535	; assembler added errata NOP
  7610  0009D4  BC14               	btfsc	___fladd@signs^0,6,c
  7611  0009D6  EFEF  F004         	goto	u2381
  7612  0009DA  EFF2  F004         	goto	u2380
  7613  0009DE                     u2381:
  7614  0009DE  FFFF               	dw	65535	; assembler added errata NOP
  7615  0009E0  EF3F  F005         	goto	l2710
  7616  0009E4                     u2380:
  7617  0009E4  FFFF               	dw	65535	; assembler added errata NOP
  7618  0009E6  5016               	movf	___fladd@bexp^0,w,c
  7619  0009E8  A4D8               	btfss	status,2,c
  7620  0009EA  EFF9  F004         	goto	u2391
  7621  0009EE  EFFC  F004         	goto	u2390
  7622  0009F2                     u2391:
  7623  0009F2  FFFF               	dw	65535	; assembler added errata NOP
  7624  0009F4  EF07  F005         	goto	l2692
  7625  0009F8                     u2390:
  7626  0009F8  FFFF               	dw	65535	; assembler added errata NOP
  7627  0009FA  0E00               	movlw	0
  7628  0009FC  6E08               	movwf	?___fladd^0,c
  7629  0009FE  0E00               	movlw	0
  7630  000A00  6E09               	movwf	(?___fladd+1)^0,c
  7631  000A02  0E00               	movlw	0
  7632  000A04  6E0A               	movwf	(?___fladd+2)^0,c
  7633  000A06  0E00               	movlw	0
  7634  000A08  6E0B               	movwf	(?___fladd+3)^0,c
  7635  000A0A  EF96  F006         	goto	l946
  7636  000A0E                     l2692:
  7637  000A0E  FFFF               	dw	65535	; assembler added errata NOP
  7638  000A10  500C               	movf	___fladd@a^0,w,c
  7639  000A12  2608               	addwf	___fladd@b^0,f,c
  7640  000A14  500D               	movf	(___fladd@a+1)^0,w,c
  7641  000A16  2209               	addwfc	(___fladd@b+1)^0,f,c
  7642  000A18  500E               	movf	(___fladd@a+2)^0,w,c
  7643  000A1A  220A               	addwfc	(___fladd@b+2)^0,f,c
  7644  000A1C  500F               	movf	(___fladd@a+3)^0,w,c
  7645  000A1E  220B               	addwfc	(___fladd@b+3)^0,f,c
  7646  000A20  A00B               	btfss	(___fladd@b+3)^0,0,c
  7647  000A22  EF15  F005         	goto	u2401
  7648  000A26  EF18  F005         	goto	u2400
  7649  000A2A                     u2401:
  7650  000A2A  FFFF               	dw	65535	; assembler added errata NOP
  7651  000A2C  EFE3  F005         	goto	l2746
  7652  000A30                     u2400:
  7653  000A30  FFFF               	dw	65535	; assembler added errata NOP
  7654  000A32  A017               	btfss	___fladd@grs^0,0,c
  7655  000A34  EF1E  F005         	goto	u2411
  7656  000A38  EF21  F005         	goto	u2410
  7657  000A3C                     u2411:
  7658  000A3C  FFFF               	dw	65535	; assembler added errata NOP
  7659  000A3E  EF28  F005         	goto	l2700
  7660  000A42                     u2410:
  7661  000A42  FFFF               	dw	65535	; assembler added errata NOP
  7662  000A44  90D8               	bcf	status,0,c
  7663  000A46  3017               	rrcf	___fladd@grs^0,w,c
  7664  000A48  0901               	iorlw	1
  7665  000A4A  6E17               	movwf	___fladd@grs^0,c
  7666  000A4C  EF2B  F005         	goto	l2702
  7667  000A50                     l2700:
  7668  000A50  FFFF               	dw	65535	; assembler added errata NOP
  7669  000A52  90D8               	bcf	status,0,c
  7670  000A54  3217               	rrcf	___fladd@grs^0,f,c
  7671  000A56                     l2702:
  7672  000A56  FFFF               	dw	65535	; assembler added errata NOP
  7673  000A58  A008               	btfss	___fladd@b^0,0,c
  7674  000A5A  EF31  F005         	goto	u2421
  7675  000A5E  EF34  F005         	goto	u2420
  7676  000A62                     u2421:
  7677  000A62  FFFF               	dw	65535	; assembler added errata NOP
  7678  000A64  EF36  F005         	goto	l2706
  7679  000A68                     u2420:
  7680  000A68  FFFF               	dw	65535	; assembler added errata NOP
  7681  000A6A  8E17               	bsf	___fladd@grs^0,7,c
  7682  000A6C                     l2706:
  7683  000A6C  FFFF               	dw	65535	; assembler added errata NOP
  7684  000A6E  340B               	rlcf	(___fladd@b+3)^0,w,c
  7685  000A70  320B               	rrcf	(___fladd@b+3)^0,f,c
  7686  000A72  320A               	rrcf	(___fladd@b+2)^0,f,c
  7687  000A74  3209               	rrcf	(___fladd@b+1)^0,f,c
  7688  000A76  3208               	rrcf	___fladd@b^0,f,c
  7689  000A78  2A16               	incf	___fladd@bexp^0,f,c
  7690  000A7A  EFE3  F005         	goto	l2746
  7691  000A7E                     l2710:
  7692  000A7E  FFFF               	dw	65535	; assembler added errata NOP
  7693  000A80  500C               	movf	___fladd@a^0,w,c
  7694  000A82  5C08               	subwf	___fladd@b^0,w,c
  7695  000A84  500D               	movf	(___fladd@a+1)^0,w,c
  7696  000A86  5809               	subwfb	(___fladd@b+1)^0,w,c
  7697  000A88  500E               	movf	(___fladd@a+2)^0,w,c
  7698  000A8A  580A               	subwfb	(___fladd@b+2)^0,w,c
  7699  000A8C  500B               	movf	(___fladd@b+3)^0,w,c
  7700  000A8E  0A80               	xorlw	128
  7701  000A90  6E10               	movwf	??___fladd^0,c
  7702  000A92  500F               	movf	(___fladd@a+3)^0,w,c
  7703  000A94  0A80               	xorlw	128
  7704  000A96  5810               	subwfb	??___fladd^0,w,c
  7705  000A98  B0D8               	btfsc	status,0,c
  7706  000A9A  EF51  F005         	goto	u2431
  7707  000A9E  EF54  F005         	goto	u2430
  7708  000AA2                     u2431:
  7709  000AA2  FFFF               	dw	65535	; assembler added errata NOP
  7710  000AA4  EF82  F005         	goto	l2720
  7711  000AA8                     u2430:
  7712  000AA8  FFFF               	dw	65535	; assembler added errata NOP
  7713  000AAA  5008               	movf	___fladd@b^0,w,c
  7714  000AAC  5C0C               	subwf	___fladd@a^0,w,c
  7715  000AAE  6E10               	movwf	??___fladd^0,c
  7716  000AB0  5009               	movf	(___fladd@b+1)^0,w,c
  7717  000AB2  580D               	subwfb	(___fladd@a+1)^0,w,c
  7718  000AB4  6E11               	movwf	(??___fladd+1)^0,c
  7719  000AB6  500A               	movf	(___fladd@b+2)^0,w,c
  7720  000AB8  580E               	subwfb	(___fladd@a+2)^0,w,c
  7721  000ABA  6E12               	movwf	(??___fladd+2)^0,c
  7722  000ABC  500B               	movf	(___fladd@b+3)^0,w,c
  7723  000ABE  580F               	subwfb	(___fladd@a+3)^0,w,c
  7724  000AC0  6E13               	movwf	(??___fladd+3)^0,c
  7725  000AC2  0EFF               	movlw	255
  7726  000AC4  2410               	addwf	??___fladd^0,w,c
  7727  000AC6  6E08               	movwf	___fladd@b^0,c
  7728  000AC8  0EFF               	movlw	255
  7729  000ACA  2011               	addwfc	(??___fladd+1)^0,w,c
  7730  000ACC  6E09               	movwf	(___fladd@b+1)^0,c
  7731  000ACE  0EFF               	movlw	255
  7732  000AD0  2012               	addwfc	(??___fladd+2)^0,w,c
  7733  000AD2  6E0A               	movwf	(___fladd@b+2)^0,c
  7734  000AD4  0EFF               	movlw	255
  7735  000AD6  2013               	addwfc	(??___fladd+3)^0,w,c
  7736  000AD8  6E0B               	movwf	(___fladd@b+3)^0,c
  7737  000ADA  0E80               	movlw	128
  7738  000ADC  1A14               	xorwf	___fladd@signs^0,f,c
  7739  000ADE  6C17               	negf	___fladd@grs^0,c
  7740  000AE0  5017               	movf	___fladd@grs^0,w,c
  7741  000AE2  A4D8               	btfss	status,2,c
  7742  000AE4  EF76  F005         	goto	u2441
  7743  000AE8  EF79  F005         	goto	u2440
  7744  000AEC                     u2441:
  7745  000AEC  FFFF               	dw	65535	; assembler added errata NOP
  7746  000AEE  EF8B  F005         	goto	l954
  7747  000AF2                     u2440:
  7748  000AF2  FFFF               	dw	65535	; assembler added errata NOP
  7749  000AF4  0E01               	movlw	1
  7750  000AF6  2608               	addwf	___fladd@b^0,f,c
  7751  000AF8  0E00               	movlw	0
  7752  000AFA  2209               	addwfc	(___fladd@b+1)^0,f,c
  7753  000AFC  220A               	addwfc	(___fladd@b+2)^0,f,c
  7754  000AFE  220B               	addwfc	(___fladd@b+3)^0,f,c
  7755  000B00  EF8B  F005         	goto	l954
  7756  000B04                     l2720:
  7757  000B04  FFFF               	dw	65535	; assembler added errata NOP
  7758  000B06  500C               	movf	___fladd@a^0,w,c
  7759  000B08  5E08               	subwf	___fladd@b^0,f,c
  7760  000B0A  500D               	movf	(___fladd@a+1)^0,w,c
  7761  000B0C  5A09               	subwfb	(___fladd@b+1)^0,f,c
  7762  000B0E  500E               	movf	(___fladd@a+2)^0,w,c
  7763  000B10  5A0A               	subwfb	(___fladd@b+2)^0,f,c
  7764  000B12  500F               	movf	(___fladd@a+3)^0,w,c
  7765  000B14  5A0B               	subwfb	(___fladd@b+3)^0,f,c
  7766  000B16                     l954:
  7767  000B16  FFFF               	dw	65535	; assembler added errata NOP
  7768  000B18  5008               	movf	___fladd@b^0,w,c
  7769  000B1A  1009               	iorwf	(___fladd@b+1)^0,w,c
  7770  000B1C  100A               	iorwf	(___fladd@b+2)^0,w,c
  7771  000B1E  100B               	iorwf	(___fladd@b+3)^0,w,c
  7772  000B20  A4D8               	btfss	status,2,c
  7773  000B22  EF95  F005         	goto	u2451
  7774  000B26  EF98  F005         	goto	u2450
  7775  000B2A                     u2451:
  7776  000B2A  FFFF               	dw	65535	; assembler added errata NOP
  7777  000B2C  EFDA  F005         	goto	l2744
  7778  000B30                     u2450:
  7779  000B30  FFFF               	dw	65535	; assembler added errata NOP
  7780  000B32  5017               	movf	___fladd@grs^0,w,c
  7781  000B34  A4D8               	btfss	status,2,c
  7782  000B36  EF9F  F005         	goto	u2461
  7783  000B3A  EFA2  F005         	goto	u2460
  7784  000B3E                     u2461:
  7785  000B3E  FFFF               	dw	65535	; assembler added errata NOP
  7786  000B40  EFDA  F005         	goto	l2744
  7787  000B44                     u2460:
  7788  000B44  FFFF               	dw	65535	; assembler added errata NOP
  7789  000B46  0E00               	movlw	0
  7790  000B48  6E08               	movwf	?___fladd^0,c
  7791  000B4A  0E00               	movlw	0
  7792  000B4C  6E09               	movwf	(?___fladd+1)^0,c
  7793  000B4E  0E00               	movlw	0
  7794  000B50  6E0A               	movwf	(?___fladd+2)^0,c
  7795  000B52  0E00               	movlw	0
  7796  000B54  6E0B               	movwf	(?___fladd+3)^0,c
  7797  000B56  EF96  F006         	goto	l946
  7798  000B5A                     l2728:
  7799  000B5A  FFFF               	dw	65535	; assembler added errata NOP
  7800  000B5C  90D8               	bcf	status,0,c
  7801  000B5E  3608               	rlcf	___fladd@b^0,f,c
  7802  000B60  3609               	rlcf	(___fladd@b+1)^0,f,c
  7803  000B62  360A               	rlcf	(___fladd@b+2)^0,f,c
  7804  000B64  360B               	rlcf	(___fladd@b+3)^0,f,c
  7805  000B66  AE17               	btfss	___fladd@grs^0,7,c
  7806  000B68  EFB8  F005         	goto	u2471
  7807  000B6C  EFBB  F005         	goto	u2470
  7808  000B70                     u2471:
  7809  000B70  FFFF               	dw	65535	; assembler added errata NOP
  7810  000B72  EFBD  F005         	goto	l2734
  7811  000B76                     u2470:
  7812  000B76  FFFF               	dw	65535	; assembler added errata NOP
  7813  000B78  8008               	bsf	___fladd@b^0,0,c
  7814  000B7A                     l2734:
  7815  000B7A  FFFF               	dw	65535	; assembler added errata NOP
  7816  000B7C  A017               	btfss	___fladd@grs^0,0,c
  7817  000B7E  EFC3  F005         	goto	u2481
  7818  000B82  EFC6  F005         	goto	u2480
  7819  000B86                     u2481:
  7820  000B86  FFFF               	dw	65535	; assembler added errata NOP
  7821  000B88  EFCB  F005         	goto	l2738
  7822  000B8C                     u2480:
  7823  000B8C  FFFF               	dw	65535	; assembler added errata NOP
  7824  000B8E  80D8               	bsf	status,0,c
  7825  000B90  3617               	rlcf	___fladd@grs^0,f,c
  7826  000B92  EFCE  F005         	goto	l2740
  7827  000B96                     l2738:
  7828  000B96  FFFF               	dw	65535	; assembler added errata NOP
  7829  000B98  90D8               	bcf	status,0,c
  7830  000B9A  3617               	rlcf	___fladd@grs^0,f,c
  7831  000B9C                     l2740:
  7832  000B9C  FFFF               	dw	65535	; assembler added errata NOP
  7833  000B9E  5016               	movf	___fladd@bexp^0,w,c
  7834  000BA0  B4D8               	btfsc	status,2,c
  7835  000BA2  EFD5  F005         	goto	u2491
  7836  000BA6  EFD8  F005         	goto	u2490
  7837  000BAA                     u2491:
  7838  000BAA  FFFF               	dw	65535	; assembler added errata NOP
  7839  000BAC  EFDA  F005         	goto	l2744
  7840  000BB0                     u2490:
  7841  000BB0  FFFF               	dw	65535	; assembler added errata NOP
  7842  000BB2  0616               	decf	___fladd@bexp^0,f,c
  7843  000BB4                     l2744:
  7844  000BB4  FFFF               	dw	65535	; assembler added errata NOP
  7845  000BB6  AE0A               	btfss	(___fladd@b+2)^0,7,c
  7846  000BB8  EFE0  F005         	goto	u2501
  7847  000BBC  EFE3  F005         	goto	u2500
  7848  000BC0                     u2501:
  7849  000BC0  FFFF               	dw	65535	; assembler added errata NOP
  7850  000BC2  EFAD  F005         	goto	l2728
  7851  000BC6                     u2500:
  7852  000BC6                     l2746:
  7853  000BC6  FFFF               	dw	65535	; assembler added errata NOP
  7854  000BC8  0E00               	movlw	0
  7855  000BCA  6E15               	movwf	___fladd@aexp^0,c
  7856  000BCC  AE17               	btfss	___fladd@grs^0,7,c
  7857  000BCE  EFEB  F005         	goto	u2511
  7858  000BD2  EFEE  F005         	goto	u2510
  7859  000BD6                     u2511:
  7860  000BD6  FFFF               	dw	65535	; assembler added errata NOP
  7861  000BD8  EF0D  F006         	goto	l963
  7862  000BDC                     u2510:
  7863  000BDC  FFFF               	dw	65535	; assembler added errata NOP
  7864  000BDE  C017  F010         	movff	___fladd@grs,??___fladd
  7865  000BE2  0E7F               	movlw	127
  7866  000BE4  1610               	andwf	??___fladd^0,f,c
  7867  000BE6  B4D8               	btfsc	status,2,c
  7868  000BE8  EFF8  F005         	goto	u2521
  7869  000BEC  EFFB  F005         	goto	u2520
  7870  000BF0                     u2521:
  7871  000BF0  FFFF               	dw	65535	; assembler added errata NOP
  7872  000BF2  EF01  F006         	goto	l964
  7873  000BF6                     u2520:
  7874  000BF6  FFFF               	dw	65535	; assembler added errata NOP
  7875  000BF8                     l2752:
  7876  000BF8  FFFF               	dw	65535	; assembler added errata NOP
  7877  000BFA  0E01               	movlw	1
  7878  000BFC  6E15               	movwf	___fladd@aexp^0,c
  7879  000BFE  EF0D  F006         	goto	l963
  7880  000C02                     l964:
  7881  000C02  FFFF               	dw	65535	; assembler added errata NOP
  7882  000C04  A008               	btfss	___fladd@b^0,0,c
  7883  000C06  EF07  F006         	goto	u2531
  7884  000C0A  EF0A  F006         	goto	u2530
  7885  000C0E                     u2531:
  7886  000C0E  FFFF               	dw	65535	; assembler added errata NOP
  7887  000C10  EF0D  F006         	goto	l963
  7888  000C14                     u2530:
  7889  000C14  FFFF               	dw	65535	; assembler added errata NOP
  7890  000C16  EFFC  F005         	goto	l2752
  7891  000C1A                     l963:
  7892  000C1A  FFFF               	dw	65535	; assembler added errata NOP
  7893  000C1C  5015               	movf	___fladd@aexp^0,w,c
  7894  000C1E  B4D8               	btfsc	status,2,c
  7895  000C20  EF14  F006         	goto	u2541
  7896  000C24  EF17  F006         	goto	u2540
  7897  000C28                     u2541:
  7898  000C28  FFFF               	dw	65535	; assembler added errata NOP
  7899  000C2A  EF47  F006         	goto	l2764
  7900  000C2E                     u2540:
  7901  000C2E  FFFF               	dw	65535	; assembler added errata NOP
  7902  000C30  0E01               	movlw	1
  7903  000C32  2608               	addwf	___fladd@b^0,f,c
  7904  000C34  0E00               	movlw	0
  7905  000C36  2209               	addwfc	(___fladd@b+1)^0,f,c
  7906  000C38  220A               	addwfc	(___fladd@b+2)^0,f,c
  7907  000C3A  220B               	addwfc	(___fladd@b+3)^0,f,c
  7908  000C3C  A00B               	btfss	(___fladd@b+3)^0,0,c
  7909  000C3E  EF23  F006         	goto	u2551
  7910  000C42  EF26  F006         	goto	u2550
  7911  000C46                     u2551:
  7912  000C46  FFFF               	dw	65535	; assembler added errata NOP
  7913  000C48  EF47  F006         	goto	l2764
  7914  000C4C                     u2550:
  7915  000C4C  FFFF               	dw	65535	; assembler added errata NOP
  7916  000C4E  C008  F010         	movff	___fladd@b,??___fladd
  7917  000C52  C009  F011         	movff	___fladd@b+1,??___fladd+1
  7918  000C56  C00A  F012         	movff	___fladd@b+2,??___fladd+2
  7919  000C5A  C00B  F013         	movff	___fladd@b+3,??___fladd+3
  7920  000C5E  3413               	rlcf	(??___fladd+3)^0,w,c
  7921  000C60  3213               	rrcf	(??___fladd+3)^0,f,c
  7922  000C62  3212               	rrcf	(??___fladd+2)^0,f,c
  7923  000C64  3211               	rrcf	(??___fladd+1)^0,f,c
  7924  000C66  3210               	rrcf	??___fladd^0,f,c
  7925  000C68  C010  F008         	movff	??___fladd,___fladd@b
  7926  000C6C  C011  F009         	movff	??___fladd+1,___fladd@b+1
  7927  000C70  C012  F00A         	movff	??___fladd+2,___fladd@b+2
  7928  000C74  C013  F00B         	movff	??___fladd+3,___fladd@b+3
  7929  000C78  2816               	incf	___fladd@bexp^0,w,c
  7930  000C7A  B4D8               	btfsc	status,2,c
  7931  000C7C  EF42  F006         	goto	u2561
  7932  000C80  EF45  F006         	goto	u2560
  7933  000C84                     u2561:
  7934  000C84  FFFF               	dw	65535	; assembler added errata NOP
  7935  000C86  EF47  F006         	goto	l2764
  7936  000C8A                     u2560:
  7937  000C8A  FFFF               	dw	65535	; assembler added errata NOP
  7938  000C8C  2A16               	incf	___fladd@bexp^0,f,c
  7939  000C8E                     l2764:
  7940  000C8E  FFFF               	dw	65535	; assembler added errata NOP
  7941  000C90  2816               	incf	___fladd@bexp^0,w,c
  7942  000C92  B4D8               	btfsc	status,2,c
  7943  000C94  EF4E  F006         	goto	u2571
  7944  000C98  EF51  F006         	goto	u2570
  7945  000C9C                     u2571:
  7946  000C9C  FFFF               	dw	65535	; assembler added errata NOP
  7947  000C9E  EF5B  F006         	goto	l2768
  7948  000CA2                     u2570:
  7949  000CA2  FFFF               	dw	65535	; assembler added errata NOP
  7950  000CA4  5016               	movf	___fladd@bexp^0,w,c
  7951  000CA6  A4D8               	btfss	status,2,c
  7952  000CA8  EF58  F006         	goto	u2581
  7953  000CAC  EF5B  F006         	goto	u2580
  7954  000CB0                     u2581:
  7955  000CB0  FFFF               	dw	65535	; assembler added errata NOP
  7956  000CB2  EF70  F006         	goto	l2772
  7957  000CB6                     u2580:
  7958  000CB6                     l2768:
  7959  000CB6  FFFF               	dw	65535	; assembler added errata NOP
  7960  000CB8  0E00               	movlw	0
  7961  000CBA  6E08               	movwf	___fladd@b^0,c
  7962  000CBC  0E00               	movlw	0
  7963  000CBE  6E09               	movwf	(___fladd@b+1)^0,c
  7964  000CC0  0E00               	movlw	0
  7965  000CC2  6E0A               	movwf	(___fladd@b+2)^0,c
  7966  000CC4  0E00               	movlw	0
  7967  000CC6  6E0B               	movwf	(___fladd@b+3)^0,c
  7968  000CC8  5016               	movf	___fladd@bexp^0,w,c
  7969  000CCA  A4D8               	btfss	status,2,c
  7970  000CCC  EF6A  F006         	goto	u2591
  7971  000CD0  EF6D  F006         	goto	u2590
  7972  000CD4                     u2591:
  7973  000CD4  FFFF               	dw	65535	; assembler added errata NOP
  7974  000CD6  EF70  F006         	goto	l2772
  7975  000CDA                     u2590:
  7976  000CDA  FFFF               	dw	65535	; assembler added errata NOP
  7977  000CDC  0E00               	movlw	0
  7978  000CDE  6E14               	movwf	___fladd@signs^0,c
  7979  000CE0                     l2772:
  7980  000CE0  FFFF               	dw	65535	; assembler added errata NOP
  7981  000CE2  A016               	btfss	___fladd@bexp^0,0,c
  7982  000CE4  EF76  F006         	goto	u2601
  7983  000CE8  EF79  F006         	goto	u2600
  7984  000CEC                     u2601:
  7985  000CEC  FFFF               	dw	65535	; assembler added errata NOP
  7986  000CEE  EF7D  F006         	goto	l2776
  7987  000CF2                     u2600:
  7988  000CF2  FFFF               	dw	65535	; assembler added errata NOP
  7989  000CF4  8E0A               	bsf	(___fladd@b+2)^0,7,c
  7990  000CF6  EF7F  F006         	goto	l2778
  7991  000CFA                     l2776:
  7992  000CFA  FFFF               	dw	65535	; assembler added errata NOP
  7993  000CFC  9E0A               	bcf	(___fladd@b+2)^0,7,c
  7994  000CFE                     l2778:
  7995  000CFE  FFFF               	dw	65535	; assembler added errata NOP
  7996  000D00  90D8               	bcf	status,0,c
  7997  000D02  3016               	rrcf	___fladd@bexp^0,w,c
  7998  000D04  6E0B               	movwf	(___fladd@b+3)^0,c
  7999  000D06  AE14               	btfss	___fladd@signs^0,7,c
  8000  000D08  EF88  F006         	goto	u2611
  8001  000D0C  EF8B  F006         	goto	u2610
  8002  000D10                     u2611:
  8003  000D10  FFFF               	dw	65535	; assembler added errata NOP
  8004  000D12  EF8D  F006         	goto	l2784
  8005  000D16                     u2610:
  8006  000D16  FFFF               	dw	65535	; assembler added errata NOP
  8007  000D18  8E0B               	bsf	(___fladd@b+3)^0,7,c
  8008  000D1A                     l2784:
  8009  000D1A  FFFF               	dw	65535	; assembler added errata NOP
  8010  000D1C  C008  F008         	movff	___fladd@b,?___fladd
  8011  000D20  C009  F009         	movff	___fladd@b+1,?___fladd+1
  8012  000D24  C00A  F00A         	movff	___fladd@b+2,?___fladd+2
  8013  000D28  C00B  F00B         	movff	___fladd@b+3,?___fladd+3
  8014  000D2C                     l946:
  8015  000D2C  FFFF               	dw	65535	; assembler added errata NOP
  8016  000D2E  0012               	return		;funcret
  8017  000D30  FFFF               	dw	65535	; errata NOP
  8018  000D32                     __end_of___fladd:
  8019                           	callstack 0
  8020                           
  8021 ;; *************** function ___flneg *****************
  8022 ;; Defined at:
  8023 ;;		line 15 in file "/opt/microchip/xc8/v2.32/pic/sources/c99/common/flneg.c"
  8024 ;; Parameters:    Size  Location     Type
  8025 ;;  f1              4    7[COMRAM] unsigned char 
  8026 ;; Auto vars:     Size  Location     Type
  8027 ;;		None
  8028 ;; Return value:  Size  Location     Type
  8029 ;;                  4    7[COMRAM] unsigned char 
  8030 ;; Registers used:
  8031 ;;		wreg, status,2, status,0
  8032 ;; Tracked objects:
  8033 ;;		On entry : 0/0
  8034 ;;		On exit  : 0/0
  8035 ;;		Unchanged: 0/0
  8036 ;; Data sizes:     COMRAM   BANK0   BANK1   BANK2   BANK3   BANK4   BANK5
  8037 ;;      Params:         4       0       0       0       0       0       0
  8038 ;;      Locals:         0       0       0       0       0       0       0
  8039 ;;      Temps:          0       0       0       0       0       0       0
  8040 ;;      Totals:         4       0       0       0       0       0       0
  8041 ;;Total ram usage:        4 bytes
  8042 ;; Hardware stack levels used: 1
  8043 ;; Hardware stack levels required when called: 1
  8044 ;; This function calls:
  8045 ;;		Nothing
  8046 ;; This function is called by:
  8047 ;;		_roundf
  8048 ;; This function uses a non-reentrant model
  8049 ;;
  8050                           
  8051                           	psect	text31
  8052  002F7E                     __ptext31:
  8053                           	callstack 0
  8054  002F7E                     ___flneg:
  8055                           	callstack 0
  8056  002F7E  FFFF               	dw	65535	; assembler added errata NOP
  8057  002F80  5008               	movf	___flneg@f1^0,w,c
  8058  002F82  1009               	iorwf	(___flneg@f1+1)^0,w,c
  8059  002F84  100A               	iorwf	(___flneg@f1+2)^0,w,c
  8060  002F86  100B               	iorwf	(___flneg@f1+3)^0,w,c
  8061  002F88  B4D8               	btfsc	status,2,c
  8062  002F8A  EFC9  F017         	goto	u3481
  8063  002F8E  EFCC  F017         	goto	u3480
  8064  002F92                     u3481:
  8065  002F92  FFFF               	dw	65535	; assembler added errata NOP
  8066  002F94  EFD5  F017         	goto	l3372
  8067  002F98                     u3480:
  8068  002F98  FFFF               	dw	65535	; assembler added errata NOP
  8069  002F9A  0E00               	movlw	0
  8070  002F9C  1A08               	xorwf	___flneg@f1^0,f,c
  8071  002F9E  0E00               	movlw	0
  8072  002FA0  1A09               	xorwf	(___flneg@f1+1)^0,f,c
  8073  002FA2  0E00               	movlw	0
  8074  002FA4  1A0A               	xorwf	(___flneg@f1+2)^0,f,c
  8075  002FA6  0E80               	movlw	128
  8076  002FA8  1A0B               	xorwf	(___flneg@f1+3)^0,f,c
  8077  002FAA                     l3372:
  8078  002FAA  FFFF               	dw	65535	; assembler added errata NOP
  8079  002FAC  C008  F008         	movff	___flneg@f1,?___flneg
  8080  002FB0  C009  F009         	movff	___flneg@f1+1,?___flneg+1
  8081  002FB4  C00A  F00A         	movff	___flneg@f1+2,?___flneg+2
  8082  002FB8  C00B  F00B         	movff	___flneg@f1+3,?___flneg+3
  8083  002FBC  0012               	return		;funcret
  8084  002FBE  FFFF               	dw	65535	; errata NOP
  8085  002FC0                     __end_of___flneg:
  8086                           	callstack 0
  8087                           
  8088 ;; *************** function ___flmul *****************
  8089 ;; Defined at:
  8090 ;;		line 8 in file "/opt/microchip/xc8/v2.32/pic/sources/c99/common/sprcmul.c"
  8091 ;; Parameters:    Size  Location     Type
  8092 ;;  b               4    7[COMRAM] unsigned char 
  8093 ;;  a               4   11[COMRAM] unsigned char 
  8094 ;; Auto vars:     Size  Location     Type
  8095 ;;  prod            4   26[COMRAM] struct .
  8096 ;;  grs             4   20[COMRAM] unsigned long 
  8097 ;;  temp            2   30[COMRAM] struct .
  8098 ;;  bexp            1   25[COMRAM] unsigned char 
  8099 ;;  aexp            1   24[COMRAM] unsigned char 
  8100 ;;  sign            1   19[COMRAM] unsigned char 
  8101 ;; Return value:  Size  Location     Type
  8102 ;;                  4    7[COMRAM] unsigned char 
  8103 ;; Registers used:
  8104 ;;		wreg, status,2, status,0, prodl, prodh
  8105 ;; Tracked objects:
  8106 ;;		On entry : 0/0
  8107 ;;		On exit  : 0/0
  8108 ;;		Unchanged: 0/0
  8109 ;; Data sizes:     COMRAM   BANK0   BANK1   BANK2   BANK3   BANK4   BANK5
  8110 ;;      Params:         8       0       0       0       0       0       0
  8111 ;;      Locals:        13       0       0       0       0       0       0
  8112 ;;      Temps:          4       0       0       0       0       0       0
  8113 ;;      Totals:        25       0       0       0       0       0       0
  8114 ;;Total ram usage:       25 bytes
  8115 ;; Hardware stack levels used: 1
  8116 ;; Hardware stack levels required when called: 1
  8117 ;; This function calls:
  8118 ;;		Nothing
  8119 ;; This function is called by:
  8120 ;;		_roundf
  8121 ;; This function uses a non-reentrant model
  8122 ;;
  8123                           
  8124                           	psect	text32
  8125  000D32                     __ptext32:
  8126                           	callstack 0
  8127  000D32                     ___flmul:
  8128                           	callstack 0
  8129  000D32  FFFF               	dw	65535	; assembler added errata NOP
  8130  000D34  500B               	movf	(___flmul@b+3)^0,w,c
  8131  000D36  0B80               	andlw	128
  8132  000D38  6E14               	movwf	___flmul@sign^0,c
  8133  000D3A  500B               	movf	(___flmul@b+3)^0,w,c
  8134  000D3C  240B               	addwf	(___flmul@b+3)^0,w,c
  8135  000D3E  6E1A               	movwf	___flmul@bexp^0,c
  8136  000D40  AE0A               	btfss	(___flmul@b+2)^0,7,c
  8137  000D42  EFA5  F006         	goto	u3241
  8138  000D46  EFA8  F006         	goto	u3240
  8139  000D4A                     u3241:
  8140  000D4A  FFFF               	dw	65535	; assembler added errata NOP
  8141  000D4C  EFAA  F006         	goto	l3216
  8142  000D50                     u3240:
  8143  000D50  FFFF               	dw	65535	; assembler added errata NOP
  8144  000D52  801A               	bsf	___flmul@bexp^0,0,c
  8145  000D54                     l3216:
  8146  000D54  FFFF               	dw	65535	; assembler added errata NOP
  8147  000D56  501A               	movf	___flmul@bexp^0,w,c
  8148  000D58  B4D8               	btfsc	status,2,c
  8149  000D5A  EFB1  F006         	goto	u3251
  8150  000D5E  EFB4  F006         	goto	u3250
  8151  000D62                     u3251:
  8152  000D62  FFFF               	dw	65535	; assembler added errata NOP
  8153  000D64  EFCB  F006         	goto	l3224
  8154  000D68                     u3250:
  8155  000D68  FFFF               	dw	65535	; assembler added errata NOP
  8156  000D6A  281A               	incf	___flmul@bexp^0,w,c
  8157  000D6C  A4D8               	btfss	status,2,c
  8158  000D6E  EFBB  F006         	goto	u3261
  8159  000D72  EFBE  F006         	goto	u3260
  8160  000D76                     u3261:
  8161  000D76  FFFF               	dw	65535	; assembler added errata NOP
  8162  000D78  EFC7  F006         	goto	l3222
  8163  000D7C                     u3260:
  8164  000D7C  FFFF               	dw	65535	; assembler added errata NOP
  8165  000D7E  0E00               	movlw	0
  8166  000D80  6E08               	movwf	___flmul@b^0,c
  8167  000D82  0E00               	movlw	0
  8168  000D84  6E09               	movwf	(___flmul@b+1)^0,c
  8169  000D86  0E00               	movlw	0
  8170  000D88  6E0A               	movwf	(___flmul@b+2)^0,c
  8171  000D8A  0E00               	movlw	0
  8172  000D8C  6E0B               	movwf	(___flmul@b+3)^0,c
  8173  000D8E                     l3222:
  8174  000D8E  FFFF               	dw	65535	; assembler added errata NOP
  8175  000D90  8E0A               	bsf	(___flmul@b+2)^0,7,c
  8176  000D92  EFD4  F006         	goto	l3226
  8177  000D96                     l3224:
  8178  000D96  FFFF               	dw	65535	; assembler added errata NOP
  8179  000D98  0E00               	movlw	0
  8180  000D9A  6E08               	movwf	___flmul@b^0,c
  8181  000D9C  0E00               	movlw	0
  8182  000D9E  6E09               	movwf	(___flmul@b+1)^0,c
  8183  000DA0  0E00               	movlw	0
  8184  000DA2  6E0A               	movwf	(___flmul@b+2)^0,c
  8185  000DA4  0E00               	movlw	0
  8186  000DA6  6E0B               	movwf	(___flmul@b+3)^0,c
  8187  000DA8                     l3226:
  8188  000DA8  FFFF               	dw	65535	; assembler added errata NOP
  8189  000DAA  500F               	movf	(___flmul@a+3)^0,w,c
  8190  000DAC  0B80               	andlw	128
  8191  000DAE  1A14               	xorwf	___flmul@sign^0,f,c
  8192  000DB0  500F               	movf	(___flmul@a+3)^0,w,c
  8193  000DB2  240F               	addwf	(___flmul@a+3)^0,w,c
  8194  000DB4  6E19               	movwf	___flmul@aexp^0,c
  8195  000DB6  AE0E               	btfss	(___flmul@a+2)^0,7,c
  8196  000DB8  EFE0  F006         	goto	u3271
  8197  000DBC  EFE3  F006         	goto	u3270
  8198  000DC0                     u3271:
  8199  000DC0  FFFF               	dw	65535	; assembler added errata NOP
  8200  000DC2  EFE5  F006         	goto	l3234
  8201  000DC6                     u3270:
  8202  000DC6  FFFF               	dw	65535	; assembler added errata NOP
  8203  000DC8  8019               	bsf	___flmul@aexp^0,0,c
  8204  000DCA                     l3234:
  8205  000DCA  FFFF               	dw	65535	; assembler added errata NOP
  8206  000DCC  5019               	movf	___flmul@aexp^0,w,c
  8207  000DCE  B4D8               	btfsc	status,2,c
  8208  000DD0  EFEC  F006         	goto	u3281
  8209  000DD4  EFEF  F006         	goto	u3280
  8210  000DD8                     u3281:
  8211  000DD8  FFFF               	dw	65535	; assembler added errata NOP
  8212  000DDA  EF06  F007         	goto	l3242
  8213  000DDE                     u3280:
  8214  000DDE  FFFF               	dw	65535	; assembler added errata NOP
  8215  000DE0  2819               	incf	___flmul@aexp^0,w,c
  8216  000DE2  A4D8               	btfss	status,2,c
  8217  000DE4  EFF6  F006         	goto	u3291
  8218  000DE8  EFF9  F006         	goto	u3290
  8219  000DEC                     u3291:
  8220  000DEC  FFFF               	dw	65535	; assembler added errata NOP
  8221  000DEE  EF02  F007         	goto	l3240
  8222  000DF2                     u3290:
  8223  000DF2  FFFF               	dw	65535	; assembler added errata NOP
  8224  000DF4  0E00               	movlw	0
  8225  000DF6  6E0C               	movwf	___flmul@a^0,c
  8226  000DF8  0E00               	movlw	0
  8227  000DFA  6E0D               	movwf	(___flmul@a+1)^0,c
  8228  000DFC  0E00               	movlw	0
  8229  000DFE  6E0E               	movwf	(___flmul@a+2)^0,c
  8230  000E00  0E00               	movlw	0
  8231  000E02  6E0F               	movwf	(___flmul@a+3)^0,c
  8232  000E04                     l3240:
  8233  000E04  FFFF               	dw	65535	; assembler added errata NOP
  8234  000E06  8E0E               	bsf	(___flmul@a+2)^0,7,c
  8235  000E08  EF0F  F007         	goto	l1023
  8236  000E0C                     l3242:
  8237  000E0C  FFFF               	dw	65535	; assembler added errata NOP
  8238  000E0E  0E00               	movlw	0
  8239  000E10  6E0C               	movwf	___flmul@a^0,c
  8240  000E12  0E00               	movlw	0
  8241  000E14  6E0D               	movwf	(___flmul@a+1)^0,c
  8242  000E16  0E00               	movlw	0
  8243  000E18  6E0E               	movwf	(___flmul@a+2)^0,c
  8244  000E1A  0E00               	movlw	0
  8245  000E1C  6E0F               	movwf	(___flmul@a+3)^0,c
  8246  000E1E                     l1023:
  8247  000E1E  FFFF               	dw	65535	; assembler added errata NOP
  8248  000E20  5019               	movf	___flmul@aexp^0,w,c
  8249  000E22  B4D8               	btfsc	status,2,c
  8250  000E24  EF16  F007         	goto	u3301
  8251  000E28  EF19  F007         	goto	u3300
  8252  000E2C                     u3301:
  8253  000E2C  FFFF               	dw	65535	; assembler added errata NOP
  8254  000E2E  EF23  F007         	goto	l3246
  8255  000E32                     u3300:
  8256  000E32  FFFF               	dw	65535	; assembler added errata NOP
  8257  000E34  501A               	movf	___flmul@bexp^0,w,c
  8258  000E36  A4D8               	btfss	status,2,c
  8259  000E38  EF20  F007         	goto	u3311
  8260  000E3C  EF23  F007         	goto	u3310
  8261  000E40                     u3311:
  8262  000E40  FFFF               	dw	65535	; assembler added errata NOP
  8263  000E42  EF2E  F007         	goto	l3250
  8264  000E46                     u3310:
  8265  000E46                     l3246:
  8266  000E46  FFFF               	dw	65535	; assembler added errata NOP
  8267  000E48  0E00               	movlw	0
  8268  000E4A  6E08               	movwf	?___flmul^0,c
  8269  000E4C  0E00               	movlw	0
  8270  000E4E  6E09               	movwf	(?___flmul+1)^0,c
  8271  000E50  0E00               	movlw	0
  8272  000E52  6E0A               	movwf	(?___flmul+2)^0,c
  8273  000E54  0E00               	movlw	0
  8274  000E56  6E0B               	movwf	(?___flmul+3)^0,c
  8275  000E58  EFE8  F008         	goto	l1027
  8276  000E5C                     l3250:
  8277  000E5C  FFFF               	dw	65535	; assembler added errata NOP
  8278  000E5E  500E               	movf	(___flmul@a+2)^0,w,c
  8279  000E60  0208               	mulwf	___flmul@b^0,c
  8280  000E62  CFF3 F01F          	movff	prodl,___flmul@temp
  8281  000E66  CFF4 F020          	movff	prodh,___flmul@temp+1
  8282  000E6A  501F               	movf	___flmul@temp^0,w,c
  8283  000E6C  6E15               	movwf	___flmul@grs^0,c
  8284  000E6E  6A16               	clrf	(___flmul@grs+1)^0,c
  8285  000E70  6A17               	clrf	(___flmul@grs+2)^0,c
  8286  000E72  6A18               	clrf	(___flmul@grs+3)^0,c
  8287  000E74  5020               	movf	(___flmul@temp+1)^0,w,c
  8288  000E76  6E1B               	movwf	___flmul@prod^0,c
  8289  000E78  6A1C               	clrf	(___flmul@prod+1)^0,c
  8290  000E7A  6A1D               	clrf	(___flmul@prod+2)^0,c
  8291  000E7C  6A1E               	clrf	(___flmul@prod+3)^0,c
  8292  000E7E  500D               	movf	(___flmul@a+1)^0,w,c
  8293  000E80  0209               	mulwf	(___flmul@b+1)^0,c
  8294  000E82  CFF3 F01F          	movff	prodl,___flmul@temp
  8295  000E86  CFF4 F020          	movff	prodh,___flmul@temp+1
  8296  000E8A  501F               	movf	___flmul@temp^0,w,c
  8297  000E8C  2615               	addwf	___flmul@grs^0,f,c
  8298  000E8E  0E00               	movlw	0
  8299  000E90  2216               	addwfc	(___flmul@grs+1)^0,f,c
  8300  000E92  2217               	addwfc	(___flmul@grs+2)^0,f,c
  8301  000E94  2218               	addwfc	(___flmul@grs+3)^0,f,c
  8302  000E96  5020               	movf	(___flmul@temp+1)^0,w,c
  8303  000E98  261B               	addwf	___flmul@prod^0,f,c
  8304  000E9A  0E00               	movlw	0
  8305  000E9C  221C               	addwfc	(___flmul@prod+1)^0,f,c
  8306  000E9E  221D               	addwfc	(___flmul@prod+2)^0,f,c
  8307  000EA0  221E               	addwfc	(___flmul@prod+3)^0,f,c
  8308  000EA2  500C               	movf	___flmul@a^0,w,c
  8309  000EA4  020A               	mulwf	(___flmul@b+2)^0,c
  8310  000EA6  CFF3 F01F          	movff	prodl,___flmul@temp
  8311  000EAA  CFF4 F020          	movff	prodh,___flmul@temp+1
  8312  000EAE  501F               	movf	___flmul@temp^0,w,c
  8313  000EB0  2615               	addwf	___flmul@grs^0,f,c
  8314  000EB2  0E00               	movlw	0
  8315  000EB4  2216               	addwfc	(___flmul@grs+1)^0,f,c
  8316  000EB6  2217               	addwfc	(___flmul@grs+2)^0,f,c
  8317  000EB8  2218               	addwfc	(___flmul@grs+3)^0,f,c
  8318  000EBA  5020               	movf	(___flmul@temp+1)^0,w,c
  8319  000EBC  261B               	addwf	___flmul@prod^0,f,c
  8320  000EBE  0E00               	movlw	0
  8321  000EC0  221C               	addwfc	(___flmul@prod+1)^0,f,c
  8322  000EC2  221D               	addwfc	(___flmul@prod+2)^0,f,c
  8323  000EC4  221E               	addwfc	(___flmul@prod+3)^0,f,c
  8324  000EC6  C017  F018         	movff	___flmul@grs+2,___flmul@grs+3
  8325  000ECA  C016  F017         	movff	___flmul@grs+1,___flmul@grs+2
  8326  000ECE  C015  F016         	movff	___flmul@grs,___flmul@grs+1
  8327  000ED2  6A15               	clrf	___flmul@grs^0,c
  8328  000ED4  500C               	movf	___flmul@a^0,w,c
  8329  000ED6  0209               	mulwf	(___flmul@b+1)^0,c
  8330  000ED8  CFF3 F01F          	movff	prodl,___flmul@temp
  8331  000EDC  CFF4 F020          	movff	prodh,___flmul@temp+1
  8332  000EE0  501F               	movf	___flmul@temp^0,w,c
  8333  000EE2  2615               	addwf	___flmul@grs^0,f,c
  8334  000EE4  5020               	movf	(___flmul@temp+1)^0,w,c
  8335  000EE6  2216               	addwfc	(___flmul@grs+1)^0,f,c
  8336  000EE8  0E00               	movlw	0
  8337  000EEA  2217               	addwfc	(___flmul@grs+2)^0,f,c
  8338  000EEC  0E00               	movlw	0
  8339  000EEE  2218               	addwfc	(___flmul@grs+3)^0,f,c
  8340  000EF0  500D               	movf	(___flmul@a+1)^0,w,c
  8341  000EF2  0208               	mulwf	___flmul@b^0,c
  8342  000EF4  CFF3 F01F          	movff	prodl,___flmul@temp
  8343  000EF8  CFF4 F020          	movff	prodh,___flmul@temp+1
  8344  000EFC  501F               	movf	___flmul@temp^0,w,c
  8345  000EFE  2615               	addwf	___flmul@grs^0,f,c
  8346  000F00  5020               	movf	(___flmul@temp+1)^0,w,c
  8347  000F02  2216               	addwfc	(___flmul@grs+1)^0,f,c
  8348  000F04  0E00               	movlw	0
  8349  000F06  2217               	addwfc	(___flmul@grs+2)^0,f,c
  8350  000F08  0E00               	movlw	0
  8351  000F0A  2218               	addwfc	(___flmul@grs+3)^0,f,c
  8352  000F0C  C017  F018         	movff	___flmul@grs+2,___flmul@grs+3
  8353  000F10  C016  F017         	movff	___flmul@grs+1,___flmul@grs+2
  8354  000F14  C015  F016         	movff	___flmul@grs,___flmul@grs+1
  8355  000F18  6A15               	clrf	___flmul@grs^0,c
  8356  000F1A  500C               	movf	___flmul@a^0,w,c
  8357  000F1C  0208               	mulwf	___flmul@b^0,c
  8358  000F1E  CFF3 F01F          	movff	prodl,___flmul@temp
  8359  000F22  CFF4 F020          	movff	prodh,___flmul@temp+1
  8360  000F26  501F               	movf	___flmul@temp^0,w,c
  8361  000F28  2615               	addwf	___flmul@grs^0,f,c
  8362  000F2A  5020               	movf	(___flmul@temp+1)^0,w,c
  8363  000F2C  2216               	addwfc	(___flmul@grs+1)^0,f,c
  8364  000F2E  0E00               	movlw	0
  8365  000F30  2217               	addwfc	(___flmul@grs+2)^0,f,c
  8366  000F32  0E00               	movlw	0
  8367  000F34  2218               	addwfc	(___flmul@grs+3)^0,f,c
  8368  000F36  500E               	movf	(___flmul@a+2)^0,w,c
  8369  000F38  0209               	mulwf	(___flmul@b+1)^0,c
  8370  000F3A  CFF3 F01F          	movff	prodl,___flmul@temp
  8371  000F3E  CFF4 F020          	movff	prodh,___flmul@temp+1
  8372  000F42  501F               	movf	___flmul@temp^0,w,c
  8373  000F44  261B               	addwf	___flmul@prod^0,f,c
  8374  000F46  5020               	movf	(___flmul@temp+1)^0,w,c
  8375  000F48  221C               	addwfc	(___flmul@prod+1)^0,f,c
  8376  000F4A  0E00               	movlw	0
  8377  000F4C  221D               	addwfc	(___flmul@prod+2)^0,f,c
  8378  000F4E  0E00               	movlw	0
  8379  000F50  221E               	addwfc	(___flmul@prod+3)^0,f,c
  8380  000F52  500D               	movf	(___flmul@a+1)^0,w,c
  8381  000F54  020A               	mulwf	(___flmul@b+2)^0,c
  8382  000F56  CFF3 F01F          	movff	prodl,___flmul@temp
  8383  000F5A  CFF4 F020          	movff	prodh,___flmul@temp+1
  8384  000F5E  501F               	movf	___flmul@temp^0,w,c
  8385  000F60  261B               	addwf	___flmul@prod^0,f,c
  8386  000F62  5020               	movf	(___flmul@temp+1)^0,w,c
  8387  000F64  221C               	addwfc	(___flmul@prod+1)^0,f,c
  8388  000F66  0E00               	movlw	0
  8389  000F68  221D               	addwfc	(___flmul@prod+2)^0,f,c
  8390  000F6A  0E00               	movlw	0
  8391  000F6C  221E               	addwfc	(___flmul@prod+3)^0,f,c
  8392  000F6E  500E               	movf	(___flmul@a+2)^0,w,c
  8393  000F70  020A               	mulwf	(___flmul@b+2)^0,c
  8394  000F72  CFF3 F01F          	movff	prodl,___flmul@temp
  8395  000F76  CFF4 F020          	movff	prodh,___flmul@temp+1
  8396  000F7A  501F               	movf	___flmul@temp^0,w,c
  8397  000F7C  6E10               	movwf	??___flmul^0,c
  8398  000F7E  5020               	movf	(___flmul@temp+1)^0,w,c
  8399  000F80  6E11               	movwf	(??___flmul+1)^0,c
  8400  000F82  6A12               	clrf	(??___flmul+2)^0,c
  8401  000F84  6A13               	clrf	(??___flmul+3)^0,c
  8402  000F86  C012  F013         	movff	??___flmul+2,??___flmul+3
  8403  000F8A  C011  F012         	movff	??___flmul+1,??___flmul+2
  8404  000F8E  C010  F011         	movff	??___flmul,??___flmul+1
  8405  000F92  6A10               	clrf	??___flmul^0,c
  8406  000F94  5010               	movf	??___flmul^0,w,c
  8407  000F96  261B               	addwf	___flmul@prod^0,f,c
  8408  000F98  5011               	movf	(??___flmul+1)^0,w,c
  8409  000F9A  221C               	addwfc	(___flmul@prod+1)^0,f,c
  8410  000F9C  5012               	movf	(??___flmul+2)^0,w,c
  8411  000F9E  221D               	addwfc	(___flmul@prod+2)^0,f,c
  8412  000FA0  5013               	movf	(??___flmul+3)^0,w,c
  8413  000FA2  221E               	addwfc	(___flmul@prod+3)^0,f,c
  8414  000FA4  C015  F010         	movff	___flmul@grs,??___flmul
  8415  000FA8  C016  F011         	movff	___flmul@grs+1,??___flmul+1
  8416  000FAC  C017  F012         	movff	___flmul@grs+2,??___flmul+2
  8417  000FB0  C018  F013         	movff	___flmul@grs+3,??___flmul+3
  8418  000FB4  0E19               	movlw	25
  8419  000FB6  EFE3  F007         	goto	u3320
  8420  000FBA                     u3325:
  8421  000FBA  FFFF               	dw	65535	; assembler added errata NOP
  8422  000FBC  90D8               	bcf	status,0,c
  8423  000FBE  3213               	rrcf	(??___flmul+3)^0,f,c
  8424  000FC0  3212               	rrcf	(??___flmul+2)^0,f,c
  8425  000FC2  3211               	rrcf	(??___flmul+1)^0,f,c
  8426  000FC4  3210               	rrcf	??___flmul^0,f,c
  8427  000FC6                     u3320:
  8428  000FC6  FFFF               	dw	65535	; assembler added errata NOP
  8429  000FC8  2EE8               	decfsz	wreg,f,c
  8430  000FCA  EFDD  F007         	goto	u3325
  8431  000FCE  5010               	movf	??___flmul^0,w,c
  8432  000FD0  261B               	addwf	___flmul@prod^0,f,c
  8433  000FD2  5011               	movf	(??___flmul+1)^0,w,c
  8434  000FD4  221C               	addwfc	(___flmul@prod+1)^0,f,c
  8435  000FD6  5012               	movf	(??___flmul+2)^0,w,c
  8436  000FD8  221D               	addwfc	(___flmul@prod+2)^0,f,c
  8437  000FDA  5013               	movf	(??___flmul+3)^0,w,c
  8438  000FDC  221E               	addwfc	(___flmul@prod+3)^0,f,c
  8439  000FDE  C017  F018         	movff	___flmul@grs+2,___flmul@grs+3
  8440  000FE2  C016  F017         	movff	___flmul@grs+1,___flmul@grs+2
  8441  000FE6  C015  F016         	movff	___flmul@grs,___flmul@grs+1
  8442  000FEA  6A15               	clrf	___flmul@grs^0,c
  8443  000FEC  5019               	movf	___flmul@aexp^0,w,c
  8444  000FEE  C01A  F010         	movff	___flmul@bexp,??___flmul
  8445  000FF2  6A11               	clrf	(??___flmul+1)^0,c
  8446  000FF4  2610               	addwf	??___flmul^0,f,c
  8447  000FF6  0E00               	movlw	0
  8448  000FF8  2211               	addwfc	(??___flmul+1)^0,f,c
  8449  000FFA  0E82               	movlw	130
  8450  000FFC  2410               	addwf	??___flmul^0,w,c
  8451  000FFE  6E1F               	movwf	___flmul@temp^0,c
  8452  001000  0EFF               	movlw	255
  8453  001002  2011               	addwfc	(??___flmul+1)^0,w,c
  8454  001004  6E20               	movwf	(___flmul@temp+1)^0,c
  8455  001006  EF1E  F008         	goto	l3298
  8456  00100A                     l3292:
  8457  00100A  FFFF               	dw	65535	; assembler added errata NOP
  8458  00100C  90D8               	bcf	status,0,c
  8459  00100E  361B               	rlcf	___flmul@prod^0,f,c
  8460  001010  361C               	rlcf	(___flmul@prod+1)^0,f,c
  8461  001012  361D               	rlcf	(___flmul@prod+2)^0,f,c
  8462  001014  361E               	rlcf	(___flmul@prod+3)^0,f,c
  8463  001016  AE18               	btfss	(___flmul@grs+3)^0,7,c
  8464  001018  EF10  F008         	goto	u3331
  8465  00101C  EF13  F008         	goto	u3330
  8466  001020                     u3331:
  8467  001020  FFFF               	dw	65535	; assembler added errata NOP
  8468  001022  EF15  F008         	goto	l1030
  8469  001026                     u3330:
  8470  001026  FFFF               	dw	65535	; assembler added errata NOP
  8471  001028  801B               	bsf	___flmul@prod^0,0,c
  8472  00102A                     l1030:
  8473  00102A  FFFF               	dw	65535	; assembler added errata NOP
  8474  00102C  90D8               	bcf	status,0,c
  8475  00102E  3615               	rlcf	___flmul@grs^0,f,c
  8476  001030  3616               	rlcf	(___flmul@grs+1)^0,f,c
  8477  001032  3617               	rlcf	(___flmul@grs+2)^0,f,c
  8478  001034  3618               	rlcf	(___flmul@grs+3)^0,f,c
  8479  001036  061F               	decf	___flmul@temp^0,f,c
  8480  001038  A0D8               	btfss	status,0,c
  8481  00103A  0620               	decf	(___flmul@temp+1)^0,f,c
  8482  00103C                     l3298:
  8483  00103C  FFFF               	dw	65535	; assembler added errata NOP
  8484  00103E  AE1D               	btfss	(___flmul@prod+2)^0,7,c
  8485  001040  EF24  F008         	goto	u3341
  8486  001044  EF27  F008         	goto	u3340
  8487  001048                     u3341:
  8488  001048  FFFF               	dw	65535	; assembler added errata NOP
  8489  00104A  EF05  F008         	goto	l3292
  8490  00104E                     u3340:
  8491  00104E  FFFF               	dw	65535	; assembler added errata NOP
  8492  001050  0E00               	movlw	0
  8493  001052  6E19               	movwf	___flmul@aexp^0,c
  8494  001054  AE18               	btfss	(___flmul@grs+3)^0,7,c
  8495  001056  EF2F  F008         	goto	u3351
  8496  00105A  EF32  F008         	goto	u3350
  8497  00105E                     u3351:
  8498  00105E  FFFF               	dw	65535	; assembler added errata NOP
  8499  001060  EF5D  F008         	goto	l1032
  8500  001064                     u3350:
  8501  001064  FFFF               	dw	65535	; assembler added errata NOP
  8502  001066  0EFF               	movlw	255
  8503  001068  1415               	andwf	___flmul@grs^0,w,c
  8504  00106A  6E10               	movwf	??___flmul^0,c
  8505  00106C  0EFF               	movlw	255
  8506  00106E  1416               	andwf	(___flmul@grs+1)^0,w,c
  8507  001070  6E11               	movwf	(??___flmul+1)^0,c
  8508  001072  0EFF               	movlw	255
  8509  001074  1417               	andwf	(___flmul@grs+2)^0,w,c
  8510  001076  6E12               	movwf	(??___flmul+2)^0,c
  8511  001078  0E7F               	movlw	127
  8512  00107A  1418               	andwf	(___flmul@grs+3)^0,w,c
  8513  00107C  6E13               	movwf	(??___flmul+3)^0,c
  8514  00107E  5010               	movf	??___flmul^0,w,c
  8515  001080  1011               	iorwf	(??___flmul+1)^0,w,c
  8516  001082  1012               	iorwf	(??___flmul+2)^0,w,c
  8517  001084  1013               	iorwf	(??___flmul+3)^0,w,c
  8518  001086  B4D8               	btfsc	status,2,c
  8519  001088  EF48  F008         	goto	u3361
  8520  00108C  EF4B  F008         	goto	u3360
  8521  001090                     u3361:
  8522  001090  FFFF               	dw	65535	; assembler added errata NOP
  8523  001092  EF51  F008         	goto	l1033
  8524  001096                     u3360:
  8525  001096  FFFF               	dw	65535	; assembler added errata NOP
  8526  001098                     l3306:
  8527  001098  FFFF               	dw	65535	; assembler added errata NOP
  8528  00109A  0E01               	movlw	1
  8529  00109C  6E19               	movwf	___flmul@aexp^0,c
  8530  00109E  EF5D  F008         	goto	l1032
  8531  0010A2                     l1033:
  8532  0010A2  FFFF               	dw	65535	; assembler added errata NOP
  8533  0010A4  A01B               	btfss	___flmul@prod^0,0,c
  8534  0010A6  EF57  F008         	goto	u3371
  8535  0010AA  EF5A  F008         	goto	u3370
  8536  0010AE                     u3371:
  8537  0010AE  FFFF               	dw	65535	; assembler added errata NOP
  8538  0010B0  EF5D  F008         	goto	l1032
  8539  0010B4                     u3370:
  8540  0010B4  FFFF               	dw	65535	; assembler added errata NOP
  8541  0010B6  EF4C  F008         	goto	l3306
  8542  0010BA                     l1032:
  8543  0010BA  FFFF               	dw	65535	; assembler added errata NOP
  8544  0010BC  5019               	movf	___flmul@aexp^0,w,c
  8545  0010BE  B4D8               	btfsc	status,2,c
  8546  0010C0  EF64  F008         	goto	u3381
  8547  0010C4  EF67  F008         	goto	u3380
  8548  0010C8                     u3381:
  8549  0010C8  FFFF               	dw	65535	; assembler added errata NOP
  8550  0010CA  EF8E  F008         	goto	l3318
  8551  0010CE                     u3380:
  8552  0010CE  FFFF               	dw	65535	; assembler added errata NOP
  8553  0010D0  0E01               	movlw	1
  8554  0010D2  261B               	addwf	___flmul@prod^0,f,c
  8555  0010D4  0E00               	movlw	0
  8556  0010D6  221C               	addwfc	(___flmul@prod+1)^0,f,c
  8557  0010D8  221D               	addwfc	(___flmul@prod+2)^0,f,c
  8558  0010DA  221E               	addwfc	(___flmul@prod+3)^0,f,c
  8559  0010DC  A01E               	btfss	(___flmul@prod+3)^0,0,c
  8560  0010DE  EF73  F008         	goto	u3391
  8561  0010E2  EF76  F008         	goto	u3390
  8562  0010E6                     u3391:
  8563  0010E6  FFFF               	dw	65535	; assembler added errata NOP
  8564  0010E8  EF8E  F008         	goto	l3318
  8565  0010EC                     u3390:
  8566  0010EC  FFFF               	dw	65535	; assembler added errata NOP
  8567  0010EE  C01B  F010         	movff	___flmul@prod,??___flmul
  8568  0010F2  C01C  F011         	movff	___flmul@prod+1,??___flmul+1
  8569  0010F6  C01D  F012         	movff	___flmul@prod+2,??___flmul+2
  8570  0010FA  C01E  F013         	movff	___flmul@prod+3,??___flmul+3
  8571  0010FE  3413               	rlcf	(??___flmul+3)^0,w,c
  8572  001100  3213               	rrcf	(??___flmul+3)^0,f,c
  8573  001102  3212               	rrcf	(??___flmul+2)^0,f,c
  8574  001104  3211               	rrcf	(??___flmul+1)^0,f,c
  8575  001106  3210               	rrcf	??___flmul^0,f,c
  8576  001108  C010  F01B         	movff	??___flmul,___flmul@prod
  8577  00110C  C011  F01C         	movff	??___flmul+1,___flmul@prod+1
  8578  001110  C012  F01D         	movff	??___flmul+2,___flmul@prod+2
  8579  001114  C013  F01E         	movff	??___flmul+3,___flmul@prod+3
  8580  001118  4A1F               	infsnz	___flmul@temp^0,f,c
  8581  00111A  2A20               	incf	(___flmul@temp+1)^0,f,c
  8582  00111C                     l3318:
  8583  00111C  FFFF               	dw	65535	; assembler added errata NOP
  8584  00111E  BE20               	btfsc	(___flmul@temp+1)^0,7,c
  8585  001120  EF9A  F008         	goto	u3401
  8586  001124  5020               	movf	(___flmul@temp+1)^0,w,c
  8587  001126  E109               	bnz	u3400
  8588  001128  281F               	incf	___flmul@temp^0,w,c
  8589  00112A  A0D8               	btfss	status,0,c
  8590  00112C  EF9A  F008         	goto	u3401
  8591  001130  EF9D  F008         	goto	u3400
  8592  001134                     u3401:
  8593  001134  FFFF               	dw	65535	; assembler added errata NOP
  8594  001136  EFA8  F008         	goto	l3322
  8595  00113A                     u3400:
  8596  00113A  FFFF               	dw	65535	; assembler added errata NOP
  8597  00113C  0E00               	movlw	0
  8598  00113E  6E1B               	movwf	___flmul@prod^0,c
  8599  001140  0E00               	movlw	0
  8600  001142  6E1C               	movwf	(___flmul@prod+1)^0,c
  8601  001144  0E80               	movlw	128
  8602  001146  6E1D               	movwf	(___flmul@prod+2)^0,c
  8603  001148  0E7F               	movlw	127
  8604  00114A  6E1E               	movwf	(___flmul@prod+3)^0,c
  8605  00114C  EFDD  F008         	goto	l3334
  8606  001150                     l3322:
  8607  001150  FFFF               	dw	65535	; assembler added errata NOP
  8608  001152  BE20               	btfsc	(___flmul@temp+1)^0,7,c
  8609  001154  EFB7  F008         	goto	u3410
  8610  001158  5020               	movf	(___flmul@temp+1)^0,w,c
  8611  00115A  E106               	bnz	u3411
  8612  00115C  041F               	decf	___flmul@temp^0,w,c
  8613  00115E  B0D8               	btfsc	status,0,c
  8614  001160  EFB4  F008         	goto	u3411
  8615  001164  EFB7  F008         	goto	u3410
  8616  001168                     u3411:
  8617  001168  FFFF               	dw	65535	; assembler added errata NOP
  8618  00116A  EFC4  F008         	goto	l1040
  8619  00116E                     u3410:
  8620  00116E  FFFF               	dw	65535	; assembler added errata NOP
  8621  001170  0E00               	movlw	0
  8622  001172  6E1B               	movwf	___flmul@prod^0,c
  8623  001174  0E00               	movlw	0
  8624  001176  6E1C               	movwf	(___flmul@prod+1)^0,c
  8625  001178  0E00               	movlw	0
  8626  00117A  6E1D               	movwf	(___flmul@prod+2)^0,c
  8627  00117C  0E00               	movlw	0
  8628  00117E  6E1E               	movwf	(___flmul@prod+3)^0,c
  8629  001180  0E00               	movlw	0
  8630  001182  6E14               	movwf	___flmul@sign^0,c
  8631  001184  EFDD  F008         	goto	l3334
  8632  001188                     l1040:
  8633  001188  FFFF               	dw	65535	; assembler added errata NOP
  8634  00118A  C01F  F01A         	movff	___flmul@temp,___flmul@bexp
  8635  00118E  0EFF               	movlw	255
  8636  001190  161B               	andwf	___flmul@prod^0,f,c
  8637  001192  0EFF               	movlw	255
  8638  001194  161C               	andwf	(___flmul@prod+1)^0,f,c
  8639  001196  0E7F               	movlw	127
  8640  001198  161D               	andwf	(___flmul@prod+2)^0,f,c
  8641  00119A  0E00               	movlw	0
  8642  00119C  161E               	andwf	(___flmul@prod+3)^0,f,c
  8643  00119E  A01A               	btfss	___flmul@bexp^0,0,c
  8644  0011A0  EFD4  F008         	goto	u3421
  8645  0011A4  EFD7  F008         	goto	u3420
  8646  0011A8                     u3421:
  8647  0011A8  FFFF               	dw	65535	; assembler added errata NOP
  8648  0011AA  EFD9  F008         	goto	l3332
  8649  0011AE                     u3420:
  8650  0011AE  FFFF               	dw	65535	; assembler added errata NOP
  8651  0011B0  8E1D               	bsf	(___flmul@prod+2)^0,7,c
  8652  0011B2                     l3332:
  8653  0011B2  FFFF               	dw	65535	; assembler added errata NOP
  8654  0011B4  90D8               	bcf	status,0,c
  8655  0011B6  301A               	rrcf	___flmul@bexp^0,w,c
  8656  0011B8  6E1E               	movwf	(___flmul@prod+3)^0,c
  8657  0011BA                     l3334:
  8658  0011BA  FFFF               	dw	65535	; assembler added errata NOP
  8659  0011BC  5014               	movf	___flmul@sign^0,w,c
  8660  0011BE  121E               	iorwf	(___flmul@prod+3)^0,f,c
  8661  0011C0  C01B  F008         	movff	___flmul@prod,?___flmul
  8662  0011C4  C01C  F009         	movff	___flmul@prod+1,?___flmul+1
  8663  0011C8  C01D  F00A         	movff	___flmul@prod+2,?___flmul+2
  8664  0011CC  C01E  F00B         	movff	___flmul@prod+3,?___flmul+3
  8665  0011D0                     l1027:
  8666  0011D0  FFFF               	dw	65535	; assembler added errata NOP
  8667  0011D2  0012               	return		;funcret
  8668  0011D4  FFFF               	dw	65535	; errata NOP
  8669  0011D6                     __end_of___flmul:
  8670                           	callstack 0
  8671                           
  8672 ;; *************** function ___flge *****************
  8673 ;; Defined at:
  8674 ;;		line 4 in file "/opt/microchip/xc8/v2.32/pic/sources/c99/common/flge.c"
  8675 ;; Parameters:    Size  Location     Type
  8676 ;;  ff1             4   46[COMRAM] unsigned char 
  8677 ;;  ff2             4   50[COMRAM] unsigned char 
  8678 ;; Auto vars:     Size  Location     Type
  8679 ;;		None
  8680 ;; Return value:  Size  Location     Type
  8681 ;;		None               void
  8682 ;; Registers used:
  8683 ;;		wreg, status,2, status,0
  8684 ;; Tracked objects:
  8685 ;;		On entry : 0/0
  8686 ;;		On exit  : 0/0
  8687 ;;		Unchanged: 0/0
  8688 ;; Data sizes:     COMRAM   BANK0   BANK1   BANK2   BANK3   BANK4   BANK5
  8689 ;;      Params:         8       0       0       0       0       0       0
  8690 ;;      Locals:         0       0       0       0       0       0       0
  8691 ;;      Temps:          4       0       0       0       0       0       0
  8692 ;;      Totals:        12       0       0       0       0       0       0
  8693 ;;Total ram usage:       12 bytes
  8694 ;; Hardware stack levels used: 1
  8695 ;; Hardware stack levels required when called: 1
  8696 ;; This function calls:
  8697 ;;		Nothing
  8698 ;; This function is called by:
  8699 ;;		_pick_and_place
  8700 ;;		_roundf
  8701 ;; This function uses a non-reentrant model
  8702 ;;
  8703                           
  8704                           	psect	text33
  8705  002386                     __ptext33:
  8706                           	callstack 0
  8707  002386                     ___flge:
  8708                           	callstack 0
  8709  002386  FFFF               	dw	65535	; assembler added errata NOP
  8710  002388  0E00               	movlw	0
  8711  00238A  142F               	andwf	___flge@ff1^0,w,c
  8712  00238C  6E37               	movwf	??___flge^0,c
  8713  00238E  0E00               	movlw	0
  8714  002390  1430               	andwf	(___flge@ff1+1)^0,w,c
  8715  002392  6E38               	movwf	(??___flge+1)^0,c
  8716  002394  0E80               	movlw	128
  8717  002396  1431               	andwf	(___flge@ff1+2)^0,w,c
  8718  002398  6E39               	movwf	(??___flge+2)^0,c
  8719  00239A  0E7F               	movlw	127
  8720  00239C  1432               	andwf	(___flge@ff1+3)^0,w,c
  8721  00239E  6E3A               	movwf	(??___flge+3)^0,c
  8722  0023A0  5037               	movf	??___flge^0,w,c
  8723  0023A2  1038               	iorwf	(??___flge+1)^0,w,c
  8724  0023A4  1039               	iorwf	(??___flge+2)^0,w,c
  8725  0023A6  103A               	iorwf	(??___flge+3)^0,w,c
  8726  0023A8  A4D8               	btfss	status,2,c
  8727  0023AA  EFD9  F011         	goto	u4781
  8728  0023AE  EFDC  F011         	goto	u4780
  8729  0023B2                     u4781:
  8730  0023B2  FFFF               	dw	65535	; assembler added errata NOP
  8731  0023B4  EFE5  F011         	goto	l4226
  8732  0023B8                     u4780:
  8733  0023B8  FFFF               	dw	65535	; assembler added errata NOP
  8734  0023BA  0E00               	movlw	0
  8735  0023BC  6E2F               	movwf	___flge@ff1^0,c
  8736  0023BE  0E00               	movlw	0
  8737  0023C0  6E30               	movwf	(___flge@ff1+1)^0,c
  8738  0023C2  0E00               	movlw	0
  8739  0023C4  6E31               	movwf	(___flge@ff1+2)^0,c
  8740  0023C6  0E00               	movlw	0
  8741  0023C8  6E32               	movwf	(___flge@ff1+3)^0,c
  8742  0023CA                     l4226:
  8743  0023CA  FFFF               	dw	65535	; assembler added errata NOP
  8744  0023CC  0E00               	movlw	0
  8745  0023CE  1433               	andwf	___flge@ff2^0,w,c
  8746  0023D0  6E37               	movwf	??___flge^0,c
  8747  0023D2  0E00               	movlw	0
  8748  0023D4  1434               	andwf	(___flge@ff2+1)^0,w,c
  8749  0023D6  6E38               	movwf	(??___flge+1)^0,c
  8750  0023D8  0E80               	movlw	128
  8751  0023DA  1435               	andwf	(___flge@ff2+2)^0,w,c
  8752  0023DC  6E39               	movwf	(??___flge+2)^0,c
  8753  0023DE  0E7F               	movlw	127
  8754  0023E0  1436               	andwf	(___flge@ff2+3)^0,w,c
  8755  0023E2  6E3A               	movwf	(??___flge+3)^0,c
  8756  0023E4  5037               	movf	??___flge^0,w,c
  8757  0023E6  1038               	iorwf	(??___flge+1)^0,w,c
  8758  0023E8  1039               	iorwf	(??___flge+2)^0,w,c
  8759  0023EA  103A               	iorwf	(??___flge+3)^0,w,c
  8760  0023EC  A4D8               	btfss	status,2,c
  8761  0023EE  EFFB  F011         	goto	u4791
  8762  0023F2  EFFE  F011         	goto	u4790
  8763  0023F6                     u4791:
  8764  0023F6  FFFF               	dw	65535	; assembler added errata NOP
  8765  0023F8  EF07  F012         	goto	l4230
  8766  0023FC                     u4790:
  8767  0023FC  FFFF               	dw	65535	; assembler added errata NOP
  8768  0023FE  0E00               	movlw	0
  8769  002400  6E33               	movwf	___flge@ff2^0,c
  8770  002402  0E00               	movlw	0
  8771  002404  6E34               	movwf	(___flge@ff2+1)^0,c
  8772  002406  0E00               	movlw	0
  8773  002408  6E35               	movwf	(___flge@ff2+2)^0,c
  8774  00240A  0E00               	movlw	0
  8775  00240C  6E36               	movwf	(___flge@ff2+3)^0,c
  8776  00240E                     l4230:
  8777  00240E  FFFF               	dw	65535	; assembler added errata NOP
  8778  002410  AE32               	btfss	(___flge@ff1+3)^0,7,c
  8779  002412  EF0D  F012         	goto	u4801
  8780  002416  EF10  F012         	goto	u4800
  8781  00241A                     u4801:
  8782  00241A  FFFF               	dw	65535	; assembler added errata NOP
  8783  00241C  EF1A  F012         	goto	l4234
  8784  002420                     u4800:
  8785  002420  FFFF               	dw	65535	; assembler added errata NOP
  8786  002422  6C2F               	negf	___flge@ff1^0,c
  8787  002424  1E30               	comf	(___flge@ff1+1)^0,f,c
  8788  002426  B0D8               	btfsc	status,0,c
  8789  002428  2A30               	incf	(___flge@ff1+1)^0,f,c
  8790  00242A  1E31               	comf	(___flge@ff1+2)^0,f,c
  8791  00242C  B0D8               	btfsc	status,0,c
  8792  00242E  2A31               	incf	(___flge@ff1+2)^0,f,c
  8793  002430  0E80               	movlw	128
  8794  002432  5632               	subfwb	(___flge@ff1+3)^0,f,c
  8795  002434                     l4234:
  8796  002434  FFFF               	dw	65535	; assembler added errata NOP
  8797  002436  AE36               	btfss	(___flge@ff2+3)^0,7,c
  8798  002438  EF20  F012         	goto	u4811
  8799  00243C  EF23  F012         	goto	u4810
  8800  002440                     u4811:
  8801  002440  FFFF               	dw	65535	; assembler added errata NOP
  8802  002442  EF2D  F012         	goto	l674
  8803  002446                     u4810:
  8804  002446  FFFF               	dw	65535	; assembler added errata NOP
  8805  002448  6C33               	negf	___flge@ff2^0,c
  8806  00244A  1E34               	comf	(___flge@ff2+1)^0,f,c
  8807  00244C  B0D8               	btfsc	status,0,c
  8808  00244E  2A34               	incf	(___flge@ff2+1)^0,f,c
  8809  002450  1E35               	comf	(___flge@ff2+2)^0,f,c
  8810  002452  B0D8               	btfsc	status,0,c
  8811  002454  2A35               	incf	(___flge@ff2+2)^0,f,c
  8812  002456  0E80               	movlw	128
  8813  002458  5636               	subfwb	(___flge@ff2+3)^0,f,c
  8814  00245A                     l674:
  8815  00245A  FFFF               	dw	65535	; assembler added errata NOP
  8816  00245C  0E00               	movlw	0
  8817  00245E  1A2F               	xorwf	___flge@ff1^0,f,c
  8818  002460  0E00               	movlw	0
  8819  002462  1A30               	xorwf	(___flge@ff1+1)^0,f,c
  8820  002464  0E00               	movlw	0
  8821  002466  1A31               	xorwf	(___flge@ff1+2)^0,f,c
  8822  002468  0E80               	movlw	128
  8823  00246A  1A32               	xorwf	(___flge@ff1+3)^0,f,c
  8824  00246C  0E00               	movlw	0
  8825  00246E  1A33               	xorwf	___flge@ff2^0,f,c
  8826  002470  0E00               	movlw	0
  8827  002472  1A34               	xorwf	(___flge@ff2+1)^0,f,c
  8828  002474  0E00               	movlw	0
  8829  002476  1A35               	xorwf	(___flge@ff2+2)^0,f,c
  8830  002478  0E80               	movlw	128
  8831  00247A  1A36               	xorwf	(___flge@ff2+3)^0,f,c
  8832  00247C  5033               	movf	___flge@ff2^0,w,c
  8833  00247E  5C2F               	subwf	___flge@ff1^0,w,c
  8834  002480  5034               	movf	(___flge@ff2+1)^0,w,c
  8835  002482  5830               	subwfb	(___flge@ff1+1)^0,w,c
  8836  002484  5035               	movf	(___flge@ff2+2)^0,w,c
  8837  002486  5831               	subwfb	(___flge@ff1+2)^0,w,c
  8838  002488  5036               	movf	(___flge@ff2+3)^0,w,c
  8839  00248A  5832               	subwfb	(___flge@ff1+3)^0,w,c
  8840  00248C  B0D8               	btfsc	status,0,c
  8841  00248E  EF4B  F012         	goto	u4821
  8842  002492  EF4E  F012         	goto	u4820
  8843  002496                     u4821:
  8844  002496  FFFF               	dw	65535	; assembler added errata NOP
  8845  002498  EF52  F012         	goto	l4240
  8846  00249C                     u4820:
  8847  00249C  FFFF               	dw	65535	; assembler added errata NOP
  8848  00249E  90D8               	bcf	status,0,c
  8849  0024A0  EF54  F012         	goto	l679
  8850  0024A4                     l4240:
  8851  0024A4  FFFF               	dw	65535	; assembler added errata NOP
  8852  0024A6  80D8               	bsf	status,0,c
  8853  0024A8                     l679:
  8854  0024A8  FFFF               	dw	65535	; assembler added errata NOP
  8855  0024AA  0012               	return		;funcret
  8856  0024AC  FFFF               	dw	65535	; errata NOP
  8857  0024AE                     __end_of___flge:
  8858                           	callstack 0
  8859                           
  8860 ;; *************** function ___fltol *****************
  8861 ;; Defined at:
  8862 ;;		line 43 in file "/opt/microchip/xc8/v2.32/pic/sources/c99/common/fltol.c"
  8863 ;; Parameters:    Size  Location     Type
  8864 ;;  f1              4   84[COMRAM] unsigned char 
  8865 ;; Auto vars:     Size  Location     Type
  8866 ;;  exp1            1   89[COMRAM] unsigned char 
  8867 ;;  sign1           1   88[COMRAM] unsigned char 
  8868 ;; Return value:  Size  Location     Type
  8869 ;;                  4   84[COMRAM] long 
  8870 ;; Registers used:
  8871 ;;		wreg, status,2, status,0
  8872 ;; Tracked objects:
  8873 ;;		On entry : 0/0
  8874 ;;		On exit  : 0/0
  8875 ;;		Unchanged: 0/0
  8876 ;; Data sizes:     COMRAM   BANK0   BANK1   BANK2   BANK3   BANK4   BANK5
  8877 ;;      Params:         4       0       0       0       0       0       0
  8878 ;;      Locals:         2       0       0       0       0       0       0
  8879 ;;      Temps:          0       4       0       0       0       0       0
  8880 ;;      Totals:         6       4       0       0       0       0       0
  8881 ;;Total ram usage:       10 bytes
  8882 ;; Hardware stack levels used: 1
  8883 ;; Hardware stack levels required when called: 1
  8884 ;; This function calls:
  8885 ;;		Nothing
  8886 ;; This function is called by:
  8887 ;;		_init_USART
  8888 ;; This function uses a non-reentrant model
  8889 ;;
  8890                           
  8891                           	psect	text34
  8892  00224E                     __ptext34:
  8893                           	callstack 0
  8894  00224E                     ___fltol:
  8895                           	callstack 0
  8896  00224E  FFFF               	dw	65535	; assembler added errata NOP
  8897  002250  3457               	rlcf	(___fltol@f1+2)^0,w,c
  8898  002252  3458               	rlcf	(___fltol@f1+3)^0,w,c
  8899  002254  6E5A               	movwf	___fltol@exp1^0,c
  8900  002256  505A               	movf	___fltol@exp1^0,w,c
  8901  002258  A4D8               	btfss	status,2,c
  8902  00225A  EF31  F011         	goto	u5411
  8903  00225E  EF34  F011         	goto	u5410
  8904  002262                     u5411:
  8905  002262  FFFF               	dw	65535	; assembler added errata NOP
  8906  002264  EF40  F011         	goto	l4510
  8907  002268                     u5410:
  8908  002268  FFFF               	dw	65535	; assembler added errata NOP
  8909  00226A                     l4506:
  8910  00226A  FFFF               	dw	65535	; assembler added errata NOP
  8911  00226C  0E00               	movlw	0
  8912  00226E  6E55               	movwf	?___fltol^0,c
  8913  002270  0E00               	movlw	0
  8914  002272  6E56               	movwf	(?___fltol+1)^0,c
  8915  002274  0E00               	movlw	0
  8916  002276  6E57               	movwf	(?___fltol+2)^0,c
  8917  002278  0E00               	movlw	0
  8918  00227A  6E58               	movwf	(?___fltol+3)^0,c
  8919  00227C  EFC0  F011         	goto	l706
  8920  002280                     l4510:
  8921  002280  FFFF               	dw	65535	; assembler added errata NOP
  8922  002282  C055  F0B4         	movff	___fltol@f1,??___fltol
  8923  002286  C056  F0B5         	movff	___fltol@f1+1,??___fltol+1
  8924  00228A  C057  F0B6         	movff	___fltol@f1+2,??___fltol+2
  8925  00228E  C058  F0B7         	movff	___fltol@f1+3,??___fltol+3
  8926  002292  0E20               	movlw	32
  8927  002294  EF53  F011         	goto	u5420
  8928  002298                     u5425:
  8929  002298  FFFF               	dw	65535	; assembler added errata NOP
  8930  00229A  0100               	movlb	0	; () banked
  8931  00229C  90D8               	bcf	status,0,c
  8932  00229E  33B7               	rrcf	(??___fltol+3)& (0+255),f,b
  8933  0022A0  33B6               	rrcf	(??___fltol+2)& (0+255),f,b
  8934  0022A2  33B5               	rrcf	(??___fltol+1)& (0+255),f,b
  8935  0022A4  33B4               	rrcf	??___fltol& (0+255),f,b
  8936  0022A6                     u5420:
  8937  0022A6  FFFF               	dw	65535	; assembler added errata NOP
  8938  0022A8  2EE8               	decfsz	wreg,f,c
  8939  0022AA  EF4C  F011         	goto	u5425
  8940  0022AE  51B4               	movf	??___fltol& (0+255),w,b
  8941  0022B0  6E59               	movwf	___fltol@sign1^0,c
  8942  0022B2                     
  8943                           ; BSR set to: 0
  8944  0022B2  8E57               	bsf	(___fltol@f1+2)^0,7,c
  8945  0022B4                     
  8946                           ; BSR set to: 0
  8947  0022B4  0EFF               	movlw	255
  8948  0022B6  1655               	andwf	___fltol@f1^0,f,c
  8949  0022B8  0EFF               	movlw	255
  8950  0022BA  1656               	andwf	(___fltol@f1+1)^0,f,c
  8951  0022BC  0EFF               	movlw	255
  8952  0022BE  1657               	andwf	(___fltol@f1+2)^0,f,c
  8953  0022C0  0E00               	movlw	0
  8954  0022C2  1658               	andwf	(___fltol@f1+3)^0,f,c
  8955  0022C4                     
  8956                           ; BSR set to: 0
  8957  0022C4  0E96               	movlw	150
  8958  0022C6  5E5A               	subwf	___fltol@exp1^0,f,c
  8959  0022C8                     
  8960                           ; BSR set to: 0
  8961  0022C8  BE5A               	btfsc	___fltol@exp1^0,7,c
  8962  0022CA  EF6C  F011         	goto	u5430
  8963  0022CE  EF69  F011         	goto	u5431
  8964  0022D2                     u5431:
  8965  0022D2  FFFF               	dw	65535	; assembler added errata NOP
  8966  0022D4  EF86  F011         	goto	l4530
  8967  0022D8                     u5430:
  8968  0022D8  FFFF               	dw	65535	; assembler added errata NOP
  8969  0022DA                     
  8970                           ; BSR set to: 0
  8971  0022DA  505A               	movf	___fltol@exp1^0,w,c
  8972  0022DC  0A80               	xorlw	128
  8973  0022DE  0F97               	addlw	151
  8974  0022E0  B0D8               	btfsc	status,0,c
  8975  0022E2  EF75  F011         	goto	u5441
  8976  0022E6  EF78  F011         	goto	u5440
  8977  0022EA                     u5441:
  8978  0022EA  FFFF               	dw	65535	; assembler added errata NOP
  8979  0022EC  EF7B  F011         	goto	l4526
  8980  0022F0                     u5440:
  8981  0022F0  FFFF               	dw	65535	; assembler added errata NOP
  8982  0022F2  EF35  F011         	goto	l4506
  8983  0022F6                     l4526:
  8984  0022F6  FFFF               	dw	65535	; assembler added errata NOP
  8985  0022F8  90D8               	bcf	status,0,c
  8986  0022FA  3258               	rrcf	(___fltol@f1+3)^0,f,c
  8987  0022FC  3257               	rrcf	(___fltol@f1+2)^0,f,c
  8988  0022FE  3256               	rrcf	(___fltol@f1+1)^0,f,c
  8989  002300  3255               	rrcf	___fltol@f1^0,f,c
  8990  002302  3E5A               	incfsz	___fltol@exp1^0,f,c
  8991  002304  EF7B  F011         	goto	l4526
  8992  002308  EFA4  F011         	goto	l4540
  8993  00230C                     l4530:
  8994  00230C  FFFF               	dw	65535	; assembler added errata NOP
  8995                           
  8996                           ; BSR set to: 0
  8997  00230E  0E1F               	movlw	31
  8998  002310  645A               	cpfsgt	___fltol@exp1^0,c
  8999  002312  EF8D  F011         	goto	u5451
  9000  002316  EF90  F011         	goto	u5450
  9001  00231A                     u5451:
  9002  00231A  FFFF               	dw	65535	; assembler added errata NOP
  9003  00231C  EF9A  F011         	goto	l4538
  9004  002320                     u5450:
  9005  002320  FFFF               	dw	65535	; assembler added errata NOP
  9006  002322  EF35  F011         	goto	l4506
  9007  002326                     l4536:
  9008  002326  FFFF               	dw	65535	; assembler added errata NOP
  9009  002328  90D8               	bcf	status,0,c
  9010  00232A  3655               	rlcf	___fltol@f1^0,f,c
  9011  00232C  3656               	rlcf	(___fltol@f1+1)^0,f,c
  9012  00232E  3657               	rlcf	(___fltol@f1+2)^0,f,c
  9013  002330  3658               	rlcf	(___fltol@f1+3)^0,f,c
  9014  002332  065A               	decf	___fltol@exp1^0,f,c
  9015  002334                     l4538:
  9016  002334  FFFF               	dw	65535	; assembler added errata NOP
  9017  002336  505A               	movf	___fltol@exp1^0,w,c
  9018  002338  A4D8               	btfss	status,2,c
  9019  00233A  EFA1  F011         	goto	u5461
  9020  00233E  EFA4  F011         	goto	u5460
  9021  002342                     u5461:
  9022  002342  FFFF               	dw	65535	; assembler added errata NOP
  9023  002344  EF93  F011         	goto	l4536
  9024  002348                     u5460:
  9025  002348                     l4540:
  9026  002348  FFFF               	dw	65535	; assembler added errata NOP
  9027  00234A  5059               	movf	___fltol@sign1^0,w,c
  9028  00234C  B4D8               	btfsc	status,2,c
  9029  00234E  EFAB  F011         	goto	u5471
  9030  002352  EFAE  F011         	goto	u5470
  9031  002356                     u5471:
  9032  002356  FFFF               	dw	65535	; assembler added errata NOP
  9033  002358  EFB7  F011         	goto	l4544
  9034  00235C                     u5470:
  9035  00235C  FFFF               	dw	65535	; assembler added errata NOP
  9036  00235E  1E58               	comf	(___fltol@f1+3)^0,f,c
  9037  002360  1E57               	comf	(___fltol@f1+2)^0,f,c
  9038  002362  1E56               	comf	(___fltol@f1+1)^0,f,c
  9039  002364  6C55               	negf	___fltol@f1^0,c
  9040  002366  0E00               	movlw	0
  9041  002368  2256               	addwfc	(___fltol@f1+1)^0,f,c
  9042  00236A  2257               	addwfc	(___fltol@f1+2)^0,f,c
  9043  00236C  2258               	addwfc	(___fltol@f1+3)^0,f,c
  9044  00236E                     l4544:
  9045  00236E  FFFF               	dw	65535	; assembler added errata NOP
  9046  002370  C055  F055         	movff	___fltol@f1,?___fltol
  9047  002374  C056  F056         	movff	___fltol@f1+1,?___fltol+1
  9048  002378  C057  F057         	movff	___fltol@f1+2,?___fltol+2
  9049  00237C  C058  F058         	movff	___fltol@f1+3,?___fltol+3
  9050  002380                     l706:
  9051  002380  FFFF               	dw	65535	; assembler added errata NOP
  9052  002382  0012               	return		;funcret
  9053  002384  FFFF               	dw	65535	; errata NOP
  9054  002386                     __end_of___fltol:
  9055                           	callstack 0
  9056                           
  9057 ;; *************** function _init_PORTS *****************
  9058 ;; Defined at:
  9059 ;;		line 9 in file "init_PIC.c"
  9060 ;; Parameters:    Size  Location     Type
  9061 ;;		None
  9062 ;; Auto vars:     Size  Location     Type
  9063 ;;		None
  9064 ;; Return value:  Size  Location     Type
  9065 ;;                  1    wreg      void 
  9066 ;; Registers used:
  9067 ;;		wreg, status,2
  9068 ;; Tracked objects:
  9069 ;;		On entry : 0/0
  9070 ;;		On exit  : 0/0
  9071 ;;		Unchanged: 0/0
  9072 ;; Data sizes:     COMRAM   BANK0   BANK1   BANK2   BANK3   BANK4   BANK5
  9073 ;;      Params:         0       0       0       0       0       0       0
  9074 ;;      Locals:         0       0       0       0       0       0       0
  9075 ;;      Temps:          0       0       0       0       0       0       0
  9076 ;;      Totals:         0       0       0       0       0       0       0
  9077 ;;Total ram usage:        0 bytes
  9078 ;; Hardware stack levels used: 1
  9079 ;; Hardware stack levels required when called: 1
  9080 ;; This function calls:
  9081 ;;		Nothing
  9082 ;; This function is called by:
  9083 ;;		_main
  9084 ;; This function uses a non-reentrant model
  9085 ;;
  9086                           
  9087                           	psect	text35
  9088  003064                     __ptext35:
  9089                           	callstack 0
  9090  003064                     _init_PORTS:
  9091                           	callstack 0
  9092  003064  FFFF               	dw	65535	; assembler added errata NOP
  9093  003066                     
  9094                           ;init_PIC.c: 11:     TRISB = 0x00;
  9095  003066  0E00               	movlw	0
  9096  003068  6E93               	movwf	147,c	;volatile
  9097                           
  9098                           ;init_PIC.c: 12:     TRISD = 0x00;
  9099  00306A  0E00               	movlw	0
  9100  00306C  6E95               	movwf	149,c	;volatile
  9101                           
  9102                           ;init_PIC.c: 13:     PORTB = 0x0F;
  9103  00306E  0E0F               	movlw	15
  9104  003070  6E81               	movwf	129,c	;volatile
  9105                           
  9106                           ;init_PIC.c: 14:     PORTD = 0x0F;
  9107  003072  0E0F               	movlw	15
  9108  003074  6E83               	movwf	131,c	;volatile
  9109                           
  9110                           ;init_PIC.c: 17:     LATC = 0;
  9111  003076  0E00               	movlw	0
  9112  003078  6E8B               	movwf	139,c	;volatile
  9113                           
  9114                           ;init_PIC.c: 18:     PORTC = 0;
  9115  00307A  0E00               	movlw	0
  9116  00307C  6E82               	movwf	130,c	;volatile
  9117  00307E                     
  9118                           ;init_PIC.c: 19:     TRISCbits.RC7 = 1;
  9119  00307E  8E94               	bsf	148,7,c	;volatile
  9120  003080                     
  9121                           ;init_PIC.c: 20:     TRISCbits.RC6 = 0;
  9122  003080  9C94               	bcf	148,6,c	;volatile
  9123  003082  0012               	return		;funcret
  9124  003084  FFFF               	dw	65535	; errata NOP
  9125  003086                     __end_of_init_PORTS:
  9126                           	callstack 0
  9127                           
  9128 ;; *************** function _Rx_char_USART *****************
  9129 ;; Defined at:
  9130 ;;		line 617 in file "main.c"
  9131 ;; Parameters:    Size  Location     Type
  9132 ;;		None
  9133 ;; Auto vars:     Size  Location     Type
  9134 ;;  i               2    5[COMRAM] int 
  9135 ;; Return value:  Size  Location     Type
  9136 ;;                  1    wreg      void 
  9137 ;; Registers used:
  9138 ;;		wreg, fsr2l, fsr2h, status,2, status,0
  9139 ;; Tracked objects:
  9140 ;;		On entry : 0/0
  9141 ;;		On exit  : 0/0
  9142 ;;		Unchanged: 0/0
  9143 ;; Data sizes:     COMRAM   BANK0   BANK1   BANK2   BANK3   BANK4   BANK5
  9144 ;;      Params:         0       0       0       0       0       0       0
  9145 ;;      Locals:         2       0       0       0       0       0       0
  9146 ;;      Temps:          5       0       0       0       0       0       0
  9147 ;;      Totals:         7       0       0       0       0       0       0
  9148 ;;Total ram usage:        7 bytes
  9149 ;; Hardware stack levels used: 1
  9150 ;; This function calls:
  9151 ;;		Nothing
  9152 ;; This function is called by:
  9153 ;;		Interrupt level 2
  9154 ;; This function uses a non-reentrant model
  9155 ;;
  9156                           
  9157                           	psect	intcode
  9158  000008                     __pintcode:
  9159                           	callstack 0
  9160  000008                     _Rx_char_USART:
  9161                           	callstack 0
  9162  000008  FFFF               	dw	65535	; assembler added errata NOP
  9163                           
  9164                           ;incstack = 0
  9165  00000A  8277               	bsf	int$flags,1,c	;set compiler interrupt flag (level 2)
  9166  00000C  CFD9 F004          	movff	fsr2l,??_Rx_char_USART+3
  9167  000010  CFDA F005          	movff	fsr2h,??_Rx_char_USART+4
  9168  000014                     
  9169                           ;main.c: 619:     int i=0;
  9170  000014  0E00               	movlw	0
  9171  000016  6E07               	movwf	(Rx_char_USART@i+1)^0,c
  9172  000018  0E00               	movlw	0
  9173  00001A  6E06               	movwf	Rx_char_USART@i^0,c
  9174  00001C                     i2l402:
  9175  00001C  FFFF               	dw	65535	; assembler added errata NOP
  9176  00001E  AA9E               	btfss	3998,5,c	;volatile
  9177  000020  EF14  F000         	goto	i2u435_41
  9178  000024  EF17  F000         	goto	i2u435_40
  9179  000028                     i2u435_41:
  9180  000028  FFFF               	dw	65535	; assembler added errata NOP
  9181  00002A  EF0E  F000         	goto	i2l402
  9182  00002E                     i2u435_40:
  9183  00002E  FFFF               	dw	65535	; assembler added errata NOP
  9184  000030                     
  9185                           ;main.c: 623:         input_str[i]=RCREG;
  9186  000030  0EDF               	movlw	low _input_str
  9187  000032  2406               	addwf	Rx_char_USART@i^0,w,c
  9188  000034  6ED9               	movwf	fsr2l,c
  9189  000036  0E00               	movlw	high _input_str
  9190  000038  2007               	addwfc	(Rx_char_USART@i+1)^0,w,c
  9191  00003A  6EDA               	movwf	fsr2h,c
  9192  00003C  CFAE FFDF          	movff	4014,indf2	;volatile
  9193                           
  9194                           ;main.c: 624:     }while(input_str[i++] != '\n');
  9195  000040  5006               	movf	Rx_char_USART@i^0,w,c
  9196  000042  6E01               	movwf	??_Rx_char_USART^0,c
  9197  000044  5007               	movf	(Rx_char_USART@i+1)^0,w,c
  9198  000046  6E02               	movwf	(??_Rx_char_USART+1)^0,c
  9199  000048  4A06               	infsnz	Rx_char_USART@i^0,f,c
  9200  00004A  2A07               	incf	(Rx_char_USART@i+1)^0,f,c
  9201  00004C  0EDF               	movlw	low _input_str
  9202  00004E  2401               	addwf	??_Rx_char_USART^0,w,c
  9203  000050  6ED9               	movwf	fsr2l,c
  9204  000052  0E00               	movlw	high _input_str
  9205  000054  2002               	addwfc	(??_Rx_char_USART+1)^0,w,c
  9206  000056  6EDA               	movwf	fsr2h,c
  9207  000058  0E0A               	movlw	10
  9208  00005A  18DE               	xorwf	postinc2,w,c
  9209  00005C  A4D8               	btfss	status,2,c
  9210  00005E  EF33  F000         	goto	i2u436_41
  9211  000062  EF36  F000         	goto	i2u436_40
  9212  000066                     i2u436_41:
  9213  000066  FFFF               	dw	65535	; assembler added errata NOP
  9214  000068  EF0E  F000         	goto	i2l402
  9215  00006C                     i2u436_40:
  9216  00006C  FFFF               	dw	65535	; assembler added errata NOP
  9217  00006E                     
  9218                           ;main.c: 626:     PIR1bits.RCIF = 0;
  9219  00006E  9A9E               	bcf	158,5,c	;volatile
  9220  000070                     
  9221                           ;main.c: 627:     New_char_RX = 1;
  9222  000070  0E01               	movlw	1
  9223  000072  6E74               	movwf	_New_char_RX^0,c
  9224  000074                     
  9225                           ;main.c: 628:     State = input_str[0];
  9226  000074  C0DF  F076         	movff	_input_str,_State	;volatile
  9227  000078  C005  FFDA         	movff	??_Rx_char_USART+4,fsr2h
  9228  00007C  C004  FFD9         	movff	??_Rx_char_USART+3,fsr2l
  9229  000080  9277               	bcf	int$flags,1,c	;clear compiler interrupt flag (level 2)
  9230  000082  0011               	retfie		f
  9231  000084  FFFF               	dw	65535	; errata NOP
  9232  000086                     __end_of_Rx_char_USART:
  9233                           	callstack 0
  9234                           
  9235                           	psect	rparam
  9236  0000                     
  9237                           	psect	temp
  9238  000077                     btemp:
  9239                           	callstack 0
  9240  000077                     	ds	1
  9241  0000                     int$flags	set	btemp
  9242  0000                     wtemp8	set	btemp+1
  9243  0000                     ttemp5	set	btemp+1
  9244  0000                     ttemp6	set	btemp+4
  9245  0000                     ttemp7	set	btemp+8
  9246                           
  9247                           	psect	idloc
  9248                           
  9249                           ;Config register IDLOC0 @ 0x200000
  9250                           ;	unspecified, using default values
  9251  200000                     	org	2097152
  9252  200000  FF                 	db	255
  9253                           
  9254                           ;Config register IDLOC1 @ 0x200001
  9255                           ;	unspecified, using default values
  9256  200001                     	org	2097153
  9257  200001  FF                 	db	255
  9258                           
  9259                           ;Config register IDLOC2 @ 0x200002
  9260                           ;	unspecified, using default values
  9261  200002                     	org	2097154
  9262  200002  FF                 	db	255
  9263                           
  9264                           ;Config register IDLOC3 @ 0x200003
  9265                           ;	unspecified, using default values
  9266  200003                     	org	2097155
  9267  200003  FF                 	db	255
  9268                           
  9269                           ;Config register IDLOC4 @ 0x200004
  9270                           ;	unspecified, using default values
  9271  200004                     	org	2097156
  9272  200004  FF                 	db	255
  9273                           
  9274                           ;Config register IDLOC5 @ 0x200005
  9275                           ;	unspecified, using default values
  9276  200005                     	org	2097157
  9277  200005  FF                 	db	255
  9278                           
  9279                           ;Config register IDLOC6 @ 0x200006
  9280                           ;	unspecified, using default values
  9281  200006                     	org	2097158
  9282  200006  FF                 	db	255
  9283                           
  9284                           ;Config register IDLOC7 @ 0x200007
  9285                           ;	unspecified, using default values
  9286  200007                     	org	2097159
  9287  200007  FF                 	db	255
  9288                           
  9289                           	psect	config
  9290                           
  9291                           ; Padding undefined space
  9292  300000                     	org	3145728
  9293  300000  FF                 	db	255
  9294                           
  9295                           ;Config register CONFIG1H @ 0x300001
  9296                           ;	Oscillator Selection bits
  9297                           ;	OSC = XT, XT oscillator
  9298                           ;	Oscillator System Clock Switch Enable bit
  9299                           ;	OSCS = OFF, Oscillator system clock switch option is disabled (main oscillator is sour
      +                          ce)
  9300  300001                     	org	3145729
  9301  300001  21                 	db	33
  9302                           
  9303                           ;Config register CONFIG2L @ 0x300002
  9304                           ;	Power-up Timer Enable bit
  9305                           ;	PWRT = OFF, PWRT disabled
  9306                           ;	Brown-out Reset Enable bit
  9307                           ;	BOR = OFF, Brown-out Reset disabled
  9308                           ;	Brown-out Reset Voltage bits
  9309                           ;	BORV = 20, VBOR set to 2.0V
  9310  300002                     	org	3145730
  9311  300002  0D                 	db	13
  9312                           
  9313                           ;Config register CONFIG2H @ 0x300003
  9314                           ;	Watchdog Timer Enable bit
  9315                           ;	WDT = OFF, WDT disabled (control is placed on the SWDTEN bit)
  9316                           ;	Watchdog Timer Postscale Select bits
  9317                           ;	WDTPS = 128, 1:128
  9318  300003                     	org	3145731
  9319  300003  0E                 	db	14
  9320                           
  9321                           ; Padding undefined space
  9322  300004                     	org	3145732
  9323  300004  FF                 	db	255
  9324                           
  9325                           ;Config register CONFIG3H @ 0x300005
  9326                           ;	CCP2 Mux bit
  9327                           ;	CCP2MUX = OFF, CCP2 input/output is multiplexed with RB3
  9328  300005                     	org	3145733
  9329  300005  00                 	db	0
  9330                           
  9331                           ;Config register CONFIG4L @ 0x300006
  9332                           ;	Stack Full/Underflow Reset Enable bit
  9333                           ;	STVR = OFF, Stack Full/Underflow will not cause RESET
  9334                           ;	Low Voltage ICSP Enable bit
  9335                           ;	LVP = OFF, Low Voltage ICSP disabled
  9336                           ;	Background Debugger Enable bit
  9337                           ;	DEBUG = 0x1, unprogrammed default
  9338  300006                     	org	3145734
  9339  300006  80                 	db	128
  9340                           
  9341                           ; Padding undefined space
  9342  300007                     	org	3145735
  9343  300007  FF                 	db	255
  9344                           
  9345                           ;Config register CONFIG5L @ 0x300008
  9346                           ;	Code Protection bit
  9347                           ;	CP0 = OFF, Block 0 (000200-001FFFh) not code protected
  9348                           ;	Code Protection bit
  9349                           ;	CP1 = OFF, Block 1 (002000-003FFFh) not code protected
  9350                           ;	Code Protection bit
  9351                           ;	CP2 = OFF, Block 2 (004000-005FFFh) not code protected
  9352                           ;	Code Protection bit
  9353                           ;	CP3 = OFF, Block 3 (006000-007FFFh) not code protected
  9354  300008                     	org	3145736
  9355  300008  0F                 	db	15
  9356                           
  9357                           ;Config register CONFIG5H @ 0x300009
  9358                           ;	Boot Block Code Protection bit
  9359                           ;	CPB = OFF, Boot Block (000000-0001FFh) not code protected
  9360                           ;	Data EEPROM Code Protection bit
  9361                           ;	CPD = OFF, Data EEPROM not code protected
  9362  300009                     	org	3145737
  9363  300009  C0                 	db	192
  9364                           
  9365                           ;Config register CONFIG6L @ 0x30000A
  9366                           ;	Write Protection bit
  9367                           ;	WRT0 = OFF, Block 0 (000200-001FFFh) not write protected
  9368                           ;	Write Protection bit
  9369                           ;	WRT1 = OFF, Block 1 (002000-003FFFh) not write protected
  9370                           ;	Write Protection bit
  9371                           ;	WRT2 = OFF, Block 2 (004000-005FFFh) not write protected
  9372                           ;	Write Protection bit
  9373                           ;	WRT3 = OFF, Block 3 (006000-007FFFh) not write protected
  9374  30000A                     	org	3145738
  9375  30000A  0F                 	db	15
  9376                           
  9377                           ;Config register CONFIG6H @ 0x30000B
  9378                           ;	Configuration Register Write Protection bit
  9379                           ;	WRTC = OFF, Configuration registers (300000-3000FFh) not write protected
  9380                           ;	Boot Block Write Protection bit
  9381                           ;	WRTB = OFF, Boot Block (000000-0001FFh) not write protected
  9382                           ;	Data EEPROM Write Protection bit
  9383                           ;	WRTD = OFF, Data EEPROM not write protected
  9384  30000B                     	org	3145739
  9385  30000B  E0                 	db	224
  9386                           
  9387                           ;Config register CONFIG7L @ 0x30000C
  9388                           ;	Table Read Protection bit
  9389                           ;	EBTR0 = OFF, Block 0 (000200-001FFFh) not protected from Table Reads executed in other
      +                           blocks
  9390                           ;	Table Read Protection bit
  9391                           ;	EBTR1 = OFF, Block 1 (002000-003FFFh) not protected from Table Reads executed in other
      +                           blocks
  9392                           ;	Table Read Protection bit
  9393                           ;	EBTR2 = OFF, Block 2 (004000-005FFFh) not protected from Table Reads executed in other
      +                           blocks
  9394                           ;	Table Read Protection bit
  9395                           ;	EBTR3 = OFF, Block 3 (006000-007FFFh) not protected from Table Reads executed in other
      +                           blocks
  9396  30000C                     	org	3145740
  9397  30000C  0F                 	db	15
  9398                           
  9399                           ;Config register CONFIG7H @ 0x30000D
  9400                           ;	Boot Block Table Read Protection bit
  9401                           ;	EBTRB = OFF, Boot Block (000000-0001FFh) not protected from Table Reads executed in ot
      +                          her blocks
  9402  30000D                     	org	3145741
  9403  30000D  40                 	db	64
  9404                           tosu	equ	0xFFF
  9405                           tosh	equ	0xFFE
  9406                           tosl	equ	0xFFD
  9407                           stkptr	equ	0xFFC
  9408                           pclatu	equ	0xFFB
  9409                           pclath	equ	0xFFA
  9410                           pcl	equ	0xFF9
  9411                           tblptru	equ	0xFF8
  9412                           tblptrh	equ	0xFF7
  9413                           tblptrl	equ	0xFF6
  9414                           tablat	equ	0xFF5
  9415                           prodh	equ	0xFF4
  9416                           prodl	equ	0xFF3
  9417                           indf0	equ	0xFEF
  9418                           postinc0	equ	0xFEE
  9419                           postdec0	equ	0xFED
  9420                           preinc0	equ	0xFEC
  9421                           plusw0	equ	0xFEB
  9422                           fsr0h	equ	0xFEA
  9423                           fsr0l	equ	0xFE9
  9424                           wreg	equ	0xFE8
  9425                           indf1	equ	0xFE7
  9426                           postinc1	equ	0xFE6
  9427                           postdec1	equ	0xFE5
  9428                           preinc1	equ	0xFE4
  9429                           plusw1	equ	0xFE3
  9430                           fsr1h	equ	0xFE2
  9431                           fsr1l	equ	0xFE1
  9432                           bsr	equ	0xFE0
  9433                           indf2	equ	0xFDF
  9434                           postinc2	equ	0xFDE
  9435                           postdec2	equ	0xFDD
  9436                           preinc2	equ	0xFDC
  9437                           plusw2	equ	0xFDB
  9438                           fsr2h	equ	0xFDA
  9439                           fsr2l	equ	0xFD9
  9440                           status	equ	0xFD8

Data Sizes:
    Strings     629
    Constant    20
    Data        26
    BSS         78
    Persistent  0
    Stack       0

Auto Spaces:
    Space          Size  Autos    Used
    COMRAM          126     90     118
    BANK0           128     33     109
    BANK1           256      0       0
    BANK2           256      0       0
    BANK3           256      0       0
    BANK4           256      0       0
    BANK5           256      0       0

Pointer List with Targets:

    __memrchr@m	PTR const void  size(2) Largest target is 4
		 -> sequence(BANK0[4]), 

    __memrchr@s	PTR const unsigned char  size(2) Largest target is 4
		 -> sequence(BANK0[4]), 

    sp____memrchr	PTR void  size(2) Largest target is 4
		 -> NULL(NULL[0]), sequence(BANK0[4]), 

    strrchr@s	PTR const unsigned char  size(2) Largest target is 4
		 -> sequence(BANK0[4]), 

    strncat@s	PTR const unsigned char  size(2) Largest target is 1
		 -> add_component@add_componnt(COMRAM[1]), 

    strncat@d	PTR unsigned char  size(2) Largest target is 4
		 -> sequence(BANK0[4]), 

    strncat@a	PTR unsigned char  size(2) Largest target is 4
		 -> sequence(BANK0[4]), 

    strlen@s	PTR const unsigned char  size(2) Largest target is 4
		 -> sequence(BANK0[4]), 

    strlen@a	PTR const unsigned char  size(2) Largest target is 4
		 -> sequence(BANK0[4]), 

    memmove@d1	PTR void  size(2) Largest target is 4
		 -> sequence(BANK0[4]), 

    memmove@d	PTR unsigned char  size(2) Largest target is 4
		 -> sequence(BANK0[4]), 

    memmove@s1	PTR const void  size(2) Largest target is 4
		 -> sequence(BANK0[4]), 

    memmove@s	PTR const unsigned char  size(2) Largest target is 4
		 -> sequence(BANK0[4]), 

    atoi@s	PTR const unsigned char  size(2) Largest target is 10
		 -> input_str(BANK0[10]), 

    print_string@strng	PTR unsigned char  size(2) Largest target is 82
		 -> STR_17(CODE[70]), STR_16(CODE[21]), STR_15(CODE[63]), STR_14(CODE[19]), 
		 -> STR_13(CODE[30]), STR_12(CODE[29]), STR_11(CODE[29]), STR_10(CODE[29]), 
		 -> STR_9(CODE[28]), STR_8(CODE[28]), STR_7(CODE[52]), STR_6(CODE[26]), 
		 -> STR_5(CODE[40]), STR_4(CODE[27]), STR_3(CODE[32]), sequence(BANK0[4]), 
		 -> STR_2(CODE[20]), STR_1(CODE[82]), 

    sp__memmove	PTR void  size(2) Largest target is 4
		 -> sequence(BANK0[4]), 

    sp__strrchr	PTR unsigned char  size(2) Largest target is 4
		 -> NULL(NULL[0]), sequence(BANK0[4]), 

    remove_component@ptr	PTR unsigned char  size(2) Largest target is 4
		 -> NULL(NULL[0]), sequence(BANK0[4]), 

    sp__strncat	PTR unsigned char  size(2) Largest target is 4
		 -> sequence(BANK0[4]), 


Critical Paths under _main in COMRAM

    _start_up_menu->_pick_and_place
    _return_to_initial->_Twister
    _return_to_initial->_X_axis
    _return_to_initial->_Y_axis
    _return_to_initial->_Z_axis
    _remove_component->_strrchr
    _strrchr->___memrchr
    ___memrchr->_strlen
    _memmove->_strlen
    _pick_and_place->___flge
    ___fldiv->___xxtofl
    _Z_axis->_ms_delay
    _Y_axis->_ms_delay
    _X_axis->_ms_delay
    _Twister->_ms_delay
    _change_sequence->_print_string
    _add_component->_atoi
    _strncat->_strlen
    _print_string->_serial_tx_char
    _atoi->_isspace
    _init_USART->___fltol
    _roundf->___flge
    ___flsub->___fladd
    ___flge->___fldiv
    ___fltol->_roundf

Critical Paths under _Rx_char_USART in COMRAM

    None.

Critical Paths under _main in BANK0

    _start_up_menu->_pick_and_place
    _init_USART->___fltol

Critical Paths under _Rx_char_USART in BANK0

    None.

Critical Paths under _main in BANK1

    None.

Critical Paths under _Rx_char_USART in BANK1

    None.

Critical Paths under _main in BANK2

    None.

Critical Paths under _Rx_char_USART in BANK2

    None.

Critical Paths under _main in BANK3

    None.

Critical Paths under _Rx_char_USART in BANK3

    None.

Critical Paths under _main in BANK4

    None.

Critical Paths under _Rx_char_USART in BANK4

    None.

Critical Paths under _main in BANK5

    None.

Critical Paths under _Rx_char_USART in BANK5

    None.

Call Graph Tables:

 ---------------------------------------------------------------------------------
 (Depth) Function   	        Calls       Base Space   Used Autos Params    Refs
 ---------------------------------------------------------------------------------
 (0) _main                                                 1     1      0   56481
                         _init_PORTS
                         _init_USART
                    _init_interrupts
                      _start_up_menu
 ---------------------------------------------------------------------------------
 (1) _start_up_menu                                        5     5      0   45245
                                             60 COMRAM     5     5      0
                      _add_component
                    _change_sequence
                     _pick_and_place
                       _print_string
                   _remove_component
                  _return_to_initial
 ---------------------------------------------------------------------------------
 (2) _return_to_initial                                    9     9      0   14620
                                             14 COMRAM     9     9      0
                            _Twister
                             _X_axis
                             _Y_axis
                             _Z_axis
 ---------------------------------------------------------------------------------
 (2) _remove_component                                     5     5      0    3761
                                             25 COMRAM     5     5      0
                            _memmove
                       _print_string
                     _serial_tx_char
                             _strlen
                            _strrchr
 ---------------------------------------------------------------------------------
 (3) _strrchr                                              4     0      4     942
                                             21 COMRAM     4     0      4
                          ___memrchr
                             _strlen
 ---------------------------------------------------------------------------------
 (4) ___memrchr                                           10     4      6     406
                                             11 COMRAM    10     4      6
                             _strlen (ARG)
 ---------------------------------------------------------------------------------
 (3) _memmove                                             12     6      6     592
                                             11 COMRAM    12     6      6
                             _strlen (ARG)
 ---------------------------------------------------------------------------------
 (2) _pick_and_place                                      35    35      0   19348
                                             58 COMRAM     2     2      0
                                              0 BANK0     33    33      0
                            _Twister
                             _X_axis
                             _Y_axis
                             _Z_axis
                            ___fldiv
                             ___flge
                           ___xxtofl
                   _fetch_parameters
 ---------------------------------------------------------------------------------
 (3) _fetch_parameters                                     1     1      0     124
                                              7 COMRAM     1     1      0
 ---------------------------------------------------------------------------------
 (3) ___xxtofl                                            14    10      4     836
                                              7 COMRAM    14    10      4
 ---------------------------------------------------------------------------------
 (3) ___fldiv                                             25    17      8    2183
                                             21 COMRAM    25    17      8
                           ___xxtofl (ARG)
 ---------------------------------------------------------------------------------
 (3) _Z_axis                                               1     1      0    3618
                                             13 COMRAM     1     1      0
                           _ms_delay
 ---------------------------------------------------------------------------------
 (3) _Y_axis                                               1     1      0    3618
                                             13 COMRAM     1     1      0
                           _ms_delay
 ---------------------------------------------------------------------------------
 (3) _X_axis                                               1     1      0    3618
                                             13 COMRAM     1     1      0
                           _ms_delay
 ---------------------------------------------------------------------------------
 (3) _Twister                                              1     1      0    3618
                                             13 COMRAM     1     1      0
                           _ms_delay
 ---------------------------------------------------------------------------------
 (4) _ms_delay                                             6     4      2    3556
                                              7 COMRAM     6     4      2
 ---------------------------------------------------------------------------------
 (2) _change_sequence                                      5     5      0    1775
                                             14 COMRAM     5     5      0
                       _print_string
 ---------------------------------------------------------------------------------
 (2) _add_component                                        3     3      0    3968
                                             29 COMRAM     3     3      0
                               _atoi
                       _print_string
                     _serial_tx_char
                            _strncat
 ---------------------------------------------------------------------------------
 (3) _strncat                                              8     2      6     712
                                             11 COMRAM     6     0      6
                             _strlen
 ---------------------------------------------------------------------------------
 (4) _strlen                                               4     2      2     318
                                              7 COMRAM     4     2      2
 ---------------------------------------------------------------------------------
 (3) _print_string                                         6     4      2    1708
                                              8 COMRAM     6     4      2
                     _serial_tx_char
 ---------------------------------------------------------------------------------
 (3) _serial_tx_char                                       1     1      0      22
                                              7 COMRAM     1     1      0
 ---------------------------------------------------------------------------------
 (3) _atoi                                                15    13      2    1456
                                             14 COMRAM    15    13      2
                             ___wmul
                            _isdigit
                            _isspace
 ---------------------------------------------------------------------------------
 (4) _isspace                                              7     5      2     207
                                              7 COMRAM     7     5      2
 ---------------------------------------------------------------------------------
 (4) _isdigit                                              6     4      2     161
                                              7 COMRAM     6     4      2
 ---------------------------------------------------------------------------------
 (4) ___wmul                                               6     2      4     311
                                              7 COMRAM     6     2      4
 ---------------------------------------------------------------------------------
 (1) _init_interrupts                                      0     0      0       0
 ---------------------------------------------------------------------------------
 (1) _init_USART                                           0     0      0   11233
                            ___fltol
                             _roundf
 ---------------------------------------------------------------------------------
 (2) _roundf                                              26    22      4   10806
                                             58 COMRAM    26    22      4
                            ___fladd
                             ___flge
                            ___flmul
                            ___flneg
                            ___flsub
 ---------------------------------------------------------------------------------
 (3) ___flsub                                              8     0      8    3649
                                             23 COMRAM     8     0      8
                            ___fladd
 ---------------------------------------------------------------------------------
 (4) ___fladd                                             16     8      8    3326
                                              7 COMRAM    16     8      8
 ---------------------------------------------------------------------------------
 (3) ___flneg                                              4     0      4     197
                                              7 COMRAM     4     0      4
 ---------------------------------------------------------------------------------
 (3) ___flmul                                             25    17      8    1744
                                              7 COMRAM    25    17      8
 ---------------------------------------------------------------------------------
 (3) ___flge                                              12     4      8     986
                                             46 COMRAM    12     4      8
                            ___fldiv (ARG)
                           ___xxtofl (ARG)
 ---------------------------------------------------------------------------------
 (2) ___fltol                                             10     6      4     427
                                             84 COMRAM     6     2      4
                                              0 BANK0      4     4      0
                             _roundf (ARG)
 ---------------------------------------------------------------------------------
 (1) _init_PORTS                                           0     0      0       0
 ---------------------------------------------------------------------------------
 Estimated maximum stack depth 4
 ---------------------------------------------------------------------------------
 (Depth) Function   	        Calls       Base Space   Used Autos Params    Refs
 ---------------------------------------------------------------------------------
 (5) _Rx_char_USART                                        7     7      0      45
                                              0 COMRAM     7     7      0
 ---------------------------------------------------------------------------------
 Estimated maximum stack depth 5
 ---------------------------------------------------------------------------------

 Call Graph Graphs:

 _main (ROOT)
   _init_PORTS
   _init_USART
     ___fltol
       _roundf (ARG)
         ___fladd
         ___flge
           ___fldiv (ARG)
             ___xxtofl (ARG)
           ___xxtofl (ARG)
         ___flmul
         ___flneg
         ___flsub
           ___fladd
     _roundf
   _init_interrupts
   _start_up_menu
     _add_component
       _atoi
         ___wmul
         _isdigit
         _isspace
       _print_string
         _serial_tx_char
       _serial_tx_char
       _strncat
         _strlen
     _change_sequence
       _print_string
     _pick_and_place
       _Twister
         _ms_delay
       _X_axis
         _ms_delay
       _Y_axis
         _ms_delay
       _Z_axis
         _ms_delay
       ___fldiv
       ___flge
       ___xxtofl
       _fetch_parameters
     _print_string
     _remove_component
       _memmove
         _strlen (ARG)
       _print_string
       _serial_tx_char
       _strlen
       _strrchr
         ___memrchr
           _strlen (ARG)
         _strlen
     _return_to_initial
       _Twister
       _X_axis
       _Y_axis
       _Z_axis

 _Rx_char_USART (ROOT)

 Address spaces:
Name               Size   Autos  Total    Cost      Usage
BIGRAM             5FF      0       0      17        0.0%
EEDATA             100      0       0       0        0.0%
BITBANK5           100      0       0      16        0.0%
BANK5              100      0       0      14        0.0%
BITBANK4           100      0       0      12        0.0%
BANK4              100      0       0      13        0.0%
BITBANK3           100      0       0      10        0.0%
BANK3              100      0       0      11        0.0%
BITBANK2           100      0       0       8        0.0%
BANK2              100      0       0       9        0.0%
BITBANK1           100      0       0       6        0.0%
BANK1              100      0       0       7        0.0%
BITBANK0            80      0       0       4        0.0%
BANK0               80     21      6D       5       85.2%
BITCOMRAM           7E      0       0       0        0.0%
COMRAM              7E     5A      76       1       93.7%
BITSFR               0      0       0     200        0.0%
SFR                  0      0       0     200        0.0%
STACK                0      0       0       2        0.0%
NULL                 0      0       0       0        0.0%
ABS                  0      0      E3      15        0.0%
DATA                 0      0      E3       3        0.0%
CODE                 0      0       0       0        0.0%


Microchip Technology PIC18 Macro Assembler V2.32 build 20210201212658 
Symbol Table                                                                                   Fri Jun 18 12:26:19 2021

                                                               ___fldiv@aexp 002E  
                                                               ___fldiv@bexp 002D  
                                                               ___fldiv@sign 0026  
                                                                         l23 3082  
                                                                         l26 30E4  
                                                                         l51 30A2  
                                                                         l45 2FFC  
                                                                         l48 308E  
                                                        ___wmul@multiplicand 000A  
                                                     __size_of_start_up_menu 014C  
                                                                        l211 1BD2  
                                                                        l205 2BFC  
                                                                        l303 2248  
                                                                        l241 1C10  
                                                                        l307 2248  
                                                                        l261 2C8A  
                                                                        l317 018C  
                                                                        l326 0238  
                                                                        l255 25BA  
                                                                        l409 3060  
                                                                        l282 28AC  
                                                                        l275 299E  
                                                                        l371 076C  
                                                                        l268 2A90  
                                                                        l372 0786  
                                                                        l348 04F0  
                                                                        l196 2110  
                                                                        l357 059C  
                                                                        l297 2EAC  
                                                                        l289 2B62  
                                                                        l706 2380  
                                                                        l389 26C0  
                                                                        l674 245A  
                                                                        l683 2FBC  
                                                                        l679 24A8  
                                                                        l937 09D2  
                                                                        l954 0B16  
                                                                        l946 0D2C  
                                                                        l938 09BC  
                                                                        l963 0C1A  
                                                                        l939 0972  
                                                                        l964 0C02  
                                                                        l991 1602  
                                                                        l993 141A  
                                                                        l979 2EF6  
                                                                        l996 13D4  
                                                          ??_init_interrupts 0008  
                                                                        wreg 000FE8  
                                                               ___flmul@aexp 0019  
                                                               ___flmul@bexp 001A  
                                                               ___flmul@sign 0014  
                                                               ___flmul@temp 001F  
                                                               ___flmul@prod 001B  
                                                               ___fltol@exp1 005A  
                                                                       l1002 1470  
                                                                       l1004 1500  
                                                                       l1005 14E8  
                                                                       l1030 102A  
                                                                       l1023 0E1E  
                                                                       l1111 1FC4  
                                                                       l1040 1188  
                                                                       l1032 10BA  
                                                                       l1033 10A2  
                                                                       l1114 2F7A  
                                                                       l1122 2DF2  
                                                                       l1027 11D0  
                                                                       l1108 1FBA  
                                                                       l1143 19E8  
                                                                       l1071 1D20  
                                                                       l1135 27BA  
                                                                       l1064 1C74  
                                                                       l1067 1E06  
                                                                       l1156 2F38  
                                                                       l1173 3036  
                                                                       l1166 2D10  
                                                                       l1078 1D8C  
                                                                       l4000 27C4  
                                                                       l3210 0D34  
                                                                       l4010 280C  
                                                                       l4002 27D8  
                                                                       l1179 2D90  
                                                                       l3300 1050  
                                                                       l3220 0D7E  
                                                                       l3212 0D40  
                                                                       l4020 2852  
                                                                       l4012 2810  
                                                                       l4004 27EC  
                                                                       l4100 123E  
                                                                       l3310 10D0  
                                                                       l3302 1054  
                                                                       l3230 0DB6  
                                                                       l3222 0D8E  
                                                                       l3214 0D52  
                                                                       l4030 2886  
                                                                       l4022 2856  
                                                                       l4014 2820  
                                                                       l4006 27F0  
                                                                       l4110 1272  
                                                                       l4102 1250  
                                                                       l3320 113C  
                                                                       l3312 10DC  
                                                                       l3304 1066  
                                                                       l3240 0E04  
                                                                       l3232 0DC8  
                                                                       l3224 0D96  
                                                                       l3216 0D54  
                                                                       l2600 07EA  
                                                                       l4040 2AC2  
                                                                       l4032 2892  
                                                                       l4024 2862  
                                                                       l4016 282C  
                                                                       l4008 27FC  
                                                                       l4200 1582  
                                                                       l4112 1288  
                                                                       l4120 12B8  
                                                                       l4104 1258  
                                                                       l2434 3066  
                                                                       l3330 11B0  
                                                                       l3322 1150  
                                                                       l3314 10EE  
                                                                       l3306 1098  
                                                                       l3250 0E5C  
                                                                       l3242 0E0C  
                                                                       l3234 0DCA  
                                                                       l3226 0DA8  
                                                                       l3218 0D6A  
                                                                       l2610 0824  
                                                                       l2602 07F2  
                                                                       l2442 30DE  
                                                                       l4050 2AF6  
                                                                       l4042 2AC6  
                                                                       l4026 2872  
                                                                       l4018 283C  
                                                                       l4034 28A6  
                                                                       l4210 15EC  
                                                                       l4202 1598  
                                                                       l4130 1304  
                                                                       l4122 12CA  
                                                                       l4114 129C  
                                                                       l4106 125E  
                                                                       l2436 307E  
                                                                       l3332 11B2  
                                                                       l3324 1170  
                                                                       l3316 1118  
                                                                       l3260 0EAE  
                                                                       l3252 0E6A  
                                                                       l3244 0E34  
                                                                       l3236 0DE0  
                                                                       l3228 0DB0  
                                                                       l2700 0A50  
                                                                       l2620 086A  
                                                                       l2612 082C  
                                                                       l2604 0804  
                                                                       l3340 2EB2  
                                                                       l4300 16F8  
                                                                       l4060 2B38  
                                                                       l4044 2AD2  
                                                                       l4052 2B02  
                                                                       l4036 2A9A  
                                                                       l4028 2876  
                                                                       l4212 15F2  
                                                                       l4204 15B8  
                                                                       l4124 12E6  
                                                                       l4116 12AC  
                                                                       l4108 1270  
                                                                       l2438 3080  
                                                                       l4230 240E  
                                                                       l4222 2388  
                                                                       l3326 118E  
                                                                       l3334 11BA  
                                                                       l3318 111C  
                                                                       l3270 0EF0  
                                                                       l3262 0EBA  
                                                                       l3254 0E74  
                                                                       l3246 0E46  
                                                                       l3238 0DF4  
                                                                       l2702 0A56  
                                                                       l2710 0A7E  
                                                                       l2630 08B0  
                                                                       l2622 087A  
                                                                       l2614 083E  
                                                                       l2606 080C  
                                                                       l3342 2EC2  
                                                                       l4310 1892  
                                                                       l4302 171A  
                                                                       l4062 2B3C  
                                                                       l4054 2B18  
                                                                       l4046 2AE2  
                                                                       l4038 2AAE  
                                                                       l4214 15F6  
                                                                       l4206 15D4  
                                                                       l4150 138E  
                                                                       l4142 1342  
                                                                       l4126 12F6  
                                                                       l4134 1318  
                                                                       l4118 12B0  
                                                                       l4070 2130  
                                                                       l4240 24A4  
                                                                       l4232 2422  
                                                                       l4224 23BA  
                                                                       l3336 11C0  
                                                                       l3328 119E  
                                                                       l3280 0F52  
                                                                       l3272 0EFC  
                                                                       l3264 0EC6  
                                                                       l3256 0E8A  
                                                                       l2712 0AAA  
                                                                       l2720 0B04  
                                                                       l2704 0A6A  
                                                                       l2640 08D4  
                                                                       l2632 08C2  
                                                                       l2624 087E  
                                                                       l2616 0840  
                                                                       l2608 0822  
                                                                       l4320 19D6  
                                                                       l4312 18CA  
                                                                       l2800 2F3C  
                                                                       l2552 308A  
                                                                       l2560 2F2C  
                                                                       l4064 2B4C  
                                                                       l4056 2B1C  
                                                                       l4048 2AE6  
                                                                       l4208 15DA  
                                                                       l4160 13E0  
                                                                       l4152 1396  
                                                                       l4144 135E  
                                                                       l4136 132E  
                                                                       l4128 12FE  
                                                                       l4080 21FC  
                                                                       l4072 2164  
                                                                       l4400 03FC  
                                                                       l4234 2434  
                                                                       l4226 23CA  
                                                                       l3290 0FEC  
                                                                       l3282 0F5E  
                                                                       l3274 0F0C  
                                                                       l3266 0ED4  
                                                                       l3258 0E96  
                                                                       l3370 2F9A  
                                                                       l2730 0B66  
                                                                       l2722 0B32  
                                                                       l2714 0ADE  
                                                                       l2706 0A6C  
                                                                       l2650 08E8  
                                                                       l2642 08D8  
                                                                       l2634 08C6  
                                                                       l2618 0856  
                                                                       l2626 0886  
                                                                       l4314 1936  
                                                                       l4306 1752  
                                                                       l2554 2EFC  
                                                                       l3610 2BCA  
                                                                       l3602 2B6A  
                                                                       l4058 2B28  
                                                                       l4066 2B5C  
                                                                       l4170 144A  
                                                                       l4162 1404  
                                                                       l4154 13AC  
                                                                       l4146 136E  
                                                                       l4138 132E  
                                                                       l4090 11F8  
                                                                       l4250 1C86  
                                                                       l4082 2214  
                                                                       l4074 217C  
                                                                       l4410 04C2  
                                                                       l4402 047C  
                                                                       l4330 00EC  
                                                                       l2810 2D58  
                                                                       l4236 2448  
                                                                       l4228 23FE  
                                                                       l3292 100A  
                                                                       l3284 0F7A  
                                                                       l3276 0F26  
                                                                       l3268 0EE0  
                                                                       l3372 2FAA  
                                                                       l2740 0B9C  
                                                                       l2732 0B78  
                                                                       l2724 0B46  
                                                                       l2716 0AE0  
                                                                       l2708 0A78  
                                                                       l2660 08FC  
                                                                       l2652 08EC  
                                                                       l2644 08DC  
                                                                       l2636 08CC  
                                                                       l2628 0898  
                                                                       l4316 196C  
                                                                       l4308 1826  
                                                                       l2580 303C  
                                                                       l2820 2C02  
                                                                       l2556 2F08  
                                                                       l3700 1B78  
                                                                       l3612 2BF8  
                                                                       l3604 2B8E  
                                                                       l4180 1496  
                                                                       l4172 1450  
                                                                       l4164 1406  
                                                                       l4156 13C0  
                                                                       l4148 137E  
                                                                       l4092 120E  
                                                                       l4084 11D8  
                                                                       l4260 1CCE  
                                                                       l4252 1CA2  
                                                                       l4244 1C18  
                                                                       l4076 21B0  
                                                                       l4068 211A  
                                                                       l4420 053C  
                                                                       l4412 04E2  
                                                                       l4404 0488  
                                                                       l4340 015E  
                                                                       l4332 0116  
                                                                       l4324 0090  
                                                                       l2900 2718  
                                                                       l2804 2D16  
                                                                       l4500 268C  
                                                                       l4510 2280  
                                                                       l4238 249E  
                                                                       l3294 1016  
                                                                       l3286 0FA4  
                                                                       l3278 0F36  
                                                                       l2750 0BDE  
                                                                       l2742 0BB2  
                                                                       l2734 0B7A  
                                                                       l2718 0AF4  
                                                                       l2670 095A  
                                                                       l2662 0900  
                                                                       l2654 08F0  
                                                                       l2646 08E0  
                                                                       l2638 08D0  
                                                                       l2590 07AA  
                                                                       l4318 19B2  
                                                                       l2582 3058  
                                                                       l2830 1E22  
                                                                       l2822 2C0E  
                                                                       l2558 2F0E  
                                                                       l3702 1B84  
                                                                       l3710 1BB8  
                                                                       l3606 2B96  
                                                                       l4190 1516  
                                                                       l4182 149A  
                                                                       l4174 145C  
                                                                       l4166 1416  
                                                                       l4158 13D2  
                                                                       l4094 1222  
                                                                       l4086 11E4  
                                                                       l4270 1D66  
                                                                       l4262 1D06  
                                                                       l4246 1C2C  
                                                                       l4078 21C8  
                                                                       l4430 05D2  
                                                                       l4422 0542  
                                                                       l4414 0514  
                                                                       l4406 0490  
                                                                       l4350 01D8  
                                                                       l4342 017E  
                                                                       l4334 0124  
                                                                       l4326 0098  
                                                                       l2910 2798  
                                                                       l2902 2728  
                                                                       l2814 2D68  
                                                                       l2806 2D1E  
                                                                       l4502 26AE  
                                                                       l4520 22DA  
                                                                       l4512 22B2  
                                                                       l4504 2250  
                                                                       l3296 1028  
                                                                       l3288 0FDE  
                                                                       l3368 2F80  
                                                                       l2760 0C4E  
                                                                       l2752 0BF8  
                                                                       l2736 0B8E  
                                                                       l2728 0B5A  
                                                                       l2744 0BB4  
                                                                       l2680 09AC  
                                                                       l2672 096A  
                                                                       l2656 08F4  
                                                                       l2648 08E4  
                                                                       l2664 0904  
                                                                       l2592 07AC  
                                                                       l2840 1E88  
                                                                       l2832 1E28  
                                                                       l2824 2C42  
                                                                       l3720 1C06  
                                                                       l3704 1B9A  
                                                                       l3608 2BAC  
                                                                       l4192 1522  
                                                                       l4184 14AC  
                                                                       l4176 146E  
                                                                       l4168 1430  
                                                                       l4096 1232  
                                                                       l4088 11F6  
                                                                       l4280 1DCC  
                                                                       l4272 1D7A  
                                                                       l4264 1D0A  
                                                                       l4256 1CB6  
                                                                       l4248 1C3E  
                                                                       l4440 063A  
                                                                       l4432 05E0  
                                                                       l4424 056E  
                                                                       l4416 0526  
                                                                       l4408 0496  
                                                                       l4360 026E  
                                                                       l4352 01DE  
                                                                       l4344 01B0  
                                                                       l4336 012C  
                                                                       l4328 00C2  
                                                                       l2912 279C  
                                                                       l2904 274A  
                                                                       l2816 2D88  
                                                                       l2808 2D28  
                                                                       l4530 230C  
                                                                       l4514 22B4  
                                                                       l4506 226A  
                                                                       l3298 103C  
                                                                       l2770 0CDC  
                                                                       l2762 0C8C  
                                                                       l2738 0B96  
                                                                       l2746 0BC6  
                                                                       l2682 09AE  
                                                                       l2674 0986  
                                                                       l2666 090A  
                                                                       l2658 08F8  
                                                                       l2594 07C2  
                                                                       l2586 078C  
                                                                       l4290 160A  
                                                                       l2850 1EBE  
                                                                       l2834 1E2E  
                                                                       l2826 2C46  
                                                                       l3722 1C0C  
                                                                       l3714 1BD8  
                                                                       l3706 1BAE  
                                                                       l3650 19F4  
                                                                       l4194 1534  
                                                                       l4186 14DE  
                                                                       l4178 1482  
                                                                       l4098 1236  
                                                                       l4282 1DE0  
                                                                       l4274 1DA0  
                                                                       l4266 1D16  
                                                                       l4258 1CC0  
                                                                       l4442 0648  
                                                                       l4434 05E8  
                                                                       l4426 058E  
                                                                       l4418 0534  
                                                                       l4370 02D6  
                                                                       l4362 027C  
                                                                       l4354 020A  
                                                                       l4346 01C2  
                                                                       l4338 0132  
                                                                       l2914 27A0  
                                                                       l2906 276A  
                                                                       l3730 24E2  
                                                                       l4610 30B0  
                                                                       l4540 2348  
                                                                       l4516 22C4  
                                                                       l2780 0D06  
                                                                       l2772 0CE0  
                                                                       l2756 0C30  
                                                                       l2764 0C8E  
                                                                       l2748 0BCC  
                                                                       l2692 0A0E  
                                                                       l2684 09BA  
                                                                       l2676 0992  
                                                                       l2668 0938  
                                                                       l2596 07D6  
                                                                       l2588 0798  
                                                                       l4292 162A  
                                                                       l2860 1F72  
                                                                       l2852 1EF4  
                                                                       l2844 1E90  
                                                                       l2836 1E4C  
                                                                       l2828 1E0E  
                                                                       l3716 1BDE  
                                                                       l3660 1A56  
                                                                       l3652 1A18  
                                                                       l4196 155E  
                                                                       l4284 1DF2  
                                                                       l4276 1DA2  
                                                                       l4268 1D58  
                                                                       l4460 0734  
                                                                       l4452 0718  
                                                                       l4444 06D4  
                                                                       l4436 05EE  
                                                                       l4428 05C0  
                                                                       l4372 02E4  
                                                                       l4364 0284  
                                                                       l4356 022A  
                                                                       l4348 01D0  
                                                                       l2908 2782  
                                                                       l3740 251A  
                                                                       l3732 24E6  
                                                                       l3724 24B0  
                                                                       l4612 30B4  
                                                                       l4604 30A6  
                                                                       l4542 235E  
                                                                       l4526 22F6  
                                                                       l4518 22C8  
                                                                       l2782 0D18  
                                                                       l2774 0CF4  
                                                                       l2766 0CA4  
                                                                       l2758 0C3C  
                                                                       l2694 0A20  
                                                                       l2686 09E6  
                                                                       l2678 0998  
                                                                       l2598 07E6  
                                                                       l4294 167A  
                                                                       l4550 2FEE  
                                                                       l2790 2D9C  
                                                                       l2862 1F88  
                                                                       l2846 1EAA  
                                                                       l2838 1E84  
                                                                       l2870 2C90  
                                                                       l3718 1BFA  
                                                                       l3670 1A9C  
                                                                       l3662 1A62  
                                                                       l3654 1A2E  
                                                                       l4198 1562  
                                                                       l4286 1DF4  
                                                                       l4278 1DA8  
                                                                       l4454 0720  
                                                                       l4446 06E6  
                                                                       l4438 061A  
                                                                       l4390 03C4  
                                                                       l4382 038E  
                                                                       l4374 0370  
                                                                       l4366 028A  
                                                                       l4358 025C  
                                                                       l3750 2584  
                                                                       l3742 2532  
                                                                       l3734 2500  
                                                                       l3726 24C8  
                                                                       l4470 25C0  
                                                                       l4614 30B6  
                                                                       l4606 30A6  
                                                                       l4544 236E  
                                                                       l4536 2326  
                                                                       l4528 2302  
                                                                       l2784 0D1A  
                                                                       l2776 0CFA  
                                                                       l2768 0CB6  
                                                                       l2696 0A32  
                                                                       l2688 09FA  
                                                                       l4296 168E  
                                                                       l4560 2FF8  
                                                                       l4552 2FF0  
                                                                       l2792 2DB4  
                                                                       l2864 1F9E  
                                                                       l2856 1F2E  
                                                                       l2848 1EB4  
                                                                       l2880 2CC8  
                                                                       l2872 2C90  
                                                                       l3680 1AEC  
                                                                       l3672 1AB2  
                                                                       l3664 1A78  
                                                                       l3656 1A32  
                                                                       l3648 19F0  
                                                                       l3920 2E6C  
                                                                       l3912 2E56  
                                                                       l4464 075A  
                                                                       l4448 06F2  
                                                                       l4384 0396  
                                                                       l4376 0382  
                                                                       l4368 02B6  
                                                                       l3744 253E  
                                                                       l3728 24DE  
                                                                       l4480 2608  
                                                                       l4472 25CC  
                                                                       l4608 30AC  
                                                                       l4538 2334  
                                                                       l2778 0CFE  
                                                                       l2698 0A44  
                                                                       l4298 16D4  
                                                                       l4562 2FFA  
                                                                       l4554 2FF2  
                                                                       l2794 2DE6  
                                                                       l2874 2CA8  
                                                                       l2882 2CCC  
                                                                       l3690 1B3A  
                                                                       l3682 1B00  
                                                                       l3674 1AC6  
                                                                       l3666 1A8C  
                                                                       l3658 1A52  
                                                                       l3922 2E72  
                                                                       l3914 2E62  
                                                                       l3930 29BC  
                                                                       l4466 0762  
                                                                       l4458 072A  
                                                                       l4394 03EA  
                                                                       l4386 039C  
                                                                       l3746 2572  
                                                                       l3754 258C  
                                                                       l4490 264C  
                                                                       l4482 2610  
                                                                       l4474 25D4  
                                                                       l4570 1FF6  
                                                                       l4556 2FF4  
                                                                       l4548 2FC2  
                                                                       l2796 2DEA  
                                                                       l2788 2D96  
                                                                       l2884 2CE4  
                                                                       l2876 2CB0  
                                                                       l3692 1B3E  
                                                                       l3684 1B04  
                                                                       l3676 1ACA  
                                                                       l3668 1A90  
                                                                       l3924 2E8C  
                                                                       l3940 29F4  
                                                                       l3932 29D0  
                                                                       l4396 03F2  
                                                                       l4388 03BC  
                                                                       l2892 3002  
                                                                       l3756 259A  
                                                                       l3748 257E  
                                                                       l4492 2650  
                                                                       l4484 2614  
                                                                       l4476 25D8  
                                                                       l4572 2020  
                                                                       l4580 207E  
                                                                       l4564 1FCC  
                                                                       l4558 2FF6  
                                                                       l2886 2CFE  
                                                                       l2878 2CC4  
                                                                       l3694 1B4A  
                                                                       l3686 1B10  
                                                                       l3678 1AD6  
                                                                       l3926 2E90  
                                                                       l3950 2A3A  
                                                                       l3942 2A04  
                                                                       l3934 29D4  
                                                                       l3758 25B4  
                                                                       l4494 2674  
                                                                       l4486 2638  
                                                                       l4478 25FC  
                                                                       l4590 20B2  
                                                                       l4582 2098  
                                                                       l4574 202A  
                                                                       l4566 1FD8  
                                                                       l2888 2D0C  
                                                                       l3696 1B60  
                                                                       l3688 1B26  
                                                                       l3960 2A76  
                                                                       l3952 2A46  
                                                                       l3944 2A10  
                                                                       l3936 29E0  
                                                                       l3928 29A8  
                                                                       l2896 26C8  
                                                                       l4496 2680  
                                                                       l4488 2644  
                                                                       l4680 20E0  
                                                                       l4584 209E  
                                                                       l4576 203E  
                                                                       l4568 1FEE  
                                                                       l4682 1EDC  
                                                                       l3698 1B74  
                                                                       l3954 2A56  
                                                                       l3938 29F0  
                                                                       l3946 2A20  
                                                                       l3962 2A8A  
                                                                       l3970 28E2  
                                                                       l2898 26F2  
                                                                       l4498 2688  
                                                                       l4594 20BC  
                                                                       l4586 20A8  
                                                                       l4578 206C  
                                                                       l3956 2A5A  
                                                                       l3948 2A36  
                                                                       l3980 291E  
                                                                       l3972 28EE  
                                                                       l3964 28B6  
                                                                       l3958 2A6A  
                                                                       l3990 2964  
                                                                       l3974 28FE  
                                                                       l3982 292E  
                                                                       l3966 28CA  
                                                                       l4598 20CA  
                                                                       l3992 2968  
                                                                       l3984 2944  
                                                                       l3976 2902  
                                                                       l3968 28DE  
                                                                       l3994 2978  
                                                                       l3986 2948  
                                                                       l3978 2912  
                                                                       l3996 2984  
                                                                       l3988 2954  
                                                                       l3998 2998  
                                                                       STR_1 7D89  
                                                                       STR_2 7FD3  
                                                                       STR_3 7EBC  
                                                                       STR_4 7F89  
                                                                       STR_5 7E94  
                                                                       STR_6 7FA4  
                                                                       STR_7 7E60  
                                                                       STR_8 7F51  
                                                                       STR_9 7F6D  
                                                                       u2200 2F2A  
                                                                       u2201 2F24  
                                                                       u2300 08AE  
                                                                       u2301 08A8  
                                                                       u2310 08C0  
                                                                       u2230 07A8  
                                                                       u2311 08BA  
                                                                       u2231 07A2  
                                                                       _LATC 000F8B  
                                                                       u2400 0A30  
                                                                       u2320 0936  
                                                                       u2240 07C0  
                                                                       u2401 0A2A  
                                                                       u2321 0930  
                                                                       u2241 07BA  
                                                                       u2410 0A42  
                                                                       u2330 0952  
                                                                       u2250 07D4  
                                                                       u2411 0A3C  
                                                                       u2331 094A  
                                                                       u2251 07CE  
                                                                       u3300 0E32  
                                                                       u2500 0BC6  
                                                                       u2420 0A68  
                                                                       u2340 0956  
                                                                       u2260 0820  
                                                                       u4100 1A50  
                                                                       u4020 2BAA  
                                                                       u3301 0E2C  
                                                                       u2501 0BC0  
                                                                       u2421 0A62  
                                                                       u2261 081A  
                                                                       u4101 1A4A  
                                                                       u4021 2BA4  
                                                                       u3310 0E46  
                                                                       u2510 0BDC  
                                                                       u2430 0AA8  
                                                                       u2350 0984  
                                                                       u2270 083C  
                                                                       u2190 30A0  
                                                                       u4110 1A76  
                                                                       u4030 2BF6  
                                                                       u3311 0E40  
                                                                       u2511 0BD6  
                                                                       u2431 0AA2  
                                                                       u2351 097E  
                                                                       u2271 0836  
                                                                       u2191 309A  
                                                                       u4111 1A70  
                                                                       u4031 2BF0  
                                                                       u3400 113A  
                                                                       u3320 0FC6  
                                                                       u3240 0D50  
                                                                       u2600 0CF2  
                                                                       u2520 0BF6  
                                                                       u2440 0AF2  
                                                                       u2360 09AA  
                                                                       u2280 0854  
                                                                       u5000 1990  
                                                                       u4120 1AB0  
                                                                       u4200 2530  
                                                                       u3401 1134  
                                                                       u3241 0D4A  
                                                                       u2601 0CEC  
                                                                       u2521 0BF0  
                                                                       u2441 0AEC  
                                                                       u2361 09A4  
                                                                       u2281 084E  
                                                                       u4121 1AAA  
                                                                       u4201 252A  
                                                                       u3410 116E  
                                                                       u3330 1026  
                                                                       u3250 0D68  
                                                                       u2610 0D16  
                                                                       u2530 0C14  
                                                                       u2450 0B30  
                                                                       u2370 09D2  
                                                                       u2290 0868  
                                                                       u5010 19B0  
                                                                       u4130 1AEA  
                                                                       u4210 25AE  
                                                                       u3411 1168  
                                                                       u3331 1020  
                                                                       u3251 0D62  
                                                                       u2611 0D10  
                                                                       u2531 0C0E  
                                                                       u2451 0B2A  
                                                                       u2371 09CC  
                                                                       u2291 0862  
                                                                       u5011 19AA  
                                                                       u4131 1AE4  
                                                                       u4211 25A8  
                                                                       u3420 11AE  
                                                                       u3340 104E  
                                                                       u3260 0D7C  
                                                                       u2540 0C2E  
                                                                       u2460 0B44  
                                                                       u2380 09E4  
                                                                       u2620 2DB2  
                                                                       u2700 2C88  
                                                                       u4140 1B24  
                                                                       u5100 01C2  
                                                                       u5020 00BA  
                                                                       u3421 11A8  
                                                                       u3341 1048  
                                                                       u3325 0FBA  
                                                                       u3261 0D76  
                                                                       u2541 0C28  
                                                                       u2461 0B3E  
                                                                       u2381 09DE  
                                                                       u5005 1984  
                                                                       u2621 2DAC  
                                                                       u2701 2C82  
                                                                       u4141 1B1E  
                                                                       u5101 01BC  
                                                                       u5021 00B2  
                                                                       u3350 1064  
                                                                       u3270 0DC6  
                                                                       u2550 0C4C  
                                                                       u2470 0B76  
                                                                       u2390 09F8  
                                                                       u2630 2DE4  
                                                                       u2710 1E4A  
                                                                       u4150 1B5E  
                                                                       u5110 0208  
                                                                       u5030 00BE  
                                                                       u3351 105E  
                                                                       u3271 0DC0  
                                                                       u2551 0C46  
                                                                       u2471 0B70  
                                                                       u2391 09F2  
                                                                       u2631 2DDE  
                                                                       u2711 1E44  
                                                                       u4151 1B58  
                                                                       u5111 0202  
                                                                       u3360 1096  
                                                                       u3280 0DDE  
                                                                       u2560 0C8A  
                                                                       u2480 0B8C  
                                                                       u2640 2F70  
                                                                       u2720 1E82  
                                                                       u4160 1B98  
                                                                       u4400 29CE  
                                                                       u5200 0424  
                                                                       u5120 025A  
                                                                       u5040 00E4  
                                                                       u2800 26F0  
                                                                       u3361 1090  
                                                                       u3281 0DD8  
                                                                       u2561 0C84  
                                                                       u2481 0B86  
                                                                       u2641 2F68  
                                                                       u2721 1E7C  
                                                                       u4161 1B92  
                                                                       u4401 29C8  
                                                                       u5121 0254  
                                                                       u5041 00DC  
                                                                       u2801 26EA  
                                                                       u3370 10B4  
                                                                       u3290 0DF2  
                                                                       u2570 0CA2  
                                                                       u2490 0BB0  
                                                                       u2650 2F74  
                                                                       u2730 1EA4  
                                                                       u4170 1BCC  
                                                                       u4090 1A2C  
                                                                       u4410 2A34  
                                                                       u5210 044A  
                                                                       u5130 026E  
                                                                       u5050 00E8  
                                                                       u2810 2716  
                                                                       u3371 10AE  
                                                                       u3291 0DEC  
                                                                       u2571 0C9C  
                                                                       u2491 0BAA  
                                                                       u2731 1E9E  
                                                                       u4171 1BC6  
                                                                       u4091 1A26  
                                                                       u4411 2A2E  
                                                                       u5211 0442  
                                                                       u5131 0268  
                                                                       u2811 2710  
                                                                       u3380 10CE  
                                                                       u2580 0CB6  
                                                                       u2740 1F68  
                                                                       u4500 2B16  
                                                                       u4420 28C8  
                                                                       u5300 05D2  
                                                                       u5220 044E  
                                                                       u5140 02B4  
                                                                       u5060 010E  
                                                                       u2820 2764  
                                                                       u2660 2D56  
                                                                       u4180 24DC  
                                                                       u3381 10C8  
                                                                       u2581 0CB0  
                                                                       u2741 1F60  
                                                                       u4501 2B10  
                                                                       u4421 28C2  
                                                                       u5301 05CC  
                                                                       u5141 02AE  
                                                                       u5061 0106  
                                                                       u2821 275E  
                                                                       u2661 2D50  
                                                                       u4181 24D6  
                                                                       u3390 10EC  
                                                                       u2590 0CDA  
                                                                       u2750 1F6C  
                                                                       u4430 28DC  
                                                                       u4510 212E  
                                                                       u5310 0618  
                                                                       u5230 0474  
                                                                       u5150 036E  
                                                                       u5070 0112  
                                                                       u2830 2780  
                                                                       u2670 2D86  
                                                                       u4190 2514  
                                                                       u3391 10E6  
                                                                       u2591 0CD4  
                                                                       u4431 28D6  
                                                                       u4511 2128  
                                                                       u5311 0612  
                                                                       u5231 046C  
                                                                       u5151 0368  
                                                                       u2831 277A  
                                                                       u2671 2D80  
                                                                       u4191 250E  
                                                                       u3480 2F98  
                                                                       u2760 1F86  
                                                                       u2680 2C3E  
                                                                       u4440 2942  
                                                                       u4600 129A  
                                                                       u4520 217A  
                                                                       u5320 06D2  
                                                                       u5240 0478  
                                                                       u5160 0382  
                                                                       u5080 015C  
                                                                       u2840 27BA  
                                                                       u5400 26C0  
                                                                       u3481 2F92  
                                                                       u2761 1F80  
                                                                       u4441 293C  
                                                                       u4601 1294  
                                                                       u4521 2174  
                                                                       u5321 06CC  
                                                                       u5161 037C  
                                                                       u5081 0156  
                                                                       u2841 27B4  
                                                                       u5401 26BA  
                                                                       u5410 2268  
                                                                       u2770 1F9C  
                                                                       u2690 2C76  
                                                                       u4370 2E8A  
                                                                       u4450 27D6  
                                                                       u4610 12E4  
                                                                       u4530 21C6  
                                                                       u5330 06E6  
                                                                       u5250 04C0  
                                                                       u5170 03BA  
                                                                       u5090 01AE  
                                                                       u5411 2262  
                                                                       u2771 1F96  
                                                                       u4371 2E84  
                                                                       u4451 27D0  
                                                                       u4611 12DE  
                                                                       u4531 21C0  
                                                                       u5331 06E0  
                                                                       u5251 04BA  
                                                                       u5171 03B4  
                                                                       u5091 01A8  
                                                                       u5420 22A6  
                                                                       u2780 2CE2  
                                                                       u4380 2EAA  
                                                                       u4460 27EA  
                                                                       u4700 14AA  
                                                                       u4620 132C  
                                                                       u4540 2212  
                                                                       u5340 0712  
                                                                       u5260 0512  
                                                                       u5180 03E4  
                                                                       u5500 207E  
                                                                       u2781 2CDC  
                                                                       u4381 2EA4  
                                                                       u4461 27E4  
                                                                       u4701 14A4  
                                                                       u4621 1326  
                                                                       u4541 220C  
                                                                       u5341 070C  
                                                                       u5261 050C  
                                                                       u5181 03DE  
                                                                       u5501 2078  
                                                                       u5430 22D8  
                                                                       u2790 2CFE  
                                                                       u4390 29BA  
                                                                       u4470 2850  
                                                                       u4710 14DC  
                                                                       u4630 13AA  
                                                                       u4550 11F4  
                                                                       u5350 0754  
                                                                       u5270 0526  
                                                                       u5190 0420  
                                                                       u5510 2092  
                                                                       u5431 22D2  
                                                                       u2687 2C34  
                                                                       u2791 2CF8  
                                                                       u4391 29B4  
                                                                       u4471 284A  
                                                                       u4711 14D6  
                                                                       u4631 13A4  
                                                                       u4551 11EE  
                                                                       u5351 074E  
                                                                       u5271 0520  
                                                                       u5191 0418  
                                                                       u5511 208C  
                                                                       u5440 22F0  
                                                                       u4800 2420  
                                                                       u4480 2AAC  
                                                                       u4720 14FA  
                                                                       u4640 13D0  
                                                                       u4560 120C  
                                                                       u5280 056C  
                                                                       u5360 25FA  
                                                                       u5441 22EA  
                                                                       u5425 2298  
                                                                       u4801 241A  
                                                                       u2697 2C6C  
                                                                       u4481 2AA6  
                                                                       u4721 14F4  
                                                                       u4641 13CA  
                                                                       u4561 1206  
                                                                       u5281 0566  
                                                                       u5361 25F4  
                                                                       u5450 2320  
                                                                       u4810 2446  
                                                                       u4490 2AC0  
                                                                       u4730 1514  
                                                                       u4650 1402  
                                                                       u4570 1220  
                                                                       u5290 05BE  
                                                                       u5370 2636  
                                                                       u5451 231A  
                                                                       u4811 2440  
                                                                       u4491 2ABA  
                                                                       u4731 150E  
                                                                       u4651 13FC  
                                                                       u4571 121A  
                                                                       u5291 05B8  
                                                                       u5371 2630  
                                                                       u5460 2348  
                                                                       u4820 249C  
                                                                       u4740 1532  
                                                                       u4660 142E  
                                                                       u4580 126E  
                                                                       u4900 1D9E  
                                                                       u5380 2672  
                                                                       _RCIF 007CF5  
                                                                       u5461 2342  
                                                                       u4821 2496  
                                                                       u4741 152C  
                                                                       u4661 1428  
                                                                       u4581 1268  
                                                                       u4901 1D98  
                                                                       u5381 266C  
                                                                       u5470 235C  
                                                                       u4750 1580  
                                                                       u4670 1448  
                                                                       u4590 1286  
                                                                       u4910 1DDE  
                                                                       u4830 1C2A  
                                                                       u5390 26AC  
                                                                       u5471 2356  
                                                                       u4751 157A  
                                                                       u4671 1442  
                                                                       u4591 1280  
                                                                       u4911 1DD8  
                                                                       u4831 1C24  
                                                                       u5391 26A6  
                                                                       u4760 15B6  
                                                                       u4680 146C  
                                                                       u4920 1DF0  
                                                                       u4840 1C3C  
                                                                       u5480 1FEC  
                                                                       u4761 15B0  
                                                                       u4681 1466  
                                                                       u4921 1DEA  
                                                                       u4841 1C36  
                                                                       u5481 1FE6  
                                                                       u4930 164C  
                                                                       u4770 15EA  
                                                                       u4690 1494  
                                                                       u4850 1CA0  
                                                                       u5490 206A  
                                                                       u4771 15E4  
                                                                       u4691 148E  
                                                                       u4851 1C9A  
                                                                       u5491 2064  
                                                                       u4780 23B8  
                                                                       u4940 1678  
                                                                       u4860 1D00  
                                                                       u4781 23B2  
                                                                       u4941 1672  
                                                                       u4861 1CFA  
                                                                       u4790 23FC  
                                                                       u4950 16B2  
                                                                       u4870 1D52  
                                                                       u4791 23F6  
                                                                       u4935 1640  
                                                                       u4871 1D4C  
                                                                       u4960 16D2  
                                                                       u4880 1D78  
                                                                       u4961 16CC  
                                                                       u4881 1D72  
                                                                       u4970 1718  
                                                                       u4890 1D8C  
                                                                       u4971 1712  
                                                                       u4955 16A6  
                                                                       u4891 1D86  
                                                                       u4980 1824  
                                                                       u4981 181E  
                                                                       u4990 18C8  
                                                                       u4991 18C2  
                                                                       _Fosc 7D85  
                                                                       _Tosc 00D9  
                                                                       _atoi 1E0C  
                                                                       _main 30A6  
                                                                       fsr1h 000FE2  
                                                                       fsr2h 000FDA  
                                                                       indf1 000FE7  
                                                                       indf2 000FDF  
                                                                       fsr1l 000FE1  
                                                                       fsr2l 000FD9  
                                                                       btemp 0077  
                                                                       _stop 0073  
                                                                       prodh 000FF4  
                                                                       prodl 000FF3  
                                                                       start 0086  
                                                                 _Angle_diff 005D  
                                                            ___fldiv@new_exp 0027  
                                                               ___param_bank 000000  
                                                              ___fltol@sign1 0059  
                                                                      ?_atoi 000F  
                                                            __end_of___fladd 0D32  
                                                                      ?_main 0001  
                                                            __end_of___fldiv 1608  
                                                            __end_of___flneg 2FC0  
                                                                      STR_10 7F34  
                                                                      STR_11 7EFA  
                                                                      STR_20 7FFC  
                                                                      STR_12 7F17  
                                                                      STR_21 7FFA  
                                                                      STR_13 7EDC  
                                                                      STR_22 7FFA  
                                                                      STR_14 7FE7  
                                                                      STR_15 7E21  
                                                                      STR_16 7FBE  
                                                                      STR_17 7DDB  
                                                                      STR_18 7FFC  
                                                                      STR_19 7FFA  
                                                            __end_of___flmul 11D6  
                                                            __end_of___flsub 2EFA  
                                                            __end_of___fltol 2386  
                                                            __end_of_Twister 2B68  
                                                                      i2l402 001C  
                                                                      i2l405 006E  
                                                                      i2l406 0078  
                                                                      _RCREG 000FAE  
                                                                      _SPBRG 000FAF  
                                                                      _PORTB 000F81  
                                                                      _PORTC 000F82  
                                                                      _PORTD 000F83  
                                                                      _TRISB 000F93  
                                                                      _TRISD 000F95  
                                                                      _TXREG 000FAD  
                                                           Twister@direction 000E  
                                                                      _X_dir 0072  
                                                                      _Y_dir 0071  
                                                                      _State 0076  
                                                     __size_of_add_component 0226  
                                                            __end_of_isdigit 2F7E  
                                                            __end_of_memmove 27C0  
                                                                      atoi@n 001C  
                                                                      atoi@s 000F  
                                         __end_of_desired_BaudRate@main$F489 7D7D  
                                                 _desired_BaudRate@main$F489 7D79  
                                                                      _toint 7D75  
                                                            __end_of_isspace 2DF6  
                                                                      tablat 000FF5  
                                                              _start_up_menu 1FCA  
                                                            _change_sequence 2B68  
                                                   __end_of_fetch_parameters 224E  
                                                                      ttemp5 0078  
                                                                      ttemp6 007B  
                                                            Y_axis@direction 000E  
                                                                      ttemp7 007F  
                                                                      status 000FD8  
                                                                      wtemp8 0078  
                                                            __end_of_strncat 2D14  
                                                            __end_of_strrchr 303A  
                                                               __end_of_Fosc 7D89  
                                                            __initialization 2DF6  
                                                               __end_of_atoi 1FCA  
                                                               __end_of_main 30C4  
                                                                 _Pick_Angle 0065  
                                                                     ??_atoi 0011  
                                                                     ??_main 005B  
                                                              __activetblptr 000002  
                                                              print_string@i 000D  
                                                             ?_start_up_menu 0001  
                                                                     i2l3900 0070  
                                                                     i2l3902 0074  
                                                                     i2l3896 0014  
                                                                     i2l3898 0030  
                                                           __end_of___xxtofl 1E0C  
                                                    remove_component@rm_comp 001E  
                                                                     _X_Pick 006D  
                                                                     _Y_Pick 0069  
                                                                     _X_diff 0061  
                                                                     _Y_diff 005F  
                                                                     _X_axis 29A4  
                                                                     _Y_axis 28B2  
                                                                     _Z_axis 27C0  
                                                              _add_component 19EE  
                                                          ?_remove_component 0001  
                                                                     ___flge 2386  
                                                                  ??___fladd 0010  
                                                                     ___wmul 303A  
                                                                  ??___fldiv 001E  
                                                                  ??___flneg 000C  
                                                                  ??___flmul 0010  
                                                                  ??___flsub 0020  
                                                                  ??___fltol 00B4  
                                                           ??_pick_and_place 003B  
                                                         ??_remove_component 001A  
                                                                  ??_Twister 000E  
                                                                     clear_0 2E34  
                                                                     clear_1 2E40  
                                                                     isa$std 000001  
                                                           __end_of_ms_delay 2EB0  
                                                                     _roundf 1608  
                                                                     _strlen 2EFA  
                                                               __pdataCOMRAM 0075  
                                                                  ??_isdigit 000A  
                                                                  ??_memmove 0012  
                                                              _Place_Angle_D 00A4  
                                                               __mediumconst 7D74  
                                                                  ??_isspace 000A  
                                                                     tblptrh 000FF7  
                                                                     tblptrl 000FF6  
                                                                     tblptru 000FF8  
                                                    __end_of_change_sequence 2C00  
                                                   fetch_parameters@Componnt 0008  
                                                                  ??_strncat 0012  
                                                                  ??_strrchr 001A  
                                                          _return_to_initial 25BE  
                                                                 ___flge@ff1 002F  
                                                                 ___flge@ff2 0033  
                                                               ___xxtofl@arg 0012  
                                                               ___xxtofl@exp 0011  
                                                               ___xxtofl@val 0008  
                                                                 __accesstop 0080  
                                                    __end_of__initialization 2E46  
                                                         __size_of___memrchr 0082  
                                                         ?_return_to_initial 0001  
                                                                 ___flneg@f1 0008  
                                                          serial_tx_char@val 0008  
                                                              ___rparam_used 000001  
                                                                 ___fltol@f1 0055  
                                                         _pick_and_place$601 00CB  
                                                         _pick_and_place$590 00BF  
                                                         _pick_and_place$584 00B7  
                                                         _pick_and_place$587 00BB  
                                                         _pick_and_place$597 00C3  
                                                         _pick_and_place$599 00C7  
                                                             ?_add_component 0001  
                                                            _init_interrupts 30DC  
                                                        ??_return_to_initial 000F  
                                                             __pcstackCOMRAM 0001  
                                                               __pidataBANK0 30C4  
                                                              __end_of_toint 7D79  
                                                                ms_delay@val 0008  
                                                           _desired_BaudRate 7D7D  
                                                    __size_of_serial_tx_char 0020  
                                                  __end_of_return_to_initial 26C6  
                                                            ??_start_up_menu 003D  
                                                                _Place_Angle 0063  
                                                                _New_char_RX 0074  
                                                                 __pbssBANK0 0080  
                                                      __end_of_Rx_char_USART 0086  
                                                  remove_component@indxToDel 001C  
                                                                 _angle_diff 00A2  
                                                                    ?_X_axis 0001  
                                                                    ?_Y_axis 0001  
                                                                    ?_Z_axis 0001  
                                                                    ?___flge 002F  
                                                                    ?___wmul 0008  
                                                                    ?_roundf 003B  
                                                          __end_of___memrchr 2D96  
                                                                    ?_strlen 0008  
                                                                  ?___xxtofl 0008  
                                                        pick_and_place@i_600 00C9  
                                                        pick_and_place@i_602 00D1  
                                                        pick_and_place@i_604 00D3  
                                                        pick_and_place@i_591 00CD  
                                                        pick_and_place@i_585 00B9  
                                                        pick_and_place@i_594 00CF  
                                                        pick_and_place@i_596 00C1  
                                                        pick_and_place@i_588 00BD  
                                                        pick_and_place@i_598 00C5  
                                                           ?_change_sequence 0001  
                                                                    _RX_Char 006F  
                                                    __end_of_init_interrupts 30E8  
                                                          ?_fetch_parameters 0001  
                                                            ??_add_component 001E  
                                                                  ?_ms_delay 0008  
                                                                    _X_Place 006B  
                                                                    _Y_Place 0067  
                                                         ??_fetch_parameters 0008  
                                                                    __Hparam 0000  
                                                                    __Lparam 0000  
                                                            pick_and_place@i 00B5  
                                                                 _init_PORTS 3064  
                                                                 _init_USART 2FC0  
                                                            __size_of_X_axis 00F2  
                                                            __size_of_Y_axis 00F2  
                                                                    _Rot_dir 0070  
                                                            __size_of_Z_axis 00F2  
                                                            __size_of___flge 0128  
                                                                    ___fladd 078A  
                                                                    ___fldiv 11D6  
                                                                    ___flneg 2F7E  
                                                                    ___flmul 0D32  
                                                                    ___flsub 2EB0  
                                                                    ___fltol 224E  
                                                            __size_of___wmul 002A  
                                                                    _Twister 2A96  
                                                                    __pcinit 2DF6  
                                                                    __ramtop 0600  
                                                                    __ptext0 30A6  
                                                                    __ptext1 1FCA  
                                                                    __ptext2 25BE  
                                                                    __ptext3 24AE  
                                                                    __ptext4 3000  
                                                                    __ptext5 2D14  
                                                                    __ptext6 26C6  
                                                                    __ptext7 008A  
                                                                    __ptext8 2116  
                                                                    __ptext9 1C14  
                                                            __size_of_roundf 03E6  
                                                            __size_of_strlen 0042  
                                                                    _isdigit 2F3C  
                                                                    _memmove 26C6  
                                                                 ??___xxtofl 000C  
                                                                    _isspace 2D96  
                                                 __size_of_return_to_initial 0108  
                                                                    atoi@neg 0015  
                                                                    _strncat 2C8E  
                                                                    _strrchr 3000  
                                                       end_of_initialization 2E46  
                                                        remove_component@ptr 001A  
                                                              __Lmediumconst 7D74  
                                                                 ??_ms_delay 000A  
                                                                  _RCSTAbits 000FAB  
                                                                    postdec1 000FE5  
                                                                    postinc0 000FEE  
                                                                    postinc2 000FDE  
                                                                    roundf@e 0047  
                                                                    roundf@u 004D  
                                                                    roundf@x 003B  
                                                                    roundf@y 0051  
                                                                    strlen@a 000A  
                                                                    strlen@s 0008  
                                                         add_component@F3128 0075  
                                                                ___fladd@grs 0017  
                                                             _serial_tx_char 3086  
                                                              ___xxtofl@sign 0010  
                                                  __size_of_remove_component 0110  
                                                                  _TRISCbits 000F94  
                                                                ___fldiv@grs 0029  
                                                                ___fldiv@rem 0022  
                                                              ?_print_string 0009  
                                                                ___flmul@grs 0015  
                                                           ?_init_interrupts 0001  
                                                                  _TXSTAbits 000FAC  
                                                                ___memrchr@c 000E  
                                                                ___memrchr@m 000C  
                                                                ___memrchr@n 0010  
                                                                ___memrchr@s 0014  
                                                   __end_of_desired_BaudRate 7D81  
                                                                ?_init_PORTS 0001  
                                                                ?_init_USART 0001  
                                                             __end_of_X_axis 2A96  
                                                             __end_of_Y_axis 29A4  
                                                             __end_of_Z_axis 28B2  
                                                             __end_of___flge 24AE  
                                                             __end_of___wmul 3064  
                                                              __pidataCOMRAM 30E8  
                                                     __end_of_serial_tx_char 30A6  
                                                             __end_of_roundf 19EE  
                                                             __end_of_strlen 2F3C  
                                                        start_initialization 2DF6  
                                                             ??_print_string 000B  
                                                                  _X_Place_D 00A8  
                                                                  _Y_Place_D 00A6  
                                                            X_axis@direction 000E  
                                                               _Pick_Angle_D 00AA  
                                                             _Tosc@main$F488 00D5  
                                                                   ??_X_axis 000E  
                                                                   ??_Y_axis 000E  
                                                                   ??_Z_axis 000E  
                                                                   ??___flge 0037  
                                                                   ??___wmul 000C  
                                                                __pdataBANK0 00D5  
                                                             _lenth_of_array 00DD  
                                                         return_to_initial@i 0010  
                                                                   ??_roundf 003F  
                                                                   ??_strlen 000A  
                                                            ?_serial_tx_char 0001  
                                                                  ___fladd@a 000C  
                                                                  ___fladd@b 0008  
                                                                  ___fldiv@a 001A  
                                                                  ___fldiv@b 0016  
                                                                  ___flmul@a 000C  
                                                                  ___flmul@b 0008  
                                                                __pbssCOMRAM 005B  
                                                           change_sequence@i 0012  
                                                                  ___flsub@a 001C  
                                                                  ___flsub@b 0018  
                                                              __pcstackBANK0 00B4  
                                                    __size_of_pick_and_place 0700  
                                                                  ___memrchr 2D14  
                                                          __size_of___xxtofl 01F8  
                                                        __size_of_init_PORTS 0022  
                                                        __size_of_init_USART 0040  
                                                      __end_of_start_up_menu 2116  
                                                                  _atoi$1072 0017  
                                                                  _atoi$1073 001B  
                                                                  _atoi$1074 0019  
                                                            Z_axis@direction 000E  
                                                          __size_of_ms_delay 005C  
                                                                  __pintcode 0008  
                                                              __pmediumconst 7D74  
                                                                   ?___fladd 0008  
                                                                   ?___fldiv 0016  
                                                                   ?___flneg 0008  
                                                                   ?___flmul 0008  
                                                                   ?___flsub 0018  
                                                                   ?___fltol 0055  
                                                                   ?_Twister 0001  
                                                             Rx_char_USART@i 0006  
                                                  __size_of_fetch_parameters 0138  
                                                     __size_of_Rx_char_USART 007E  
                                                          print_string@strng 0009  
                                                                   ?_isdigit 0008  
                                                                   ?_memmove 000C  
                                                                   ?_isspace 0008  
                                                           _remove_component 24AE  
                                                             _Fosc@main$F487 7D81  
                                                                 ?___memrchr 000C  
                                                                   ?_strncat 000C  
                                                                   ?_strrchr 0016  
                                                                  _input_str 00DF  
                                                             ___wmul@product 000C  
                                                   __size_of_change_sequence 0098  
                                                                   _PIE1bits 000F9D  
                                                      __end_of_add_component 1C14  
                                                                   _PIR1bits 000F9E  
                                                                   i2u435_40 002E  
                                                                   i2u435_41 0028  
                                                                   i2u436_40 006C  
                                                                   i2u436_41 0066  
                                                       __end_of_print_string 2C8E  
                                                                  _testarray 0080  
                                                          ___wmul@multiplier 0008  
                                                     __end_of_Fosc@main$F487 7D85  
                                                               _isspace$1090 000E  
                                                                  copy_data0 2E0A  
                                                                   _X_Pick_D 005B  
                                                              _Rx_char_USART 0008  
                                                                   _Y_Pick_D 00AC  
                                                                 roundf@F528 009E  
                                                                   __Hrparam 0000  
                                                               ??_init_PORTS 0008  
                                                               ??_init_USART 005B  
                                                                   __Lrparam 0000  
                                                                  memmove@d1 000C  
                                                                  memmove@s1 000E  
                                                           __size_of___fladd 05A8  
                                                           __size_of___fldiv 0432  
                                                           __size_of___flneg 0042  
                                                           __size_of___flmul 04A4  
                                                           __size_of___flsub 004A  
                                                           __size_of___fltol 0138  
                                                           __size_of_Twister 00D2  
                                                                  ms_delay@i 000A  
                                                                  ms_delay@j 000C  
                                                                   ___xxtofl 1C14  
                                                             _pick_and_place 008A  
                                                           __size_of_isdigit 0042  
                                                           __size_of_memmove 00FA  
                                                                ??___memrchr 0012  
                                                           __size_of_isspace 0060  
                                                                   __ptext10 11D6  
                                                                   __ptext11 27C0  
                                                                   __ptext20 2C00  
                                                                   __ptext12 28B2  
                                                                   __ptext21 3086  
                                                                   __ptext13 29A4  
                                                                   __ptext30 078A  
                                                                   __ptext22 1E0C  
                                                                   __ptext14 2A96  
                                                                   __ptext31 2F7E  
                                                                   __ptext23 2D96  
                                                                   __ptext15 2E54  
                                                                   __ptext32 0D32  
                                                                   __ptext24 2F3C  
                                                                   __ptext16 2B68  
                                                                   __ptext33 2386  
                                                                   __ptext25 303A  
                                                                   __ptext17 19EE  
                                                                   __ptext34 224E  
                                                                   __ptext26 30DC  
                                                                   __ptext18 2C8E  
                                                                   __ptext35 3064  
                                                                   __ptext27 2FC0  
                                                                   __ptext19 2EFA  
                                                                   __ptext28 1608  
                                                                   __ptext29 2EB0  
                                                         __end_of_init_PORTS 3086  
                                                         __end_of_init_USART 3000  
                                                           __size_of_strncat 0086  
                                                           __size_of_strrchr 003A  
                                                             ?_Rx_char_USART 0001  
                                                              __size_of_atoi 01BE  
                                                              __size_of_main 001E  
                                                                   _ms_delay 2E54  
                                                                   isa$xinst 000000  
                                                                   _sequence 00E9  
                                                   __size_of_init_interrupts 000C  
                                                          ??_change_sequence 000F  
                                                                   int$flags 0077  
                                                           ??_serial_tx_char 0008  
                                                                   _rotation 00AE  
                                                           _fetch_parameters 2116  
                                                     __end_of_pick_and_place 078A  
                                                                 _INTCONbits 000FF2  
                                                     return_to_initial@i_610 0016  
                                                     return_to_initial@i_608 0012  
                                                     return_to_initial@i_609 0014  
                                                                   isdigit@c 0008  
                                                                   memmove@d 0014  
                                                                   memmove@n 0010  
                                                                   memmove@s 0016  
                                                                   intlevel2 30EA  
                                                                   isspace@c 0008  
                                                             _displacement_X 00B2  
                                                             _displacement_Y 00B0  
                                                      __size_of_print_string 008E  
                                                   __end_of_remove_component 25BE  
                                                     pick_and_place@Componnt 00B4  
                                                            ?_pick_and_place 0001  
                                                                   strncat@d 000C  
                                                                   strncat@n 0010  
                                                                   strncat@s 000E  
                                                                   strrchr@c 0018  
                                                                   strrchr@s 0016  
                                                              ___fladd@signs 0014  
                                                            ??_Rx_char_USART 0001  
                                                               _print_string 2C00  
                                                               ___fladd@aexp 0015  
                                                               ___fladd@bexp 0016  
                                                  add_component@add_componnt 0020  
                                                             start_up_menu@i 0040  
                                                                _roundf$1340 0049  
                                                                _roundf$1341 0043  
