

Microchip MPLAB XC8 Assembler V2.32 build 20210201212658 
                                                                                               Sat Jun 26 00:07:00 2021

Microchip MPLAB XC8 C Compiler v2.32 (Free license) build 20210201212658 Og1 
     1                           	processor	18F452
     2                           	fnconf	rparam,??,?,0
     3                           	pagewidth 120
     4                           	opt	flic
     5                           	psect	idataCOMRAM,global,class=CODE,delta=1,noexec
     6                           	psect	idataBANK0,global,class=CODE,delta=1,noexec
     7                           	psect	mediumconst,global,reloc=2,class=MEDIUMCONST,delta=1,noexec
     8                           	psect	nvCOMRAM,global,class=COMRAM,space=1,delta=1,lowdata,noexec
     9                           	psect	cinit,global,reloc=2,class=CODE,delta=1
    10                           	psect	bssCOMRAM,global,class=COMRAM,space=1,delta=1,lowdata,noexec
    11                           	psect	dataCOMRAM,global,class=COMRAM,space=1,delta=1,lowdata,noexec
    12                           	psect	bssBANK0,global,class=BANK0,space=1,delta=1,lowdata,noexec
    13                           	psect	dataBANK0,global,class=BANK0,space=1,delta=1,lowdata,noexec
    14                           	psect	cstackBANK0,global,class=BANK0,space=1,delta=1,lowdata,noexec
    15                           	psect	cstackCOMRAM,global,class=COMRAM,space=1,delta=1,lowdata,noexec
    16                           	psect	text0,global,reloc=2,class=CODE,delta=1
    17                           	psect	text1,global,reloc=2,class=CODE,delta=1
    18                           	psect	text2,global,reloc=2,class=CODE,delta=1
    19                           	psect	text3,global,reloc=2,class=CODE,delta=1
    20                           	psect	text4,global,reloc=2,class=CODE,delta=1,group=2
    21                           	psect	text5,global,reloc=2,class=CODE,delta=1,group=2
    22                           	psect	text6,global,reloc=2,class=CODE,delta=1,group=2
    23                           	psect	text7,global,reloc=2,class=CODE,delta=1
    24                           	psect	text8,global,reloc=2,class=CODE,delta=1
    25                           	psect	text9,global,reloc=2,class=CODE,delta=1,group=1
    26                           	psect	text10,global,reloc=2,class=CODE,delta=1,group=1
    27                           	psect	text11,global,reloc=2,class=CODE,delta=1
    28                           	psect	text12,global,reloc=2,class=CODE,delta=1
    29                           	psect	text13,global,reloc=2,class=CODE,delta=1
    30                           	psect	text14,global,reloc=2,class=CODE,delta=1
    31                           	psect	text15,global,reloc=2,class=CODE,delta=1
    32                           	psect	text16,global,reloc=2,class=CODE,delta=1
    33                           	psect	text17,global,reloc=2,class=CODE,delta=1
    34                           	psect	text18,global,reloc=2,class=CODE,delta=1,group=2
    35                           	psect	text19,global,reloc=2,class=CODE,delta=1,group=2
    36                           	psect	text20,global,reloc=2,class=CODE,delta=1
    37                           	psect	text21,global,reloc=2,class=CODE,delta=1,group=2
    38                           	psect	text22,global,reloc=2,class=CODE,delta=1,group=2
    39                           	psect	text23,global,reloc=2,class=CODE,delta=1,group=2
    40                           	psect	text24,global,reloc=2,class=CODE,delta=1,group=1
    41                           	psect	text25,global,reloc=2,class=CODE,delta=1
    42                           	psect	text26,global,reloc=2,class=CODE,delta=1
    43                           	psect	text27,global,reloc=2,class=CODE,delta=1,group=2
    44                           	psect	text28,global,reloc=2,class=CODE,delta=1,group=1
    45                           	psect	text29,global,reloc=2,class=CODE,delta=1,group=1
    46                           	psect	text30,global,reloc=2,class=CODE,delta=1,group=1
    47                           	psect	text31,global,reloc=2,class=CODE,delta=1,group=1
    48                           	psect	text32,global,reloc=2,class=CODE,delta=1,group=1
    49                           	psect	text33,global,reloc=2,class=CODE,delta=1,group=1
    50                           	psect	text34,global,reloc=2,class=CODE,delta=1
    51                           	psect	intcode,global,reloc=2,class=CODE,delta=1
    52                           	psect	intsave_regs,global,class=BIGRAM,space=1,delta=1,noexec
    53                           	psect	rparam,global,class=COMRAM,space=1,delta=1,noexec
    54                           	psect	temp,global,ovrld,common,class=COMRAM,space=1,delta=1
    55                           	psect	idloc,global,abs,ovrld,class=IDLOC,space=5,delta=1,noexec
    56                           	psect	config,global,abs,ovrld,class=CONFIG,space=4,delta=1,noexec
    57  0000                     
    58                           ; Version 2.20
    59                           ; Generated 12/02/2020 GMT
    60                           ; 
    61                           ; Copyright © 2020, Microchip Technology Inc. and its subsidiaries ("Microchip")
    62                           ; All rights reserved.
    63                           ; 
    64                           ; This software is developed by Microchip Technology Inc. and its subsidiaries ("Microch
      +                          ip").
    65                           ; 
    66                           ; Redistribution and use in source and binary forms, with or without modification, are
    67                           ; permitted provided that the following conditions are met:
    68                           ; 
    69                           ;     1. Redistributions of source code must retain the above copyright notice, this lis
      +                          t of
    70                           ;        conditions and the following disclaimer.
    71                           ; 
    72                           ;     2. Redistributions in binary form must reproduce the above copyright notice, this 
      +                          list
    73                           ;        of conditions and the following disclaimer in the documentation and/or other
    74                           ;        materials provided with the distribution.
    75                           ; 
    76                           ;     3. Microchip's name may not be used to endorse or promote products derived from th
      +                          is
    77                           ;        software without specific prior written permission.
    78                           ; 
    79                           ; THIS SOFTWARE IS PROVIDED BY MICROCHIP "AS IS" AND ANY EXPRESS OR IMPLIED WARRANTIES,
    80                           ; INCLUDING, BUT NOT LIMITED TO, THE IMPLIED WARRANTIES OF MERCHANTABILITY AND FITNESS F
      +                          OR
    81                           ; PURPOSE ARE DISCLAIMED.  IN NO EVENT SHALL MICROCHIP BE LIABLE FOR ANY DIRECT, INDIREC
      +                          T,
    82                           ; INCIDENTAL, SPECIAL, EXEMPLARY, OR CONSEQUENTIAL DAMAGES (INCLUDING BUT NOT LIMITED TO
    83                           ; PROCUREMENT OF SUBSTITUTE GOODS OR SERVICES; LOSS OF USE, DATA OR PROFITS; OR BUSINESS
    84                           ; INTERRUPTION) HOWSOEVER CAUSED AND ON ANY THEORY OF LIABILITY, WHETHER IN CONTRACT, ST
      +                          RICT
    85                           ; LIABILITY, OR TORT (INCLUDING NEGLIGENCE OR OTHERWISE) ARISING IN ANY WAY OUT OF THE U
      +                          SE OF
    86                           ; THIS SOFTWARE, EVEN IF ADVISED OF THE POSSIBILITY OF SUCH DAMAGE.
    87                           ; 
    88                           ; 
    89                           ; Code-generator required, PIC18F452 Definitions
    90                           ; 
    91                           ; SFR Addresses
    92  0000                     
    93                           	psect	idataCOMRAM
    94  0031E8                     __pidataCOMRAM:
    95                           	callstack 0
    96                           
    97                           ;initializer for _State
    98  0031E8  30                 	db	48
    99                           
   100                           	psect	idataBANK0
   101  0031B8                     __pidataBANK0:
   102                           	callstack 0
   103                           
   104                           ;initializer for _Tosc@main$F552
   105  0031B8  37BD               	dw	14269
   106  0031BA  3486               	dw	13446
   107                           
   108                           ;initializer for _Tosc
   109  0031BC  37BD               	dw	14269
   110  0031BE  3486               	dw	13446
   111                           
   112                           ;initializer for add_component@F3131
   113  0031C0  20                 	db	32
   114  0031C1  00                 	db	0
   115                           
   116                           ;initializer for _lenth_of_array
   117  0031C2  001E               	dw	30
   118                           
   119                           ;initializer for _input_str
   120  0031C4  20                 	db	32
   121  0031C5  00                 	db	0
   122  0031C6  00                 	db	0
   123  0031C7  00                 	db	0
   124  0031C8  00                 	db	0
   125  0031C9  00                 	db	0
   126  0031CA  00                 	db	0
   127  0031CB  00                 	db	0
   128  0031CC  00                 	db	0
   129  0031CD  00                 	db	0
   130                           
   131                           ;initializer for _sequence
   132  0031CE  43                 	db	67
   133  0031CF  41                 	db	65
   134  0031D0  42                 	db	66
   135  0031D1  00                 	db	0
   136                           
   137                           	psect	mediumconst
   138  007D78                     __pmediumconst:
   139                           	callstack 0
   140  007D78  00                 	db	0
   141  007D79  0000               	dw	0
   142  007D7B  4B00               	dw	19200
   143  007D7D                     __end_of_toint:
   144                           	callstack 0
   145  007D7D  0000               	dw	0
   146  007D7F  4616               	dw	17942
   147  007D81                     __end_of_desired_BaudRate@main$F553:
   148                           	callstack 0
   149  007D81  0000               	dw	0
   150  007D83  4616               	dw	17942
   151  007D85                     __end_of_desired_BaudRate:
   152                           	callstack 0
   153  007D85  2400               	dw	9216
   154  007D87  4A74               	dw	19060
   155  007D89                     __end_of_Fosc@main$F551:
   156                           	callstack 0
   157  007D89  2400               	dw	9216
   158  007D8B  4A74               	dw	19060
   159  007D8D                     __end_of_Fosc:
   160                           	callstack 0
   161  007D8D                     STR_1:
   162  007D8D  0A                 	db	10
   163  007D8E  0A                 	db	10
   164  007D8F  31                 	db	49	;'1'
   165  007D90  2E                 	db	46
   166  007D91  20                 	db	32
   167  007D92  53                 	db	83	;'S'
   168  007D93  74                 	db	116	;'t'
   169  007D94  61                 	db	97	;'a'
   170  007D95  72                 	db	114	;'r'
   171  007D96  74                 	db	116	;'t'
   172  007D97  20                 	db	32
   173  007D98  53                 	db	83	;'S'
   174  007D99  65                 	db	101	;'e'
   175  007D9A  71                 	db	113	;'q'
   176  007D9B  75                 	db	117	;'u'
   177  007D9C  65                 	db	101	;'e'
   178  007D9D  6E                 	db	110	;'n'
   179  007D9E  63                 	db	99	;'c'
   180  007D9F  65                 	db	101	;'e'
   181  007DA0  0A                 	db	10
   182  007DA1  32                 	db	50	;'2'
   183  007DA2  2E                 	db	46
   184  007DA3  20                 	db	32
   185  007DA4  43                 	db	67	;'C'
   186  007DA5  68                 	db	104	;'h'
   187  007DA6  61                 	db	97	;'a'
   188  007DA7  6E                 	db	110	;'n'
   189  007DA8  67                 	db	103	;'g'
   190  007DA9  65                 	db	101	;'e'
   191  007DAA  20                 	db	32
   192  007DAB  73                 	db	115	;'s'
   193  007DAC  65                 	db	101	;'e'
   194  007DAD  71                 	db	113	;'q'
   195  007DAE  75                 	db	117	;'u'
   196  007DAF  65                 	db	101	;'e'
   197  007DB0  6E                 	db	110	;'n'
   198  007DB1  63                 	db	99	;'c'
   199  007DB2  65                 	db	101	;'e'
   200  007DB3  0A                 	db	10
   201  007DB4  33                 	db	51	;'3'
   202  007DB5  2E                 	db	46
   203  007DB6  20                 	db	32
   204  007DB7  41                 	db	65	;'A'
   205  007DB8  64                 	db	100	;'d'
   206  007DB9  64                 	db	100	;'d'
   207  007DBA  20                 	db	32
   208  007DBB  6E                 	db	110	;'n'
   209  007DBC  65                 	db	101	;'e'
   210  007DBD  77                 	db	119	;'w'
   211  007DBE  20                 	db	32
   212  007DBF  63                 	db	99	;'c'
   213  007DC0  6F                 	db	111	;'o'
   214  007DC1  6D                 	db	109	;'m'
   215  007DC2  70                 	db	112	;'p'
   216  007DC3  6F                 	db	111	;'o'
   217  007DC4  6E                 	db	110	;'n'
   218  007DC5  65                 	db	101	;'e'
   219  007DC6  6E                 	db	110	;'n'
   220  007DC7  74                 	db	116	;'t'
   221  007DC8  0A                 	db	10
   222  007DC9  34                 	db	52	;'4'
   223  007DCA  2E                 	db	46
   224  007DCB  20                 	db	32
   225  007DCC  52                 	db	82	;'R'
   226  007DCD  65                 	db	101	;'e'
   227  007DCE  6D                 	db	109	;'m'
   228  007DCF  6F                 	db	111	;'o'
   229  007DD0  76                 	db	118	;'v'
   230  007DD1  65                 	db	101	;'e'
   231  007DD2  20                 	db	32
   232  007DD3  61                 	db	97	;'a'
   233  007DD4  20                 	db	32
   234  007DD5  63                 	db	99	;'c'
   235  007DD6  6F                 	db	111	;'o'
   236  007DD7  6D                 	db	109	;'m'
   237  007DD8  70                 	db	112	;'p'
   238  007DD9  6F                 	db	111	;'o'
   239  007DDA  6E                 	db	110	;'n'
   240  007DDB  65                 	db	101	;'e'
   241  007DDC  6E                 	db	110	;'n'
   242  007DDD  74                 	db	116	;'t'
   243  007DDE  00                 	db	0
   244  007DDF                     STR_17:
   245  007DDF  0A                 	db	10
   246  007DE0  63                 	db	99	;'c'
   247  007DE1  6F                 	db	111	;'o'
   248  007DE2  6D                 	db	109	;'m'
   249  007DE3  70                 	db	112	;'p'
   250  007DE4  6F                 	db	111	;'o'
   251  007DE5  6E                 	db	110	;'n'
   252  007DE6  65                 	db	101	;'e'
   253  007DE7  6E                 	db	110	;'n'
   254  007DE8  74                 	db	116	;'t'
   255  007DE9  20                 	db	32
   256  007DEA  69                 	db	105	;'i'
   257  007DEB  73                 	db	115	;'s'
   258  007DEC  20                 	db	32
   259  007DED  6E                 	db	110	;'n'
   260  007DEE  6F                 	db	111	;'o'
   261  007DEF  74                 	db	116	;'t'
   262  007DF0  20                 	db	32
   263  007DF1  69                 	db	105	;'i'
   264  007DF2  6E                 	db	110	;'n'
   265  007DF3  20                 	db	32
   266  007DF4  74                 	db	116	;'t'
   267  007DF5  68                 	db	104	;'h'
   268  007DF6  65                 	db	101	;'e'
   269  007DF7  20                 	db	32
   270  007DF8  73                 	db	115	;'s'
   271  007DF9  65                 	db	101	;'e'
   272  007DFA  71                 	db	113	;'q'
   273  007DFB  75                 	db	117	;'u'
   274  007DFC  65                 	db	101	;'e'
   275  007DFD  6E                 	db	110	;'n'
   276  007DFE  63                 	db	99	;'c'
   277  007DFF  65                 	db	101	;'e'
   278  007E00  2E                 	db	46
   279  007E01  20                 	db	32
   280  007E02  54                 	db	84	;'T'
   281  007E03  72                 	db	114	;'r'
   282  007E04  79                 	db	121	;'y'
   283  007E05  20                 	db	32
   284  007E06  73                 	db	115	;'s'
   285  007E07  65                 	db	101	;'e'
   286  007E08  6C                 	db	108	;'l'
   287  007E09  65                 	db	101	;'e'
   288  007E0A  63                 	db	99	;'c'
   289  007E0B  74                 	db	116	;'t'
   290  007E0C  69                 	db	105	;'i'
   291  007E0D  6E                 	db	110	;'n'
   292  007E0E  67                 	db	103	;'g'
   293  007E0F  20                 	db	32
   294  007E10  61                 	db	97	;'a'
   295  007E11  6E                 	db	110	;'n'
   296  007E12  6F                 	db	111	;'o'
   297  007E13  74                 	db	116	;'t'
   298  007E14  68                 	db	104	;'h'
   299  007E15  65                 	db	101	;'e'
   300  007E16  72                 	db	114	;'r'
   301  007E17  20                 	db	32
   302  007E18  63                 	db	99	;'c'
   303  007E19  6F                 	db	111	;'o'
   304  007E1A  6D                 	db	109	;'m'
   305  007E1B  70                 	db	112	;'p'
   306  007E1C  6F                 	db	111	;'o'
   307  007E1D  6E                 	db	110	;'n'
   308  007E1E  65                 	db	101	;'e'
   309  007E1F  6E                 	db	110	;'n'
   310  007E20  74                 	db	116	;'t'
   311  007E21  3A                 	db	58	;':'
   312  007E22  20                 	db	32
   313  007E23  0A                 	db	10
   314  007E24  00                 	db	0
   315  007E25                     STR_15:
   316  007E25  0A                 	db	10
   317  007E26  57                 	db	87	;'W'
   318  007E27  68                 	db	104	;'h'
   319  007E28  69                 	db	105	;'i'
   320  007E29  63                 	db	99	;'c'
   321  007E2A  68                 	db	104	;'h'
   322  007E2B  20                 	db	32
   323  007E2C  63                 	db	99	;'c'
   324  007E2D  6F                 	db	111	;'o'
   325  007E2E  6D                 	db	109	;'m'
   326  007E2F  70                 	db	112	;'p'
   327  007E30  6F                 	db	111	;'o'
   328  007E31  6E                 	db	110	;'n'
   329  007E32  65                 	db	101	;'e'
   330  007E33  6E                 	db	110	;'n'
   331  007E34  74                 	db	116	;'t'
   332  007E35  20                 	db	32
   333  007E36  77                 	db	119	;'w'
   334  007E37  6F                 	db	111	;'o'
   335  007E38  75                 	db	117	;'u'
   336  007E39  6C                 	db	108	;'l'
   337  007E3A  64                 	db	100	;'d'
   338  007E3B  20                 	db	32
   339  007E3C  79                 	db	121	;'y'
   340  007E3D  6F                 	db	111	;'o'
   341  007E3E  75                 	db	117	;'u'
   342  007E3F  20                 	db	32
   343  007E40  6C                 	db	108	;'l'
   344  007E41  69                 	db	105	;'i'
   345  007E42  6B                 	db	107	;'k'
   346  007E43  65                 	db	101	;'e'
   347  007E44  20                 	db	32
   348  007E45  74                 	db	116	;'t'
   349  007E46  6F                 	db	111	;'o'
   350  007E47  20                 	db	32
   351  007E48  72                 	db	114	;'r'
   352  007E49  65                 	db	101	;'e'
   353  007E4A  6D                 	db	109	;'m'
   354  007E4B  6F                 	db	111	;'o'
   355  007E4C  76                 	db	118	;'v'
   356  007E4D  65                 	db	101	;'e'
   357  007E4E  20                 	db	32
   358  007E4F  66                 	db	102	;'f'
   359  007E50  72                 	db	114	;'r'
   360  007E51  6F                 	db	111	;'o'
   361  007E52  6D                 	db	109	;'m'
   362  007E53  20                 	db	32
   363  007E54  74                 	db	116	;'t'
   364  007E55  68                 	db	104	;'h'
   365  007E56  65                 	db	101	;'e'
   366  007E57  20                 	db	32
   367  007E58  20                 	db	32
   368  007E59  73                 	db	115	;'s'
   369  007E5A  65                 	db	101	;'e'
   370  007E5B  71                 	db	113	;'q'
   371  007E5C  75                 	db	117	;'u'
   372  007E5D  65                 	db	101	;'e'
   373  007E5E  6E                 	db	110	;'n'
   374  007E5F  63                 	db	99	;'c'
   375  007E60  65                 	db	101	;'e'
   376  007E61  3F                 	db	63	;'?'
   377  007E62  0A                 	db	10
   378  007E63  00                 	db	0
   379  007E64                     STR_7:
   380  007E64  0A                 	db	10
   381  007E65  45                 	db	69	;'E'
   382  007E66  6E                 	db	110	;'n'
   383  007E67  74                 	db	116	;'t'
   384  007E68  65                 	db	101	;'e'
   385  007E69  72                 	db	114	;'r'
   386  007E6A  20                 	db	32
   387  007E6B  74                 	db	116	;'t'
   388  007E6C  68                 	db	104	;'h'
   389  007E6D  65                 	db	101	;'e'
   390  007E6E  20                 	db	32
   391  007E6F  63                 	db	99	;'c'
   392  007E70  6F                 	db	111	;'o'
   393  007E71  6D                 	db	109	;'m'
   394  007E72  70                 	db	112	;'p'
   395  007E73  6F                 	db	111	;'o'
   396  007E74  6E                 	db	110	;'n'
   397  007E75  65                 	db	101	;'e'
   398  007E76  6E                 	db	110	;'n'
   399  007E77  74                 	db	116	;'t'
   400  007E78  20                 	db	32
   401  007E79  79                 	db	121	;'y'
   402  007E7A  6F                 	db	111	;'o'
   403  007E7B  75                 	db	117	;'u'
   404  007E7C  20                 	db	32
   405  007E7D  77                 	db	119	;'w'
   406  007E7E  61                 	db	97	;'a'
   407  007E7F  6E                 	db	110	;'n'
   408  007E80  74                 	db	116	;'t'
   409  007E81  20                 	db	32
   410  007E82  74                 	db	116	;'t'
   411  007E83  6F                 	db	111	;'o'
   412  007E84  20                 	db	32
   413  007E85  61                 	db	97	;'a'
   414  007E86  64                 	db	100	;'d'
   415  007E87  64                 	db	100	;'d'
   416  007E88  3A                 	db	58	;':'
   417  007E89  20                 	db	32
   418  007E8A  41                 	db	65	;'A'
   419  007E8B  2C                 	db	44
   420  007E8C  20                 	db	32
   421  007E8D  42                 	db	66	;'B'
   422  007E8E  2C                 	db	44
   423  007E8F  20                 	db	32
   424  007E90  43                 	db	67	;'C'
   425  007E91  20                 	db	32
   426  007E92  6F                 	db	111	;'o'
   427  007E93  72                 	db	114	;'r'
   428  007E94  20                 	db	32
   429  007E95  44                 	db	68	;'D'
   430  007E96  3F                 	db	63	;'?'
   431  007E97  00                 	db	0
   432  007E98                     STR_5:
   433  007E98  0A                 	db	10
   434  007E99  50                 	db	80	;'P'
   435  007E9A  6C                 	db	108	;'l'
   436  007E9B  65                 	db	101	;'e'
   437  007E9C  61                 	db	97	;'a'
   438  007E9D  73                 	db	115	;'s'
   439  007E9E  65                 	db	101	;'e'
   440  007E9F  20                 	db	32
   441  007EA0  67                 	db	103	;'g'
   442  007EA1  69                 	db	105	;'i'
   443  007EA2  76                 	db	118	;'v'
   444  007EA3  65                 	db	101	;'e'
   445  007EA4  20                 	db	32
   446  007EA5  74                 	db	116	;'t'
   447  007EA6  68                 	db	104	;'h'
   448  007EA7  65                 	db	101	;'e'
   449  007EA8  20                 	db	32
   450  007EA9  6E                 	db	110	;'n'
   451  007EAA  65                 	db	101	;'e'
   452  007EAB  77                 	db	119	;'w'
   453  007EAC  20                 	db	32
   454  007EAD  73                 	db	115	;'s'
   455  007EAE  65                 	db	101	;'e'
   456  007EAF  71                 	db	113	;'q'
   457  007EB0  75                 	db	117	;'u'
   458  007EB1  65                 	db	101	;'e'
   459  007EB2  6E                 	db	110	;'n'
   460  007EB3  63                 	db	99	;'c'
   461  007EB4  65                 	db	101	;'e'
   462  007EB5  20                 	db	32
   463  007EB6  61                 	db	97	;'a'
   464  007EB7  73                 	db	115	;'s'
   465  007EB8  20                 	db	32
   466  007EB9  69                 	db	105	;'i'
   467  007EBA  6E                 	db	110	;'n'
   468  007EBB  70                 	db	112	;'p'
   469  007EBC  75                 	db	117	;'u'
   470  007EBD  74                 	db	116	;'t'
   471  007EBE  0D                 	db	13
   472  007EBF  00                 	db	0
   473  007EC0                     STR_3:
   474  007EC0  0A                 	db	10
   475  007EC1  45                 	db	69	;'E'
   476  007EC2  6E                 	db	110	;'n'
   477  007EC3  74                 	db	116	;'t'
   478  007EC4  65                 	db	101	;'e'
   479  007EC5  72                 	db	114	;'r'
   480  007EC6  20                 	db	32
   481  007EC7  27                 	db	39
   482  007EC8  51                 	db	81	;'Q'
   483  007EC9  27                 	db	39
   484  007ECA  20                 	db	32
   485  007ECB  74                 	db	116	;'t'
   486  007ECC  6F                 	db	111	;'o'
   487  007ECD  20                 	db	32
   488  007ECE  65                 	db	101	;'e'
   489  007ECF  78                 	db	120	;'x'
   490  007ED0  69                 	db	105	;'i'
   491  007ED1  74                 	db	116	;'t'
   492  007ED2  20                 	db	32
   493  007ED3  74                 	db	116	;'t'
   494  007ED4  6F                 	db	111	;'o'
   495  007ED5  20                 	db	32
   496  007ED6  4D                 	db	77	;'M'
   497  007ED7  41                 	db	65	;'A'
   498  007ED8  49                 	db	73	;'I'
   499  007ED9  4E                 	db	78	;'N'
   500  007EDA  20                 	db	32
   501  007EDB  4D                 	db	77	;'M'
   502  007EDC  45                 	db	69	;'E'
   503  007EDD  4E                 	db	78	;'N'
   504  007EDE  55                 	db	85	;'U'
   505  007EDF  00                 	db	0
   506  007EE0                     STR_13:
   507  007EE0  0A                 	db	10
   508  007EE1  45                 	db	69	;'E'
   509  007EE2  6E                 	db	110	;'n'
   510  007EE3  74                 	db	116	;'t'
   511  007EE4  65                 	db	101	;'e'
   512  007EE5  72                 	db	114	;'r'
   513  007EE6  20                 	db	32
   514  007EE7  74                 	db	116	;'t'
   515  007EE8  68                 	db	104	;'h'
   516  007EE9  65                 	db	101	;'e'
   517  007EEA  20                 	db	32
   518  007EEB  70                 	db	112	;'p'
   519  007EEC  6C                 	db	108	;'l'
   520  007EED  61                 	db	97	;'a'
   521  007EEE  63                 	db	99	;'c'
   522  007EEF  65                 	db	101	;'e'
   523  007EF0  20                 	db	32
   524  007EF1  6F                 	db	111	;'o'
   525  007EF2  72                 	db	114	;'r'
   526  007EF3  69                 	db	105	;'i'
   527  007EF4  65                 	db	101	;'e'
   528  007EF5  6E                 	db	110	;'n'
   529  007EF6  74                 	db	116	;'t'
   530  007EF7  61                 	db	97	;'a'
   531  007EF8  74                 	db	116	;'t'
   532  007EF9  69                 	db	105	;'i'
   533  007EFA  6F                 	db	111	;'o'
   534  007EFB  6E                 	db	110	;'n'
   535  007EFC  3A                 	db	58	;':'
   536  007EFD  00                 	db	0
   537  007EFE                     STR_11:
   538  007EFE  0A                 	db	10
   539  007EFF  45                 	db	69	;'E'
   540  007F00  6E                 	db	110	;'n'
   541  007F01  74                 	db	116	;'t'
   542  007F02  65                 	db	101	;'e'
   543  007F03  72                 	db	114	;'r'
   544  007F04  20                 	db	32
   545  007F05  74                 	db	116	;'t'
   546  007F06  68                 	db	104	;'h'
   547  007F07  65                 	db	101	;'e'
   548  007F08  20                 	db	32
   549  007F09  70                 	db	112	;'p'
   550  007F0A  6C                 	db	108	;'l'
   551  007F0B  61                 	db	97	;'a'
   552  007F0C  63                 	db	99	;'c'
   553  007F0D  65                 	db	101	;'e'
   554  007F0E  20                 	db	32
   555  007F0F  70                 	db	112	;'p'
   556  007F10  6F                 	db	111	;'o'
   557  007F11  73                 	db	115	;'s'
   558  007F12  69                 	db	105	;'i'
   559  007F13  74                 	db	116	;'t'
   560  007F14  69                 	db	105	;'i'
   561  007F15  6F                 	db	111	;'o'
   562  007F16  6E                 	db	110	;'n'
   563  007F17  20                 	db	32
   564  007F18  58                 	db	88	;'X'
   565  007F19  3A                 	db	58	;':'
   566  007F1A  00                 	db	0
   567  007F1B                     STR_12:
   568  007F1B  0A                 	db	10
   569  007F1C  45                 	db	69	;'E'
   570  007F1D  6E                 	db	110	;'n'
   571  007F1E  74                 	db	116	;'t'
   572  007F1F  65                 	db	101	;'e'
   573  007F20  72                 	db	114	;'r'
   574  007F21  20                 	db	32
   575  007F22  74                 	db	116	;'t'
   576  007F23  68                 	db	104	;'h'
   577  007F24  65                 	db	101	;'e'
   578  007F25  20                 	db	32
   579  007F26  70                 	db	112	;'p'
   580  007F27  6C                 	db	108	;'l'
   581  007F28  61                 	db	97	;'a'
   582  007F29  63                 	db	99	;'c'
   583  007F2A  65                 	db	101	;'e'
   584  007F2B  20                 	db	32
   585  007F2C  70                 	db	112	;'p'
   586  007F2D  6F                 	db	111	;'o'
   587  007F2E  73                 	db	115	;'s'
   588  007F2F  69                 	db	105	;'i'
   589  007F30  74                 	db	116	;'t'
   590  007F31  69                 	db	105	;'i'
   591  007F32  6F                 	db	111	;'o'
   592  007F33  6E                 	db	110	;'n'
   593  007F34  20                 	db	32
   594  007F35  59                 	db	89	;'Y'
   595  007F36  3A                 	db	58	;':'
   596  007F37  00                 	db	0
   597  007F38                     STR_10:
   598  007F38  0A                 	db	10
   599  007F39  45                 	db	69	;'E'
   600  007F3A  6E                 	db	110	;'n'
   601  007F3B  74                 	db	116	;'t'
   602  007F3C  65                 	db	101	;'e'
   603  007F3D  72                 	db	114	;'r'
   604  007F3E  20                 	db	32
   605  007F3F  74                 	db	116	;'t'
   606  007F40  68                 	db	104	;'h'
   607  007F41  65                 	db	101	;'e'
   608  007F42  20                 	db	32
   609  007F43  70                 	db	112	;'p'
   610  007F44  69                 	db	105	;'i'
   611  007F45  63                 	db	99	;'c'
   612  007F46  6B                 	db	107	;'k'
   613  007F47  20                 	db	32
   614  007F48  6F                 	db	111	;'o'
   615  007F49  72                 	db	114	;'r'
   616  007F4A  69                 	db	105	;'i'
   617  007F4B  65                 	db	101	;'e'
   618  007F4C  6E                 	db	110	;'n'
   619  007F4D  74                 	db	116	;'t'
   620  007F4E  61                 	db	97	;'a'
   621  007F4F  74                 	db	116	;'t'
   622  007F50  69                 	db	105	;'i'
   623  007F51  6F                 	db	111	;'o'
   624  007F52  6E                 	db	110	;'n'
   625  007F53  3A                 	db	58	;':'
   626  007F54  00                 	db	0
   627  007F55                     STR_8:
   628  007F55  0A                 	db	10
   629  007F56  45                 	db	69	;'E'
   630  007F57  6E                 	db	110	;'n'
   631  007F58  74                 	db	116	;'t'
   632  007F59  65                 	db	101	;'e'
   633  007F5A  72                 	db	114	;'r'
   634  007F5B  20                 	db	32
   635  007F5C  74                 	db	116	;'t'
   636  007F5D  68                 	db	104	;'h'
   637  007F5E  65                 	db	101	;'e'
   638  007F5F  20                 	db	32
   639  007F60  70                 	db	112	;'p'
   640  007F61  69                 	db	105	;'i'
   641  007F62  63                 	db	99	;'c'
   642  007F63  6B                 	db	107	;'k'
   643  007F64  20                 	db	32
   644  007F65  70                 	db	112	;'p'
   645  007F66  6F                 	db	111	;'o'
   646  007F67  73                 	db	115	;'s'
   647  007F68  69                 	db	105	;'i'
   648  007F69  74                 	db	116	;'t'
   649  007F6A  69                 	db	105	;'i'
   650  007F6B  6F                 	db	111	;'o'
   651  007F6C  6E                 	db	110	;'n'
   652  007F6D  20                 	db	32
   653  007F6E  58                 	db	88	;'X'
   654  007F6F  3A                 	db	58	;':'
   655  007F70  00                 	db	0
   656  007F71                     STR_9:
   657  007F71  0A                 	db	10
   658  007F72  45                 	db	69	;'E'
   659  007F73  6E                 	db	110	;'n'
   660  007F74  74                 	db	116	;'t'
   661  007F75  65                 	db	101	;'e'
   662  007F76  72                 	db	114	;'r'
   663  007F77  20                 	db	32
   664  007F78  74                 	db	116	;'t'
   665  007F79  68                 	db	104	;'h'
   666  007F7A  65                 	db	101	;'e'
   667  007F7B  20                 	db	32
   668  007F7C  70                 	db	112	;'p'
   669  007F7D  69                 	db	105	;'i'
   670  007F7E  63                 	db	99	;'c'
   671  007F7F  6B                 	db	107	;'k'
   672  007F80  20                 	db	32
   673  007F81  70                 	db	112	;'p'
   674  007F82  6F                 	db	111	;'o'
   675  007F83  73                 	db	115	;'s'
   676  007F84  69                 	db	105	;'i'
   677  007F85  74                 	db	116	;'t'
   678  007F86  69                 	db	105	;'i'
   679  007F87  6F                 	db	111	;'o'
   680  007F88  6E                 	db	110	;'n'
   681  007F89  20                 	db	32
   682  007F8A  59                 	db	89	;'Y'
   683  007F8B  3A                 	db	58	;':'
   684  007F8C  00                 	db	0
   685  007F8D                     STR_4:
   686  007F8D  0A                 	db	10
   687  007F8E  54                 	db	84	;'T'
   688  007F8F  68                 	db	104	;'h'
   689  007F90  65                 	db	101	;'e'
   690  007F91  20                 	db	32
   691  007F92  63                 	db	99	;'c'
   692  007F93  75                 	db	117	;'u'
   693  007F94  72                 	db	114	;'r'
   694  007F95  72                 	db	114	;'r'
   695  007F96  65                 	db	101	;'e'
   696  007F97  6E                 	db	110	;'n'
   697  007F98  74                 	db	116	;'t'
   698  007F99  20                 	db	32
   699  007F9A  73                 	db	115	;'s'
   700  007F9B  65                 	db	101	;'e'
   701  007F9C  71                 	db	113	;'q'
   702  007F9D  75                 	db	117	;'u'
   703  007F9E  65                 	db	101	;'e'
   704  007F9F  6E                 	db	110	;'n'
   705  007FA0  63                 	db	99	;'c'
   706  007FA1  65                 	db	101	;'e'
   707  007FA2  20                 	db	32
   708  007FA3  69                 	db	105	;'i'
   709  007FA4  73                 	db	115	;'s'
   710  007FA5  3A                 	db	58	;':'
   711  007FA6  20                 	db	32
   712  007FA7  00                 	db	0
   713  007FA8                     STR_6:
   714  007FA8  0A                 	db	10
   715  007FA9  54                 	db	84	;'T'
   716  007FAA  68                 	db	104	;'h'
   717  007FAB  65                 	db	101	;'e'
   718  007FAC  20                 	db	32
   719  007FAD  43                 	db	67	;'C'
   720  007FAE  75                 	db	117	;'u'
   721  007FAF  72                 	db	114	;'r'
   722  007FB0  72                 	db	114	;'r'
   723  007FB1  65                 	db	101	;'e'
   724  007FB2  6E                 	db	110	;'n'
   725  007FB3  74                 	db	116	;'t'
   726  007FB4  20                 	db	32
   727  007FB5  73                 	db	115	;'s'
   728  007FB6  65                 	db	101	;'e'
   729  007FB7  71                 	db	113	;'q'
   730  007FB8  75                 	db	117	;'u'
   731  007FB9  65                 	db	101	;'e'
   732  007FBA  6E                 	db	110	;'n'
   733  007FBB  63                 	db	99	;'c'
   734  007FBC  65                 	db	101	;'e'
   735  007FBD  20                 	db	32
   736  007FBE  69                 	db	105	;'i'
   737  007FBF  73                 	db	115	;'s'
   738  007FC0  3A                 	db	58	;':'
   739  007FC1  00                 	db	0
   740  007FC2                     STR_14:
   741  007FC2  0A                 	db	10
   742  007FC3  0A                 	db	10
   743  007FC4  43                 	db	67	;'C'
   744  007FC5  6F                 	db	111	;'o'
   745  007FC6  6D                 	db	109	;'m'
   746  007FC7  70                 	db	112	;'p'
   747  007FC8  6F                 	db	111	;'o'
   748  007FC9  6E                 	db	110	;'n'
   749  007FCA  65                 	db	101	;'e'
   750  007FCB  6E                 	db	110	;'n'
   751  007FCC  74                 	db	116	;'t'
   752  007FCD  20                 	db	32
   753  007FCE  41                 	db	65	;'A'
   754  007FCF  64                 	db	100	;'d'
   755  007FD0  64                 	db	100	;'d'
   756  007FD1  65                 	db	101	;'e'
   757  007FD2  64                 	db	100	;'d'
   758  007FD3  3A                 	db	58	;':'
   759  007FD4  20                 	db	32
   760  007FD5  00                 	db	0
   761  007FD6                     STR_2:
   762  007FD6  0A                 	db	10
   763  007FD7  53                 	db	83	;'S'
   764  007FD8  74                 	db	116	;'t'
   765  007FD9  61                 	db	97	;'a'
   766  007FDA  72                 	db	114	;'r'
   767  007FDB  74                 	db	116	;'t'
   768  007FDC  69                 	db	105	;'i'
   769  007FDD  6E                 	db	110	;'n'
   770  007FDE  67                 	db	103	;'g'
   771  007FDF  20                 	db	32
   772  007FE0  73                 	db	115	;'s'
   773  007FE1  65                 	db	101	;'e'
   774  007FE2  71                 	db	113	;'q'
   775  007FE3  75                 	db	117	;'u'
   776  007FE4  65                 	db	101	;'e'
   777  007FE5  6E                 	db	110	;'n'
   778  007FE6  63                 	db	99	;'c'
   779  007FE7  65                 	db	101	;'e'
   780  007FE8  3A                 	db	58	;':'
   781  007FE9  00                 	db	0
   782  007FEA                     STR_16:
   783  007FEA  0A                 	db	10
   784  007FEB  63                 	db	99	;'c'
   785  007FEC  6F                 	db	111	;'o'
   786  007FED  6D                 	db	109	;'m'
   787  007FEE  70                 	db	112	;'p'
   788  007FEF  6F                 	db	111	;'o'
   789  007FF0  6E                 	db	110	;'n'
   790  007FF1  65                 	db	101	;'e'
   791  007FF2  6E                 	db	110	;'n'
   792  007FF3  74                 	db	116	;'t'
   793  007FF4  20                 	db	32
   794  007FF5  72                 	db	114	;'r'
   795  007FF6  65                 	db	101	;'e'
   796  007FF7  6D                 	db	109	;'m'
   797  007FF8  6F                 	db	111	;'o'
   798  007FF9  76                 	db	118	;'v'
   799  007FFA  65                 	db	101	;'e'
   800  007FFB  64                 	db	100	;'d'
   801  007FFC  00                 	db	0
   802  007FFD                     STR_18:
   803  007FFD  51                 	db	81	;'Q'
   804  007FFE  00                 	db	0
   805  007FFF  00                 	db	0	; dummy byte at the end
   806  0000                     
   807                           	psect	nvCOMRAM
   808  000076                     __pnvCOMRAM:
   809                           	callstack 0
   810  000076                     _New_char_RX:
   811                           	callstack 0
   812  000076                     	ds	1
   813  0000                     _RCREG	set	4014
   814  0000                     _PORTB	set	3969
   815  0000                     _TXREG	set	4013
   816  0000                     _RCSTAbits	set	4011
   817  0000                     _TXSTAbits	set	4012
   818  0000                     _SPBRG	set	4015
   819  0000                     _INTCON2	set	4081
   820  0000                     _INTCONbits	set	4082
   821  0000                     _PIE1bits	set	3997
   822  0000                     _PIR1bits	set	3998
   823  0000                     _TRISCbits	set	3988
   824  0000                     _PORTC	set	3970
   825  0000                     _LATC	set	3979
   826  0000                     _PORTD	set	3971
   827  0000                     _PORTA	set	3968
   828  0000                     _TRISB	set	3987
   829  0000                     _TRISA	set	3986
   830  0000                     _TRISD	set	3989
   831  0000                     _TRISBbits	set	3987
   832  0000                     _RCIF	set	31989
   833                           
   834                           ; #config settings
   835                           
   836                           	psect	cinit
   837  002F60                     __pcinit:
   838                           	callstack 0
   839  002F60                     start_initialization:
   840                           	callstack 0
   841  002F60                     __initialization:
   842                           	callstack 0
   843                           
   844                           ; Initialize objects allocated to BANK0 (26 bytes)
   845                           ; load TBLPTR registers with __pidataBANK0
   846  002F60  0EB8               	movlw	low __pidataBANK0
   847  002F62  6EF6               	movwf	tblptrl,c
   848  002F64  0E31               	movlw	high __pidataBANK0
   849  002F66  6EF7               	movwf	tblptrh,c
   850  002F68  0E00               	movlw	low (__pidataBANK0 shr (0+16))
   851  002F6A  6EF8               	movwf	tblptru,c
   852  002F6C  EE00  F0DF         	lfsr	0,__pdataBANK0
   853  002F70  EE10 F01A          	lfsr	1,26
   854  002F74                     copy_data0:
   855  002F74  0009               	tblrd		*+
   856  002F76  CFF5 FFEE          	movff	tablat,postinc0
   857  002F7A  50E5               	movf	postdec1,w,c
   858  002F7C  50E1               	movf	fsr1l,w,c
   859  002F7E  E1FA               	bnz	copy_data0
   860                           
   861                           ; Initialize objects allocated to COMRAM (1 bytes)
   862                           ; load TBLPTR registers with __pidataCOMRAM
   863  002F80  0EE8               	movlw	low __pidataCOMRAM
   864  002F82  6EF6               	movwf	tblptrl,c
   865  002F84  0E31               	movlw	high __pidataCOMRAM
   866  002F86  6EF7               	movwf	tblptrh,c
   867  002F88  0E00               	movlw	low (__pidataCOMRAM shr (0+16))
   868  002F8A  6EF8               	movwf	tblptru,c
   869  002F8C  0009               	tblrd		*+	;fetch initializer
   870  002F8E  CFF5 F077          	movff	tablat,__pdataCOMRAM
   871                           
   872                           ; Clear objects allocated to BANK0 (62 bytes)
   873  002F92  EE00  F080         	lfsr	0,__pbssBANK0
   874  002F96  0E3E               	movlw	62
   875  002F98                     clear_0:
   876  002F98  6AEE               	clrf	postinc0,c
   877  002F9A  06E8               	decf	wreg,f,c
   878  002F9C  E1FD               	bnz	clear_0
   879                           
   880                           ; Clear objects allocated to COMRAM (25 bytes)
   881  002F9E  EE00  F05D         	lfsr	0,__pbssCOMRAM
   882  002FA2  0E19               	movlw	25
   883  002FA4                     clear_1:
   884  002FA4  6AEE               	clrf	postinc0,c
   885  002FA6  06E8               	decf	wreg,f,c
   886  002FA8  E1FD               	bnz	clear_1
   887  002FAA                     end_of_initialization:
   888                           	callstack 0
   889  002FAA                     __end_of__initialization:
   890                           	callstack 0
   891  002FAA  9078               	bcf	int$flags,0,c	;clear compiler interrupt flag (level 1)
   892  002FAC  9278               	bcf	int$flags,1,c	;clear compiler interrupt flag (level 2)
   893  002FAE  0E00               	movlw	low (__Lmediumconst shr (0+16))
   894  002FB0  6EF8               	movwf	tblptru,c
   895  002FB2  0100               	movlb	0
   896  002FB4  EFCB  F018         	goto	_main	;jump to C main() function
   897                           
   898                           	psect	bssCOMRAM
   899  00005D                     __pbssCOMRAM:
   900                           	callstack 0
   901  00005D                     _Steps:
   902                           	callstack 0
   903  00005D                     	ds	2
   904  00005F                     _Angle_diff:
   905                           	callstack 0
   906  00005F                     	ds	2
   907  000061                     _Y_diff:
   908                           	callstack 0
   909  000061                     	ds	2
   910  000063                     _X_diff:
   911                           	callstack 0
   912  000063                     	ds	2
   913  000065                     _Place_Angle:
   914                           	callstack 0
   915  000065                     	ds	2
   916  000067                     _Pick_Angle:
   917                           	callstack 0
   918  000067                     	ds	2
   919  000069                     _Y_Place:
   920                           	callstack 0
   921  000069                     	ds	2
   922  00006B                     _Y_Pick:
   923                           	callstack 0
   924  00006B                     	ds	2
   925  00006D                     _X_Place:
   926                           	callstack 0
   927  00006D                     	ds	2
   928  00006F                     _X_Pick:
   929                           	callstack 0
   930  00006F                     	ds	2
   931  000071                     _RX_Char:
   932                           	callstack 0
   933  000071                     	ds	1
   934  000072                     _Rot_dir:
   935                           	callstack 0
   936  000072                     	ds	1
   937  000073                     _Y_dir:
   938                           	callstack 0
   939  000073                     	ds	1
   940  000074                     _X_dir:
   941                           	callstack 0
   942  000074                     	ds	1
   943  000075                     _stop:
   944                           	callstack 0
   945  000075                     	ds	1
   946                           
   947                           	psect	dataCOMRAM
   948  000077                     __pdataCOMRAM:
   949                           	callstack 0
   950  000077                     _State:
   951                           	callstack 0
   952  000077                     	ds	1
   953                           
   954                           	psect	bssBANK0
   955  000080                     __pbssBANK0:
   956                           	callstack 0
   957  000080                     _testarray:
   958                           	callstack 0
   959  000080                     	ds	30
   960  00009E                     roundf@F528:
   961                           	callstack 0
   962  00009E                     	ds	4
   963  0000A2                     _angle_diff:
   964                           	callstack 0
   965  0000A2                     	ds	2
   966  0000A4                     _Place_Angle_D:
   967                           	callstack 0
   968  0000A4                     	ds	2
   969  0000A6                     _Y_Place_D:
   970                           	callstack 0
   971  0000A6                     	ds	2
   972  0000A8                     _X_Place_D:
   973                           	callstack 0
   974  0000A8                     	ds	2
   975  0000AA                     _Pick_Angle_D:
   976                           	callstack 0
   977  0000AA                     	ds	2
   978  0000AC                     _Y_Pick_D:
   979                           	callstack 0
   980  0000AC                     	ds	2
   981  0000AE                     _X_Pick_D:
   982                           	callstack 0
   983  0000AE                     	ds	2
   984  0000B0                     _Step_Angle:
   985                           	callstack 0
   986  0000B0                     	ds	2
   987  0000B2                     _Step_Z:
   988                           	callstack 0
   989  0000B2                     	ds	2
   990  0000B4                     _Step_Y:
   991                           	callstack 0
   992  0000B4                     	ds	2
   993  0000B6                     _Step_X:
   994                           	callstack 0
   995  0000B6                     	ds	2
   996  0000B8                     _rotation:
   997                           	callstack 0
   998  0000B8                     	ds	2
   999  0000BA                     _displacement_Y:
  1000                           	callstack 0
  1001  0000BA                     	ds	2
  1002  0000BC                     _displacement_X:
  1003                           	callstack 0
  1004  0000BC                     	ds	2
  1005                           
  1006                           	psect	dataBANK0
  1007  0000DF                     __pdataBANK0:
  1008                           	callstack 0
  1009  0000DF                     	ds	4
  1010  0000E3                     	ds	4
  1011  0000E7                     add_component@F3131:
  1012                           	callstack 0
  1013  0000E7                     	ds	2
  1014  0000E9                     _lenth_of_array:
  1015                           	callstack 0
  1016  0000E9                     	ds	2
  1017  0000EB                     _input_str:
  1018                           	callstack 0
  1019  0000EB                     	ds	10
  1020  0000F5                     _sequence:
  1021                           	callstack 0
  1022  0000F5                     	ds	4
  1023                           
  1024                           	psect	cstackBANK0
  1025  0000BE                     __pcstackBANK0:
  1026                           	callstack 0
  1027  0000BE                     pick_and_place@Componnt:
  1028                           	callstack 0
  1029  0000BE                     ___fltol@sign1:
  1030                           	callstack 0
  1031                           
  1032                           ; 1 bytes @ 0x0
  1033  0000BE                     	ds	1
  1034  0000BF                     ___fltol@exp1:
  1035                           	callstack 0
  1036  0000BF                     pick_and_place@i:
  1037                           	callstack 0
  1038                           
  1039                           ; 2 bytes @ 0x1
  1040  0000BF                     	ds	2
  1041  0000C1                     _pick_and_place$649:
  1042                           	callstack 0
  1043                           
  1044                           ; 2 bytes @ 0x3
  1045  0000C1                     	ds	2
  1046  0000C3                     pick_and_place@i_650:
  1047                           	callstack 0
  1048                           
  1049                           ; 2 bytes @ 0x5
  1050  0000C3                     	ds	2
  1051  0000C5                     _pick_and_place$652:
  1052                           	callstack 0
  1053                           
  1054                           ; 2 bytes @ 0x7
  1055  0000C5                     	ds	2
  1056  0000C7                     pick_and_place@i_653:
  1057                           	callstack 0
  1058                           
  1059                           ; 2 bytes @ 0x9
  1060  0000C7                     	ds	2
  1061  0000C9                     _pick_and_place$655:
  1062                           	callstack 0
  1063                           
  1064                           ; 2 bytes @ 0xB
  1065  0000C9                     	ds	2
  1066  0000CB                     pick_and_place@i_656:
  1067                           	callstack 0
  1068                           
  1069                           ; 2 bytes @ 0xD
  1070  0000CB                     	ds	2
  1071  0000CD                     pick_and_place@i_658:
  1072                           	callstack 0
  1073                           
  1074                           ; 2 bytes @ 0xF
  1075  0000CD                     	ds	2
  1076  0000CF                     pick_and_place@i_659:
  1077                           	callstack 0
  1078                           
  1079                           ; 2 bytes @ 0x11
  1080  0000CF                     	ds	2
  1081  0000D1                     _pick_and_place$660:
  1082                           	callstack 0
  1083                           
  1084                           ; 2 bytes @ 0x13
  1085  0000D1                     	ds	2
  1086  0000D3                     pick_and_place@i_661:
  1087                           	callstack 0
  1088                           
  1089                           ; 2 bytes @ 0x15
  1090  0000D3                     	ds	2
  1091  0000D5                     _pick_and_place$662:
  1092                           	callstack 0
  1093                           
  1094                           ; 2 bytes @ 0x17
  1095  0000D5                     	ds	2
  1096  0000D7                     pick_and_place@i_663:
  1097                           	callstack 0
  1098                           
  1099                           ; 2 bytes @ 0x19
  1100  0000D7                     	ds	2
  1101  0000D9                     _pick_and_place$664:
  1102                           	callstack 0
  1103                           
  1104                           ; 2 bytes @ 0x1B
  1105  0000D9                     	ds	2
  1106  0000DB                     pick_and_place@i_665:
  1107                           	callstack 0
  1108                           
  1109                           ; 2 bytes @ 0x1D
  1110  0000DB                     	ds	2
  1111  0000DD                     pick_and_place@i_666:
  1112                           	callstack 0
  1113                           
  1114                           ; 2 bytes @ 0x1F
  1115  0000DD                     	ds	2
  1116                           
  1117                           	psect	cstackCOMRAM
  1118  000001                     __pcstackCOMRAM:
  1119                           	callstack 0
  1120  000001                     ??_Rx_char_USART:
  1121  000001                     
  1122                           ; 2 bytes @ 0x0
  1123  000001                     	ds	5
  1124  000006                     Rx_char_USART@i:
  1125                           	callstack 0
  1126                           
  1127                           ; 2 bytes @ 0x5
  1128  000006                     	ds	2
  1129  000008                     ?_strlen:
  1130                           	callstack 0
  1131  000008                     ?_isspace:
  1132                           	callstack 0
  1133  000008                     ?_isdigit:
  1134                           	callstack 0
  1135  000008                     ?___wmul:
  1136                           	callstack 0
  1137  000008                     ?___fladd:
  1138                           	callstack 0
  1139  000008                     ?___flmul:
  1140                           	callstack 0
  1141  000008                     ?___flneg:
  1142                           	callstack 0
  1143  000008                     ?___xxtofl:
  1144                           	callstack 0
  1145  000008                     fetch_parameters@Componnt:
  1146                           	callstack 0
  1147  000008                     print_string@strng:
  1148                           	callstack 0
  1149  000008                     ms_delay@val:
  1150                           	callstack 0
  1151  000008                     ___wmul@multiplier:
  1152                           	callstack 0
  1153  000008                     isdigit@c:
  1154                           	callstack 0
  1155  000008                     isspace@c:
  1156                           	callstack 0
  1157  000008                     strlen@s:
  1158                           	callstack 0
  1159  000008                     ___flneg@f1:
  1160                           	callstack 0
  1161  000008                     ___fladd@b:
  1162                           	callstack 0
  1163  000008                     ___flmul@b:
  1164                           	callstack 0
  1165  000008                     ___xxtofl@val:
  1166                           	callstack 0
  1167                           
  1168                           ; 4 bytes @ 0x7
  1169  000008                     	ds	2
  1170  00000A                     ??_isspace:
  1171  00000A                     ??_isdigit:
  1172  00000A                     ??_print_string:
  1173  00000A                     ms_delay@i:
  1174                           	callstack 0
  1175  00000A                     ___wmul@multiplicand:
  1176                           	callstack 0
  1177  00000A                     strlen@a:
  1178                           	callstack 0
  1179                           
  1180                           ; 2 bytes @ 0x9
  1181  00000A                     	ds	2
  1182  00000C                     ??___xxtofl:
  1183  00000C                     ?___memrchr:
  1184                           	callstack 0
  1185  00000C                     print_string@i:
  1186                           	callstack 0
  1187  00000C                     ms_delay@j:
  1188                           	callstack 0
  1189  00000C                     ___wmul@product:
  1190                           	callstack 0
  1191  00000C                     memmove@d1:
  1192                           	callstack 0
  1193  00000C                     strncat@d:
  1194                           	callstack 0
  1195  00000C                     ___memrchr@m:
  1196                           	callstack 0
  1197  00000C                     ___fladd@a:
  1198                           	callstack 0
  1199  00000C                     ___flmul@a:
  1200                           	callstack 0
  1201                           
  1202                           ; 4 bytes @ 0xB
  1203  00000C                     	ds	2
  1204  00000E                     ??_change_sequence:
  1205  00000E                     X_axis@direction:
  1206                           	callstack 0
  1207  00000E                     Y_axis@direction:
  1208                           	callstack 0
  1209  00000E                     Z_axis@direction:
  1210                           	callstack 0
  1211  00000E                     Twister@direction:
  1212                           	callstack 0
  1213  00000E                     _isspace$1151:
  1214                           	callstack 0
  1215  00000E                     memmove@s1:
  1216                           	callstack 0
  1217  00000E                     strncat@s:
  1218                           	callstack 0
  1219  00000E                     ___memrchr@c:
  1220                           	callstack 0
  1221                           
  1222                           ; 2 bytes @ 0xD
  1223  00000E                     	ds	1
  1224  00000F                     ??_return_to_initial:
  1225  00000F                     ?_atoi:
  1226                           	callstack 0
  1227  00000F                     atoi@s:
  1228                           	callstack 0
  1229                           
  1230                           ; 2 bytes @ 0xE
  1231  00000F                     	ds	1
  1232  000010                     ??___fladd:
  1233  000010                     ??___flmul:
  1234  000010                     ___xxtofl@sign:
  1235                           	callstack 0
  1236  000010                     return_to_initial@i:
  1237                           	callstack 0
  1238  000010                     memmove@n:
  1239                           	callstack 0
  1240  000010                     strncat@n:
  1241                           	callstack 0
  1242  000010                     ___memrchr@n:
  1243                           	callstack 0
  1244                           
  1245                           ; 2 bytes @ 0xF
  1246  000010                     	ds	1
  1247  000011                     ??_atoi:
  1248  000011                     ___xxtofl@exp:
  1249                           	callstack 0
  1250  000011                     change_sequence@i:
  1251                           	callstack 0
  1252                           
  1253                           ; 2 bytes @ 0x10
  1254  000011                     	ds	1
  1255  000012                     ??_memmove:
  1256  000012                     ??___memrchr:
  1257  000012                     return_to_initial@i_669:
  1258                           	callstack 0
  1259  000012                     ___xxtofl@arg:
  1260                           	callstack 0
  1261                           
  1262                           ; 4 bytes @ 0x11
  1263  000012                     	ds	2
  1264  000014                     ___fladd@signs:
  1265                           	callstack 0
  1266  000014                     ___flmul@sign:
  1267                           	callstack 0
  1268  000014                     return_to_initial@i_670:
  1269                           	callstack 0
  1270  000014                     memmove@d:
  1271                           	callstack 0
  1272  000014                     ___memrchr@s:
  1273                           	callstack 0
  1274                           
  1275                           ; 2 bytes @ 0x13
  1276  000014                     	ds	1
  1277  000015                     ___fladd@aexp:
  1278                           	callstack 0
  1279  000015                     atoi@neg:
  1280                           	callstack 0
  1281  000015                     ___flmul@grs:
  1282                           	callstack 0
  1283                           
  1284                           ; 4 bytes @ 0x14
  1285  000015                     	ds	1
  1286  000016                     ?_strrchr:
  1287                           	callstack 0
  1288  000016                     ?___fldiv:
  1289                           	callstack 0
  1290  000016                     ___fladd@bexp:
  1291                           	callstack 0
  1292  000016                     return_to_initial@i_671:
  1293                           	callstack 0
  1294  000016                     memmove@s:
  1295                           	callstack 0
  1296  000016                     strrchr@s:
  1297                           	callstack 0
  1298  000016                     ___fldiv@b:
  1299                           	callstack 0
  1300                           
  1301                           ; 4 bytes @ 0x15
  1302  000016                     	ds	1
  1303  000017                     ___fladd@grs:
  1304                           	callstack 0
  1305  000017                     _atoi$1133:
  1306                           	callstack 0
  1307                           
  1308                           ; 2 bytes @ 0x16
  1309  000017                     	ds	1
  1310  000018                     ?___flsub:
  1311                           	callstack 0
  1312  000018                     strrchr@c:
  1313                           	callstack 0
  1314  000018                     ___flsub@b:
  1315                           	callstack 0
  1316                           
  1317                           ; 4 bytes @ 0x17
  1318  000018                     	ds	1
  1319  000019                     ___flmul@aexp:
  1320                           	callstack 0
  1321  000019                     _atoi$1135:
  1322                           	callstack 0
  1323                           
  1324                           ; 2 bytes @ 0x18
  1325  000019                     	ds	1
  1326  00001A                     ___flmul@bexp:
  1327                           	callstack 0
  1328  00001A                     remove_component@ptr:
  1329                           	callstack 0
  1330  00001A                     ___fldiv@a:
  1331                           	callstack 0
  1332                           
  1333                           ; 4 bytes @ 0x19
  1334  00001A                     	ds	1
  1335  00001B                     _atoi$1134:
  1336                           	callstack 0
  1337  00001B                     ___flmul@prod:
  1338                           	callstack 0
  1339                           
  1340                           ; 4 bytes @ 0x1A
  1341  00001B                     	ds	1
  1342  00001C                     remove_component@rm_comp:
  1343                           	callstack 0
  1344  00001C                     atoi@n:
  1345                           	callstack 0
  1346  00001C                     ___flsub@a:
  1347                           	callstack 0
  1348                           
  1349                           ; 4 bytes @ 0x1B
  1350  00001C                     	ds	1
  1351  00001D                     remove_component@indxToDel:
  1352                           	callstack 0
  1353                           
  1354                           ; 2 bytes @ 0x1C
  1355  00001D                     	ds	1
  1356  00001E                     ??___fldiv:
  1357  00001E                     add_component@add_componnt:
  1358                           	callstack 0
  1359                           
  1360                           ; 2 bytes @ 0x1D
  1361  00001E                     	ds	1
  1362  00001F                     ___flmul@temp:
  1363                           	callstack 0
  1364                           
  1365                           ; 2 bytes @ 0x1E
  1366  00001F                     	ds	1
  1367  000020                     
  1368                           ; 1 bytes @ 0x1F
  1369  000020                     	ds	2
  1370  000022                     ___fldiv@rem:
  1371                           	callstack 0
  1372                           
  1373                           ; 4 bytes @ 0x21
  1374  000022                     	ds	4
  1375  000026                     ___fldiv@sign:
  1376                           	callstack 0
  1377                           
  1378                           ; 1 bytes @ 0x25
  1379  000026                     	ds	1
  1380  000027                     ___fldiv@new_exp:
  1381                           	callstack 0
  1382                           
  1383                           ; 2 bytes @ 0x26
  1384  000027                     	ds	2
  1385  000029                     ___fldiv@grs:
  1386                           	callstack 0
  1387                           
  1388                           ; 4 bytes @ 0x28
  1389  000029                     	ds	4
  1390  00002D                     ___fldiv@bexp:
  1391                           	callstack 0
  1392                           
  1393                           ; 1 bytes @ 0x2C
  1394  00002D                     	ds	1
  1395  00002E                     ___fldiv@aexp:
  1396                           	callstack 0
  1397                           
  1398                           ; 1 bytes @ 0x2D
  1399  00002E                     	ds	1
  1400  00002F                     ___flge@ff1:
  1401                           	callstack 0
  1402                           
  1403                           ; 4 bytes @ 0x2E
  1404  00002F                     	ds	4
  1405  000033                     ___flge@ff2:
  1406                           	callstack 0
  1407                           
  1408                           ; 4 bytes @ 0x32
  1409  000033                     	ds	4
  1410  000037                     ??___flge:
  1411                           
  1412                           ; 1 bytes @ 0x36
  1413  000037                     	ds	4
  1414  00003B                     ??_pick_and_place:
  1415  00003B                     ?_roundf:
  1416                           	callstack 0
  1417  00003B                     roundf@x:
  1418                           	callstack 0
  1419                           
  1420                           ; 4 bytes @ 0x3A
  1421  00003B                     	ds	2
  1422  00003D                     ??_start_up_menu:
  1423                           
  1424                           ; 1 bytes @ 0x3C
  1425  00003D                     	ds	2
  1426  00003F                     ??_roundf:
  1427                           
  1428                           ; 1 bytes @ 0x3E
  1429  00003F                     	ds	1
  1430  000040                     start_up_menu@i:
  1431                           	callstack 0
  1432                           
  1433                           ; 2 bytes @ 0x3F
  1434  000040                     	ds	3
  1435  000043                     _roundf$1405:
  1436                           	callstack 0
  1437                           
  1438                           ; 4 bytes @ 0x42
  1439  000043                     	ds	4
  1440  000047                     roundf@e:
  1441                           	callstack 0
  1442                           
  1443                           ; 2 bytes @ 0x46
  1444  000047                     	ds	2
  1445  000049                     _roundf$1404:
  1446                           	callstack 0
  1447                           
  1448                           ; 4 bytes @ 0x48
  1449  000049                     	ds	4
  1450  00004D                     roundf@u:
  1451                           	callstack 0
  1452                           
  1453                           ; 4 bytes @ 0x4C
  1454  00004D                     	ds	4
  1455  000051                     roundf@y:
  1456                           	callstack 0
  1457                           
  1458                           ; 4 bytes @ 0x50
  1459  000051                     	ds	4
  1460  000055                     ?___fltol:
  1461                           	callstack 0
  1462  000055                     ___fltol@f1:
  1463                           	callstack 0
  1464                           
  1465                           ; 4 bytes @ 0x54
  1466  000055                     	ds	4
  1467  000059                     ??___fltol:
  1468                           
  1469                           ; 1 bytes @ 0x58
  1470  000059                     	ds	4
  1471  00005D                     
  1472                           ; 1 bytes @ 0x5C
  1473 ;;
  1474 ;;Main: autosize = 0, tempsize = 0, incstack = 0, save=0
  1475 ;;
  1476 ;; *************** function _main *****************
  1477 ;; Defined at:
  1478 ;;		line 185 in file "main.c"
  1479 ;; Parameters:    Size  Location     Type
  1480 ;;		None
  1481 ;; Auto vars:     Size  Location     Type
  1482 ;;		None
  1483 ;; Return value:  Size  Location     Type
  1484 ;;                  1    wreg      void 
  1485 ;; Registers used:
  1486 ;;		wreg, fsr1l, fsr1h, fsr2l, fsr2h, status,2, status,0, tblptrl, tblptrh, tblptru, prodl, prodh, cstack
  1487 ;; Tracked objects:
  1488 ;;		On entry : 0/0
  1489 ;;		On exit  : 0/0
  1490 ;;		Unchanged: 0/0
  1491 ;; Data sizes:     COMRAM   BANK0   BANK1   BANK2   BANK3   BANK4   BANK5
  1492 ;;      Params:         0       0       0       0       0       0       0
  1493 ;;      Locals:         0       0       0       0       0       0       0
  1494 ;;      Temps:          0       0       0       0       0       0       0
  1495 ;;      Totals:         0       0       0       0       0       0       0
  1496 ;;Total ram usage:        0 bytes
  1497 ;; Hardware stack levels required when called: 5
  1498 ;; This function calls:
  1499 ;;		_init_PORTS
  1500 ;;		_init_USART
  1501 ;;		_init_interrupts
  1502 ;;		_start_up_menu
  1503 ;; This function is called by:
  1504 ;;		Startup code after reset
  1505 ;; This function uses a non-reentrant model
  1506 ;;
  1507                           
  1508                           	psect	text0
  1509  003196                     __ptext0:
  1510                           	callstack 0
  1511  003196                     _main:
  1512                           	callstack 26
  1513  003196  FFFF               	dw	65535	; assembler added errata NOP
  1514                           
  1515                           ;main.c: 189:     init_PORTS();
  1516  003198  ECB6  F018         	call	_init_PORTS	;wreg free
  1517  00319C                     
  1518                           ;main.c: 190:     init_USART();
  1519  00319C  EC64  F018         	call	_init_USART	;wreg free
  1520  0031A0                     
  1521                           ;main.c: 191:     init_interrupts();
  1522  0031A0  ECE9  F018         	call	_init_interrupts	;wreg free
  1523  0031A4                     
  1524                           ;main.c: 192:     (INTCONbits.GIE = 1);
  1525  0031A4  8EF2               	bsf	242,7,c	;volatile
  1526  0031A6                     l4736:
  1527  0031A6  FFFF               	dw	65535	; assembler added errata NOP
  1528                           
  1529                           ;main.c: 194:         New_char_RX=0;
  1530  0031A8  0E00               	movlw	0
  1531  0031AA  6E76               	movwf	_New_char_RX^0,c
  1532  0031AC                     
  1533                           ;main.c: 195:         start_up_menu();
  1534  0031AC  EC1F  F010         	call	_start_up_menu	;wreg free
  1535  0031B0  EFD3  F018         	goto	l4736
  1536  0031B4  EF6E  F000         	goto	start
  1537  0031B8                     __end_of_main:
  1538                           	callstack 0
  1539                           
  1540 ;; *************** function _start_up_menu *****************
  1541 ;; Defined at:
  1542 ;;		line 203 in file "main.c"
  1543 ;; Parameters:    Size  Location     Type
  1544 ;;		None
  1545 ;; Auto vars:     Size  Location     Type
  1546 ;;  i               2   63[COMRAM] int 
  1547 ;; Return value:  Size  Location     Type
  1548 ;;                  1    wreg      void 
  1549 ;; Registers used:
  1550 ;;		wreg, fsr1l, fsr1h, fsr2l, fsr2h, status,2, status,0, tblptrl, tblptrh, tblptru, prodl, prodh, cstack
  1551 ;; Tracked objects:
  1552 ;;		On entry : 0/0
  1553 ;;		On exit  : 0/0
  1554 ;;		Unchanged: 0/0
  1555 ;; Data sizes:     COMRAM   BANK0   BANK1   BANK2   BANK3   BANK4   BANK5
  1556 ;;      Params:         0       0       0       0       0       0       0
  1557 ;;      Locals:         2       0       0       0       0       0       0
  1558 ;;      Temps:          3       0       0       0       0       0       0
  1559 ;;      Totals:         5       0       0       0       0       0       0
  1560 ;;Total ram usage:        5 bytes
  1561 ;; Hardware stack levels used: 1
  1562 ;; Hardware stack levels required when called: 4
  1563 ;; This function calls:
  1564 ;;		_add_component
  1565 ;;		_change_sequence
  1566 ;;		_pick_and_place
  1567 ;;		_print_string
  1568 ;;		_remove_component
  1569 ;;		_return_to_initial
  1570 ;; This function is called by:
  1571 ;;		_main
  1572 ;; This function uses a non-reentrant model
  1573 ;;
  1574                           
  1575                           	psect	text1
  1576  00203E                     __ptext1:
  1577                           	callstack 0
  1578  00203E                     _start_up_menu:
  1579                           	callstack 0
  1580  00203E  FFFF               	dw	65535	; assembler added errata NOP
  1581  002040                     
  1582                           ;main.c: 205:     print_string("\n\n1. Start Sequence\n2. Change sequence\n3. Add new co
      +                          mponent\n4. Remove a component");
  1583  002040  0E8D               	movlw	low STR_1
  1584  002042  6E08               	movwf	print_string@strng^0,c
  1585  002044  0E7D               	movlw	high STR_1
  1586  002046  6E09               	movwf	(print_string@strng+1)^0,c
  1587  002048  EC32  F016         	call	_print_string	;wreg free
  1588  00204C                     l4692:
  1589  00204C  FFFF               	dw	65535	; assembler added errata NOP
  1590                           
  1591                           ;main.c: 208:         if(New_char_RX){
  1592  00204E  5076               	movf	_New_char_RX^0,w,c
  1593  002050  B4D8               	btfsc	status,2,c
  1594  002052  EF2D  F010         	goto	u5691
  1595  002056  EF30  F010         	goto	u5690
  1596  00205A                     u5691:
  1597  00205A  FFFF               	dw	65535	; assembler added errata NOP
  1598  00205C  EF26  F010         	goto	l4692
  1599  002060                     u5690:
  1600  002060  FFFF               	dw	65535	; assembler added errata NOP
  1601  002062                     
  1602                           ;main.c: 209:             New_char_RX=0;
  1603  002062  0E00               	movlw	0
  1604  002064  6E76               	movwf	_New_char_RX^0,c
  1605                           
  1606                           ;main.c: 210:             switch(State){
  1607  002066  EFB4  F010         	goto	l4722
  1608  00206A                     l4696:
  1609  00206A  FFFF               	dw	65535	; assembler added errata NOP
  1610                           
  1611                           ;main.c: 212:                     print_string("\nStarting sequence:");
  1612  00206C  0ED6               	movlw	low STR_2
  1613  00206E  6E08               	movwf	print_string@strng^0,c
  1614  002070  0E7F               	movlw	high STR_2
  1615  002072  6E09               	movwf	(print_string@strng+1)^0,c
  1616  002074  EC32  F016         	call	_print_string	;wreg free
  1617                           
  1618                           ;main.c: 213:                     print_string(sequence);
  1619  002078  0EF5               	movlw	low _sequence
  1620  00207A  6E08               	movwf	print_string@strng^0,c
  1621  00207C  0E00               	movlw	high _sequence
  1622  00207E  6E09               	movwf	(print_string@strng+1)^0,c
  1623  002080  EC32  F016         	call	_print_string	;wreg free
  1624                           
  1625                           ;main.c: 214:                     print_string("\nEnter 'Q' to exit to MAIN MENU");
  1626  002084  0EC0               	movlw	low STR_3
  1627  002086  6E08               	movwf	print_string@strng^0,c
  1628  002088  0E7E               	movlw	high STR_3
  1629  00208A  6E09               	movwf	(print_string@strng+1)^0,c
  1630  00208C  EC32  F016         	call	_print_string	;wreg free
  1631  002090                     
  1632                           ;main.c: 215:                     return_to_initial();
  1633  002090  EC13  F012         	call	_return_to_initial	;wreg free
  1634                           
  1635                           ;main.c: 216:                     while(!New_char_RX && !stop){
  1636  002094  EF87  F010         	goto	l4708
  1637  002098                     l4700:
  1638  002098  FFFF               	dw	65535	; assembler added errata NOP
  1639                           
  1640                           ;main.c: 217:                         int i =0;
  1641  00209A  0E00               	movlw	0
  1642  00209C  6E41               	movwf	(start_up_menu@i+1)^0,c
  1643  00209E  0E00               	movlw	0
  1644  0020A0  6E40               	movwf	start_up_menu@i^0,c
  1645                           
  1646                           ;main.c: 218:                         X_diff=0;
  1647  0020A2  0E00               	movlw	0
  1648  0020A4  6E64               	movwf	(_X_diff+1)^0,c
  1649  0020A6  0E00               	movlw	0
  1650  0020A8  6E63               	movwf	_X_diff^0,c
  1651                           
  1652                           ;main.c: 219:                         Y_diff=0;
  1653  0020AA  0E00               	movlw	0
  1654  0020AC  6E62               	movwf	(_Y_diff+1)^0,c
  1655  0020AE  0E00               	movlw	0
  1656  0020B0  6E61               	movwf	_Y_diff^0,c
  1657                           
  1658                           ;main.c: 220:                         Angle_diff=0;
  1659  0020B2  0E00               	movlw	0
  1660  0020B4  6E60               	movwf	(_Angle_diff+1)^0,c
  1661  0020B6  0E00               	movlw	0
  1662  0020B8  6E5F               	movwf	_Angle_diff^0,c
  1663  0020BA                     l4702:
  1664  0020BA  FFFF               	dw	65535	; assembler added errata NOP
  1665                           
  1666                           ;main.c: 222:                             pick_and_place(sequence[i]);
  1667  0020BC  0EF5               	movlw	low _sequence
  1668  0020BE  2440               	addwf	start_up_menu@i^0,w,c
  1669  0020C0  6ED9               	movwf	fsr2l,c
  1670  0020C2  0E00               	movlw	high _sequence
  1671  0020C4  2041               	addwfc	(start_up_menu@i+1)^0,w,c
  1672  0020C6  6EDA               	movwf	fsr2h,c
  1673  0020C8  50DF               	movf	indf2,w,c
  1674  0020CA  EC70  F000         	call	_pick_and_place
  1675  0020CE                     
  1676                           ;main.c: 223:                         }while(!stop && sequence[i++]!='\n');
  1677  0020CE  5075               	movf	_stop^0,w,c
  1678  0020D0  A4D8               	btfss	status,2,c
  1679  0020D2  EF6D  F010         	goto	u5701
  1680  0020D6  EF70  F010         	goto	u5700
  1681  0020DA                     u5701:
  1682  0020DA  FFFF               	dw	65535	; assembler added errata NOP
  1683  0020DC  EF87  F010         	goto	l4708
  1684  0020E0                     u5700:
  1685  0020E0  FFFF               	dw	65535	; assembler added errata NOP
  1686  0020E2  5040               	movf	start_up_menu@i^0,w,c
  1687  0020E4  6E3D               	movwf	??_start_up_menu^0,c
  1688  0020E6  5041               	movf	(start_up_menu@i+1)^0,w,c
  1689  0020E8  6E3E               	movwf	(??_start_up_menu+1)^0,c
  1690  0020EA  4A40               	infsnz	start_up_menu@i^0,f,c
  1691  0020EC  2A41               	incf	(start_up_menu@i+1)^0,f,c
  1692  0020EE  0EF5               	movlw	low _sequence
  1693  0020F0  243D               	addwf	??_start_up_menu^0,w,c
  1694  0020F2  6ED9               	movwf	fsr2l,c
  1695  0020F4  0E00               	movlw	high _sequence
  1696  0020F6  203E               	addwfc	(??_start_up_menu+1)^0,w,c
  1697  0020F8  6EDA               	movwf	fsr2h,c
  1698  0020FA  0E0A               	movlw	10
  1699  0020FC  18DE               	xorwf	postinc2,w,c
  1700  0020FE  A4D8               	btfss	status,2,c
  1701  002100  EF84  F010         	goto	u5711
  1702  002104  EF87  F010         	goto	u5710
  1703  002108                     u5711:
  1704  002108  FFFF               	dw	65535	; assembler added errata NOP
  1705  00210A  EF5D  F010         	goto	l4702
  1706  00210E                     u5710:
  1707  00210E                     l4708:
  1708  00210E  FFFF               	dw	65535	; assembler added errata NOP
  1709                           
  1710                           ;main.c: 216:                     while(!New_char_RX && !stop){
  1711  002110  5076               	movf	_New_char_RX^0,w,c
  1712  002112  A4D8               	btfss	status,2,c
  1713  002114  EF8E  F010         	goto	u5721
  1714  002118  EF91  F010         	goto	u5720
  1715  00211C                     u5721:
  1716  00211C  FFFF               	dw	65535	; assembler added errata NOP
  1717  00211E  EFD7  F010         	goto	l210
  1718  002122                     u5720:
  1719  002122  FFFF               	dw	65535	; assembler added errata NOP
  1720  002124  5075               	movf	_stop^0,w,c
  1721  002126  B4D8               	btfsc	status,2,c
  1722  002128  EF98  F010         	goto	u5731
  1723  00212C  EF9B  F010         	goto	u5730
  1724  002130                     u5731:
  1725  002130  FFFF               	dw	65535	; assembler added errata NOP
  1726  002132  EF4C  F010         	goto	l4700
  1727  002136                     u5730:
  1728  002136  FFFF               	dw	65535	; assembler added errata NOP
  1729  002138  EFD8  F010         	goto	l217
  1730  00213C                     l4712:
  1731  00213C  FFFF               	dw	65535	; assembler added errata NOP
  1732                           
  1733                           ;main.c: 228:                     change_sequence();
  1734  00213E  EC82  F016         	call	_change_sequence	;wreg free
  1735                           
  1736                           ;main.c: 230:                     break;
  1737  002142  EFD8  F010         	goto	l217
  1738  002146                     l4714:
  1739  002146  FFFF               	dw	65535	; assembler added errata NOP
  1740                           
  1741                           ;main.c: 233:                     add_component();
  1742  002148  EC44  F00D         	call	_add_component	;wreg free
  1743                           
  1744                           ;main.c: 235:                     break;
  1745  00214C  EFD8  F010         	goto	l217
  1746  002150                     l4716:
  1747  002150  FFFF               	dw	65535	; assembler added errata NOP
  1748                           
  1749                           ;main.c: 238:                     remove_component();
  1750  002152  EC40  F013         	call	_remove_component	;wreg free
  1751                           
  1752                           ;main.c: 240:                     break;
  1753  002156  EFD8  F010         	goto	l217
  1754  00215A                     l4718:
  1755  00215A  FFFF               	dw	65535	; assembler added errata NOP
  1756                           
  1757                           ;main.c: 243:                     New_char_RX=0;
  1758  00215C  0E00               	movlw	0
  1759  00215E  6E76               	movwf	_New_char_RX^0,c
  1760                           
  1761                           ;main.c: 244:                     stop=0;
  1762  002160  0E00               	movlw	0
  1763  002162  6E75               	movwf	_stop^0,c
  1764                           
  1765                           ;main.c: 245:                     break;
  1766  002164  EFD8  F010         	goto	l217
  1767  002168                     l4722:
  1768  002168  FFFF               	dw	65535	; assembler added errata NOP
  1769  00216A  5077               	movf	_State^0,w,c
  1770  00216C  6E3D               	movwf	??_start_up_menu^0,c
  1771  00216E  6A3E               	clrf	(??_start_up_menu+1)^0,c
  1772                           
  1773                           ; Switch on 2 bytes has been partitioned into a top level switch of size 1, and 1 sub-sw
      +                          itches
  1774                           ; Switch size 1, requested type "simple"
  1775                           ; Number of cases is 1, Range of values is 0 to 0
  1776                           ; switch strategies available:
  1777                           ; Name         Instructions Cycles
  1778                           ; simple_byte            4     3 (average)
  1779                           ;	Chosen strategy is simple_byte
  1780  002170  503E               	movf	(??_start_up_menu+1)^0,w,c
  1781  002172  0A00               	xorlw	0	; case 0
  1782  002174  B4D8               	btfsc	status,2,c
  1783  002176  EFBF  F010         	goto	l4804
  1784  00217A  EFD8  F010         	goto	l217
  1785  00217E                     l4804:
  1786  00217E  FFFF               	dw	65535	; assembler added errata NOP
  1787                           
  1788                           ; Switch size 1, requested type "simple"
  1789                           ; Number of cases is 5, Range of values is 49 to 81
  1790                           ; switch strategies available:
  1791                           ; Name         Instructions Cycles
  1792                           ; simple_byte           16     9 (average)
  1793                           ;	Chosen strategy is simple_byte
  1794  002180  503D               	movf	??_start_up_menu^0,w,c
  1795  002182  0A31               	xorlw	49	; case 49
  1796  002184  B4D8               	btfsc	status,2,c
  1797  002186  EF35  F010         	goto	l4696
  1798  00218A  0A03               	xorlw	3	; case 50
  1799  00218C  B4D8               	btfsc	status,2,c
  1800  00218E  EF9E  F010         	goto	l4712
  1801  002192  0A01               	xorlw	1	; case 51
  1802  002194  B4D8               	btfsc	status,2,c
  1803  002196  EFA3  F010         	goto	l4714
  1804  00219A  0A07               	xorlw	7	; case 52
  1805  00219C  B4D8               	btfsc	status,2,c
  1806  00219E  EFA8  F010         	goto	l4716
  1807  0021A2  0A65               	xorlw	101	; case 81
  1808  0021A4  B4D8               	btfsc	status,2,c
  1809  0021A6  EFAD  F010         	goto	l4718
  1810  0021AA  EFD8  F010         	goto	l217
  1811  0021AE                     l210:
  1812  0021AE  FFFF               	dw	65535	; assembler added errata NOP
  1813  0021B0                     l217:
  1814  0021B0  FFFF               	dw	65535	; assembler added errata NOP
  1815  0021B2  0012               	return		;funcret
  1816  0021B4  FFFF               	dw	65535	; errata NOP
  1817  0021B6                     __end_of_start_up_menu:
  1818                           	callstack 0
  1819                           
  1820 ;; *************** function _return_to_initial *****************
  1821 ;; Defined at:
  1822 ;;		line 606 in file "main.c"
  1823 ;; Parameters:    Size  Location     Type
  1824 ;;		None
  1825 ;; Auto vars:     Size  Location     Type
  1826 ;;  i               2   21[COMRAM] int 
  1827 ;;  i               2   19[COMRAM] int 
  1828 ;;  i               2   17[COMRAM] int 
  1829 ;;  i               2   15[COMRAM] int 
  1830 ;; Return value:  Size  Location     Type
  1831 ;;                  1    wreg      void 
  1832 ;; Registers used:
  1833 ;;		wreg, status,2, status,0, cstack
  1834 ;; Tracked objects:
  1835 ;;		On entry : 0/0
  1836 ;;		On exit  : 0/0
  1837 ;;		Unchanged: 0/0
  1838 ;; Data sizes:     COMRAM   BANK0   BANK1   BANK2   BANK3   BANK4   BANK5
  1839 ;;      Params:         0       0       0       0       0       0       0
  1840 ;;      Locals:         8       0       0       0       0       0       0
  1841 ;;      Temps:          1       0       0       0       0       0       0
  1842 ;;      Totals:         9       0       0       0       0       0       0
  1843 ;;Total ram usage:        9 bytes
  1844 ;; Hardware stack levels used: 1
  1845 ;; Hardware stack levels required when called: 3
  1846 ;; This function calls:
  1847 ;;		_Twister
  1848 ;;		_X_axis
  1849 ;;		_Y_axis
  1850 ;;		_Z_axis
  1851 ;; This function is called by:
  1852 ;;		_start_up_menu
  1853 ;; This function uses a non-reentrant model
  1854 ;;
  1855                           
  1856                           	psect	text2
  1857  002426                     __ptext2:
  1858                           	callstack 0
  1859  002426                     _return_to_initial:
  1860                           	callstack 0
  1861  002426  FFFF               	dw	65535	; assembler added errata NOP
  1862  002428                     
  1863                           ;main.c: 608:     New_char_RX=0;
  1864  002428  0E00               	movlw	0
  1865  00242A  6E76               	movwf	_New_char_RX^0,c
  1866                           
  1867                           ;main.c: 609:     stop=0;
  1868  00242C  0E00               	movlw	0
  1869  00242E  6E75               	movwf	_stop^0,c
  1870  002430                     
  1871                           ;main.c: 610:     Steps=Step_X;
  1872  002430  C0B6  F05D         	movff	_Step_X,_Steps
  1873  002434  C0B7  F05E         	movff	_Step_X+1,_Steps+1
  1874                           
  1875                           ;main.c: 611:     for(int i = 0; i<Steps; i++){X_axis(0);}
  1876  002438  0E00               	movlw	0
  1877  00243A  6E11               	movwf	(return_to_initial@i+1)^0,c
  1878  00243C  0E00               	movlw	0
  1879  00243E  6E10               	movwf	return_to_initial@i^0,c
  1880  002440  EF28  F012         	goto	l4464
  1881  002444                     l4460:
  1882  002444  FFFF               	dw	65535	; assembler added errata NOP
  1883  002446  0E00               	movlw	0
  1884  002448  ECC5  F014         	call	_X_axis
  1885  00244C  4A10               	infsnz	return_to_initial@i^0,f,c
  1886  00244E  2A11               	incf	(return_to_initial@i+1)^0,f,c
  1887  002450                     l4464:
  1888  002450  FFFF               	dw	65535	; assembler added errata NOP
  1889  002452  505D               	movf	_Steps^0,w,c
  1890  002454  5C10               	subwf	return_to_initial@i^0,w,c
  1891  002456  5011               	movf	(return_to_initial@i+1)^0,w,c
  1892  002458  0A80               	xorlw	128
  1893  00245A  6E0F               	movwf	??_return_to_initial^0,c
  1894  00245C  505E               	movf	(_Steps+1)^0,w,c
  1895  00245E  0A80               	xorlw	128
  1896  002460  580F               	subwfb	??_return_to_initial^0,w,c
  1897  002462  A0D8               	btfss	status,0,c
  1898  002464  EF36  F012         	goto	u5191
  1899  002468  EF39  F012         	goto	u5190
  1900  00246C                     u5191:
  1901  00246C  FFFF               	dw	65535	; assembler added errata NOP
  1902  00246E  EF22  F012         	goto	l4460
  1903  002472                     u5190:
  1904  002472  FFFF               	dw	65535	; assembler added errata NOP
  1905  002474                     
  1906                           ;main.c: 612:     Steps=Step_Y;
  1907  002474  C0B4  F05D         	movff	_Step_Y,_Steps
  1908  002478  C0B5  F05E         	movff	_Step_Y+1,_Steps+1
  1909  00247C                     
  1910                           ;main.c: 613:     for(int i = 0; i<Steps; i++){Y_axis(0);}
  1911  00247C  0E00               	movlw	0
  1912  00247E  6E13               	movwf	(return_to_initial@i_669+1)^0,c
  1913  002480  0E00               	movlw	0
  1914  002482  6E12               	movwf	return_to_initial@i_669^0,c
  1915  002484  EF4A  F012         	goto	l4472
  1916  002488                     l4468:
  1917  002488  FFFF               	dw	65535	; assembler added errata NOP
  1918  00248A  0E00               	movlw	0
  1919  00248C  EC45  F014         	call	_Y_axis
  1920  002490  4A12               	infsnz	return_to_initial@i_669^0,f,c
  1921  002492  2A13               	incf	(return_to_initial@i_669+1)^0,f,c
  1922  002494                     l4472:
  1923  002494  FFFF               	dw	65535	; assembler added errata NOP
  1924  002496  505D               	movf	_Steps^0,w,c
  1925  002498  5C12               	subwf	return_to_initial@i_669^0,w,c
  1926  00249A  5013               	movf	(return_to_initial@i_669+1)^0,w,c
  1927  00249C  0A80               	xorlw	128
  1928  00249E  6E0F               	movwf	??_return_to_initial^0,c
  1929  0024A0  505E               	movf	(_Steps+1)^0,w,c
  1930  0024A2  0A80               	xorlw	128
  1931  0024A4  580F               	subwfb	??_return_to_initial^0,w,c
  1932  0024A6  A0D8               	btfss	status,0,c
  1933  0024A8  EF58  F012         	goto	u5201
  1934  0024AC  EF5B  F012         	goto	u5200
  1935  0024B0                     u5201:
  1936  0024B0  FFFF               	dw	65535	; assembler added errata NOP
  1937  0024B2  EF44  F012         	goto	l4468
  1938  0024B6                     u5200:
  1939  0024B6  FFFF               	dw	65535	; assembler added errata NOP
  1940  0024B8                     
  1941                           ;main.c: 614:     Steps=Step_Angle;
  1942  0024B8  C0B0  F05D         	movff	_Step_Angle,_Steps
  1943  0024BC  C0B1  F05E         	movff	_Step_Angle+1,_Steps+1
  1944  0024C0                     
  1945                           ;main.c: 615:     for(int i = 0; i<Steps; i++){Twister(0);}
  1946  0024C0  0E00               	movlw	0
  1947  0024C2  6E15               	movwf	(return_to_initial@i_670+1)^0,c
  1948  0024C4  0E00               	movlw	0
  1949  0024C6  6E14               	movwf	return_to_initial@i_670^0,c
  1950  0024C8  EF6C  F012         	goto	l4480
  1951  0024CC                     l4476:
  1952  0024CC  FFFF               	dw	65535	; assembler added errata NOP
  1953  0024CE  0E00               	movlw	0
  1954  0024D0  ECC2  F015         	call	_Twister
  1955  0024D4  4A14               	infsnz	return_to_initial@i_670^0,f,c
  1956  0024D6  2A15               	incf	(return_to_initial@i_670+1)^0,f,c
  1957  0024D8                     l4480:
  1958  0024D8  FFFF               	dw	65535	; assembler added errata NOP
  1959  0024DA  505D               	movf	_Steps^0,w,c
  1960  0024DC  5C14               	subwf	return_to_initial@i_670^0,w,c
  1961  0024DE  5015               	movf	(return_to_initial@i_670+1)^0,w,c
  1962  0024E0  0A80               	xorlw	128
  1963  0024E2  6E0F               	movwf	??_return_to_initial^0,c
  1964  0024E4  505E               	movf	(_Steps+1)^0,w,c
  1965  0024E6  0A80               	xorlw	128
  1966  0024E8  580F               	subwfb	??_return_to_initial^0,w,c
  1967  0024EA  A0D8               	btfss	status,0,c
  1968  0024EC  EF7A  F012         	goto	u5211
  1969  0024F0  EF7D  F012         	goto	u5210
  1970  0024F4                     u5211:
  1971  0024F4  FFFF               	dw	65535	; assembler added errata NOP
  1972  0024F6  EF66  F012         	goto	l4476
  1973  0024FA                     u5210:
  1974  0024FA  FFFF               	dw	65535	; assembler added errata NOP
  1975  0024FC                     
  1976                           ;main.c: 616:     Steps=Step_Z;
  1977  0024FC  C0B2  F05D         	movff	_Step_Z,_Steps
  1978  002500  C0B3  F05E         	movff	_Step_Z+1,_Steps+1
  1979  002504                     
  1980                           ;main.c: 617:     for(int i=0; i<Steps && !stop; i++){Z_axis(0);}
  1981  002504  0E00               	movlw	0
  1982  002506  6E17               	movwf	(return_to_initial@i_671+1)^0,c
  1983  002508  0E00               	movlw	0
  1984  00250A  6E16               	movwf	return_to_initial@i_671^0,c
  1985  00250C  EF8E  F012         	goto	l4488
  1986  002510                     l4484:
  1987  002510  FFFF               	dw	65535	; assembler added errata NOP
  1988  002512  0E00               	movlw	0
  1989  002514  ECC5  F013         	call	_Z_axis
  1990  002518  4A16               	infsnz	return_to_initial@i_671^0,f,c
  1991  00251A  2A17               	incf	(return_to_initial@i_671+1)^0,f,c
  1992  00251C                     l4488:
  1993  00251C  FFFF               	dw	65535	; assembler added errata NOP
  1994  00251E  505D               	movf	_Steps^0,w,c
  1995  002520  5C16               	subwf	return_to_initial@i_671^0,w,c
  1996  002522  5017               	movf	(return_to_initial@i_671+1)^0,w,c
  1997  002524  0A80               	xorlw	128
  1998  002526  6E0F               	movwf	??_return_to_initial^0,c
  1999  002528  505E               	movf	(_Steps+1)^0,w,c
  2000  00252A  0A80               	xorlw	128
  2001  00252C  580F               	subwfb	??_return_to_initial^0,w,c
  2002  00252E  B0D8               	btfsc	status,0,c
  2003  002530  EF9C  F012         	goto	u5221
  2004  002534  EF9F  F012         	goto	u5220
  2005  002538                     u5221:
  2006  002538  FFFF               	dw	65535	; assembler added errata NOP
  2007  00253A  EFA9  F012         	goto	l420
  2008  00253E                     u5220:
  2009  00253E  FFFF               	dw	65535	; assembler added errata NOP
  2010  002540  5075               	movf	_stop^0,w,c
  2011  002542  B4D8               	btfsc	status,2,c
  2012  002544  EFA6  F012         	goto	u5231
  2013  002548  EFA9  F012         	goto	u5230
  2014  00254C                     u5231:
  2015  00254C  FFFF               	dw	65535	; assembler added errata NOP
  2016  00254E  EF88  F012         	goto	l4484
  2017  002552                     u5230:
  2018  002552                     l420:
  2019  002552  FFFF               	dw	65535	; assembler added errata NOP
  2020  002554  0012               	return		;funcret
  2021  002556  FFFF               	dw	65535	; errata NOP
  2022  002558                     __end_of_return_to_initial:
  2023                           	callstack 0
  2024                           
  2025 ;; *************** function _remove_component *****************
  2026 ;; Defined at:
  2027 ;;		line 341 in file "main.c"
  2028 ;; Parameters:    Size  Location     Type
  2029 ;;		None
  2030 ;; Auto vars:     Size  Location     Type
  2031 ;;  indxToDel       2   28[COMRAM] int 
  2032 ;;  ptr             2   25[COMRAM] PTR unsigned char 
  2033 ;;		 -> sequence(4), NULL(0), 
  2034 ;;  rm_comp         1   27[COMRAM] unsigned char 
  2035 ;; Return value:  Size  Location     Type
  2036 ;;                  1    wreg      void 
  2037 ;; Registers used:
  2038 ;;		wreg, fsr1l, fsr1h, fsr2l, fsr2h, status,2, status,0, tblptrl, tblptrh, tblptru, cstack
  2039 ;; Tracked objects:
  2040 ;;		On entry : 0/0
  2041 ;;		On exit  : 0/0
  2042 ;;		Unchanged: 0/0
  2043 ;; Data sizes:     COMRAM   BANK0   BANK1   BANK2   BANK3   BANK4   BANK5
  2044 ;;      Params:         0       0       0       0       0       0       0
  2045 ;;      Locals:         5       0       0       0       0       0       0
  2046 ;;      Temps:          0       0       0       0       0       0       0
  2047 ;;      Totals:         5       0       0       0       0       0       0
  2048 ;;Total ram usage:        5 bytes
  2049 ;; Hardware stack levels used: 1
  2050 ;; Hardware stack levels required when called: 3
  2051 ;; This function calls:
  2052 ;;		_memmove
  2053 ;;		_print_string
  2054 ;;		_strlen
  2055 ;;		_strrchr
  2056 ;; This function is called by:
  2057 ;;		_start_up_menu
  2058 ;; This function uses a non-reentrant model
  2059 ;;
  2060                           
  2061                           	psect	text3
  2062  002680                     __ptext3:
  2063                           	callstack 0
  2064  002680                     _remove_component:
  2065                           	callstack 0
  2066  002680  FFFF               	dw	65535	; assembler added errata NOP
  2067  002682                     
  2068                           ;main.c: 342:     print_string("\nWhich component would you like to remove from the  seq
      +                          uence?\n");
  2069  002682  0E25               	movlw	low STR_15
  2070  002684  6E08               	movwf	print_string@strng^0,c
  2071  002686  0E7E               	movlw	high STR_15
  2072  002688  6E09               	movwf	(print_string@strng+1)^0,c
  2073  00268A  EC32  F016         	call	_print_string	;wreg free
  2074                           
  2075                           ;main.c: 343:     print_string(sequence);
  2076  00268E  0EF5               	movlw	low _sequence
  2077  002690  6E08               	movwf	print_string@strng^0,c
  2078  002692  0E00               	movlw	high _sequence
  2079  002694  6E09               	movwf	(print_string@strng+1)^0,c
  2080  002696  EC32  F016         	call	_print_string	;wreg free
  2081  00269A                     l3800:
  2082  00269A  FFFF               	dw	65535	; assembler added errata NOP
  2083                           
  2084                           ;main.c: 345:         if(New_char_RX){
  2085  00269C  5076               	movf	_New_char_RX^0,w,c
  2086  00269E  B4D8               	btfsc	status,2,c
  2087  0026A0  EF54  F013         	goto	u4301
  2088  0026A4  EF57  F013         	goto	u4300
  2089  0026A8                     u4301:
  2090  0026A8  FFFF               	dw	65535	; assembler added errata NOP
  2091  0026AA  EF4D  F013         	goto	l3800
  2092  0026AE                     u4300:
  2093  0026AE  FFFF               	dw	65535	; assembler added errata NOP
  2094  0026B0                     
  2095                           ;main.c: 346:             New_char_RX=0;
  2096  0026B0  0E00               	movlw	0
  2097  0026B2  6E76               	movwf	_New_char_RX^0,c
  2098  0026B4                     
  2099                           ;main.c: 347:             char rm_comp = input_str[0];
  2100  0026B4  C0EB  F01C         	movff	_input_str,remove_component@rm_comp	;volatile
  2101  0026B8                     
  2102                           ;main.c: 348:             char *ptr;;main.c: 349:             int indxToDel;;main.c: 350
      +                          :             ptr=strrchr(sequence,rm_comp);
  2103  0026B8  0EF5               	movlw	low _sequence
  2104  0026BA  6E16               	movwf	strrchr@s^0,c
  2105  0026BC  0E00               	movlw	high _sequence
  2106  0026BE  6E17               	movwf	(strrchr@s+1)^0,c
  2107  0026C0  C01C  F018         	movff	remove_component@rm_comp,strrchr@c
  2108  0026C4  6A19               	clrf	(strrchr@c+1)^0,c
  2109  0026C6  EC84  F018         	call	_strrchr	;wreg free
  2110  0026CA  C016  F01A         	movff	?_strrchr,remove_component@ptr
  2111  0026CE  C017  F01B         	movff	?_strrchr+1,remove_component@ptr+1
  2112  0026D2                     
  2113                           ;main.c: 352:             if (rm_comp=='Q'){
  2114  0026D2  0E51               	movlw	81
  2115  0026D4  181C               	xorwf	remove_component@rm_comp^0,w,c
  2116  0026D6  A4D8               	btfss	status,2,c
  2117  0026D8  EF70  F013         	goto	u4311
  2118  0026DC  EF73  F013         	goto	u4310
  2119  0026E0                     u4311:
  2120  0026E0  FFFF               	dw	65535	; assembler added errata NOP
  2121  0026E2  EF76  F013         	goto	l3814
  2122  0026E6                     u4310:
  2123  0026E6  FFFF               	dw	65535	; assembler added errata NOP
  2124  0026E8  EFC0  F013         	goto	l3830
  2125  0026EC                     l3814:
  2126  0026EC  FFFF               	dw	65535	; assembler added errata NOP
  2127  0026EE  501A               	movf	remove_component@ptr^0,w,c
  2128  0026F0  101B               	iorwf	(remove_component@ptr+1)^0,w,c
  2129  0026F2  B4D8               	btfsc	status,2,c
  2130  0026F4  EF7E  F013         	goto	u4321
  2131  0026F8  EF81  F013         	goto	u4320
  2132  0026FC                     u4321:
  2133  0026FC  FFFF               	dw	65535	; assembler added errata NOP
  2134  0026FE  EFAC  F013         	goto	l3826
  2135  002702                     u4320:
  2136  002702  FFFF               	dw	65535	; assembler added errata NOP
  2137  002704                     
  2138                           ;main.c: 356:                 indxToDel = ptr - sequence;
  2139  002704  0EF5               	movlw	low _sequence
  2140  002706  5C1A               	subwf	remove_component@ptr^0,w,c
  2141  002708  6E1D               	movwf	remove_component@indxToDel^0,c
  2142  00270A  0E00               	movlw	high _sequence
  2143  00270C  581B               	subwfb	(remove_component@ptr+1)^0,w,c
  2144  00270E  6E1E               	movwf	(remove_component@indxToDel+1)^0,c
  2145  002710                     
  2146                           ;main.c: 357:                 memmove(&sequence[indxToDel], &sequence[indxToDel + 1], st
      +                          rlen(sequence) - indxToDel);
  2147  002710  0EF5               	movlw	low _sequence
  2148  002712  241D               	addwf	remove_component@indxToDel^0,w,c
  2149  002714  6E0C               	movwf	memmove@d1^0,c
  2150  002716  0E00               	movlw	high _sequence
  2151  002718  201E               	addwfc	(remove_component@indxToDel+1)^0,w,c
  2152  00271A  6E0D               	movwf	(memmove@d1+1)^0,c
  2153  00271C  0EF6               	movlw	low (_sequence+1)
  2154  00271E  241D               	addwf	remove_component@indxToDel^0,w,c
  2155  002720  6E0E               	movwf	memmove@s1^0,c
  2156  002722  0E00               	movlw	high (_sequence+1)
  2157  002724  201E               	addwfc	(remove_component@indxToDel+1)^0,w,c
  2158  002726  6E0F               	movwf	(memmove@s1+1)^0,c
  2159  002728  0EF5               	movlw	low _sequence
  2160  00272A  6E08               	movwf	strlen@s^0,c
  2161  00272C  0E00               	movlw	high _sequence
  2162  00272E  6E09               	movwf	(strlen@s+1)^0,c
  2163  002730  EC01  F018         	call	_strlen	;wreg free
  2164  002734  501D               	movf	remove_component@indxToDel^0,w,c
  2165  002736  5C08               	subwf	?_strlen^0,w,c
  2166  002738  6E10               	movwf	memmove@n^0,c
  2167  00273A  501E               	movf	(remove_component@indxToDel+1)^0,w,c
  2168  00273C  5809               	subwfb	(?_strlen+1)^0,w,c
  2169  00273E  6E11               	movwf	(memmove@n+1)^0,c
  2170  002740  EC45  F015         	call	_memmove	;wreg free
  2171  002744                     
  2172                           ;main.c: 358:                 print_string("\ncomponent removed");
  2173  002744  0EEA               	movlw	low STR_16
  2174  002746  6E08               	movwf	print_string@strng^0,c
  2175  002748  0E7F               	movlw	high STR_16
  2176  00274A  6E09               	movwf	(print_string@strng+1)^0,c
  2177  00274C  EC32  F016         	call	_print_string	;wreg free
  2178  002750                     
  2179                           ;main.c: 359:                 stop=0;
  2180  002750  0E00               	movlw	0
  2181  002752  6E75               	movwf	_stop^0,c
  2182                           
  2183                           ;main.c: 360:                 break;
  2184  002754  EFC0  F013         	goto	l3830
  2185  002758                     l3826:
  2186  002758  FFFF               	dw	65535	; assembler added errata NOP
  2187                           
  2188                           ;main.c: 364:                 print_string("\ncomponent is not in the sequence. Try sele
      +                          cting another component: \n");
  2189  00275A  0EDF               	movlw	low STR_17
  2190  00275C  6E08               	movwf	print_string@strng^0,c
  2191  00275E  0E7D               	movlw	high STR_17
  2192  002760  6E09               	movwf	(print_string@strng+1)^0,c
  2193  002762  EC32  F016         	call	_print_string	;wreg free
  2194  002766                     l3828:
  2195  002766  FFFF               	dw	65535	; assembler added errata NOP
  2196  002768  5076               	movf	_New_char_RX^0,w,c
  2197  00276A  B4D8               	btfsc	status,2,c
  2198  00276C  EFBA  F013         	goto	u4331
  2199  002770  EFBD  F013         	goto	u4330
  2200  002774                     u4331:
  2201  002774  FFFF               	dw	65535	; assembler added errata NOP
  2202  002776  EFB3  F013         	goto	l3828
  2203  00277A                     u4330:
  2204  00277A  FFFF               	dw	65535	; assembler added errata NOP
  2205  00277C  EF4D  F013         	goto	l3800
  2206  002780                     l3830:
  2207  002780  FFFF               	dw	65535	; assembler added errata NOP
  2208                           
  2209                           ;main.c: 369:     New_char_RX=0;
  2210  002782  0E00               	movlw	0
  2211  002784  6E76               	movwf	_New_char_RX^0,c
  2212  002786  0012               	return		;funcret
  2213  002788  FFFF               	dw	65535	; errata NOP
  2214  00278A                     __end_of_remove_component:
  2215                           	callstack 0
  2216                           
  2217 ;; *************** function _strrchr *****************
  2218 ;; Defined at:
  2219 ;;		line 5 in file "/opt/microchip/xc8/v2.32/pic/sources/c99/common/strrchr.c"
  2220 ;; Parameters:    Size  Location     Type
  2221 ;;  s               2   21[COMRAM] PTR const unsigned char 
  2222 ;;		 -> sequence(4), 
  2223 ;;  c               2   23[COMRAM] int 
  2224 ;; Auto vars:     Size  Location     Type
  2225 ;;		None
  2226 ;; Return value:  Size  Location     Type
  2227 ;;                  2   21[COMRAM] PTR unsigned char 
  2228 ;; Registers used:
  2229 ;;		wreg, fsr2l, fsr2h, status,2, status,0, cstack
  2230 ;; Tracked objects:
  2231 ;;		On entry : 0/0
  2232 ;;		On exit  : 0/0
  2233 ;;		Unchanged: 0/0
  2234 ;; Data sizes:     COMRAM   BANK0   BANK1   BANK2   BANK3   BANK4   BANK5
  2235 ;;      Params:         4       0       0       0       0       0       0
  2236 ;;      Locals:         0       0       0       0       0       0       0
  2237 ;;      Temps:          0       0       0       0       0       0       0
  2238 ;;      Totals:         4       0       0       0       0       0       0
  2239 ;;Total ram usage:        4 bytes
  2240 ;; Hardware stack levels used: 1
  2241 ;; Hardware stack levels required when called: 2
  2242 ;; This function calls:
  2243 ;;		___memrchr
  2244 ;;		_strlen
  2245 ;; This function is called by:
  2246 ;;		_remove_component
  2247 ;; This function uses a non-reentrant model
  2248 ;;
  2249                           
  2250                           	psect	text4
  2251  003108                     __ptext4:
  2252                           	callstack 0
  2253  003108                     _strrchr:
  2254                           	callstack 0
  2255  003108  FFFF               	dw	65535	; assembler added errata NOP
  2256  00310A  C016  F00C         	movff	strrchr@s,___memrchr@m
  2257  00310E  C017  F00D         	movff	strrchr@s+1,___memrchr@m+1
  2258  003112  C018  F00E         	movff	strrchr@c,___memrchr@c
  2259  003116  C019  F00F         	movff	strrchr@c+1,___memrchr@c+1
  2260  00311A  C016  F008         	movff	strrchr@s,strlen@s
  2261  00311E  C017  F009         	movff	strrchr@s+1,strlen@s+1
  2262  003122  EC01  F018         	call	_strlen	;wreg free
  2263  003126  0E01               	movlw	1
  2264  003128  2408               	addwf	?_strlen^0,w,c
  2265  00312A  6E10               	movwf	___memrchr@n^0,c
  2266  00312C  0E00               	movlw	0
  2267  00312E  2009               	addwfc	(?_strlen+1)^0,w,c
  2268  003130  6E11               	movwf	(___memrchr@n+1)^0,c
  2269  003132  EC11  F017         	call	___memrchr	;wreg free
  2270  003136  C00C  F016         	movff	?___memrchr,?_strrchr
  2271  00313A  C00D  F017         	movff	?___memrchr+1,?_strrchr+1
  2272  00313E  0012               	return		;funcret
  2273  003140  FFFF               	dw	65535	; errata NOP
  2274  003142                     __end_of_strrchr:
  2275                           	callstack 0
  2276                           
  2277 ;; *************** function ___memrchr *****************
  2278 ;; Defined at:
  2279 ;;		line 4 in file "/opt/microchip/xc8/v2.32/pic/sources/c99/common/memrchr.c"
  2280 ;; Parameters:    Size  Location     Type
  2281 ;;  m               2   11[COMRAM] PTR const void 
  2282 ;;		 -> sequence(4), 
  2283 ;;  c               2   13[COMRAM] int 
  2284 ;;  n               2   15[COMRAM] unsigned int 
  2285 ;; Auto vars:     Size  Location     Type
  2286 ;;  s               2   19[COMRAM] PTR const unsigned char 
  2287 ;;		 -> sequence(4), 
  2288 ;; Return value:  Size  Location     Type
  2289 ;;                  2   11[COMRAM] PTR void 
  2290 ;; Registers used:
  2291 ;;		wreg, fsr2l, fsr2h, status,2, status,0
  2292 ;; Tracked objects:
  2293 ;;		On entry : 0/0
  2294 ;;		On exit  : 0/0
  2295 ;;		Unchanged: 0/0
  2296 ;; Data sizes:     COMRAM   BANK0   BANK1   BANK2   BANK3   BANK4   BANK5
  2297 ;;      Params:         6       0       0       0       0       0       0
  2298 ;;      Locals:         2       0       0       0       0       0       0
  2299 ;;      Temps:          2       0       0       0       0       0       0
  2300 ;;      Totals:        10       0       0       0       0       0       0
  2301 ;;Total ram usage:       10 bytes
  2302 ;; Hardware stack levels used: 1
  2303 ;; Hardware stack levels required when called: 1
  2304 ;; This function calls:
  2305 ;;		Nothing
  2306 ;; This function is called by:
  2307 ;;		_strrchr
  2308 ;; This function uses a non-reentrant model
  2309 ;;
  2310                           
  2311                           	psect	text5
  2312  002E22                     __ptext5:
  2313                           	callstack 0
  2314  002E22                     ___memrchr:
  2315                           	callstack 0
  2316  002E22  FFFF               	dw	65535	; assembler added errata NOP
  2317  002E24  C00C  F014         	movff	___memrchr@m,___memrchr@s
  2318  002E28  C00D  F015         	movff	___memrchr@m+1,___memrchr@s+1
  2319  002E2C  C00E  F00E         	movff	___memrchr@c,___memrchr@c
  2320  002E30  6A0F               	clrf	(___memrchr@c+1)^0,c
  2321  002E32  EF3B  F017         	goto	l2880
  2322  002E36                     l2874:
  2323  002E36  FFFF               	dw	65535	; assembler added errata NOP
  2324  002E38  5010               	movf	___memrchr@n^0,w,c
  2325  002E3A  2414               	addwf	___memrchr@s^0,w,c
  2326  002E3C  6ED9               	movwf	fsr2l,c
  2327  002E3E  5011               	movf	(___memrchr@n+1)^0,w,c
  2328  002E40  2015               	addwfc	(___memrchr@s+1)^0,w,c
  2329  002E42  6EDA               	movwf	fsr2h,c
  2330  002E44  50DF               	movf	indf2,w,c
  2331  002E46  6E12               	movwf	??___memrchr^0,c
  2332  002E48  6A13               	clrf	(??___memrchr+1)^0,c
  2333  002E4A  500E               	movf	___memrchr@c^0,w,c
  2334  002E4C  1812               	xorwf	??___memrchr^0,w,c
  2335  002E4E  E107               	bnz	u2741
  2336  002E50  500F               	movf	(___memrchr@c+1)^0,w,c
  2337  002E52  1813               	xorwf	(??___memrchr+1)^0,w,c
  2338  002E54  A4D8               	btfss	status,2,c
  2339  002E56  EF2F  F017         	goto	u2741
  2340  002E5A  EF32  F017         	goto	u2740
  2341  002E5E                     u2741:
  2342  002E5E  FFFF               	dw	65535	; assembler added errata NOP
  2343  002E60  EF3B  F017         	goto	l2880
  2344  002E64                     u2740:
  2345  002E64  FFFF               	dw	65535	; assembler added errata NOP
  2346  002E66  5010               	movf	___memrchr@n^0,w,c
  2347  002E68  2414               	addwf	___memrchr@s^0,w,c
  2348  002E6A  6E0C               	movwf	?___memrchr^0,c
  2349  002E6C  5011               	movf	(___memrchr@n+1)^0,w,c
  2350  002E6E  2015               	addwfc	(___memrchr@s+1)^0,w,c
  2351  002E70  6E0D               	movwf	(?___memrchr+1)^0,c
  2352  002E72  EF4F  F017         	goto	l1215
  2353  002E76                     l2880:
  2354  002E76  FFFF               	dw	65535	; assembler added errata NOP
  2355  002E78  0610               	decf	___memrchr@n^0,f,c
  2356  002E7A  A0D8               	btfss	status,0,c
  2357  002E7C  0611               	decf	(___memrchr@n+1)^0,f,c
  2358  002E7E  2810               	incf	___memrchr@n^0,w,c
  2359  002E80  E106               	bnz	u2751
  2360  002E82  2811               	incf	(___memrchr@n+1)^0,w,c
  2361  002E84  A4D8               	btfss	status,2,c
  2362  002E86  EF47  F017         	goto	u2751
  2363  002E8A  EF4A  F017         	goto	u2750
  2364  002E8E                     u2751:
  2365  002E8E  FFFF               	dw	65535	; assembler added errata NOP
  2366  002E90  EF1B  F017         	goto	l2874
  2367  002E94                     u2750:
  2368  002E94  FFFF               	dw	65535	; assembler added errata NOP
  2369  002E96  0E00               	movlw	0
  2370  002E98  6E0C               	movwf	?___memrchr^0,c
  2371  002E9A  0E00               	movlw	0
  2372  002E9C  6E0D               	movwf	(?___memrchr+1)^0,c
  2373  002E9E                     l1215:
  2374  002E9E  FFFF               	dw	65535	; assembler added errata NOP
  2375  002EA0  0012               	return		;funcret
  2376  002EA2  FFFF               	dw	65535	; errata NOP
  2377  002EA4                     __end_of___memrchr:
  2378                           	callstack 0
  2379                           
  2380 ;; *************** function _memmove *****************
  2381 ;; Defined at:
  2382 ;;		line 4 in file "/opt/microchip/xc8/v2.32/pic/sources/c99/common/memmove.c"
  2383 ;; Parameters:    Size  Location     Type
  2384 ;;  d1              2   11[COMRAM] PTR void 
  2385 ;;		 -> sequence(4), 
  2386 ;;  s1              2   13[COMRAM] PTR const void 
  2387 ;;		 -> sequence(4), 
  2388 ;;  n               2   15[COMRAM] unsigned int 
  2389 ;; Auto vars:     Size  Location     Type
  2390 ;;  s               2   21[COMRAM] PTR const unsigned char 
  2391 ;;		 -> sequence(4), 
  2392 ;;  d               2   19[COMRAM] PTR unsigned char 
  2393 ;;		 -> sequence(4), 
  2394 ;; Return value:  Size  Location     Type
  2395 ;;                  2   11[COMRAM] PTR void 
  2396 ;; Registers used:
  2397 ;;		wreg, fsr1l, fsr1h, fsr2l, fsr2h, status,2, status,0
  2398 ;; Tracked objects:
  2399 ;;		On entry : 0/0
  2400 ;;		On exit  : 0/0
  2401 ;;		Unchanged: 0/0
  2402 ;; Data sizes:     COMRAM   BANK0   BANK1   BANK2   BANK3   BANK4   BANK5
  2403 ;;      Params:         6       0       0       0       0       0       0
  2404 ;;      Locals:         4       0       0       0       0       0       0
  2405 ;;      Temps:          2       0       0       0       0       0       0
  2406 ;;      Totals:        12       0       0       0       0       0       0
  2407 ;;Total ram usage:       12 bytes
  2408 ;; Hardware stack levels used: 1
  2409 ;; Hardware stack levels required when called: 1
  2410 ;; This function calls:
  2411 ;;		Nothing
  2412 ;; This function is called by:
  2413 ;;		_remove_component
  2414 ;; This function uses a non-reentrant model
  2415 ;;
  2416                           
  2417                           	psect	text6
  2418  002A8A                     __ptext6:
  2419                           	callstack 0
  2420  002A8A                     _memmove:
  2421                           	callstack 0
  2422  002A8A  FFFF               	dw	65535	; assembler added errata NOP
  2423  002A8C  C00E  F016         	movff	memmove@s1,memmove@s
  2424  002A90  C00F  F017         	movff	memmove@s1+1,memmove@s+1
  2425  002A94  C00C  F014         	movff	memmove@d1,memmove@d
  2426  002A98  C00D  F015         	movff	memmove@d1+1,memmove@d+1
  2427  002A9C  5014               	movf	memmove@d^0,w,c
  2428  002A9E  5C16               	subwf	memmove@s^0,w,c
  2429  002AA0  5015               	movf	(memmove@d+1)^0,w,c
  2430  002AA2  5817               	subwfb	(memmove@s+1)^0,w,c
  2431  002AA4  B0D8               	btfsc	status,0,c
  2432  002AA6  EF57  F015         	goto	u2891
  2433  002AAA  EF5A  F015         	goto	u2890
  2434  002AAE                     u2891:
  2435  002AAE  FFFF               	dw	65535	; assembler added errata NOP
  2436  002AB0  EF97  F015         	goto	l2972
  2437  002AB4                     u2890:
  2438  002AB4  FFFF               	dw	65535	; assembler added errata NOP
  2439  002AB6  5010               	movf	memmove@n^0,w,c
  2440  002AB8  2416               	addwf	memmove@s^0,w,c
  2441  002ABA  6E12               	movwf	??_memmove^0,c
  2442  002ABC  5011               	movf	(memmove@n+1)^0,w,c
  2443  002ABE  2017               	addwfc	(memmove@s+1)^0,w,c
  2444  002AC0  6E13               	movwf	(??_memmove+1)^0,c
  2445  002AC2  5012               	movf	??_memmove^0,w,c
  2446  002AC4  5C14               	subwf	memmove@d^0,w,c
  2447  002AC6  5013               	movf	(??_memmove+1)^0,w,c
  2448  002AC8  5815               	subwfb	(memmove@d+1)^0,w,c
  2449  002ACA  B0D8               	btfsc	status,0,c
  2450  002ACC  EF6A  F015         	goto	u2901
  2451  002AD0  EF6D  F015         	goto	u2900
  2452  002AD4                     u2901:
  2453  002AD4  FFFF               	dw	65535	; assembler added errata NOP
  2454  002AD6  EF97  F015         	goto	l2972
  2455  002ADA                     u2900:
  2456  002ADA  FFFF               	dw	65535	; assembler added errata NOP
  2457  002ADC  5010               	movf	memmove@n^0,w,c
  2458  002ADE  2616               	addwf	memmove@s^0,f,c
  2459  002AE0  5011               	movf	(memmove@n+1)^0,w,c
  2460  002AE2  2217               	addwfc	(memmove@s+1)^0,f,c
  2461  002AE4  5010               	movf	memmove@n^0,w,c
  2462  002AE6  2614               	addwf	memmove@d^0,f,c
  2463  002AE8  5011               	movf	(memmove@n+1)^0,w,c
  2464  002AEA  2215               	addwfc	(memmove@d+1)^0,f,c
  2465  002AEC                     l2968:
  2466  002AEC  FFFF               	dw	65535	; assembler added errata NOP
  2467  002AEE  0616               	decf	memmove@s^0,f,c
  2468  002AF0  A0D8               	btfss	status,0,c
  2469  002AF2  0617               	decf	(memmove@s+1)^0,f,c
  2470  002AF4  C016  FFD9         	movff	memmove@s,fsr2l
  2471  002AF8  C017  FFDA         	movff	memmove@s+1,fsr2h
  2472  002AFC  0614               	decf	memmove@d^0,f,c
  2473  002AFE  A0D8               	btfss	status,0,c
  2474  002B00  0615               	decf	(memmove@d+1)^0,f,c
  2475  002B02  C014  FFE1         	movff	memmove@d,fsr1l
  2476  002B06  C015  FFE2         	movff	memmove@d+1,fsr1h
  2477  002B0A  CFDF FFE7          	movff	indf2,indf1
  2478  002B0E  0610               	decf	memmove@n^0,f,c
  2479  002B10  A0D8               	btfss	status,0,c
  2480  002B12  0611               	decf	(memmove@n+1)^0,f,c
  2481  002B14  5010               	movf	memmove@n^0,w,c
  2482  002B16  1011               	iorwf	(memmove@n+1)^0,w,c
  2483  002B18  A4D8               	btfss	status,2,c
  2484  002B1A  EF91  F015         	goto	u2911
  2485  002B1E  EF94  F015         	goto	u2910
  2486  002B22                     u2911:
  2487  002B22  FFFF               	dw	65535	; assembler added errata NOP
  2488  002B24  EF76  F015         	goto	l2968
  2489  002B28                     u2910:
  2490  002B28  FFFF               	dw	65535	; assembler added errata NOP
  2491  002B2A  EFBF  F015         	goto	l1171
  2492  002B2E                     l2972:
  2493  002B2E  FFFF               	dw	65535	; assembler added errata NOP
  2494  002B30  5010               	movf	memmove@n^0,w,c
  2495  002B32  1011               	iorwf	(memmove@n+1)^0,w,c
  2496  002B34  B4D8               	btfsc	status,2,c
  2497  002B36  EF9F  F015         	goto	u2921
  2498  002B3A  EFA2  F015         	goto	u2920
  2499  002B3E                     u2921:
  2500  002B3E  FFFF               	dw	65535	; assembler added errata NOP
  2501  002B40  EFBF  F015         	goto	l1171
  2502  002B44                     u2920:
  2503  002B44  FFFF               	dw	65535	; assembler added errata NOP
  2504  002B46                     l2974:
  2505  002B46  FFFF               	dw	65535	; assembler added errata NOP
  2506  002B48  C016  FFD9         	movff	memmove@s,fsr2l
  2507  002B4C  C017  FFDA         	movff	memmove@s+1,fsr2h
  2508  002B50  C014  FFE1         	movff	memmove@d,fsr1l
  2509  002B54  C015  FFE2         	movff	memmove@d+1,fsr1h
  2510  002B58  CFDF FFE7          	movff	indf2,indf1
  2511  002B5C  4A16               	infsnz	memmove@s^0,f,c
  2512  002B5E  2A17               	incf	(memmove@s+1)^0,f,c
  2513  002B60  4A14               	infsnz	memmove@d^0,f,c
  2514  002B62  2A15               	incf	(memmove@d+1)^0,f,c
  2515  002B64  0610               	decf	memmove@n^0,f,c
  2516  002B66  A0D8               	btfss	status,0,c
  2517  002B68  0611               	decf	(memmove@n+1)^0,f,c
  2518  002B6A  5010               	movf	memmove@n^0,w,c
  2519  002B6C  1011               	iorwf	(memmove@n+1)^0,w,c
  2520  002B6E  A4D8               	btfss	status,2,c
  2521  002B70  EFBC  F015         	goto	u2931
  2522  002B74  EFBF  F015         	goto	u2930
  2523  002B78                     u2931:
  2524  002B78  FFFF               	dw	65535	; assembler added errata NOP
  2525  002B7A  EFA3  F015         	goto	l2974
  2526  002B7E                     u2930:
  2527  002B7E                     l1171:
  2528  002B7E  FFFF               	dw	65535	; assembler added errata NOP
  2529  002B80  0012               	return		;funcret
  2530  002B82  FFFF               	dw	65535	; errata NOP
  2531  002B84                     __end_of_memmove:
  2532                           	callstack 0
  2533                           
  2534 ;; *************** function _pick_and_place *****************
  2535 ;; Defined at:
  2536 ;;		line 564 in file "main.c"
  2537 ;; Parameters:    Size  Location     Type
  2538 ;;  Componnt        1    wreg     unsigned char 
  2539 ;; Auto vars:     Size  Location     Type
  2540 ;;  Componnt        1    0[BANK0 ] unsigned char 
  2541 ;;  i               2   31[BANK0 ] int 
  2542 ;;  i               2   29[BANK0 ] int 
  2543 ;;  i               2   25[BANK0 ] int 
  2544 ;;  i               2   21[BANK0 ] int 
  2545 ;;  i               2   17[BANK0 ] int 
  2546 ;;  i               2   15[BANK0 ] int 
  2547 ;;  i               2   13[BANK0 ] int 
  2548 ;;  i               2    9[BANK0 ] int 
  2549 ;;  i               2    5[BANK0 ] int 
  2550 ;;  i               2    1[BANK0 ] int 
  2551 ;; Return value:  Size  Location     Type
  2552 ;;                  2   76[None  ] int 
  2553 ;; Registers used:
  2554 ;;		wreg, status,2, status,0, cstack
  2555 ;; Tracked objects:
  2556 ;;		On entry : 0/0
  2557 ;;		On exit  : 0/0
  2558 ;;		Unchanged: 0/0
  2559 ;; Data sizes:     COMRAM   BANK0   BANK1   BANK2   BANK3   BANK4   BANK5
  2560 ;;      Params:         0       0       0       0       0       0       0
  2561 ;;      Locals:         0      33       0       0       0       0       0
  2562 ;;      Temps:          2       0       0       0       0       0       0
  2563 ;;      Totals:         2      33       0       0       0       0       0
  2564 ;;Total ram usage:       35 bytes
  2565 ;; Hardware stack levels used: 1
  2566 ;; Hardware stack levels required when called: 3
  2567 ;; This function calls:
  2568 ;;		_Twister
  2569 ;;		_X_axis
  2570 ;;		_Y_axis
  2571 ;;		_Z_axis
  2572 ;;		___fldiv
  2573 ;;		___flge
  2574 ;;		___xxtofl
  2575 ;;		_fetch_parameters
  2576 ;; This function is called by:
  2577 ;;		_start_up_menu
  2578 ;; This function uses a non-reentrant model
  2579 ;;
  2580                           
  2581                           	psect	text7
  2582  0000E0                     __ptext7:
  2583                           	callstack 0
  2584  0000E0                     _pick_and_place:
  2585                           	callstack 0
  2586  0000E0  FFFF               	dw	65535	; assembler added errata NOP
  2587                           
  2588                           ;incstack = 0
  2589                           ;pick_and_place@Componnt stored from wreg
  2590  0000E2  0100               	movlb	0	; () banked
  2591  0000E4  6FBE               	movwf	pick_and_place@Componnt& (0+255),b
  2592  0000E6                     
  2593                           ;main.c: 564: int pick_and_place(char Componnt);main.c: 565: {;main.c: 568:     fetch_pa
      +                          rameters(Componnt);
  2594  0000E6  0100               	movlb	0	; () banked
  2595  0000E8  51BE               	movf	pick_and_place@Componnt& (0+255),w,b
  2596  0000EA  ECDB  F010         	call	_fetch_parameters
  2597  0000EE                     
  2598                           ;main.c: 570:         X_dir=((X_diff<X_Pick)? 1:0);
  2599  0000EE  506F               	movf	_X_Pick^0,w,c
  2600  0000F0  5C63               	subwf	_X_diff^0,w,c
  2601  0000F2  5064               	movf	(_X_diff+1)^0,w,c
  2602  0000F4  0A80               	xorlw	128
  2603  0000F6  6E3B               	movwf	??_pick_and_place^0,c
  2604  0000F8  5070               	movf	(_X_Pick+1)^0,w,c
  2605  0000FA  0A80               	xorlw	128
  2606  0000FC  583B               	subwfb	??_pick_and_place^0,w,c
  2607  0000FE  A0D8               	btfss	status,0,c
  2608  000100  EF84  F000         	goto	u5241
  2609  000104  EF88  F000         	goto	u5240
  2610  000108                     u5241:
  2611  000108  FFFF               	dw	65535	; assembler added errata NOP
  2612  00010A  0E01               	movlw	1
  2613  00010C  EF8A  F000         	goto	u5250
  2614  000110                     u5240:
  2615  000110  FFFF               	dw	65535	; assembler added errata NOP
  2616  000112  0E00               	movlw	0
  2617  000114                     u5250:
  2618  000114  FFFF               	dw	65535	; assembler added errata NOP
  2619  000116  6E74               	movwf	_X_dir^0,c
  2620  000118                     
  2621                           ;main.c: 571:         Y_dir=((Y_diff<Y_Pick)? 1:0);
  2622  000118  506B               	movf	_Y_Pick^0,w,c
  2623  00011A  5C61               	subwf	_Y_diff^0,w,c
  2624  00011C  5062               	movf	(_Y_diff+1)^0,w,c
  2625  00011E  0A80               	xorlw	128
  2626  000120  6E3B               	movwf	??_pick_and_place^0,c
  2627  000122  506C               	movf	(_Y_Pick+1)^0,w,c
  2628  000124  0A80               	xorlw	128
  2629  000126  583B               	subwfb	??_pick_and_place^0,w,c
  2630  000128  A0D8               	btfss	status,0,c
  2631  00012A  EF99  F000         	goto	u5261
  2632  00012E  EF9D  F000         	goto	u5260
  2633  000132                     u5261:
  2634  000132  FFFF               	dw	65535	; assembler added errata NOP
  2635  000134  0E01               	movlw	1
  2636  000136  EF9F  F000         	goto	u5270
  2637  00013A                     u5260:
  2638  00013A  FFFF               	dw	65535	; assembler added errata NOP
  2639  00013C  0E00               	movlw	0
  2640  00013E                     u5270:
  2641  00013E  FFFF               	dw	65535	; assembler added errata NOP
  2642  000140  6E73               	movwf	_Y_dir^0,c
  2643  000142                     
  2644                           ;main.c: 572:         Rot_dir=((Angle_diff<Pick_Angle)? 1:0);
  2645  000142  5067               	movf	_Pick_Angle^0,w,c
  2646  000144  5C5F               	subwf	_Angle_diff^0,w,c
  2647  000146  5060               	movf	(_Angle_diff+1)^0,w,c
  2648  000148  0A80               	xorlw	128
  2649  00014A  6E3B               	movwf	??_pick_and_place^0,c
  2650  00014C  5068               	movf	(_Pick_Angle+1)^0,w,c
  2651  00014E  0A80               	xorlw	128
  2652  000150  583B               	subwfb	??_pick_and_place^0,w,c
  2653  000152  A0D8               	btfss	status,0,c
  2654  000154  EFAE  F000         	goto	u5281
  2655  000158  EFB2  F000         	goto	u5280
  2656  00015C                     u5281:
  2657  00015C  FFFF               	dw	65535	; assembler added errata NOP
  2658  00015E  0E01               	movlw	1
  2659  000160  EFB4  F000         	goto	u5290
  2660  000164                     u5280:
  2661  000164  FFFF               	dw	65535	; assembler added errata NOP
  2662  000166  0E00               	movlw	0
  2663  000168                     u5290:
  2664  000168  FFFF               	dw	65535	; assembler added errata NOP
  2665  00016A  6E72               	movwf	_Rot_dir^0,c
  2666  00016C                     
  2667                           ;main.c: 574:         for(int i = 0; (i<(((X_Pick-X_diff) > 0 ? (X_Pick-X_diff) : -(X_Pi
      +                          ck-X_diff)))) && !stop; i++){X_axis(X_dir);}
  2668  00016C  0E00               	movlw	0
  2669  00016E  0100               	movlb	0	; () banked
  2670  000170  6FC0               	movwf	(pick_and_place@i+1)& (0+255),b
  2671  000172  0E00               	movlw	0
  2672  000174  6FBF               	movwf	pick_and_place@i& (0+255),b
  2673  000176  EFC4  F000         	goto	l4506
  2674  00017A                     l4502:
  2675  00017A  FFFF               	dw	65535	; assembler added errata NOP
  2676                           
  2677                           ; BSR set to: 0
  2678  00017C  5074               	movf	_X_dir^0,w,c
  2679  00017E  ECC5  F014         	call	_X_axis
  2680  000182  0100               	movlb	0	; () banked
  2681  000184  4BBF               	infsnz	pick_and_place@i& (0+255),f,b
  2682  000186  2BC0               	incf	(pick_and_place@i+1)& (0+255),f,b
  2683  000188                     l4506:
  2684  000188  FFFF               	dw	65535	; assembler added errata NOP
  2685                           
  2686                           ; BSR set to: 0
  2687  00018A  5063               	movf	_X_diff^0,w,c
  2688  00018C  5C6F               	subwf	_X_Pick^0,w,c
  2689  00018E  6E3B               	movwf	??_pick_and_place^0,c
  2690  000190  5064               	movf	(_X_diff+1)^0,w,c
  2691  000192  5870               	subwfb	(_X_Pick+1)^0,w,c
  2692  000194  6E3C               	movwf	(??_pick_and_place+1)^0,c
  2693  000196  BE3C               	btfsc	(??_pick_and_place+1)^0,7,c
  2694  000198  EFD9  F000         	goto	u5300
  2695  00019C  503C               	movf	(??_pick_and_place+1)^0,w,c
  2696  00019E  E106               	bnz	u5301
  2697  0001A0  043B               	decf	??_pick_and_place^0,w,c
  2698  0001A2  B0D8               	btfsc	status,0,c
  2699  0001A4  EFD6  F000         	goto	u5301
  2700  0001A8  EFD9  F000         	goto	u5300
  2701  0001AC                     u5301:
  2702  0001AC  FFFF               	dw	65535	; assembler added errata NOP
  2703  0001AE  EFEA  F000         	goto	l4510
  2704  0001B2                     u5300:
  2705  0001B2  FFFF               	dw	65535	; assembler added errata NOP
  2706  0001B4                     
  2707                           ; BSR set to: 0
  2708  0001B4  5063               	movf	_X_diff^0,w,c
  2709  0001B6  5C6F               	subwf	_X_Pick^0,w,c
  2710  0001B8  6E3B               	movwf	??_pick_and_place^0,c
  2711  0001BA  5064               	movf	(_X_diff+1)^0,w,c
  2712  0001BC  5870               	subwfb	(_X_Pick+1)^0,w,c
  2713  0001BE  6E3C               	movwf	(??_pick_and_place+1)^0,c
  2714  0001C0  1E3B               	comf	??_pick_and_place^0,f,c
  2715  0001C2  1E3C               	comf	(??_pick_and_place+1)^0,f,c
  2716  0001C4  4A3B               	infsnz	??_pick_and_place^0,f,c
  2717  0001C6  2A3C               	incf	(??_pick_and_place+1)^0,f,c
  2718  0001C8  C03B  F0C1         	movff	??_pick_and_place,_pick_and_place$649
  2719  0001CC  C03C  F0C2         	movff	??_pick_and_place+1,_pick_and_place$649+1
  2720  0001D0  EFF1  F000         	goto	l336
  2721  0001D4                     l4510:
  2722  0001D4  FFFF               	dw	65535	; assembler added errata NOP
  2723                           
  2724                           ; BSR set to: 0
  2725  0001D6  5063               	movf	_X_diff^0,w,c
  2726  0001D8  5C6F               	subwf	_X_Pick^0,w,c
  2727  0001DA  6FC1               	movwf	_pick_and_place$649& (0+255),b
  2728  0001DC  5064               	movf	(_X_diff+1)^0,w,c
  2729  0001DE  5870               	subwfb	(_X_Pick+1)^0,w,c
  2730  0001E0  6FC2               	movwf	(_pick_and_place$649+1)& (0+255),b
  2731  0001E2                     l336:
  2732  0001E2  FFFF               	dw	65535	; assembler added errata NOP
  2733                           
  2734                           ; BSR set to: 0
  2735  0001E4  51C1               	movf	_pick_and_place$649& (0+255),w,b
  2736  0001E6  5DBF               	subwf	pick_and_place@i& (0+255),w,b
  2737  0001E8  51C0               	movf	(pick_and_place@i+1)& (0+255),w,b
  2738  0001EA  0A80               	xorlw	128
  2739  0001EC  6E3B               	movwf	??_pick_and_place^0,c
  2740  0001EE  51C2               	movf	(_pick_and_place$649+1)& (0+255),w,b
  2741  0001F0  0A80               	xorlw	128
  2742  0001F2  583B               	subwfb	??_pick_and_place^0,w,c
  2743  0001F4  B0D8               	btfsc	status,0,c
  2744  0001F6  EFFF  F000         	goto	u5311
  2745  0001FA  EF02  F001         	goto	u5310
  2746  0001FE                     u5311:
  2747  0001FE  FFFF               	dw	65535	; assembler added errata NOP
  2748  000200  EF0C  F001         	goto	l4514
  2749  000204                     u5310:
  2750  000204  FFFF               	dw	65535	; assembler added errata NOP
  2751  000206                     
  2752                           ; BSR set to: 0
  2753  000206  5075               	movf	_stop^0,w,c
  2754  000208  B4D8               	btfsc	status,2,c
  2755  00020A  EF09  F001         	goto	u5321
  2756  00020E  EF0C  F001         	goto	u5320
  2757  000212                     u5321:
  2758  000212  FFFF               	dw	65535	; assembler added errata NOP
  2759  000214  EFBD  F000         	goto	l4502
  2760  000218                     u5320:
  2761  000218                     l4514:
  2762  000218  FFFF               	dw	65535	; assembler added errata NOP
  2763                           
  2764                           ; BSR set to: 0
  2765                           ;main.c: 576:         for(int i = 0; (i<(((Y_Pick-Y_diff) > 0 ? (Y_Pick-Y_diff) : -(Y_Pi
      +                          ck-Y_diff)))) && !stop; i++){Y_axis(Y_dir);}
  2766  00021A  0E00               	movlw	0
  2767  00021C  6FC4               	movwf	(pick_and_place@i_650+1)& (0+255),b
  2768  00021E  0E00               	movlw	0
  2769  000220  6FC3               	movwf	pick_and_place@i_650& (0+255),b
  2770  000222  EF1A  F001         	goto	l4520
  2771  000226                     l4516:
  2772  000226  FFFF               	dw	65535	; assembler added errata NOP
  2773                           
  2774                           ; BSR set to: 0
  2775  000228  5073               	movf	_Y_dir^0,w,c
  2776  00022A  EC45  F014         	call	_Y_axis
  2777  00022E  0100               	movlb	0	; () banked
  2778  000230  4BC3               	infsnz	pick_and_place@i_650& (0+255),f,b
  2779  000232  2BC4               	incf	(pick_and_place@i_650+1)& (0+255),f,b
  2780  000234                     l4520:
  2781  000234  FFFF               	dw	65535	; assembler added errata NOP
  2782                           
  2783                           ; BSR set to: 0
  2784  000236  5061               	movf	_Y_diff^0,w,c
  2785  000238  5C6B               	subwf	_Y_Pick^0,w,c
  2786  00023A  6E3B               	movwf	??_pick_and_place^0,c
  2787  00023C  5062               	movf	(_Y_diff+1)^0,w,c
  2788  00023E  586C               	subwfb	(_Y_Pick+1)^0,w,c
  2789  000240  6E3C               	movwf	(??_pick_and_place+1)^0,c
  2790  000242  BE3C               	btfsc	(??_pick_and_place+1)^0,7,c
  2791  000244  EF2F  F001         	goto	u5330
  2792  000248  503C               	movf	(??_pick_and_place+1)^0,w,c
  2793  00024A  E106               	bnz	u5331
  2794  00024C  043B               	decf	??_pick_and_place^0,w,c
  2795  00024E  B0D8               	btfsc	status,0,c
  2796  000250  EF2C  F001         	goto	u5331
  2797  000254  EF2F  F001         	goto	u5330
  2798  000258                     u5331:
  2799  000258  FFFF               	dw	65535	; assembler added errata NOP
  2800  00025A  EF40  F001         	goto	l4524
  2801  00025E                     u5330:
  2802  00025E  FFFF               	dw	65535	; assembler added errata NOP
  2803  000260                     
  2804                           ; BSR set to: 0
  2805  000260  5061               	movf	_Y_diff^0,w,c
  2806  000262  5C6B               	subwf	_Y_Pick^0,w,c
  2807  000264  6E3B               	movwf	??_pick_and_place^0,c
  2808  000266  5062               	movf	(_Y_diff+1)^0,w,c
  2809  000268  586C               	subwfb	(_Y_Pick+1)^0,w,c
  2810  00026A  6E3C               	movwf	(??_pick_and_place+1)^0,c
  2811  00026C  1E3B               	comf	??_pick_and_place^0,f,c
  2812  00026E  1E3C               	comf	(??_pick_and_place+1)^0,f,c
  2813  000270  4A3B               	infsnz	??_pick_and_place^0,f,c
  2814  000272  2A3C               	incf	(??_pick_and_place+1)^0,f,c
  2815  000274  C03B  F0C5         	movff	??_pick_and_place,_pick_and_place$652
  2816  000278  C03C  F0C6         	movff	??_pick_and_place+1,_pick_and_place$652+1
  2817  00027C  EF47  F001         	goto	l345
  2818  000280                     l4524:
  2819  000280  FFFF               	dw	65535	; assembler added errata NOP
  2820                           
  2821                           ; BSR set to: 0
  2822  000282  5061               	movf	_Y_diff^0,w,c
  2823  000284  5C6B               	subwf	_Y_Pick^0,w,c
  2824  000286  6FC5               	movwf	_pick_and_place$652& (0+255),b
  2825  000288  5062               	movf	(_Y_diff+1)^0,w,c
  2826  00028A  586C               	subwfb	(_Y_Pick+1)^0,w,c
  2827  00028C  6FC6               	movwf	(_pick_and_place$652+1)& (0+255),b
  2828  00028E                     l345:
  2829  00028E  FFFF               	dw	65535	; assembler added errata NOP
  2830                           
  2831                           ; BSR set to: 0
  2832  000290  51C5               	movf	_pick_and_place$652& (0+255),w,b
  2833  000292  5DC3               	subwf	pick_and_place@i_650& (0+255),w,b
  2834  000294  51C4               	movf	(pick_and_place@i_650+1)& (0+255),w,b
  2835  000296  0A80               	xorlw	128
  2836  000298  6E3B               	movwf	??_pick_and_place^0,c
  2837  00029A  51C6               	movf	(_pick_and_place$652+1)& (0+255),w,b
  2838  00029C  0A80               	xorlw	128
  2839  00029E  583B               	subwfb	??_pick_and_place^0,w,c
  2840  0002A0  B0D8               	btfsc	status,0,c
  2841  0002A2  EF55  F001         	goto	u5341
  2842  0002A6  EF58  F001         	goto	u5340
  2843  0002AA                     u5341:
  2844  0002AA  FFFF               	dw	65535	; assembler added errata NOP
  2845  0002AC  EF62  F001         	goto	l4528
  2846  0002B0                     u5340:
  2847  0002B0  FFFF               	dw	65535	; assembler added errata NOP
  2848  0002B2                     
  2849                           ; BSR set to: 0
  2850  0002B2  5075               	movf	_stop^0,w,c
  2851  0002B4  B4D8               	btfsc	status,2,c
  2852  0002B6  EF5F  F001         	goto	u5351
  2853  0002BA  EF62  F001         	goto	u5350
  2854  0002BE                     u5351:
  2855  0002BE  FFFF               	dw	65535	; assembler added errata NOP
  2856  0002C0  EF13  F001         	goto	l4516
  2857  0002C4                     u5350:
  2858  0002C4                     l4528:
  2859  0002C4  FFFF               	dw	65535	; assembler added errata NOP
  2860                           
  2861                           ; BSR set to: 0
  2862                           ;main.c: 578:         for(int i = 0; (i<(((Angle_diff-Pick_Angle) > 0 ? (Angle_diff-Pick
      +                          _Angle) : -(Angle_diff-Pick_Angle))/3.6)) && !stop; i++){Twister(Rot_dir);}
  2863  0002C6  0E00               	movlw	0
  2864  0002C8  6FC8               	movwf	(pick_and_place@i_653+1)& (0+255),b
  2865  0002CA  0E00               	movlw	0
  2866  0002CC  6FC7               	movwf	pick_and_place@i_653& (0+255),b
  2867  0002CE  EF70  F001         	goto	l4534
  2868  0002D2                     l4530:
  2869  0002D2  FFFF               	dw	65535	; assembler added errata NOP
  2870  0002D4  5072               	movf	_Rot_dir^0,w,c
  2871  0002D6  ECC2  F015         	call	_Twister
  2872  0002DA  0100               	movlb	0	; () banked
  2873  0002DC  4BC7               	infsnz	pick_and_place@i_653& (0+255),f,b
  2874  0002DE  2BC8               	incf	(pick_and_place@i_653+1)& (0+255),f,b
  2875  0002E0                     l4534:
  2876  0002E0  FFFF               	dw	65535	; assembler added errata NOP
  2877                           
  2878                           ; BSR set to: 0
  2879  0002E2  5067               	movf	_Pick_Angle^0,w,c
  2880  0002E4  5C5F               	subwf	_Angle_diff^0,w,c
  2881  0002E6  6E3B               	movwf	??_pick_and_place^0,c
  2882  0002E8  5068               	movf	(_Pick_Angle+1)^0,w,c
  2883  0002EA  5860               	subwfb	(_Angle_diff+1)^0,w,c
  2884  0002EC  6E3C               	movwf	(??_pick_and_place+1)^0,c
  2885  0002EE  BE3C               	btfsc	(??_pick_and_place+1)^0,7,c
  2886  0002F0  EF85  F001         	goto	u5360
  2887  0002F4  503C               	movf	(??_pick_and_place+1)^0,w,c
  2888  0002F6  E106               	bnz	u5361
  2889  0002F8  043B               	decf	??_pick_and_place^0,w,c
  2890  0002FA  B0D8               	btfsc	status,0,c
  2891  0002FC  EF82  F001         	goto	u5361
  2892  000300  EF85  F001         	goto	u5360
  2893  000304                     u5361:
  2894  000304  FFFF               	dw	65535	; assembler added errata NOP
  2895  000306  EF96  F001         	goto	l4538
  2896  00030A                     u5360:
  2897  00030A  FFFF               	dw	65535	; assembler added errata NOP
  2898  00030C                     
  2899                           ; BSR set to: 0
  2900  00030C  5067               	movf	_Pick_Angle^0,w,c
  2901  00030E  5C5F               	subwf	_Angle_diff^0,w,c
  2902  000310  6E3B               	movwf	??_pick_and_place^0,c
  2903  000312  5068               	movf	(_Pick_Angle+1)^0,w,c
  2904  000314  5860               	subwfb	(_Angle_diff+1)^0,w,c
  2905  000316  6E3C               	movwf	(??_pick_and_place+1)^0,c
  2906  000318  1E3B               	comf	??_pick_and_place^0,f,c
  2907  00031A  1E3C               	comf	(??_pick_and_place+1)^0,f,c
  2908  00031C  4A3B               	infsnz	??_pick_and_place^0,f,c
  2909  00031E  2A3C               	incf	(??_pick_and_place+1)^0,f,c
  2910  000320  C03B  F0C9         	movff	??_pick_and_place,_pick_and_place$655
  2911  000324  C03C  F0CA         	movff	??_pick_and_place+1,_pick_and_place$655+1
  2912  000328  EF9D  F001         	goto	l4540
  2913  00032C                     l4538:
  2914  00032C  FFFF               	dw	65535	; assembler added errata NOP
  2915                           
  2916                           ; BSR set to: 0
  2917  00032E  5067               	movf	_Pick_Angle^0,w,c
  2918  000330  5C5F               	subwf	_Angle_diff^0,w,c
  2919  000332  6FC9               	movwf	_pick_and_place$655& (0+255),b
  2920  000334  5068               	movf	(_Pick_Angle+1)^0,w,c
  2921  000336  5860               	subwfb	(_Angle_diff+1)^0,w,c
  2922  000338  6FCA               	movwf	(_pick_and_place$655+1)& (0+255),b
  2923  00033A                     l4540:
  2924  00033A  FFFF               	dw	65535	; assembler added errata NOP
  2925                           
  2926                           ; BSR set to: 0
  2927  00033C  C0C7  F008         	movff	pick_and_place@i_653,___xxtofl@val
  2928  000340  C0C8  F009         	movff	pick_and_place@i_653+1,___xxtofl@val+1
  2929  000344  0E00               	movlw	0
  2930  000346  BE09               	btfsc	(___xxtofl@val+1)^0,7,c
  2931  000348  0EFF               	movlw	-1
  2932  00034A  6E0A               	movwf	(___xxtofl@val+2)^0,c
  2933  00034C  6E0B               	movwf	(___xxtofl@val+3)^0,c
  2934  00034E  0E01               	movlw	1
  2935  000350  EC44  F00E         	call	___xxtofl
  2936  000354  C008  F02F         	movff	?___xxtofl,___flge@ff1
  2937  000358  C009  F030         	movff	?___xxtofl+1,___flge@ff1+1
  2938  00035C  C00A  F031         	movff	?___xxtofl+2,___flge@ff1+2
  2939  000360  C00B  F032         	movff	?___xxtofl+3,___flge@ff1+3
  2940  000364  0E66               	movlw	102
  2941  000366  6E1A               	movwf	___fldiv@a^0,c
  2942  000368  0E66               	movlw	102
  2943  00036A  6E1B               	movwf	(___fldiv@a+1)^0,c
  2944  00036C  0E66               	movlw	102
  2945  00036E  6E1C               	movwf	(___fldiv@a+2)^0,c
  2946  000370  0E40               	movlw	64
  2947  000372  6E1D               	movwf	(___fldiv@a+3)^0,c
  2948  000374  C0C9  F008         	movff	_pick_and_place$655,___xxtofl@val
  2949  000378  C0CA  F009         	movff	_pick_and_place$655+1,___xxtofl@val+1
  2950  00037C  0E00               	movlw	0
  2951  00037E  BE09               	btfsc	(___xxtofl@val+1)^0,7,c
  2952  000380  0EFF               	movlw	-1
  2953  000382  6E0A               	movwf	(___xxtofl@val+2)^0,c
  2954  000384  6E0B               	movwf	(___xxtofl@val+3)^0,c
  2955  000386  0E01               	movlw	1
  2956  000388  EC44  F00E         	call	___xxtofl
  2957  00038C  C008  F016         	movff	?___xxtofl,___fldiv@b
  2958  000390  C009  F017         	movff	?___xxtofl+1,___fldiv@b+1
  2959  000394  C00A  F018         	movff	?___xxtofl+2,___fldiv@b+2
  2960  000398  C00B  F019         	movff	?___xxtofl+3,___fldiv@b+3
  2961  00039C  EC38  F009         	call	___fldiv	;wreg free
  2962  0003A0  C016  F033         	movff	?___fldiv,___flge@ff2
  2963  0003A4  C017  F034         	movff	?___fldiv+1,___flge@ff2+1
  2964  0003A8  C018  F035         	movff	?___fldiv+2,___flge@ff2+2
  2965  0003AC  C019  F036         	movff	?___fldiv+3,___flge@ff2+3
  2966  0003B0  ECAC  F012         	call	___flge	;wreg free
  2967  0003B4  B0D8               	btfsc	status,0,c
  2968  0003B6  EFDF  F001         	goto	u5371
  2969  0003BA  EFE2  F001         	goto	u5370
  2970  0003BE                     u5371:
  2971  0003BE  FFFF               	dw	65535	; assembler added errata NOP
  2972  0003C0  EFEC  F001         	goto	l4544
  2973  0003C4                     u5370:
  2974  0003C4  FFFF               	dw	65535	; assembler added errata NOP
  2975  0003C6  5075               	movf	_stop^0,w,c
  2976  0003C8  B4D8               	btfsc	status,2,c
  2977  0003CA  EFE9  F001         	goto	u5381
  2978  0003CE  EFEC  F001         	goto	u5380
  2979  0003D2                     u5381:
  2980  0003D2  FFFF               	dw	65535	; assembler added errata NOP
  2981  0003D4  EF69  F001         	goto	l4530
  2982  0003D8                     u5380:
  2983  0003D8                     l4544:
  2984  0003D8  FFFF               	dw	65535	; assembler added errata NOP
  2985                           
  2986                           ;main.c: 580:         for(int i=0; i<3 && !stop; i++){Z_axis(1);}
  2987  0003DA  0E00               	movlw	0
  2988  0003DC  0100               	movlb	0	; () banked
  2989  0003DE  6FCC               	movwf	(pick_and_place@i_656+1)& (0+255),b
  2990  0003E0  0E00               	movlw	0
  2991  0003E2  6FCB               	movwf	pick_and_place@i_656& (0+255),b
  2992  0003E4  EFFB  F001         	goto	l4550
  2993  0003E8                     l4546:
  2994  0003E8  FFFF               	dw	65535	; assembler added errata NOP
  2995                           
  2996                           ; BSR set to: 0
  2997  0003EA  0E01               	movlw	1
  2998  0003EC  ECC5  F013         	call	_Z_axis
  2999  0003F0  0100               	movlb	0	; () banked
  3000  0003F2  4BCB               	infsnz	pick_and_place@i_656& (0+255),f,b
  3001  0003F4  2BCC               	incf	(pick_and_place@i_656+1)& (0+255),f,b
  3002  0003F6                     l4550:
  3003  0003F6  FFFF               	dw	65535	; assembler added errata NOP
  3004                           
  3005                           ; BSR set to: 0
  3006  0003F8  BFCC               	btfsc	(pick_and_place@i_656+1)& (0+255),7,b
  3007  0003FA  EF0B  F002         	goto	u5390
  3008  0003FE  51CC               	movf	(pick_and_place@i_656+1)& (0+255),w,b
  3009  000400  E107               	bnz	u5391
  3010  000402  0E03               	movlw	3
  3011  000404  5DCB               	subwf	pick_and_place@i_656& (0+255),w,b
  3012  000406  B0D8               	btfsc	status,0,c
  3013  000408  EF08  F002         	goto	u5391
  3014  00040C  EF0B  F002         	goto	u5390
  3015  000410                     u5391:
  3016  000410  FFFF               	dw	65535	; assembler added errata NOP
  3017  000412  EF15  F002         	goto	l4554
  3018  000416                     u5390:
  3019  000416  FFFF               	dw	65535	; assembler added errata NOP
  3020  000418                     
  3021                           ; BSR set to: 0
  3022  000418  5075               	movf	_stop^0,w,c
  3023  00041A  B4D8               	btfsc	status,2,c
  3024  00041C  EF12  F002         	goto	u5401
  3025  000420  EF15  F002         	goto	u5400
  3026  000424                     u5401:
  3027  000424  FFFF               	dw	65535	; assembler added errata NOP
  3028  000426  EFF4  F001         	goto	l4546
  3029  00042A                     u5400:
  3030  00042A                     l4554:
  3031  00042A  FFFF               	dw	65535	; assembler added errata NOP
  3032                           
  3033                           ; BSR set to: 0
  3034                           ;main.c: 583:         for(int i=0; i<3 && !stop; i++){Z_axis(0);}
  3035  00042C  0E00               	movlw	0
  3036  00042E  6FCE               	movwf	(pick_and_place@i_658+1)& (0+255),b
  3037  000430  0E00               	movlw	0
  3038  000432  6FCD               	movwf	pick_and_place@i_658& (0+255),b
  3039  000434  EF23  F002         	goto	l4560
  3040  000438                     l4556:
  3041  000438  FFFF               	dw	65535	; assembler added errata NOP
  3042                           
  3043                           ; BSR set to: 0
  3044  00043A  0E00               	movlw	0
  3045  00043C  ECC5  F013         	call	_Z_axis
  3046  000440  0100               	movlb	0	; () banked
  3047  000442  4BCD               	infsnz	pick_and_place@i_658& (0+255),f,b
  3048  000444  2BCE               	incf	(pick_and_place@i_658+1)& (0+255),f,b
  3049  000446                     l4560:
  3050  000446  FFFF               	dw	65535	; assembler added errata NOP
  3051                           
  3052                           ; BSR set to: 0
  3053  000448  BFCE               	btfsc	(pick_and_place@i_658+1)& (0+255),7,b
  3054  00044A  EF33  F002         	goto	u5410
  3055  00044E  51CE               	movf	(pick_and_place@i_658+1)& (0+255),w,b
  3056  000450  E107               	bnz	u5411
  3057  000452  0E03               	movlw	3
  3058  000454  5DCD               	subwf	pick_and_place@i_658& (0+255),w,b
  3059  000456  B0D8               	btfsc	status,0,c
  3060  000458  EF30  F002         	goto	u5411
  3061  00045C  EF33  F002         	goto	u5410
  3062  000460                     u5411:
  3063  000460  FFFF               	dw	65535	; assembler added errata NOP
  3064  000462  EF3D  F002         	goto	l4564
  3065  000466                     u5410:
  3066  000466  FFFF               	dw	65535	; assembler added errata NOP
  3067  000468                     
  3068                           ; BSR set to: 0
  3069  000468  5075               	movf	_stop^0,w,c
  3070  00046A  B4D8               	btfsc	status,2,c
  3071  00046C  EF3A  F002         	goto	u5421
  3072  000470  EF3D  F002         	goto	u5420
  3073  000474                     u5421:
  3074  000474  FFFF               	dw	65535	; assembler added errata NOP
  3075  000476  EF1C  F002         	goto	l4556
  3076  00047A                     u5420:
  3077  00047A                     l4564:
  3078  00047A  FFFF               	dw	65535	; assembler added errata NOP
  3079                           
  3080                           ; BSR set to: 0
  3081                           ;main.c: 587:         X_dir=((X_Pick<X_Place)? 1:0);
  3082  00047C  506D               	movf	_X_Place^0,w,c
  3083  00047E  5C6F               	subwf	_X_Pick^0,w,c
  3084  000480  5070               	movf	(_X_Pick+1)^0,w,c
  3085  000482  0A80               	xorlw	128
  3086  000484  6E3B               	movwf	??_pick_and_place^0,c
  3087  000486  506E               	movf	(_X_Place+1)^0,w,c
  3088  000488  0A80               	xorlw	128
  3089  00048A  583B               	subwfb	??_pick_and_place^0,w,c
  3090  00048C  A0D8               	btfss	status,0,c
  3091  00048E  EF4B  F002         	goto	u5431
  3092  000492  EF4F  F002         	goto	u5430
  3093  000496                     u5431:
  3094  000496  FFFF               	dw	65535	; assembler added errata NOP
  3095  000498  0E01               	movlw	1
  3096  00049A  EF51  F002         	goto	u5440
  3097  00049E                     u5430:
  3098  00049E  FFFF               	dw	65535	; assembler added errata NOP
  3099  0004A0  0E00               	movlw	0
  3100  0004A2                     u5440:
  3101  0004A2  FFFF               	dw	65535	; assembler added errata NOP
  3102  0004A4  6E74               	movwf	_X_dir^0,c
  3103                           
  3104                           ;main.c: 588:         Y_dir=((Y_Pick<Y_Place)? 1:0);
  3105  0004A6  5069               	movf	_Y_Place^0,w,c
  3106  0004A8  5C6B               	subwf	_Y_Pick^0,w,c
  3107  0004AA  506C               	movf	(_Y_Pick+1)^0,w,c
  3108  0004AC  0A80               	xorlw	128
  3109  0004AE  6E3B               	movwf	??_pick_and_place^0,c
  3110  0004B0  506A               	movf	(_Y_Place+1)^0,w,c
  3111  0004B2  0A80               	xorlw	128
  3112  0004B4  583B               	subwfb	??_pick_and_place^0,w,c
  3113  0004B6  A0D8               	btfss	status,0,c
  3114  0004B8  EF60  F002         	goto	u5451
  3115  0004BC  EF64  F002         	goto	u5450
  3116  0004C0                     u5451:
  3117  0004C0  FFFF               	dw	65535	; assembler added errata NOP
  3118  0004C2  0E01               	movlw	1
  3119  0004C4  EF66  F002         	goto	u5460
  3120  0004C8                     u5450:
  3121  0004C8  FFFF               	dw	65535	; assembler added errata NOP
  3122  0004CA  0E00               	movlw	0
  3123  0004CC                     u5460:
  3124  0004CC  FFFF               	dw	65535	; assembler added errata NOP
  3125  0004CE  6E73               	movwf	_Y_dir^0,c
  3126                           
  3127                           ;main.c: 589:         Rot_dir=((Pick_Angle<Place_Angle)? 1:0);
  3128  0004D0  5065               	movf	_Place_Angle^0,w,c
  3129  0004D2  5C67               	subwf	_Pick_Angle^0,w,c
  3130  0004D4  5068               	movf	(_Pick_Angle+1)^0,w,c
  3131  0004D6  0A80               	xorlw	128
  3132  0004D8  6E3B               	movwf	??_pick_and_place^0,c
  3133  0004DA  5066               	movf	(_Place_Angle+1)^0,w,c
  3134  0004DC  0A80               	xorlw	128
  3135  0004DE  583B               	subwfb	??_pick_and_place^0,w,c
  3136  0004E0  A0D8               	btfss	status,0,c
  3137  0004E2  EF75  F002         	goto	u5471
  3138  0004E6  EF79  F002         	goto	u5470
  3139  0004EA                     u5471:
  3140  0004EA  FFFF               	dw	65535	; assembler added errata NOP
  3141  0004EC  0E01               	movlw	1
  3142  0004EE  EF7B  F002         	goto	u5480
  3143  0004F2                     u5470:
  3144  0004F2  FFFF               	dw	65535	; assembler added errata NOP
  3145  0004F4  0E00               	movlw	0
  3146  0004F6                     u5480:
  3147  0004F6  FFFF               	dw	65535	; assembler added errata NOP
  3148  0004F8  6E72               	movwf	_Rot_dir^0,c
  3149  0004FA                     
  3150                           ; BSR set to: 0
  3151                           ;main.c: 591:         for(int i = 0; (i<(((X_Place-X_Pick) > 0 ? (X_Place-X_Pick) : -(X_
      +                          Place-X_Pick)))) && !stop; i++){X_axis(X_dir);}
  3152  0004FA  0E00               	movlw	0
  3153  0004FC  6FD0               	movwf	(pick_and_place@i_659+1)& (0+255),b
  3154  0004FE  0E00               	movlw	0
  3155  000500  6FCF               	movwf	pick_and_place@i_659& (0+255),b
  3156  000502  EF8A  F002         	goto	l4572
  3157  000506                     l4568:
  3158  000506  FFFF               	dw	65535	; assembler added errata NOP
  3159                           
  3160                           ; BSR set to: 0
  3161  000508  5074               	movf	_X_dir^0,w,c
  3162  00050A  ECC5  F014         	call	_X_axis
  3163  00050E  0100               	movlb	0	; () banked
  3164  000510  4BCF               	infsnz	pick_and_place@i_659& (0+255),f,b
  3165  000512  2BD0               	incf	(pick_and_place@i_659+1)& (0+255),f,b
  3166  000514                     l4572:
  3167  000514  FFFF               	dw	65535	; assembler added errata NOP
  3168                           
  3169                           ; BSR set to: 0
  3170  000516  506F               	movf	_X_Pick^0,w,c
  3171  000518  5C6D               	subwf	_X_Place^0,w,c
  3172  00051A  6E3B               	movwf	??_pick_and_place^0,c
  3173  00051C  5070               	movf	(_X_Pick+1)^0,w,c
  3174  00051E  586E               	subwfb	(_X_Place+1)^0,w,c
  3175  000520  6E3C               	movwf	(??_pick_and_place+1)^0,c
  3176  000522  BE3C               	btfsc	(??_pick_and_place+1)^0,7,c
  3177  000524  EF9F  F002         	goto	u5490
  3178  000528  503C               	movf	(??_pick_and_place+1)^0,w,c
  3179  00052A  E106               	bnz	u5491
  3180  00052C  043B               	decf	??_pick_and_place^0,w,c
  3181  00052E  B0D8               	btfsc	status,0,c
  3182  000530  EF9C  F002         	goto	u5491
  3183  000534  EF9F  F002         	goto	u5490
  3184  000538                     u5491:
  3185  000538  FFFF               	dw	65535	; assembler added errata NOP
  3186  00053A  EFB0  F002         	goto	l4576
  3187  00053E                     u5490:
  3188  00053E  FFFF               	dw	65535	; assembler added errata NOP
  3189  000540                     
  3190                           ; BSR set to: 0
  3191  000540  506F               	movf	_X_Pick^0,w,c
  3192  000542  5C6D               	subwf	_X_Place^0,w,c
  3193  000544  6E3B               	movwf	??_pick_and_place^0,c
  3194  000546  5070               	movf	(_X_Pick+1)^0,w,c
  3195  000548  586E               	subwfb	(_X_Place+1)^0,w,c
  3196  00054A  6E3C               	movwf	(??_pick_and_place+1)^0,c
  3197  00054C  1E3B               	comf	??_pick_and_place^0,f,c
  3198  00054E  1E3C               	comf	(??_pick_and_place+1)^0,f,c
  3199  000550  4A3B               	infsnz	??_pick_and_place^0,f,c
  3200  000552  2A3C               	incf	(??_pick_and_place+1)^0,f,c
  3201  000554  C03B  F0D1         	movff	??_pick_and_place,_pick_and_place$660
  3202  000558  C03C  F0D2         	movff	??_pick_and_place+1,_pick_and_place$660+1
  3203  00055C  EFB7  F002         	goto	l373
  3204  000560                     l4576:
  3205  000560  FFFF               	dw	65535	; assembler added errata NOP
  3206                           
  3207                           ; BSR set to: 0
  3208  000562  506F               	movf	_X_Pick^0,w,c
  3209  000564  5C6D               	subwf	_X_Place^0,w,c
  3210  000566  6FD1               	movwf	_pick_and_place$660& (0+255),b
  3211  000568  5070               	movf	(_X_Pick+1)^0,w,c
  3212  00056A  586E               	subwfb	(_X_Place+1)^0,w,c
  3213  00056C  6FD2               	movwf	(_pick_and_place$660+1)& (0+255),b
  3214  00056E                     l373:
  3215  00056E  FFFF               	dw	65535	; assembler added errata NOP
  3216                           
  3217                           ; BSR set to: 0
  3218  000570  51D1               	movf	_pick_and_place$660& (0+255),w,b
  3219  000572  5DCF               	subwf	pick_and_place@i_659& (0+255),w,b
  3220  000574  51D0               	movf	(pick_and_place@i_659+1)& (0+255),w,b
  3221  000576  0A80               	xorlw	128
  3222  000578  6E3B               	movwf	??_pick_and_place^0,c
  3223  00057A  51D2               	movf	(_pick_and_place$660+1)& (0+255),w,b
  3224  00057C  0A80               	xorlw	128
  3225  00057E  583B               	subwfb	??_pick_and_place^0,w,c
  3226  000580  B0D8               	btfsc	status,0,c
  3227  000582  EFC5  F002         	goto	u5501
  3228  000586  EFC8  F002         	goto	u5500
  3229  00058A                     u5501:
  3230  00058A  FFFF               	dw	65535	; assembler added errata NOP
  3231  00058C  EFD2  F002         	goto	l4580
  3232  000590                     u5500:
  3233  000590  FFFF               	dw	65535	; assembler added errata NOP
  3234  000592                     
  3235                           ; BSR set to: 0
  3236  000592  5075               	movf	_stop^0,w,c
  3237  000594  B4D8               	btfsc	status,2,c
  3238  000596  EFCF  F002         	goto	u5511
  3239  00059A  EFD2  F002         	goto	u5510
  3240  00059E                     u5511:
  3241  00059E  FFFF               	dw	65535	; assembler added errata NOP
  3242  0005A0  EF83  F002         	goto	l4568
  3243  0005A4                     u5510:
  3244  0005A4                     l4580:
  3245  0005A4  FFFF               	dw	65535	; assembler added errata NOP
  3246                           
  3247                           ; BSR set to: 0
  3248                           ;main.c: 592:         for(int i = 0; (i<(((Y_Place-Y_Pick) > 0 ? (Y_Place-Y_Pick) : -(Y_
      +                          Place-Y_Pick)))) && !stop; i++){Y_axis(Y_dir);}
  3249  0005A6  0E00               	movlw	0
  3250  0005A8  6FD4               	movwf	(pick_and_place@i_661+1)& (0+255),b
  3251  0005AA  0E00               	movlw	0
  3252  0005AC  6FD3               	movwf	pick_and_place@i_661& (0+255),b
  3253  0005AE  EFE0  F002         	goto	l4586
  3254  0005B2                     l4582:
  3255  0005B2  FFFF               	dw	65535	; assembler added errata NOP
  3256                           
  3257                           ; BSR set to: 0
  3258  0005B4  5073               	movf	_Y_dir^0,w,c
  3259  0005B6  EC45  F014         	call	_Y_axis
  3260  0005BA  0100               	movlb	0	; () banked
  3261  0005BC  4BD3               	infsnz	pick_and_place@i_661& (0+255),f,b
  3262  0005BE  2BD4               	incf	(pick_and_place@i_661+1)& (0+255),f,b
  3263  0005C0                     l4586:
  3264  0005C0  FFFF               	dw	65535	; assembler added errata NOP
  3265                           
  3266                           ; BSR set to: 0
  3267  0005C2  506B               	movf	_Y_Pick^0,w,c
  3268  0005C4  5C69               	subwf	_Y_Place^0,w,c
  3269  0005C6  6E3B               	movwf	??_pick_and_place^0,c
  3270  0005C8  506C               	movf	(_Y_Pick+1)^0,w,c
  3271  0005CA  586A               	subwfb	(_Y_Place+1)^0,w,c
  3272  0005CC  6E3C               	movwf	(??_pick_and_place+1)^0,c
  3273  0005CE  BE3C               	btfsc	(??_pick_and_place+1)^0,7,c
  3274  0005D0  EFF5  F002         	goto	u5520
  3275  0005D4  503C               	movf	(??_pick_and_place+1)^0,w,c
  3276  0005D6  E106               	bnz	u5521
  3277  0005D8  043B               	decf	??_pick_and_place^0,w,c
  3278  0005DA  B0D8               	btfsc	status,0,c
  3279  0005DC  EFF2  F002         	goto	u5521
  3280  0005E0  EFF5  F002         	goto	u5520
  3281  0005E4                     u5521:
  3282  0005E4  FFFF               	dw	65535	; assembler added errata NOP
  3283  0005E6  EF06  F003         	goto	l4590
  3284  0005EA                     u5520:
  3285  0005EA  FFFF               	dw	65535	; assembler added errata NOP
  3286  0005EC                     
  3287                           ; BSR set to: 0
  3288  0005EC  506B               	movf	_Y_Pick^0,w,c
  3289  0005EE  5C69               	subwf	_Y_Place^0,w,c
  3290  0005F0  6E3B               	movwf	??_pick_and_place^0,c
  3291  0005F2  506C               	movf	(_Y_Pick+1)^0,w,c
  3292  0005F4  586A               	subwfb	(_Y_Place+1)^0,w,c
  3293  0005F6  6E3C               	movwf	(??_pick_and_place+1)^0,c
  3294  0005F8  1E3B               	comf	??_pick_and_place^0,f,c
  3295  0005FA  1E3C               	comf	(??_pick_and_place+1)^0,f,c
  3296  0005FC  4A3B               	infsnz	??_pick_and_place^0,f,c
  3297  0005FE  2A3C               	incf	(??_pick_and_place+1)^0,f,c
  3298  000600  C03B  F0D5         	movff	??_pick_and_place,_pick_and_place$662
  3299  000604  C03C  F0D6         	movff	??_pick_and_place+1,_pick_and_place$662+1
  3300  000608  EF0D  F003         	goto	l382
  3301  00060C                     l4590:
  3302  00060C  FFFF               	dw	65535	; assembler added errata NOP
  3303                           
  3304                           ; BSR set to: 0
  3305  00060E  506B               	movf	_Y_Pick^0,w,c
  3306  000610  5C69               	subwf	_Y_Place^0,w,c
  3307  000612  6FD5               	movwf	_pick_and_place$662& (0+255),b
  3308  000614  506C               	movf	(_Y_Pick+1)^0,w,c
  3309  000616  586A               	subwfb	(_Y_Place+1)^0,w,c
  3310  000618  6FD6               	movwf	(_pick_and_place$662+1)& (0+255),b
  3311  00061A                     l382:
  3312  00061A  FFFF               	dw	65535	; assembler added errata NOP
  3313                           
  3314                           ; BSR set to: 0
  3315  00061C  51D5               	movf	_pick_and_place$662& (0+255),w,b
  3316  00061E  5DD3               	subwf	pick_and_place@i_661& (0+255),w,b
  3317  000620  51D4               	movf	(pick_and_place@i_661+1)& (0+255),w,b
  3318  000622  0A80               	xorlw	128
  3319  000624  6E3B               	movwf	??_pick_and_place^0,c
  3320  000626  51D6               	movf	(_pick_and_place$662+1)& (0+255),w,b
  3321  000628  0A80               	xorlw	128
  3322  00062A  583B               	subwfb	??_pick_and_place^0,w,c
  3323  00062C  B0D8               	btfsc	status,0,c
  3324  00062E  EF1B  F003         	goto	u5531
  3325  000632  EF1E  F003         	goto	u5530
  3326  000636                     u5531:
  3327  000636  FFFF               	dw	65535	; assembler added errata NOP
  3328  000638  EF28  F003         	goto	l4594
  3329  00063C                     u5530:
  3330  00063C  FFFF               	dw	65535	; assembler added errata NOP
  3331  00063E                     
  3332                           ; BSR set to: 0
  3333  00063E  5075               	movf	_stop^0,w,c
  3334  000640  B4D8               	btfsc	status,2,c
  3335  000642  EF25  F003         	goto	u5541
  3336  000646  EF28  F003         	goto	u5540
  3337  00064A                     u5541:
  3338  00064A  FFFF               	dw	65535	; assembler added errata NOP
  3339  00064C  EFD9  F002         	goto	l4582
  3340  000650                     u5540:
  3341  000650                     l4594:
  3342  000650  FFFF               	dw	65535	; assembler added errata NOP
  3343                           
  3344                           ; BSR set to: 0
  3345                           ;main.c: 593:         for(int i = 0; (i<(((Pick_Angle-Place_Angle) > 0 ? (Pick_Angle-Pla
      +                          ce_Angle) : -(Pick_Angle-Place_Angle))/3.6)) && !stop; i++){Twister(Rot_dir);}
  3346  000652  0E00               	movlw	0
  3347  000654  6FD8               	movwf	(pick_and_place@i_663+1)& (0+255),b
  3348  000656  0E00               	movlw	0
  3349  000658  6FD7               	movwf	pick_and_place@i_663& (0+255),b
  3350  00065A  EF36  F003         	goto	l4600
  3351  00065E                     l4596:
  3352  00065E  FFFF               	dw	65535	; assembler added errata NOP
  3353  000660  5072               	movf	_Rot_dir^0,w,c
  3354  000662  ECC2  F015         	call	_Twister
  3355  000666  0100               	movlb	0	; () banked
  3356  000668  4BD7               	infsnz	pick_and_place@i_663& (0+255),f,b
  3357  00066A  2BD8               	incf	(pick_and_place@i_663+1)& (0+255),f,b
  3358  00066C                     l4600:
  3359  00066C  FFFF               	dw	65535	; assembler added errata NOP
  3360                           
  3361                           ; BSR set to: 0
  3362  00066E  5065               	movf	_Place_Angle^0,w,c
  3363  000670  5C67               	subwf	_Pick_Angle^0,w,c
  3364  000672  6E3B               	movwf	??_pick_and_place^0,c
  3365  000674  5066               	movf	(_Place_Angle+1)^0,w,c
  3366  000676  5868               	subwfb	(_Pick_Angle+1)^0,w,c
  3367  000678  6E3C               	movwf	(??_pick_and_place+1)^0,c
  3368  00067A  BE3C               	btfsc	(??_pick_and_place+1)^0,7,c
  3369  00067C  EF4B  F003         	goto	u5550
  3370  000680  503C               	movf	(??_pick_and_place+1)^0,w,c
  3371  000682  E106               	bnz	u5551
  3372  000684  043B               	decf	??_pick_and_place^0,w,c
  3373  000686  B0D8               	btfsc	status,0,c
  3374  000688  EF48  F003         	goto	u5551
  3375  00068C  EF4B  F003         	goto	u5550
  3376  000690                     u5551:
  3377  000690  FFFF               	dw	65535	; assembler added errata NOP
  3378  000692  EF5C  F003         	goto	l4604
  3379  000696                     u5550:
  3380  000696  FFFF               	dw	65535	; assembler added errata NOP
  3381  000698                     
  3382                           ; BSR set to: 0
  3383  000698  5065               	movf	_Place_Angle^0,w,c
  3384  00069A  5C67               	subwf	_Pick_Angle^0,w,c
  3385  00069C  6E3B               	movwf	??_pick_and_place^0,c
  3386  00069E  5066               	movf	(_Place_Angle+1)^0,w,c
  3387  0006A0  5868               	subwfb	(_Pick_Angle+1)^0,w,c
  3388  0006A2  6E3C               	movwf	(??_pick_and_place+1)^0,c
  3389  0006A4  1E3B               	comf	??_pick_and_place^0,f,c
  3390  0006A6  1E3C               	comf	(??_pick_and_place+1)^0,f,c
  3391  0006A8  4A3B               	infsnz	??_pick_and_place^0,f,c
  3392  0006AA  2A3C               	incf	(??_pick_and_place+1)^0,f,c
  3393  0006AC  C03B  F0D9         	movff	??_pick_and_place,_pick_and_place$664
  3394  0006B0  C03C  F0DA         	movff	??_pick_and_place+1,_pick_and_place$664+1
  3395  0006B4  EF63  F003         	goto	l4606
  3396  0006B8                     l4604:
  3397  0006B8  FFFF               	dw	65535	; assembler added errata NOP
  3398                           
  3399                           ; BSR set to: 0
  3400  0006BA  5065               	movf	_Place_Angle^0,w,c
  3401  0006BC  5C67               	subwf	_Pick_Angle^0,w,c
  3402  0006BE  6FD9               	movwf	_pick_and_place$664& (0+255),b
  3403  0006C0  5066               	movf	(_Place_Angle+1)^0,w,c
  3404  0006C2  5868               	subwfb	(_Pick_Angle+1)^0,w,c
  3405  0006C4  6FDA               	movwf	(_pick_and_place$664+1)& (0+255),b
  3406  0006C6                     l4606:
  3407  0006C6  FFFF               	dw	65535	; assembler added errata NOP
  3408                           
  3409                           ; BSR set to: 0
  3410  0006C8  C0D7  F008         	movff	pick_and_place@i_663,___xxtofl@val
  3411  0006CC  C0D8  F009         	movff	pick_and_place@i_663+1,___xxtofl@val+1
  3412  0006D0  0E00               	movlw	0
  3413  0006D2  BE09               	btfsc	(___xxtofl@val+1)^0,7,c
  3414  0006D4  0EFF               	movlw	-1
  3415  0006D6  6E0A               	movwf	(___xxtofl@val+2)^0,c
  3416  0006D8  6E0B               	movwf	(___xxtofl@val+3)^0,c
  3417  0006DA  0E01               	movlw	1
  3418  0006DC  EC44  F00E         	call	___xxtofl
  3419  0006E0  C008  F02F         	movff	?___xxtofl,___flge@ff1
  3420  0006E4  C009  F030         	movff	?___xxtofl+1,___flge@ff1+1
  3421  0006E8  C00A  F031         	movff	?___xxtofl+2,___flge@ff1+2
  3422  0006EC  C00B  F032         	movff	?___xxtofl+3,___flge@ff1+3
  3423  0006F0  0E66               	movlw	102
  3424  0006F2  6E1A               	movwf	___fldiv@a^0,c
  3425  0006F4  0E66               	movlw	102
  3426  0006F6  6E1B               	movwf	(___fldiv@a+1)^0,c
  3427  0006F8  0E66               	movlw	102
  3428  0006FA  6E1C               	movwf	(___fldiv@a+2)^0,c
  3429  0006FC  0E40               	movlw	64
  3430  0006FE  6E1D               	movwf	(___fldiv@a+3)^0,c
  3431  000700  C0D9  F008         	movff	_pick_and_place$664,___xxtofl@val
  3432  000704  C0DA  F009         	movff	_pick_and_place$664+1,___xxtofl@val+1
  3433  000708  0E00               	movlw	0
  3434  00070A  BE09               	btfsc	(___xxtofl@val+1)^0,7,c
  3435  00070C  0EFF               	movlw	-1
  3436  00070E  6E0A               	movwf	(___xxtofl@val+2)^0,c
  3437  000710  6E0B               	movwf	(___xxtofl@val+3)^0,c
  3438  000712  0E01               	movlw	1
  3439  000714  EC44  F00E         	call	___xxtofl
  3440  000718  C008  F016         	movff	?___xxtofl,___fldiv@b
  3441  00071C  C009  F017         	movff	?___xxtofl+1,___fldiv@b+1
  3442  000720  C00A  F018         	movff	?___xxtofl+2,___fldiv@b+2
  3443  000724  C00B  F019         	movff	?___xxtofl+3,___fldiv@b+3
  3444  000728  EC38  F009         	call	___fldiv	;wreg free
  3445  00072C  C016  F033         	movff	?___fldiv,___flge@ff2
  3446  000730  C017  F034         	movff	?___fldiv+1,___flge@ff2+1
  3447  000734  C018  F035         	movff	?___fldiv+2,___flge@ff2+2
  3448  000738  C019  F036         	movff	?___fldiv+3,___flge@ff2+3
  3449  00073C  ECAC  F012         	call	___flge	;wreg free
  3450  000740  B0D8               	btfsc	status,0,c
  3451  000742  EFA5  F003         	goto	u5561
  3452  000746  EFA8  F003         	goto	u5560
  3453  00074A                     u5561:
  3454  00074A  FFFF               	dw	65535	; assembler added errata NOP
  3455  00074C  EFB2  F003         	goto	l4610
  3456  000750                     u5560:
  3457  000750  FFFF               	dw	65535	; assembler added errata NOP
  3458  000752  5075               	movf	_stop^0,w,c
  3459  000754  B4D8               	btfsc	status,2,c
  3460  000756  EFAF  F003         	goto	u5571
  3461  00075A  EFB2  F003         	goto	u5570
  3462  00075E                     u5571:
  3463  00075E  FFFF               	dw	65535	; assembler added errata NOP
  3464  000760  EF2F  F003         	goto	l4596
  3465  000764                     u5570:
  3466  000764                     l4610:
  3467  000764  FFFF               	dw	65535	; assembler added errata NOP
  3468                           
  3469                           ;main.c: 594:         for(int i=0; i<3 && !stop; i++){Z_axis(1);}
  3470  000766  0E00               	movlw	0
  3471  000768  0100               	movlb	0	; () banked
  3472  00076A  6FDC               	movwf	(pick_and_place@i_665+1)& (0+255),b
  3473  00076C  0E00               	movlw	0
  3474  00076E  6FDB               	movwf	pick_and_place@i_665& (0+255),b
  3475  000770  EFC1  F003         	goto	l4616
  3476  000774                     l4612:
  3477  000774  FFFF               	dw	65535	; assembler added errata NOP
  3478                           
  3479                           ; BSR set to: 0
  3480  000776  0E01               	movlw	1
  3481  000778  ECC5  F013         	call	_Z_axis
  3482  00077C  0100               	movlb	0	; () banked
  3483  00077E  4BDB               	infsnz	pick_and_place@i_665& (0+255),f,b
  3484  000780  2BDC               	incf	(pick_and_place@i_665+1)& (0+255),f,b
  3485  000782                     l4616:
  3486  000782  FFFF               	dw	65535	; assembler added errata NOP
  3487                           
  3488                           ; BSR set to: 0
  3489  000784  BFDC               	btfsc	(pick_and_place@i_665+1)& (0+255),7,b
  3490  000786  EFD1  F003         	goto	u5580
  3491  00078A  51DC               	movf	(pick_and_place@i_665+1)& (0+255),w,b
  3492  00078C  E107               	bnz	u5581
  3493  00078E  0E03               	movlw	3
  3494  000790  5DDB               	subwf	pick_and_place@i_665& (0+255),w,b
  3495  000792  B0D8               	btfsc	status,0,c
  3496  000794  EFCE  F003         	goto	u5581
  3497  000798  EFD1  F003         	goto	u5580
  3498  00079C                     u5581:
  3499  00079C  FFFF               	dw	65535	; assembler added errata NOP
  3500  00079E  EFDB  F003         	goto	l4620
  3501  0007A2                     u5580:
  3502  0007A2  FFFF               	dw	65535	; assembler added errata NOP
  3503  0007A4                     
  3504                           ; BSR set to: 0
  3505  0007A4  5075               	movf	_stop^0,w,c
  3506  0007A6  B4D8               	btfsc	status,2,c
  3507  0007A8  EFD8  F003         	goto	u5591
  3508  0007AC  EFDB  F003         	goto	u5590
  3509  0007B0                     u5591:
  3510  0007B0  FFFF               	dw	65535	; assembler added errata NOP
  3511  0007B2  EFBA  F003         	goto	l4612
  3512  0007B6                     u5590:
  3513  0007B6                     l4620:
  3514  0007B6  FFFF               	dw	65535	; assembler added errata NOP
  3515                           
  3516                           ; BSR set to: 0
  3517                           ;main.c: 597:         for(int i=0; i<3 && !stop; i++){Z_axis(0);}
  3518  0007B8  0E00               	movlw	0
  3519  0007BA  6FDE               	movwf	(pick_and_place@i_666+1)& (0+255),b
  3520  0007BC  0E00               	movlw	0
  3521  0007BE  6FDD               	movwf	pick_and_place@i_666& (0+255),b
  3522  0007C0  EFE9  F003         	goto	l4626
  3523  0007C4                     l4622:
  3524  0007C4  FFFF               	dw	65535	; assembler added errata NOP
  3525                           
  3526                           ; BSR set to: 0
  3527  0007C6  0E00               	movlw	0
  3528  0007C8  ECC5  F013         	call	_Z_axis
  3529  0007CC  0100               	movlb	0	; () banked
  3530  0007CE  4BDD               	infsnz	pick_and_place@i_666& (0+255),f,b
  3531  0007D0  2BDE               	incf	(pick_and_place@i_666+1)& (0+255),f,b
  3532  0007D2                     l4626:
  3533  0007D2  FFFF               	dw	65535	; assembler added errata NOP
  3534                           
  3535                           ; BSR set to: 0
  3536  0007D4  BFDE               	btfsc	(pick_and_place@i_666+1)& (0+255),7,b
  3537  0007D6  EFF9  F003         	goto	u5600
  3538  0007DA  51DE               	movf	(pick_and_place@i_666+1)& (0+255),w,b
  3539  0007DC  E107               	bnz	u5601
  3540  0007DE  0E03               	movlw	3
  3541  0007E0  5DDD               	subwf	pick_and_place@i_666& (0+255),w,b
  3542  0007E2  B0D8               	btfsc	status,0,c
  3543  0007E4  EFF6  F003         	goto	u5601
  3544  0007E8  EFF9  F003         	goto	u5600
  3545  0007EC                     u5601:
  3546  0007EC  FFFF               	dw	65535	; assembler added errata NOP
  3547  0007EE  EF03  F004         	goto	l402
  3548  0007F2                     u5600:
  3549  0007F2  FFFF               	dw	65535	; assembler added errata NOP
  3550  0007F4                     
  3551                           ; BSR set to: 0
  3552  0007F4  5075               	movf	_stop^0,w,c
  3553  0007F6  B4D8               	btfsc	status,2,c
  3554  0007F8  EF00  F004         	goto	u5611
  3555  0007FC  EF03  F004         	goto	u5610
  3556  000800                     u5611:
  3557  000800  FFFF               	dw	65535	; assembler added errata NOP
  3558  000802  EFE2  F003         	goto	l4622
  3559  000806                     u5610:
  3560  000806                     l402:
  3561  000806  FFFF               	dw	65535	; assembler added errata NOP
  3562                           
  3563                           ; BSR set to: 0
  3564                           ;main.c: 599:         Angle_diff= Place_Angle;
  3565  000808  C065  F05F         	movff	_Place_Angle,_Angle_diff
  3566  00080C  C066  F060         	movff	_Place_Angle+1,_Angle_diff+1
  3567                           
  3568                           ;main.c: 600:         X_diff = X_Place;
  3569  000810  C06D  F063         	movff	_X_Place,_X_diff
  3570  000814  C06E  F064         	movff	_X_Place+1,_X_diff+1
  3571                           
  3572                           ;main.c: 601:         Y_diff = Y_Place;
  3573  000818  C069  F061         	movff	_Y_Place,_Y_diff
  3574  00081C  C06A  F062         	movff	_Y_Place+1,_Y_diff+1
  3575  000820                     
  3576                           ; BSR set to: 0
  3577  000820  0012               	return		;funcret
  3578  000822  FFFF               	dw	65535	; errata NOP
  3579  000824                     __end_of_pick_and_place:
  3580                           	callstack 0
  3581                           
  3582 ;; *************** function _fetch_parameters *****************
  3583 ;; Defined at:
  3584 ;;		line 523 in file "main.c"
  3585 ;; Parameters:    Size  Location     Type
  3586 ;;  Componnt        1    wreg     unsigned char 
  3587 ;; Auto vars:     Size  Location     Type
  3588 ;;  Componnt        1    7[COMRAM] unsigned char 
  3589 ;; Return value:  Size  Location     Type
  3590 ;;                  2  318[None  ] int 
  3591 ;; Registers used:
  3592 ;;		wreg, status,2, status,0
  3593 ;; Tracked objects:
  3594 ;;		On entry : 0/0
  3595 ;;		On exit  : 0/0
  3596 ;;		Unchanged: 0/0
  3597 ;; Data sizes:     COMRAM   BANK0   BANK1   BANK2   BANK3   BANK4   BANK5
  3598 ;;      Params:         0       0       0       0       0       0       0
  3599 ;;      Locals:         1       0       0       0       0       0       0
  3600 ;;      Temps:          0       0       0       0       0       0       0
  3601 ;;      Totals:         1       0       0       0       0       0       0
  3602 ;;Total ram usage:        1 bytes
  3603 ;; Hardware stack levels used: 1
  3604 ;; Hardware stack levels required when called: 1
  3605 ;; This function calls:
  3606 ;;		Nothing
  3607 ;; This function is called by:
  3608 ;;		_pick_and_place
  3609 ;; This function uses a non-reentrant model
  3610 ;;
  3611                           
  3612                           	psect	text8
  3613  0021B6                     __ptext8:
  3614                           	callstack 0
  3615  0021B6                     _fetch_parameters:
  3616                           	callstack 0
  3617  0021B6  FFFF               	dw	65535	; assembler added errata NOP
  3618                           
  3619                           ; BSR set to: 0
  3620                           ;incstack = 0
  3621                           ;fetch_parameters@Componnt stored from wreg
  3622  0021B8  6E08               	movwf	fetch_parameters@Componnt^0,c
  3623  0021BA                     
  3624                           ;main.c: 524:     if(Componnt=='A')
  3625  0021BA  0E41               	movlw	65
  3626  0021BC  1808               	xorwf	fetch_parameters@Componnt^0,w,c
  3627  0021BE  A4D8               	btfss	status,2,c
  3628  0021C0  EFE4  F010         	goto	u4681
  3629  0021C4  EFE7  F010         	goto	u4680
  3630  0021C8                     u4681:
  3631  0021C8  FFFF               	dw	65535	; assembler added errata NOP
  3632  0021CA  EF02  F011         	goto	l4204
  3633  0021CE                     u4680:
  3634  0021CE  FFFF               	dw	65535	; assembler added errata NOP
  3635  0021D0                     
  3636                           ;main.c: 525:         {;main.c: 526:             X_Pick=3;
  3637  0021D0  0E00               	movlw	0
  3638  0021D2  6E70               	movwf	(_X_Pick+1)^0,c
  3639  0021D4  0E03               	movlw	3
  3640  0021D6  6E6F               	movwf	_X_Pick^0,c
  3641                           
  3642                           ;main.c: 527:             Y_Pick=4;
  3643  0021D8  0E00               	movlw	0
  3644  0021DA  6E6C               	movwf	(_Y_Pick+1)^0,c
  3645  0021DC  0E04               	movlw	4
  3646  0021DE  6E6B               	movwf	_Y_Pick^0,c
  3647                           
  3648                           ;main.c: 528:             Pick_Angle=0;
  3649  0021E0  0E00               	movlw	0
  3650  0021E2  6E68               	movwf	(_Pick_Angle+1)^0,c
  3651  0021E4  0E00               	movlw	0
  3652  0021E6  6E67               	movwf	_Pick_Angle^0,c
  3653                           
  3654                           ;main.c: 530:             X_Place=17;
  3655  0021E8  0E00               	movlw	0
  3656  0021EA  6E6E               	movwf	(_X_Place+1)^0,c
  3657  0021EC  0E11               	movlw	17
  3658  0021EE  6E6D               	movwf	_X_Place^0,c
  3659                           
  3660                           ;main.c: 531:             Y_Place=5;
  3661  0021F0  0E00               	movlw	0
  3662  0021F2  6E6A               	movwf	(_Y_Place+1)^0,c
  3663  0021F4  0E05               	movlw	5
  3664  0021F6  6E69               	movwf	_Y_Place^0,c
  3665                           
  3666                           ;main.c: 532:             Place_Angle=270;
  3667  0021F8  0E01               	movlw	1
  3668  0021FA  6E66               	movwf	(_Place_Angle+1)^0,c
  3669  0021FC  0E0E               	movlw	14
  3670  0021FE  6E65               	movwf	_Place_Angle^0,c
  3671                           
  3672                           ;main.c: 533:         }
  3673  002200  EF74  F011         	goto	l326
  3674  002204                     l4204:
  3675  002204  FFFF               	dw	65535	; assembler added errata NOP
  3676  002206  0E42               	movlw	66
  3677  002208  1808               	xorwf	fetch_parameters@Componnt^0,w,c
  3678  00220A  A4D8               	btfss	status,2,c
  3679  00220C  EF0A  F011         	goto	u4691
  3680  002210  EF0D  F011         	goto	u4690
  3681  002214                     u4691:
  3682  002214  FFFF               	dw	65535	; assembler added errata NOP
  3683  002216  EF28  F011         	goto	l4208
  3684  00221A                     u4690:
  3685  00221A  FFFF               	dw	65535	; assembler added errata NOP
  3686  00221C                     
  3687                           ;main.c: 535:             X_Pick=3;
  3688  00221C  0E00               	movlw	0
  3689  00221E  6E70               	movwf	(_X_Pick+1)^0,c
  3690  002220  0E03               	movlw	3
  3691  002222  6E6F               	movwf	_X_Pick^0,c
  3692                           
  3693                           ;main.c: 536:             Y_Pick=10;
  3694  002224  0E00               	movlw	0
  3695  002226  6E6C               	movwf	(_Y_Pick+1)^0,c
  3696  002228  0E0A               	movlw	10
  3697  00222A  6E6B               	movwf	_Y_Pick^0,c
  3698                           
  3699                           ;main.c: 537:             Pick_Angle=90;
  3700  00222C  0E00               	movlw	0
  3701  00222E  6E68               	movwf	(_Pick_Angle+1)^0,c
  3702  002230  0E5A               	movlw	90
  3703  002232  6E67               	movwf	_Pick_Angle^0,c
  3704                           
  3705                           ;main.c: 539:             X_Place=10;
  3706  002234  0E00               	movlw	0
  3707  002236  6E6E               	movwf	(_X_Place+1)^0,c
  3708  002238  0E0A               	movlw	10
  3709  00223A  6E6D               	movwf	_X_Place^0,c
  3710                           
  3711                           ;main.c: 540:              Y_Place=5;
  3712  00223C  0E00               	movlw	0
  3713  00223E  6E6A               	movwf	(_Y_Place+1)^0,c
  3714  002240  0E05               	movlw	5
  3715  002242  6E69               	movwf	_Y_Place^0,c
  3716                           
  3717                           ;main.c: 541:             Place_Angle=180;
  3718  002244  0E00               	movlw	0
  3719  002246  6E66               	movwf	(_Place_Angle+1)^0,c
  3720  002248  0EB4               	movlw	180
  3721  00224A  6E65               	movwf	_Place_Angle^0,c
  3722                           
  3723                           ;main.c: 542:         }
  3724  00224C  EF74  F011         	goto	l326
  3725  002250                     l4208:
  3726  002250  FFFF               	dw	65535	; assembler added errata NOP
  3727  002252  0E43               	movlw	67
  3728  002254  1808               	xorwf	fetch_parameters@Componnt^0,w,c
  3729  002256  A4D8               	btfss	status,2,c
  3730  002258  EF30  F011         	goto	u4701
  3731  00225C  EF33  F011         	goto	u4700
  3732  002260                     u4701:
  3733  002260  FFFF               	dw	65535	; assembler added errata NOP
  3734  002262  EF4E  F011         	goto	l4212
  3735  002266                     u4700:
  3736  002266  FFFF               	dw	65535	; assembler added errata NOP
  3737  002268                     
  3738                           ;main.c: 544:             X_Pick=3;
  3739  002268  0E00               	movlw	0
  3740  00226A  6E70               	movwf	(_X_Pick+1)^0,c
  3741  00226C  0E03               	movlw	3
  3742  00226E  6E6F               	movwf	_X_Pick^0,c
  3743                           
  3744                           ;main.c: 545:             Y_Pick=15;
  3745  002270  0E00               	movlw	0
  3746  002272  6E6C               	movwf	(_Y_Pick+1)^0,c
  3747  002274  0E0F               	movlw	15
  3748  002276  6E6B               	movwf	_Y_Pick^0,c
  3749                           
  3750                           ;main.c: 546:             Pick_Angle=90;
  3751  002278  0E00               	movlw	0
  3752  00227A  6E68               	movwf	(_Pick_Angle+1)^0,c
  3753  00227C  0E5A               	movlw	90
  3754  00227E  6E67               	movwf	_Pick_Angle^0,c
  3755                           
  3756                           ;main.c: 548:             X_Place=16;
  3757  002280  0E00               	movlw	0
  3758  002282  6E6E               	movwf	(_X_Place+1)^0,c
  3759  002284  0E10               	movlw	16
  3760  002286  6E6D               	movwf	_X_Place^0,c
  3761                           
  3762                           ;main.c: 549:             Y_Place=14;
  3763  002288  0E00               	movlw	0
  3764  00228A  6E6A               	movwf	(_Y_Place+1)^0,c
  3765  00228C  0E0E               	movlw	14
  3766  00228E  6E69               	movwf	_Y_Place^0,c
  3767                           
  3768                           ;main.c: 550:             Place_Angle=270;
  3769  002290  0E01               	movlw	1
  3770  002292  6E66               	movwf	(_Place_Angle+1)^0,c
  3771  002294  0E0E               	movlw	14
  3772  002296  6E65               	movwf	_Place_Angle^0,c
  3773                           
  3774                           ;main.c: 551:         }
  3775  002298  EF74  F011         	goto	l326
  3776  00229C                     l4212:
  3777  00229C  FFFF               	dw	65535	; assembler added errata NOP
  3778  00229E  0E44               	movlw	68
  3779  0022A0  1808               	xorwf	fetch_parameters@Componnt^0,w,c
  3780  0022A2  A4D8               	btfss	status,2,c
  3781  0022A4  EF56  F011         	goto	u4711
  3782  0022A8  EF59  F011         	goto	u4710
  3783  0022AC                     u4711:
  3784  0022AC  FFFF               	dw	65535	; assembler added errata NOP
  3785  0022AE  EF74  F011         	goto	l322
  3786  0022B2                     u4710:
  3787  0022B2  FFFF               	dw	65535	; assembler added errata NOP
  3788  0022B4                     
  3789                           ;main.c: 553:             X_Pick=X_Pick_D;
  3790  0022B4  C0AE  F06F         	movff	_X_Pick_D,_X_Pick
  3791  0022B8  C0AF  F070         	movff	_X_Pick_D+1,_X_Pick+1
  3792                           
  3793                           ;main.c: 554:             Y_Pick=Y_Pick_D;
  3794  0022BC  C0AC  F06B         	movff	_Y_Pick_D,_Y_Pick
  3795  0022C0  C0AD  F06C         	movff	_Y_Pick_D+1,_Y_Pick+1
  3796                           
  3797                           ;main.c: 555:             Pick_Angle=Pick_Angle_D;
  3798  0022C4  C0AA  F067         	movff	_Pick_Angle_D,_Pick_Angle
  3799  0022C8  C0AB  F068         	movff	_Pick_Angle_D+1,_Pick_Angle+1
  3800                           
  3801                           ;main.c: 557:             X_Place=X_Place_D;
  3802  0022CC  C0A8  F06D         	movff	_X_Place_D,_X_Place
  3803  0022D0  C0A9  F06E         	movff	_X_Place_D+1,_X_Place+1
  3804                           
  3805                           ;main.c: 558:             Y_Place=Y_Place_D;
  3806  0022D4  C0A6  F069         	movff	_Y_Place_D,_Y_Place
  3807  0022D8  C0A7  F06A         	movff	_Y_Place_D+1,_Y_Place+1
  3808                           
  3809                           ;main.c: 559:             Place_Angle=Place_Angle_D;
  3810  0022DC  C0A4  F065         	movff	_Place_Angle_D,_Place_Angle
  3811  0022E0  C0A5  F066         	movff	_Place_Angle_D+1,_Place_Angle+1
  3812  0022E4  EF74  F011         	goto	l326
  3813  0022E8                     l322:
  3814  0022E8                     l326:
  3815  0022E8  FFFF               	dw	65535	; assembler added errata NOP
  3816  0022EA  0012               	return		;funcret
  3817  0022EC  FFFF               	dw	65535	; errata NOP
  3818  0022EE                     __end_of_fetch_parameters:
  3819                           	callstack 0
  3820                           
  3821 ;; *************** function ___xxtofl *****************
  3822 ;; Defined at:
  3823 ;;		line 10 in file "/opt/microchip/xc8/v2.32/pic/sources/c99/common/xxtofl.c"
  3824 ;; Parameters:    Size  Location     Type
  3825 ;;  sign            1    wreg     unsigned char 
  3826 ;;  val             4    7[COMRAM] long 
  3827 ;; Auto vars:     Size  Location     Type
  3828 ;;  sign            1   15[COMRAM] unsigned char 
  3829 ;;  arg             4   17[COMRAM] unsigned long 
  3830 ;;  exp             1   16[COMRAM] unsigned char 
  3831 ;; Return value:  Size  Location     Type
  3832 ;;                  4    7[COMRAM] unsigned char 
  3833 ;; Registers used:
  3834 ;;		wreg, status,2, status,0
  3835 ;; Tracked objects:
  3836 ;;		On entry : 0/0
  3837 ;;		On exit  : 0/0
  3838 ;;		Unchanged: 0/0
  3839 ;; Data sizes:     COMRAM   BANK0   BANK1   BANK2   BANK3   BANK4   BANK5
  3840 ;;      Params:         4       0       0       0       0       0       0
  3841 ;;      Locals:         6       0       0       0       0       0       0
  3842 ;;      Temps:          4       0       0       0       0       0       0
  3843 ;;      Totals:        14       0       0       0       0       0       0
  3844 ;;Total ram usage:       14 bytes
  3845 ;; Hardware stack levels used: 1
  3846 ;; Hardware stack levels required when called: 1
  3847 ;; This function calls:
  3848 ;;		Nothing
  3849 ;; This function is called by:
  3850 ;;		_pick_and_place
  3851 ;; This function uses a non-reentrant model
  3852 ;;
  3853                           
  3854                           	psect	text9
  3855  001C88                     __ptext9:
  3856                           	callstack 0
  3857  001C88                     ___xxtofl:
  3858                           	callstack 0
  3859  001C88  FFFF               	dw	65535	; assembler added errata NOP
  3860                           
  3861                           ;incstack = 0
  3862                           ;___xxtofl@sign stored from wreg
  3863  001C8A  6E10               	movwf	___xxtofl@sign^0,c
  3864  001C8C  5010               	movf	___xxtofl@sign^0,w,c
  3865  001C8E  B4D8               	btfsc	status,2,c
  3866  001C90  EF4C  F00E         	goto	u5001
  3867  001C94  EF4F  F00E         	goto	u5000
  3868  001C98                     u5001:
  3869  001C98  FFFF               	dw	65535	; assembler added errata NOP
  3870  001C9A  EF74  F00E         	goto	l1100
  3871  001C9E                     u5000:
  3872  001C9E  FFFF               	dw	65535	; assembler added errata NOP
  3873  001CA0  BE0B               	btfsc	(___xxtofl@val+3)^0,7,c
  3874  001CA2  EF58  F00E         	goto	u5010
  3875  001CA6  EF55  F00E         	goto	u5011
  3876  001CAA                     u5011:
  3877  001CAA  FFFF               	dw	65535	; assembler added errata NOP
  3878  001CAC  EF74  F00E         	goto	l1100
  3879  001CB0                     u5010:
  3880  001CB0  FFFF               	dw	65535	; assembler added errata NOP
  3881  001CB2  C008  F00C         	movff	___xxtofl@val,??___xxtofl
  3882  001CB6  C009  F00D         	movff	___xxtofl@val+1,??___xxtofl+1
  3883  001CBA  C00A  F00E         	movff	___xxtofl@val+2,??___xxtofl+2
  3884  001CBE  C00B  F00F         	movff	___xxtofl@val+3,??___xxtofl+3
  3885  001CC2  1E0C               	comf	??___xxtofl^0,f,c
  3886  001CC4  1E0D               	comf	(??___xxtofl+1)^0,f,c
  3887  001CC6  1E0E               	comf	(??___xxtofl+2)^0,f,c
  3888  001CC8  1E0F               	comf	(??___xxtofl+3)^0,f,c
  3889  001CCA  2A0C               	incf	??___xxtofl^0,f,c
  3890  001CCC  0E00               	movlw	0
  3891  001CCE  220D               	addwfc	(??___xxtofl+1)^0,f,c
  3892  001CD0  220E               	addwfc	(??___xxtofl+2)^0,f,c
  3893  001CD2  220F               	addwfc	(??___xxtofl+3)^0,f,c
  3894  001CD4  C00C  F012         	movff	??___xxtofl,___xxtofl@arg
  3895  001CD8  C00D  F013         	movff	??___xxtofl+1,___xxtofl@arg+1
  3896  001CDC  C00E  F014         	movff	??___xxtofl+2,___xxtofl@arg+2
  3897  001CE0  C00F  F015         	movff	??___xxtofl+3,___xxtofl@arg+3
  3898  001CE4  EF7D  F00E         	goto	l4382
  3899  001CE8                     l1100:
  3900  001CE8  FFFF               	dw	65535	; assembler added errata NOP
  3901  001CEA  C008  F012         	movff	___xxtofl@val,___xxtofl@arg
  3902  001CEE  C009  F013         	movff	___xxtofl@val+1,___xxtofl@arg+1
  3903  001CF2  C00A  F014         	movff	___xxtofl@val+2,___xxtofl@arg+2
  3904  001CF6  C00B  F015         	movff	___xxtofl@val+3,___xxtofl@arg+3
  3905  001CFA                     l4382:
  3906  001CFA  FFFF               	dw	65535	; assembler added errata NOP
  3907  001CFC  5008               	movf	___xxtofl@val^0,w,c
  3908  001CFE  1009               	iorwf	(___xxtofl@val+1)^0,w,c
  3909  001D00  100A               	iorwf	(___xxtofl@val+2)^0,w,c
  3910  001D02  100B               	iorwf	(___xxtofl@val+3)^0,w,c
  3911  001D04  A4D8               	btfss	status,2,c
  3912  001D06  EF87  F00E         	goto	u5021
  3913  001D0A  EF8A  F00E         	goto	u5020
  3914  001D0E                     u5021:
  3915  001D0E  FFFF               	dw	65535	; assembler added errata NOP
  3916  001D10  EF95  F00E         	goto	l4388
  3917  001D14                     u5020:
  3918  001D14  FFFF               	dw	65535	; assembler added errata NOP
  3919  001D16  0E00               	movlw	0
  3920  001D18  6E08               	movwf	?___xxtofl^0,c
  3921  001D1A  0E00               	movlw	0
  3922  001D1C  6E09               	movwf	(?___xxtofl+1)^0,c
  3923  001D1E  0E00               	movlw	0
  3924  001D20  6E0A               	movwf	(?___xxtofl+2)^0,c
  3925  001D22  0E00               	movlw	0
  3926  001D24  6E0B               	movwf	(?___xxtofl+3)^0,c
  3927  001D26  EF3D  F00F         	goto	l1103
  3928  001D2A                     l4388:
  3929  001D2A  FFFF               	dw	65535	; assembler added errata NOP
  3930  001D2C  0E96               	movlw	150
  3931  001D2E  6E11               	movwf	___xxtofl@exp^0,c
  3932  001D30  EFA1  F00E         	goto	l4392
  3933  001D34                     l4390:
  3934  001D34  FFFF               	dw	65535	; assembler added errata NOP
  3935  001D36  2A11               	incf	___xxtofl@exp^0,f,c
  3936  001D38  90D8               	bcf	status,0,c
  3937  001D3A  3215               	rrcf	(___xxtofl@arg+3)^0,f,c
  3938  001D3C  3214               	rrcf	(___xxtofl@arg+2)^0,f,c
  3939  001D3E  3213               	rrcf	(___xxtofl@arg+1)^0,f,c
  3940  001D40  3212               	rrcf	___xxtofl@arg^0,f,c
  3941  001D42                     l4392:
  3942  001D42  FFFF               	dw	65535	; assembler added errata NOP
  3943  001D44  0E00               	movlw	0
  3944  001D46  1412               	andwf	___xxtofl@arg^0,w,c
  3945  001D48  6E0C               	movwf	??___xxtofl^0,c
  3946  001D4A  0E00               	movlw	0
  3947  001D4C  1413               	andwf	(___xxtofl@arg+1)^0,w,c
  3948  001D4E  6E0D               	movwf	(??___xxtofl+1)^0,c
  3949  001D50  0E00               	movlw	0
  3950  001D52  1414               	andwf	(___xxtofl@arg+2)^0,w,c
  3951  001D54  6E0E               	movwf	(??___xxtofl+2)^0,c
  3952  001D56  0EFE               	movlw	254
  3953  001D58  1415               	andwf	(___xxtofl@arg+3)^0,w,c
  3954  001D5A  6E0F               	movwf	(??___xxtofl+3)^0,c
  3955  001D5C  500C               	movf	??___xxtofl^0,w,c
  3956  001D5E  100D               	iorwf	(??___xxtofl+1)^0,w,c
  3957  001D60  100E               	iorwf	(??___xxtofl+2)^0,w,c
  3958  001D62  100F               	iorwf	(??___xxtofl+3)^0,w,c
  3959  001D64  A4D8               	btfss	status,2,c
  3960  001D66  EFB7  F00E         	goto	u5031
  3961  001D6A  EFBA  F00E         	goto	u5030
  3962  001D6E                     u5031:
  3963  001D6E  FFFF               	dw	65535	; assembler added errata NOP
  3964  001D70  EF9A  F00E         	goto	l4390
  3965  001D74                     u5030:
  3966  001D74  FFFF               	dw	65535	; assembler added errata NOP
  3967  001D76  EFCA  F00E         	goto	l1107
  3968  001D7A                     l4394:
  3969  001D7A  FFFF               	dw	65535	; assembler added errata NOP
  3970  001D7C  2A11               	incf	___xxtofl@exp^0,f,c
  3971  001D7E  0E01               	movlw	1
  3972  001D80  2612               	addwf	___xxtofl@arg^0,f,c
  3973  001D82  0E00               	movlw	0
  3974  001D84  2213               	addwfc	(___xxtofl@arg+1)^0,f,c
  3975  001D86  2214               	addwfc	(___xxtofl@arg+2)^0,f,c
  3976  001D88  2215               	addwfc	(___xxtofl@arg+3)^0,f,c
  3977  001D8A  90D8               	bcf	status,0,c
  3978  001D8C  3215               	rrcf	(___xxtofl@arg+3)^0,f,c
  3979  001D8E  3214               	rrcf	(___xxtofl@arg+2)^0,f,c
  3980  001D90  3213               	rrcf	(___xxtofl@arg+1)^0,f,c
  3981  001D92  3212               	rrcf	___xxtofl@arg^0,f,c
  3982  001D94                     l1107:
  3983  001D94  FFFF               	dw	65535	; assembler added errata NOP
  3984  001D96  0E00               	movlw	0
  3985  001D98  1412               	andwf	___xxtofl@arg^0,w,c
  3986  001D9A  6E0C               	movwf	??___xxtofl^0,c
  3987  001D9C  0E00               	movlw	0
  3988  001D9E  1413               	andwf	(___xxtofl@arg+1)^0,w,c
  3989  001DA0  6E0D               	movwf	(??___xxtofl+1)^0,c
  3990  001DA2  0E00               	movlw	0
  3991  001DA4  1414               	andwf	(___xxtofl@arg+2)^0,w,c
  3992  001DA6  6E0E               	movwf	(??___xxtofl+2)^0,c
  3993  001DA8  0EFF               	movlw	255
  3994  001DAA  1415               	andwf	(___xxtofl@arg+3)^0,w,c
  3995  001DAC  6E0F               	movwf	(??___xxtofl+3)^0,c
  3996  001DAE  500C               	movf	??___xxtofl^0,w,c
  3997  001DB0  100D               	iorwf	(??___xxtofl+1)^0,w,c
  3998  001DB2  100E               	iorwf	(??___xxtofl+2)^0,w,c
  3999  001DB4  100F               	iorwf	(??___xxtofl+3)^0,w,c
  4000  001DB6  A4D8               	btfss	status,2,c
  4001  001DB8  EFE0  F00E         	goto	u5041
  4002  001DBC  EFE3  F00E         	goto	u5040
  4003  001DC0                     u5041:
  4004  001DC0  FFFF               	dw	65535	; assembler added errata NOP
  4005  001DC2  EFBD  F00E         	goto	l4394
  4006  001DC6                     u5040:
  4007  001DC6  FFFF               	dw	65535	; assembler added errata NOP
  4008  001DC8  EFED  F00E         	goto	l4402
  4009  001DCC                     l4400:
  4010  001DCC  FFFF               	dw	65535	; assembler added errata NOP
  4011  001DCE  0611               	decf	___xxtofl@exp^0,f,c
  4012  001DD0  90D8               	bcf	status,0,c
  4013  001DD2  3612               	rlcf	___xxtofl@arg^0,f,c
  4014  001DD4  3613               	rlcf	(___xxtofl@arg+1)^0,f,c
  4015  001DD6  3614               	rlcf	(___xxtofl@arg+2)^0,f,c
  4016  001DD8  3615               	rlcf	(___xxtofl@arg+3)^0,f,c
  4017  001DDA                     l4402:
  4018  001DDA  FFFF               	dw	65535	; assembler added errata NOP
  4019  001DDC  BE14               	btfsc	(___xxtofl@arg+2)^0,7,c
  4020  001DDE  EFF3  F00E         	goto	u5051
  4021  001DE2  EFF6  F00E         	goto	u5050
  4022  001DE6                     u5051:
  4023  001DE6  FFFF               	dw	65535	; assembler added errata NOP
  4024  001DE8  EF00  F00F         	goto	l1114
  4025  001DEC                     u5050:
  4026  001DEC  FFFF               	dw	65535	; assembler added errata NOP
  4027  001DEE  0E02               	movlw	2
  4028  001DF0  6011               	cpfslt	___xxtofl@exp^0,c
  4029  001DF2  EFFD  F00E         	goto	u5061
  4030  001DF6  EF00  F00F         	goto	u5060
  4031  001DFA                     u5061:
  4032  001DFA  FFFF               	dw	65535	; assembler added errata NOP
  4033  001DFC  EFE6  F00E         	goto	l4400
  4034  001E00                     u5060:
  4035  001E00                     l1114:
  4036  001E00  FFFF               	dw	65535	; assembler added errata NOP
  4037  001E02  B011               	btfsc	___xxtofl@exp^0,0,c
  4038  001E04  EF06  F00F         	goto	u5071
  4039  001E08  EF09  F00F         	goto	u5070
  4040  001E0C                     u5071:
  4041  001E0C  FFFF               	dw	65535	; assembler added errata NOP
  4042  001E0E  EF0B  F00F         	goto	l4408
  4043  001E12                     u5070:
  4044  001E12  FFFF               	dw	65535	; assembler added errata NOP
  4045  001E14  9E14               	bcf	(___xxtofl@arg+2)^0,7,c
  4046  001E16                     l4408:
  4047  001E16  FFFF               	dw	65535	; assembler added errata NOP
  4048  001E18  90D8               	bcf	status,0,c
  4049  001E1A  3211               	rrcf	___xxtofl@exp^0,f,c
  4050  001E1C  C011  F00C         	movff	___xxtofl@exp,??___xxtofl
  4051  001E20  6A0D               	clrf	(??___xxtofl+1)^0,c
  4052  001E22  6A0E               	clrf	(??___xxtofl+2)^0,c
  4053  001E24  6A0F               	clrf	(??___xxtofl+3)^0,c
  4054  001E26  C00C  F00F         	movff	??___xxtofl,??___xxtofl+3
  4055  001E2A  6A0E               	clrf	(??___xxtofl+2)^0,c
  4056  001E2C  6A0D               	clrf	(??___xxtofl+1)^0,c
  4057  001E2E  6A0C               	clrf	??___xxtofl^0,c
  4058  001E30  500C               	movf	??___xxtofl^0,w,c
  4059  001E32  1212               	iorwf	___xxtofl@arg^0,f,c
  4060  001E34  500D               	movf	(??___xxtofl+1)^0,w,c
  4061  001E36  1213               	iorwf	(___xxtofl@arg+1)^0,f,c
  4062  001E38  500E               	movf	(??___xxtofl+2)^0,w,c
  4063  001E3A  1214               	iorwf	(___xxtofl@arg+2)^0,f,c
  4064  001E3C  500F               	movf	(??___xxtofl+3)^0,w,c
  4065  001E3E  1215               	iorwf	(___xxtofl@arg+3)^0,f,c
  4066  001E40  5010               	movf	___xxtofl@sign^0,w,c
  4067  001E42  B4D8               	btfsc	status,2,c
  4068  001E44  EF26  F00F         	goto	u5081
  4069  001E48  EF29  F00F         	goto	u5080
  4070  001E4C                     u5081:
  4071  001E4C  FFFF               	dw	65535	; assembler added errata NOP
  4072  001E4E  EF34  F00F         	goto	l4418
  4073  001E52                     u5080:
  4074  001E52  FFFF               	dw	65535	; assembler added errata NOP
  4075  001E54  BE0B               	btfsc	(___xxtofl@val+3)^0,7,c
  4076  001E56  EF32  F00F         	goto	u5090
  4077  001E5A  EF2F  F00F         	goto	u5091
  4078  001E5E                     u5091:
  4079  001E5E  FFFF               	dw	65535	; assembler added errata NOP
  4080  001E60  EF34  F00F         	goto	l4418
  4081  001E64                     u5090:
  4082  001E64  FFFF               	dw	65535	; assembler added errata NOP
  4083  001E66  8E15               	bsf	(___xxtofl@arg+3)^0,7,c
  4084  001E68                     l4418:
  4085  001E68  FFFF               	dw	65535	; assembler added errata NOP
  4086  001E6A  C012  F008         	movff	___xxtofl@arg,?___xxtofl
  4087  001E6E  C013  F009         	movff	___xxtofl@arg+1,?___xxtofl+1
  4088  001E72  C014  F00A         	movff	___xxtofl@arg+2,?___xxtofl+2
  4089  001E76  C015  F00B         	movff	___xxtofl@arg+3,?___xxtofl+3
  4090  001E7A                     l1103:
  4091  001E7A  FFFF               	dw	65535	; assembler added errata NOP
  4092  001E7C  0012               	return		;funcret
  4093  001E7E  FFFF               	dw	65535	; errata NOP
  4094  001E80                     __end_of___xxtofl:
  4095                           	callstack 0
  4096                           
  4097 ;; *************** function ___fldiv *****************
  4098 ;; Defined at:
  4099 ;;		line 11 in file "/opt/microchip/xc8/v2.32/pic/sources/c99/common/sprcdiv.c"
  4100 ;; Parameters:    Size  Location     Type
  4101 ;;  b               4   21[COMRAM] unsigned char 
  4102 ;;  a               4   25[COMRAM] unsigned char 
  4103 ;; Auto vars:     Size  Location     Type
  4104 ;;  grs             4   40[COMRAM] unsigned long 
  4105 ;;  rem             4   33[COMRAM] unsigned long 
  4106 ;;  new_exp         2   38[COMRAM] short 
  4107 ;;  aexp            1   45[COMRAM] unsigned char 
  4108 ;;  bexp            1   44[COMRAM] unsigned char 
  4109 ;;  sign            1   37[COMRAM] unsigned char 
  4110 ;; Return value:  Size  Location     Type
  4111 ;;                  4   21[COMRAM] unsigned char 
  4112 ;; Registers used:
  4113 ;;		wreg, status,2, status,0
  4114 ;; Tracked objects:
  4115 ;;		On entry : 0/0
  4116 ;;		On exit  : 0/0
  4117 ;;		Unchanged: 0/0
  4118 ;; Data sizes:     COMRAM   BANK0   BANK1   BANK2   BANK3   BANK4   BANK5
  4119 ;;      Params:         8       0       0       0       0       0       0
  4120 ;;      Locals:        13       0       0       0       0       0       0
  4121 ;;      Temps:          4       0       0       0       0       0       0
  4122 ;;      Totals:        25       0       0       0       0       0       0
  4123 ;;Total ram usage:       25 bytes
  4124 ;; Hardware stack levels used: 1
  4125 ;; Hardware stack levels required when called: 1
  4126 ;; This function calls:
  4127 ;;		Nothing
  4128 ;; This function is called by:
  4129 ;;		_pick_and_place
  4130 ;; This function uses a non-reentrant model
  4131 ;;
  4132                           
  4133                           	psect	text10
  4134  001270                     __ptext10:
  4135                           	callstack 0
  4136  001270                     ___fldiv:
  4137                           	callstack 0
  4138  001270  FFFF               	dw	65535	; assembler added errata NOP
  4139  001272  5019               	movf	(___fldiv@b+3)^0,w,c
  4140  001274  0B80               	andlw	128
  4141  001276  6E26               	movwf	___fldiv@sign^0,c
  4142  001278  5019               	movf	(___fldiv@b+3)^0,w,c
  4143  00127A  2419               	addwf	(___fldiv@b+3)^0,w,c
  4144  00127C  6E2D               	movwf	___fldiv@bexp^0,c
  4145  00127E  AE18               	btfss	(___fldiv@b+2)^0,7,c
  4146  001280  EF44  F009         	goto	u4721
  4147  001284  EF47  F009         	goto	u4720
  4148  001288                     u4721:
  4149  001288  FFFF               	dw	65535	; assembler added errata NOP
  4150  00128A  EF49  F009         	goto	l4222
  4151  00128E                     u4720:
  4152  00128E  FFFF               	dw	65535	; assembler added errata NOP
  4153  001290  802D               	bsf	___fldiv@bexp^0,0,c
  4154  001292                     l4222:
  4155  001292  FFFF               	dw	65535	; assembler added errata NOP
  4156  001294  502D               	movf	___fldiv@bexp^0,w,c
  4157  001296  B4D8               	btfsc	status,2,c
  4158  001298  EF50  F009         	goto	u4731
  4159  00129C  EF53  F009         	goto	u4730
  4160  0012A0                     u4731:
  4161  0012A0  FFFF               	dw	65535	; assembler added errata NOP
  4162  0012A2  EF6C  F009         	goto	l4232
  4163  0012A6                     u4730:
  4164  0012A6  FFFF               	dw	65535	; assembler added errata NOP
  4165  0012A8  282D               	incf	___fldiv@bexp^0,w,c
  4166  0012AA  A4D8               	btfss	status,2,c
  4167  0012AC  EF5A  F009         	goto	u4741
  4168  0012B0  EF5D  F009         	goto	u4740
  4169  0012B4                     u4741:
  4170  0012B4  FFFF               	dw	65535	; assembler added errata NOP
  4171  0012B6  EF66  F009         	goto	l4228
  4172  0012BA                     u4740:
  4173  0012BA  FFFF               	dw	65535	; assembler added errata NOP
  4174  0012BC  0E00               	movlw	0
  4175  0012BE  6E16               	movwf	___fldiv@b^0,c
  4176  0012C0  0E00               	movlw	0
  4177  0012C2  6E17               	movwf	(___fldiv@b+1)^0,c
  4178  0012C4  0E00               	movlw	0
  4179  0012C6  6E18               	movwf	(___fldiv@b+2)^0,c
  4180  0012C8  0E00               	movlw	0
  4181  0012CA  6E19               	movwf	(___fldiv@b+3)^0,c
  4182  0012CC                     l4228:
  4183  0012CC  FFFF               	dw	65535	; assembler added errata NOP
  4184  0012CE  8E18               	bsf	(___fldiv@b+2)^0,7,c
  4185  0012D0  0E00               	movlw	0
  4186  0012D2  6E19               	movwf	(___fldiv@b+3)^0,c
  4187  0012D4  EF75  F009         	goto	l4234
  4188  0012D8                     l4232:
  4189  0012D8  FFFF               	dw	65535	; assembler added errata NOP
  4190  0012DA  0E00               	movlw	0
  4191  0012DC  6E16               	movwf	___fldiv@b^0,c
  4192  0012DE  0E00               	movlw	0
  4193  0012E0  6E17               	movwf	(___fldiv@b+1)^0,c
  4194  0012E2  0E00               	movlw	0
  4195  0012E4  6E18               	movwf	(___fldiv@b+2)^0,c
  4196  0012E6  0E00               	movlw	0
  4197  0012E8  6E19               	movwf	(___fldiv@b+3)^0,c
  4198  0012EA                     l4234:
  4199  0012EA  FFFF               	dw	65535	; assembler added errata NOP
  4200  0012EC  501D               	movf	(___fldiv@a+3)^0,w,c
  4201  0012EE  0B80               	andlw	128
  4202  0012F0  1A26               	xorwf	___fldiv@sign^0,f,c
  4203  0012F2  501D               	movf	(___fldiv@a+3)^0,w,c
  4204  0012F4  241D               	addwf	(___fldiv@a+3)^0,w,c
  4205  0012F6  6E2E               	movwf	___fldiv@aexp^0,c
  4206  0012F8  AE1C               	btfss	(___fldiv@a+2)^0,7,c
  4207  0012FA  EF81  F009         	goto	u4751
  4208  0012FE  EF84  F009         	goto	u4750
  4209  001302                     u4751:
  4210  001302  FFFF               	dw	65535	; assembler added errata NOP
  4211  001304  EF86  F009         	goto	l4242
  4212  001308                     u4750:
  4213  001308  FFFF               	dw	65535	; assembler added errata NOP
  4214  00130A  802E               	bsf	___fldiv@aexp^0,0,c
  4215  00130C                     l4242:
  4216  00130C  FFFF               	dw	65535	; assembler added errata NOP
  4217  00130E  502E               	movf	___fldiv@aexp^0,w,c
  4218  001310  B4D8               	btfsc	status,2,c
  4219  001312  EF8D  F009         	goto	u4761
  4220  001316  EF90  F009         	goto	u4760
  4221  00131A                     u4761:
  4222  00131A  FFFF               	dw	65535	; assembler added errata NOP
  4223  00131C  EFA9  F009         	goto	l4252
  4224  001320                     u4760:
  4225  001320  FFFF               	dw	65535	; assembler added errata NOP
  4226  001322  282E               	incf	___fldiv@aexp^0,w,c
  4227  001324  A4D8               	btfss	status,2,c
  4228  001326  EF97  F009         	goto	u4771
  4229  00132A  EF9A  F009         	goto	u4770
  4230  00132E                     u4771:
  4231  00132E  FFFF               	dw	65535	; assembler added errata NOP
  4232  001330  EFA3  F009         	goto	l4248
  4233  001334                     u4770:
  4234  001334  FFFF               	dw	65535	; assembler added errata NOP
  4235  001336  0E00               	movlw	0
  4236  001338  6E1A               	movwf	___fldiv@a^0,c
  4237  00133A  0E00               	movlw	0
  4238  00133C  6E1B               	movwf	(___fldiv@a+1)^0,c
  4239  00133E  0E00               	movlw	0
  4240  001340  6E1C               	movwf	(___fldiv@a+2)^0,c
  4241  001342  0E00               	movlw	0
  4242  001344  6E1D               	movwf	(___fldiv@a+3)^0,c
  4243  001346                     l4248:
  4244  001346  FFFF               	dw	65535	; assembler added errata NOP
  4245  001348  8E1C               	bsf	(___fldiv@a+2)^0,7,c
  4246  00134A  0E00               	movlw	0
  4247  00134C  6E1D               	movwf	(___fldiv@a+3)^0,c
  4248  00134E  EFB2  F009         	goto	l4254
  4249  001352                     l4252:
  4250  001352  FFFF               	dw	65535	; assembler added errata NOP
  4251  001354  0E00               	movlw	0
  4252  001356  6E1A               	movwf	___fldiv@a^0,c
  4253  001358  0E00               	movlw	0
  4254  00135A  6E1B               	movwf	(___fldiv@a+1)^0,c
  4255  00135C  0E00               	movlw	0
  4256  00135E  6E1C               	movwf	(___fldiv@a+2)^0,c
  4257  001360  0E00               	movlw	0
  4258  001362  6E1D               	movwf	(___fldiv@a+3)^0,c
  4259  001364                     l4254:
  4260  001364  FFFF               	dw	65535	; assembler added errata NOP
  4261  001366  501A               	movf	___fldiv@a^0,w,c
  4262  001368  101B               	iorwf	(___fldiv@a+1)^0,w,c
  4263  00136A  101C               	iorwf	(___fldiv@a+2)^0,w,c
  4264  00136C  101D               	iorwf	(___fldiv@a+3)^0,w,c
  4265  00136E  A4D8               	btfss	status,2,c
  4266  001370  EFBC  F009         	goto	u4781
  4267  001374  EFBF  F009         	goto	u4780
  4268  001378                     u4781:
  4269  001378  FFFF               	dw	65535	; assembler added errata NOP
  4270  00137A  EFD9  F009         	goto	l4266
  4271  00137E                     u4780:
  4272  00137E  FFFF               	dw	65535	; assembler added errata NOP
  4273  001380  0E00               	movlw	0
  4274  001382  6E16               	movwf	___fldiv@b^0,c
  4275  001384  0E00               	movlw	0
  4276  001386  6E17               	movwf	(___fldiv@b+1)^0,c
  4277  001388  0E00               	movlw	0
  4278  00138A  6E18               	movwf	(___fldiv@b+2)^0,c
  4279  00138C  0E00               	movlw	0
  4280  00138E  6E19               	movwf	(___fldiv@b+3)^0,c
  4281  001390  0E80               	movlw	128
  4282  001392  1218               	iorwf	(___fldiv@b+2)^0,f,c
  4283  001394  0E7F               	movlw	127
  4284  001396  1219               	iorwf	(___fldiv@b+3)^0,f,c
  4285  001398                     l4260:
  4286  001398  FFFF               	dw	65535	; assembler added errata NOP
  4287  00139A  5026               	movf	___fldiv@sign^0,w,c
  4288  00139C  1219               	iorwf	(___fldiv@b+3)^0,f,c
  4289  00139E  C016  F016         	movff	___fldiv@b,?___fldiv
  4290  0013A2  C017  F017         	movff	___fldiv@b+1,?___fldiv+1
  4291  0013A6  C018  F018         	movff	___fldiv@b+2,?___fldiv+2
  4292  0013AA  C019  F019         	movff	___fldiv@b+3,?___fldiv+3
  4293  0013AE  EF4E  F00B         	goto	l1027
  4294  0013B2                     l4266:
  4295  0013B2  FFFF               	dw	65535	; assembler added errata NOP
  4296  0013B4  502D               	movf	___fldiv@bexp^0,w,c
  4297  0013B6  A4D8               	btfss	status,2,c
  4298  0013B8  EFE0  F009         	goto	u4791
  4299  0013BC  EFE3  F009         	goto	u4790
  4300  0013C0                     u4791:
  4301  0013C0  FFFF               	dw	65535	; assembler added errata NOP
  4302  0013C2  EFEE  F009         	goto	l4274
  4303  0013C6                     u4790:
  4304  0013C6  FFFF               	dw	65535	; assembler added errata NOP
  4305  0013C8  0E00               	movlw	0
  4306  0013CA  6E16               	movwf	?___fldiv^0,c
  4307  0013CC  0E00               	movlw	0
  4308  0013CE  6E17               	movwf	(?___fldiv+1)^0,c
  4309  0013D0  0E00               	movlw	0
  4310  0013D2  6E18               	movwf	(?___fldiv+2)^0,c
  4311  0013D4  0E00               	movlw	0
  4312  0013D6  6E19               	movwf	(?___fldiv+3)^0,c
  4313  0013D8  EF4E  F00B         	goto	l1027
  4314  0013DC                     l4274:
  4315  0013DC  FFFF               	dw	65535	; assembler added errata NOP
  4316  0013DE  502E               	movf	___fldiv@aexp^0,w,c
  4317  0013E0  C02D  F01E         	movff	___fldiv@bexp,??___fldiv
  4318  0013E4  6A1F               	clrf	(??___fldiv+1)^0,c
  4319  0013E6  5E1E               	subwf	??___fldiv^0,f,c
  4320  0013E8  0E00               	movlw	0
  4321  0013EA  5A1F               	subwfb	(??___fldiv+1)^0,f,c
  4322  0013EC  0E7F               	movlw	127
  4323  0013EE  241E               	addwf	??___fldiv^0,w,c
  4324  0013F0  6E27               	movwf	___fldiv@new_exp^0,c
  4325  0013F2  0E00               	movlw	0
  4326  0013F4  201F               	addwfc	(??___fldiv+1)^0,w,c
  4327  0013F6  6E28               	movwf	(___fldiv@new_exp+1)^0,c
  4328  0013F8  C016  F022         	movff	___fldiv@b,___fldiv@rem
  4329  0013FC  C017  F023         	movff	___fldiv@b+1,___fldiv@rem+1
  4330  001400  C018  F024         	movff	___fldiv@b+2,___fldiv@rem+2
  4331  001404  C019  F025         	movff	___fldiv@b+3,___fldiv@rem+3
  4332  001408  0E00               	movlw	0
  4333  00140A  6E16               	movwf	___fldiv@b^0,c
  4334  00140C  0E00               	movlw	0
  4335  00140E  6E17               	movwf	(___fldiv@b+1)^0,c
  4336  001410  0E00               	movlw	0
  4337  001412  6E18               	movwf	(___fldiv@b+2)^0,c
  4338  001414  0E00               	movlw	0
  4339  001416  6E19               	movwf	(___fldiv@b+3)^0,c
  4340  001418  0E00               	movlw	0
  4341  00141A  6E29               	movwf	___fldiv@grs^0,c
  4342  00141C  0E00               	movlw	0
  4343  00141E  6E2A               	movwf	(___fldiv@grs+1)^0,c
  4344  001420  0E00               	movlw	0
  4345  001422  6E2B               	movwf	(___fldiv@grs+2)^0,c
  4346  001424  0E00               	movlw	0
  4347  001426  6E2C               	movwf	(___fldiv@grs+3)^0,c
  4348  001428  0E00               	movlw	0
  4349  00142A  6E2E               	movwf	___fldiv@aexp^0,c
  4350  00142C  EF5A  F00A         	goto	l1029
  4351  001430                     l4284:
  4352  001430  FFFF               	dw	65535	; assembler added errata NOP
  4353  001432  502E               	movf	___fldiv@aexp^0,w,c
  4354  001434  B4D8               	btfsc	status,2,c
  4355  001436  EF1F  F00A         	goto	u4801
  4356  00143A  EF22  F00A         	goto	u4800
  4357  00143E                     u4801:
  4358  00143E  FFFF               	dw	65535	; assembler added errata NOP
  4359  001440  EF3D  F00A         	goto	l4292
  4360  001444                     u4800:
  4361  001444  FFFF               	dw	65535	; assembler added errata NOP
  4362  001446  90D8               	bcf	status,0,c
  4363  001448  3622               	rlcf	___fldiv@rem^0,f,c
  4364  00144A  3623               	rlcf	(___fldiv@rem+1)^0,f,c
  4365  00144C  3624               	rlcf	(___fldiv@rem+2)^0,f,c
  4366  00144E  3625               	rlcf	(___fldiv@rem+3)^0,f,c
  4367  001450  90D8               	bcf	status,0,c
  4368  001452  3616               	rlcf	___fldiv@b^0,f,c
  4369  001454  3617               	rlcf	(___fldiv@b+1)^0,f,c
  4370  001456  3618               	rlcf	(___fldiv@b+2)^0,f,c
  4371  001458  3619               	rlcf	(___fldiv@b+3)^0,f,c
  4372  00145A  AE2C               	btfss	(___fldiv@grs+3)^0,7,c
  4373  00145C  EF32  F00A         	goto	u4811
  4374  001460  EF35  F00A         	goto	u4810
  4375  001464                     u4811:
  4376  001464  FFFF               	dw	65535	; assembler added errata NOP
  4377  001466  EF37  F00A         	goto	l1032
  4378  00146A                     u4810:
  4379  00146A  FFFF               	dw	65535	; assembler added errata NOP
  4380  00146C  8016               	bsf	___fldiv@b^0,0,c
  4381  00146E                     l1032:
  4382  00146E  FFFF               	dw	65535	; assembler added errata NOP
  4383  001470  90D8               	bcf	status,0,c
  4384  001472  3629               	rlcf	___fldiv@grs^0,f,c
  4385  001474  362A               	rlcf	(___fldiv@grs+1)^0,f,c
  4386  001476  362B               	rlcf	(___fldiv@grs+2)^0,f,c
  4387  001478  362C               	rlcf	(___fldiv@grs+3)^0,f,c
  4388  00147A                     l4292:
  4389  00147A  FFFF               	dw	65535	; assembler added errata NOP
  4390  00147C  501A               	movf	___fldiv@a^0,w,c
  4391  00147E  5C22               	subwf	___fldiv@rem^0,w,c
  4392  001480  501B               	movf	(___fldiv@a+1)^0,w,c
  4393  001482  5823               	subwfb	(___fldiv@rem+1)^0,w,c
  4394  001484  501C               	movf	(___fldiv@a+2)^0,w,c
  4395  001486  5824               	subwfb	(___fldiv@rem+2)^0,w,c
  4396  001488  501D               	movf	(___fldiv@a+3)^0,w,c
  4397  00148A  5825               	subwfb	(___fldiv@rem+3)^0,w,c
  4398  00148C  A0D8               	btfss	status,0,c
  4399  00148E  EF4B  F00A         	goto	u4821
  4400  001492  EF4E  F00A         	goto	u4820
  4401  001496                     u4821:
  4402  001496  FFFF               	dw	65535	; assembler added errata NOP
  4403  001498  EF58  F00A         	goto	l4298
  4404  00149C                     u4820:
  4405  00149C  FFFF               	dw	65535	; assembler added errata NOP
  4406  00149E  8C2C               	bsf	(___fldiv@grs+3)^0,6,c
  4407  0014A0  501A               	movf	___fldiv@a^0,w,c
  4408  0014A2  5E22               	subwf	___fldiv@rem^0,f,c
  4409  0014A4  501B               	movf	(___fldiv@a+1)^0,w,c
  4410  0014A6  5A23               	subwfb	(___fldiv@rem+1)^0,f,c
  4411  0014A8  501C               	movf	(___fldiv@a+2)^0,w,c
  4412  0014AA  5A24               	subwfb	(___fldiv@rem+2)^0,f,c
  4413  0014AC  501D               	movf	(___fldiv@a+3)^0,w,c
  4414  0014AE  5A25               	subwfb	(___fldiv@rem+3)^0,f,c
  4415  0014B0                     l4298:
  4416  0014B0  FFFF               	dw	65535	; assembler added errata NOP
  4417  0014B2  2A2E               	incf	___fldiv@aexp^0,f,c
  4418  0014B4                     l1029:
  4419  0014B4  FFFF               	dw	65535	; assembler added errata NOP
  4420  0014B6  0E19               	movlw	25
  4421  0014B8  642E               	cpfsgt	___fldiv@aexp^0,c
  4422  0014BA  EF61  F00A         	goto	u4831
  4423  0014BE  EF64  F00A         	goto	u4830
  4424  0014C2                     u4831:
  4425  0014C2  FFFF               	dw	65535	; assembler added errata NOP
  4426  0014C4  EF18  F00A         	goto	l4284
  4427  0014C8                     u4830:
  4428  0014C8  FFFF               	dw	65535	; assembler added errata NOP
  4429  0014CA  5022               	movf	___fldiv@rem^0,w,c
  4430  0014CC  1023               	iorwf	(___fldiv@rem+1)^0,w,c
  4431  0014CE  1024               	iorwf	(___fldiv@rem+2)^0,w,c
  4432  0014D0  1025               	iorwf	(___fldiv@rem+3)^0,w,c
  4433  0014D2  B4D8               	btfsc	status,2,c
  4434  0014D4  EF6E  F00A         	goto	u4841
  4435  0014D8  EF71  F00A         	goto	u4840
  4436  0014DC                     u4841:
  4437  0014DC  FFFF               	dw	65535	; assembler added errata NOP
  4438  0014DE  EF8E  F00A         	goto	l4310
  4439  0014E2                     u4840:
  4440  0014E2  FFFF               	dw	65535	; assembler added errata NOP
  4441  0014E4  8029               	bsf	___fldiv@grs^0,0,c
  4442  0014E6  EF8E  F00A         	goto	l4310
  4443  0014EA                     l4304:
  4444  0014EA  FFFF               	dw	65535	; assembler added errata NOP
  4445  0014EC  90D8               	bcf	status,0,c
  4446  0014EE  3616               	rlcf	___fldiv@b^0,f,c
  4447  0014F0  3617               	rlcf	(___fldiv@b+1)^0,f,c
  4448  0014F2  3618               	rlcf	(___fldiv@b+2)^0,f,c
  4449  0014F4  3619               	rlcf	(___fldiv@b+3)^0,f,c
  4450  0014F6  AE2C               	btfss	(___fldiv@grs+3)^0,7,c
  4451  0014F8  EF80  F00A         	goto	u4851
  4452  0014FC  EF83  F00A         	goto	u4850
  4453  001500                     u4851:
  4454  001500  FFFF               	dw	65535	; assembler added errata NOP
  4455  001502  EF85  F00A         	goto	l1038
  4456  001506                     u4850:
  4457  001506  FFFF               	dw	65535	; assembler added errata NOP
  4458  001508  8016               	bsf	___fldiv@b^0,0,c
  4459  00150A                     l1038:
  4460  00150A  FFFF               	dw	65535	; assembler added errata NOP
  4461  00150C  90D8               	bcf	status,0,c
  4462  00150E  3629               	rlcf	___fldiv@grs^0,f,c
  4463  001510  362A               	rlcf	(___fldiv@grs+1)^0,f,c
  4464  001512  362B               	rlcf	(___fldiv@grs+2)^0,f,c
  4465  001514  362C               	rlcf	(___fldiv@grs+3)^0,f,c
  4466  001516  0627               	decf	___fldiv@new_exp^0,f,c
  4467  001518  A0D8               	btfss	status,0,c
  4468  00151A  0628               	decf	(___fldiv@new_exp+1)^0,f,c
  4469  00151C                     l4310:
  4470  00151C  FFFF               	dw	65535	; assembler added errata NOP
  4471  00151E  AE18               	btfss	(___fldiv@b+2)^0,7,c
  4472  001520  EF94  F00A         	goto	u4861
  4473  001524  EF97  F00A         	goto	u4860
  4474  001528                     u4861:
  4475  001528  FFFF               	dw	65535	; assembler added errata NOP
  4476  00152A  EF75  F00A         	goto	l4304
  4477  00152E                     u4860:
  4478  00152E  FFFF               	dw	65535	; assembler added errata NOP
  4479  001530  0E00               	movlw	0
  4480  001532  6E2E               	movwf	___fldiv@aexp^0,c
  4481  001534  AE2C               	btfss	(___fldiv@grs+3)^0,7,c
  4482  001536  EF9F  F00A         	goto	u4871
  4483  00153A  EFA2  F00A         	goto	u4870
  4484  00153E                     u4871:
  4485  00153E  FFFF               	dw	65535	; assembler added errata NOP
  4486  001540  EFCD  F00A         	goto	l1040
  4487  001544                     u4870:
  4488  001544  FFFF               	dw	65535	; assembler added errata NOP
  4489  001546  0EFF               	movlw	255
  4490  001548  1429               	andwf	___fldiv@grs^0,w,c
  4491  00154A  6E1E               	movwf	??___fldiv^0,c
  4492  00154C  0EFF               	movlw	255
  4493  00154E  142A               	andwf	(___fldiv@grs+1)^0,w,c
  4494  001550  6E1F               	movwf	(??___fldiv+1)^0,c
  4495  001552  0EFF               	movlw	255
  4496  001554  142B               	andwf	(___fldiv@grs+2)^0,w,c
  4497  001556  6E20               	movwf	(??___fldiv+2)^0,c
  4498  001558  0E7F               	movlw	127
  4499  00155A  142C               	andwf	(___fldiv@grs+3)^0,w,c
  4500  00155C  6E21               	movwf	(??___fldiv+3)^0,c
  4501  00155E  501E               	movf	??___fldiv^0,w,c
  4502  001560  101F               	iorwf	(??___fldiv+1)^0,w,c
  4503  001562  1020               	iorwf	(??___fldiv+2)^0,w,c
  4504  001564  1021               	iorwf	(??___fldiv+3)^0,w,c
  4505  001566  B4D8               	btfsc	status,2,c
  4506  001568  EFB8  F00A         	goto	u4881
  4507  00156C  EFBB  F00A         	goto	u4880
  4508  001570                     u4881:
  4509  001570  FFFF               	dw	65535	; assembler added errata NOP
  4510  001572  EFC1  F00A         	goto	l1041
  4511  001576                     u4880:
  4512  001576  FFFF               	dw	65535	; assembler added errata NOP
  4513  001578                     l4318:
  4514  001578  FFFF               	dw	65535	; assembler added errata NOP
  4515  00157A  0E01               	movlw	1
  4516  00157C  6E2E               	movwf	___fldiv@aexp^0,c
  4517  00157E  EFCD  F00A         	goto	l1040
  4518  001582                     l1041:
  4519  001582  FFFF               	dw	65535	; assembler added errata NOP
  4520  001584  A016               	btfss	___fldiv@b^0,0,c
  4521  001586  EFC7  F00A         	goto	u4891
  4522  00158A  EFCA  F00A         	goto	u4890
  4523  00158E                     u4891:
  4524  00158E  FFFF               	dw	65535	; assembler added errata NOP
  4525  001590  EFCD  F00A         	goto	l1040
  4526  001594                     u4890:
  4527  001594  FFFF               	dw	65535	; assembler added errata NOP
  4528  001596  EFBC  F00A         	goto	l4318
  4529  00159A                     l1040:
  4530  00159A  FFFF               	dw	65535	; assembler added errata NOP
  4531  00159C  502E               	movf	___fldiv@aexp^0,w,c
  4532  00159E  B4D8               	btfsc	status,2,c
  4533  0015A0  EFD4  F00A         	goto	u4901
  4534  0015A4  EFD7  F00A         	goto	u4900
  4535  0015A8                     u4901:
  4536  0015A8  FFFF               	dw	65535	; assembler added errata NOP
  4537  0015AA  EFFE  F00A         	goto	l4330
  4538  0015AE                     u4900:
  4539  0015AE  FFFF               	dw	65535	; assembler added errata NOP
  4540  0015B0  0E01               	movlw	1
  4541  0015B2  2616               	addwf	___fldiv@b^0,f,c
  4542  0015B4  0E00               	movlw	0
  4543  0015B6  2217               	addwfc	(___fldiv@b+1)^0,f,c
  4544  0015B8  2218               	addwfc	(___fldiv@b+2)^0,f,c
  4545  0015BA  2219               	addwfc	(___fldiv@b+3)^0,f,c
  4546  0015BC  A019               	btfss	(___fldiv@b+3)^0,0,c
  4547  0015BE  EFE3  F00A         	goto	u4911
  4548  0015C2  EFE6  F00A         	goto	u4910
  4549  0015C6                     u4911:
  4550  0015C6  FFFF               	dw	65535	; assembler added errata NOP
  4551  0015C8  EFFE  F00A         	goto	l4330
  4552  0015CC                     u4910:
  4553  0015CC  FFFF               	dw	65535	; assembler added errata NOP
  4554  0015CE  C016  F01E         	movff	___fldiv@b,??___fldiv
  4555  0015D2  C017  F01F         	movff	___fldiv@b+1,??___fldiv+1
  4556  0015D6  C018  F020         	movff	___fldiv@b+2,??___fldiv+2
  4557  0015DA  C019  F021         	movff	___fldiv@b+3,??___fldiv+3
  4558  0015DE  3421               	rlcf	(??___fldiv+3)^0,w,c
  4559  0015E0  3221               	rrcf	(??___fldiv+3)^0,f,c
  4560  0015E2  3220               	rrcf	(??___fldiv+2)^0,f,c
  4561  0015E4  321F               	rrcf	(??___fldiv+1)^0,f,c
  4562  0015E6  321E               	rrcf	??___fldiv^0,f,c
  4563  0015E8  C01E  F016         	movff	??___fldiv,___fldiv@b
  4564  0015EC  C01F  F017         	movff	??___fldiv+1,___fldiv@b+1
  4565  0015F0  C020  F018         	movff	??___fldiv+2,___fldiv@b+2
  4566  0015F4  C021  F019         	movff	??___fldiv+3,___fldiv@b+3
  4567  0015F8  4A27               	infsnz	___fldiv@new_exp^0,f,c
  4568  0015FA  2A28               	incf	(___fldiv@new_exp+1)^0,f,c
  4569  0015FC                     l4330:
  4570  0015FC  FFFF               	dw	65535	; assembler added errata NOP
  4571  0015FE  BE28               	btfsc	(___fldiv@new_exp+1)^0,7,c
  4572  001600  EF0A  F00B         	goto	u4921
  4573  001604  5028               	movf	(___fldiv@new_exp+1)^0,w,c
  4574  001606  E109               	bnz	u4920
  4575  001608  2827               	incf	___fldiv@new_exp^0,w,c
  4576  00160A  A0D8               	btfss	status,0,c
  4577  00160C  EF0A  F00B         	goto	u4921
  4578  001610  EF0D  F00B         	goto	u4920
  4579  001614                     u4921:
  4580  001614  FFFF               	dw	65535	; assembler added errata NOP
  4581  001616  EF19  F00B         	goto	l4334
  4582  00161A                     u4920:
  4583  00161A  FFFF               	dw	65535	; assembler added errata NOP
  4584  00161C  0E00               	movlw	0
  4585  00161E  6E28               	movwf	(___fldiv@new_exp+1)^0,c
  4586  001620  6827               	setf	___fldiv@new_exp^0,c
  4587  001622  0E00               	movlw	0
  4588  001624  6E16               	movwf	___fldiv@b^0,c
  4589  001626  0E00               	movlw	0
  4590  001628  6E17               	movwf	(___fldiv@b+1)^0,c
  4591  00162A  0E00               	movlw	0
  4592  00162C  6E18               	movwf	(___fldiv@b+2)^0,c
  4593  00162E  0E00               	movlw	0
  4594  001630  6E19               	movwf	(___fldiv@b+3)^0,c
  4595  001632                     l4334:
  4596  001632  FFFF               	dw	65535	; assembler added errata NOP
  4597  001634  BE28               	btfsc	(___fldiv@new_exp+1)^0,7,c
  4598  001636  EF28  F00B         	goto	u4930
  4599  00163A  5028               	movf	(___fldiv@new_exp+1)^0,w,c
  4600  00163C  E106               	bnz	u4931
  4601  00163E  0427               	decf	___fldiv@new_exp^0,w,c
  4602  001640  B0D8               	btfsc	status,0,c
  4603  001642  EF25  F00B         	goto	u4931
  4604  001646  EF28  F00B         	goto	u4930
  4605  00164A                     u4931:
  4606  00164A  FFFF               	dw	65535	; assembler added errata NOP
  4607  00164C  EF37  F00B         	goto	l4338
  4608  001650                     u4930:
  4609  001650  FFFF               	dw	65535	; assembler added errata NOP
  4610  001652  0E00               	movlw	0
  4611  001654  6E28               	movwf	(___fldiv@new_exp+1)^0,c
  4612  001656  0E00               	movlw	0
  4613  001658  6E27               	movwf	___fldiv@new_exp^0,c
  4614  00165A  0E00               	movlw	0
  4615  00165C  6E16               	movwf	___fldiv@b^0,c
  4616  00165E  0E00               	movlw	0
  4617  001660  6E17               	movwf	(___fldiv@b+1)^0,c
  4618  001662  0E00               	movlw	0
  4619  001664  6E18               	movwf	(___fldiv@b+2)^0,c
  4620  001666  0E00               	movlw	0
  4621  001668  6E19               	movwf	(___fldiv@b+3)^0,c
  4622  00166A  0E00               	movlw	0
  4623  00166C  6E26               	movwf	___fldiv@sign^0,c
  4624  00166E                     l4338:
  4625  00166E  FFFF               	dw	65535	; assembler added errata NOP
  4626  001670  C027  F02D         	movff	___fldiv@new_exp,___fldiv@bexp
  4627  001674  A02D               	btfss	___fldiv@bexp^0,0,c
  4628  001676  EF3F  F00B         	goto	u4941
  4629  00167A  EF42  F00B         	goto	u4940
  4630  00167E                     u4941:
  4631  00167E  FFFF               	dw	65535	; assembler added errata NOP
  4632  001680  EF46  F00B         	goto	l4344
  4633  001684                     u4940:
  4634  001684  FFFF               	dw	65535	; assembler added errata NOP
  4635  001686  8E18               	bsf	(___fldiv@b+2)^0,7,c
  4636  001688  EF48  F00B         	goto	l4346
  4637  00168C                     l4344:
  4638  00168C  FFFF               	dw	65535	; assembler added errata NOP
  4639  00168E  9E18               	bcf	(___fldiv@b+2)^0,7,c
  4640  001690                     l4346:
  4641  001690  FFFF               	dw	65535	; assembler added errata NOP
  4642  001692  90D8               	bcf	status,0,c
  4643  001694  302D               	rrcf	___fldiv@bexp^0,w,c
  4644  001696  6E19               	movwf	(___fldiv@b+3)^0,c
  4645  001698  EFCC  F009         	goto	l4260
  4646  00169C                     l1027:
  4647  00169C  FFFF               	dw	65535	; assembler added errata NOP
  4648  00169E  0012               	return		;funcret
  4649  0016A0  FFFF               	dw	65535	; errata NOP
  4650  0016A2                     __end_of___fldiv:
  4651                           	callstack 0
  4652                           
  4653 ;; *************** function _Z_axis *****************
  4654 ;; Defined at:
  4655 ;;		line 444 in file "main.c"
  4656 ;; Parameters:    Size  Location     Type
  4657 ;;  direction       1    wreg     unsigned char 
  4658 ;; Auto vars:     Size  Location     Type
  4659 ;;  direction       1   13[COMRAM] unsigned char 
  4660 ;; Return value:  Size  Location     Type
  4661 ;;                  1    wreg      void 
  4662 ;; Registers used:
  4663 ;;		wreg, status,2, status,0, cstack
  4664 ;; Tracked objects:
  4665 ;;		On entry : 0/0
  4666 ;;		On exit  : 0/0
  4667 ;;		Unchanged: 0/0
  4668 ;; Data sizes:     COMRAM   BANK0   BANK1   BANK2   BANK3   BANK4   BANK5
  4669 ;;      Params:         0       0       0       0       0       0       0
  4670 ;;      Locals:         1       0       0       0       0       0       0
  4671 ;;      Temps:          0       0       0       0       0       0       0
  4672 ;;      Totals:         1       0       0       0       0       0       0
  4673 ;;Total ram usage:        1 bytes
  4674 ;; Hardware stack levels used: 1
  4675 ;; Hardware stack levels required when called: 2
  4676 ;; This function calls:
  4677 ;;		_ms_delay
  4678 ;; This function is called by:
  4679 ;;		_pick_and_place
  4680 ;;		_return_to_initial
  4681 ;;		_Z_axis_and_Tweezer
  4682 ;; This function uses a non-reentrant model
  4683 ;;
  4684                           
  4685                           	psect	text11
  4686  00278A                     __ptext11:
  4687                           	callstack 0
  4688  00278A                     _Z_axis:
  4689                           	callstack 0
  4690  00278A  FFFF               	dw	65535	; assembler added errata NOP
  4691                           
  4692                           ;incstack = 0
  4693                           ;Z_axis@direction stored from wreg
  4694  00278C  6E0E               	movwf	Z_axis@direction^0,c
  4695  00278E                     
  4696                           ;main.c: 445:     if(!New_char_RX){
  4697  00278E  5076               	movf	_New_char_RX^0,w,c
  4698  002790  A4D8               	btfss	status,2,c
  4699  002792  EFCD  F013         	goto	u4621
  4700  002796  EFD0  F013         	goto	u4620
  4701  00279A                     u4621:
  4702  00279A  FFFF               	dw	65535	; assembler added errata NOP
  4703  00279C  EF3F  F014         	goto	l4162
  4704  0027A0                     u4620:
  4705  0027A0  FFFF               	dw	65535	; assembler added errata NOP
  4706  0027A2                     
  4707                           ;main.c: 446:         if (direction == 0){
  4708  0027A2  500E               	movf	Z_axis@direction^0,w,c
  4709  0027A4  A4D8               	btfss	status,2,c
  4710  0027A6  EFD7  F013         	goto	u4631
  4711  0027AA  EFDA  F013         	goto	u4630
  4712  0027AE                     u4631:
  4713  0027AE  FFFF               	dw	65535	; assembler added errata NOP
  4714  0027B0  EF07  F014         	goto	l4144
  4715  0027B4                     u4630:
  4716  0027B4  FFFF               	dw	65535	; assembler added errata NOP
  4717  0027B6                     
  4718                           ;main.c: 447:             PORTD = 0b00000011;
  4719  0027B6  0E03               	movlw	3
  4720  0027B8  6E83               	movwf	131,c	;volatile
  4721  0027BA                     
  4722                           ;main.c: 448:             ms_delay(1);
  4723  0027BA  0E00               	movlw	0
  4724  0027BC  6E09               	movwf	(ms_delay@val+1)^0,c
  4725  0027BE  0E01               	movlw	1
  4726  0027C0  6E08               	movwf	ms_delay@val^0,c
  4727  0027C2  EC82  F017         	call	_ms_delay	;wreg free
  4728  0027C6                     
  4729                           ;main.c: 449:             PORTD = 0b00000110;
  4730  0027C6  0E06               	movlw	6
  4731  0027C8  6E83               	movwf	131,c	;volatile
  4732                           
  4733                           ;main.c: 450:             ms_delay(1);
  4734  0027CA  0E00               	movlw	0
  4735  0027CC  6E09               	movwf	(ms_delay@val+1)^0,c
  4736  0027CE  0E01               	movlw	1
  4737  0027D0  6E08               	movwf	ms_delay@val^0,c
  4738  0027D2  EC82  F017         	call	_ms_delay	;wreg free
  4739  0027D6                     
  4740                           ;main.c: 451:             PORTD = 0b00001100;
  4741  0027D6  0E0C               	movlw	12
  4742  0027D8  6E83               	movwf	131,c	;volatile
  4743  0027DA                     
  4744                           ;main.c: 452:             ms_delay(1);
  4745  0027DA  0E00               	movlw	0
  4746  0027DC  6E09               	movwf	(ms_delay@val+1)^0,c
  4747  0027DE  0E01               	movlw	1
  4748  0027E0  6E08               	movwf	ms_delay@val^0,c
  4749  0027E2  EC82  F017         	call	_ms_delay	;wreg free
  4750                           
  4751                           ;main.c: 453:             PORTD = 0b00001001;
  4752  0027E6  0E09               	movlw	9
  4753  0027E8  6E83               	movwf	131,c	;volatile
  4754  0027EA                     
  4755                           ;main.c: 454:             ms_delay(1);
  4756  0027EA  0E00               	movlw	0
  4757  0027EC  6E09               	movwf	(ms_delay@val+1)^0,c
  4758  0027EE  0E01               	movlw	1
  4759  0027F0  6E08               	movwf	ms_delay@val^0,c
  4760  0027F2  EC82  F017         	call	_ms_delay	;wreg free
  4761  0027F6                     
  4762                           ;main.c: 455:             PORTD = 0b00000011;
  4763  0027F6  0E03               	movlw	3
  4764  0027F8  6E83               	movwf	131,c	;volatile
  4765                           
  4766                           ;main.c: 456:             ms_delay(5);
  4767  0027FA  0E00               	movlw	0
  4768  0027FC  6E09               	movwf	(ms_delay@val+1)^0,c
  4769  0027FE  0E05               	movlw	5
  4770  002800  6E08               	movwf	ms_delay@val^0,c
  4771  002802  EC82  F017         	call	_ms_delay	;wreg free
  4772  002806                     
  4773                           ;main.c: 457:             Step_Z--;
  4774  002806  0100               	movlb	0	; () banked
  4775  002808  07B2               	decf	_Step_Z& (0+255),f,b
  4776  00280A  A0D8               	btfss	status,0,c
  4777  00280C  07B3               	decf	(_Step_Z+1)& (0+255),f,b
  4778  00280E                     l4144:
  4779  00280E  FFFF               	dw	65535	; assembler added errata NOP
  4780                           
  4781                           ;main.c: 459:         if (direction == 1){
  4782  002810  040E               	decf	Z_axis@direction^0,w,c
  4783  002812  A4D8               	btfss	status,2,c
  4784  002814  EF0E  F014         	goto	u4641
  4785  002818  EF11  F014         	goto	u4640
  4786  00281C                     u4641:
  4787  00281C  FFFF               	dw	65535	; assembler added errata NOP
  4788  00281E  EF42  F014         	goto	l296
  4789  002822                     u4640:
  4790  002822  FFFF               	dw	65535	; assembler added errata NOP
  4791  002824                     
  4792                           ;main.c: 460:             PORTD = 0b00001001;
  4793  002824  0E09               	movlw	9
  4794  002826  6E83               	movwf	131,c	;volatile
  4795  002828                     
  4796                           ;main.c: 461:             ms_delay(1);
  4797  002828  0E00               	movlw	0
  4798  00282A  6E09               	movwf	(ms_delay@val+1)^0,c
  4799  00282C  0E01               	movlw	1
  4800  00282E  6E08               	movwf	ms_delay@val^0,c
  4801  002830  EC82  F017         	call	_ms_delay	;wreg free
  4802  002834                     
  4803                           ;main.c: 462:             PORTD = 0b00001100;
  4804  002834  0E0C               	movlw	12
  4805  002836  6E83               	movwf	131,c	;volatile
  4806                           
  4807                           ;main.c: 463:             ms_delay(1);
  4808  002838  0E00               	movlw	0
  4809  00283A  6E09               	movwf	(ms_delay@val+1)^0,c
  4810  00283C  0E01               	movlw	1
  4811  00283E  6E08               	movwf	ms_delay@val^0,c
  4812  002840  EC82  F017         	call	_ms_delay	;wreg free
  4813  002844                     
  4814                           ;main.c: 464:             PORTD = 0b00000110;
  4815  002844  0E06               	movlw	6
  4816  002846  6E83               	movwf	131,c	;volatile
  4817  002848                     
  4818                           ;main.c: 465:             ms_delay(1);
  4819  002848  0E00               	movlw	0
  4820  00284A  6E09               	movwf	(ms_delay@val+1)^0,c
  4821  00284C  0E01               	movlw	1
  4822  00284E  6E08               	movwf	ms_delay@val^0,c
  4823  002850  EC82  F017         	call	_ms_delay	;wreg free
  4824                           
  4825                           ;main.c: 466:             PORTD = 0b00000011;
  4826  002854  0E03               	movlw	3
  4827  002856  6E83               	movwf	131,c	;volatile
  4828  002858                     
  4829                           ;main.c: 467:             ms_delay(1);
  4830  002858  0E00               	movlw	0
  4831  00285A  6E09               	movwf	(ms_delay@val+1)^0,c
  4832  00285C  0E01               	movlw	1
  4833  00285E  6E08               	movwf	ms_delay@val^0,c
  4834  002860  EC82  F017         	call	_ms_delay	;wreg free
  4835  002864                     
  4836                           ;main.c: 468:             PORTD = 0b00001001;
  4837  002864  0E09               	movlw	9
  4838  002866  6E83               	movwf	131,c	;volatile
  4839                           
  4840                           ;main.c: 469:             ms_delay(5);
  4841  002868  0E00               	movlw	0
  4842  00286A  6E09               	movwf	(ms_delay@val+1)^0,c
  4843  00286C  0E05               	movlw	5
  4844  00286E  6E08               	movwf	ms_delay@val^0,c
  4845  002870  EC82  F017         	call	_ms_delay	;wreg free
  4846  002874                     
  4847                           ;main.c: 470:             Step_Z++;
  4848  002874  0100               	movlb	0	; () banked
  4849  002876  4BB2               	infsnz	_Step_Z& (0+255),f,b
  4850  002878  2BB3               	incf	(_Step_Z+1)& (0+255),f,b
  4851  00287A  EF42  F014         	goto	l296
  4852  00287E                     l4162:
  4853  00287E  FFFF               	dw	65535	; assembler added errata NOP
  4854                           
  4855                           ;main.c: 474:         stop=1;
  4856  002880  0E01               	movlw	1
  4857  002882  6E75               	movwf	_stop^0,c
  4858  002884                     l296:
  4859  002884  FFFF               	dw	65535	; assembler added errata NOP
  4860  002886  0012               	return		;funcret
  4861  002888  FFFF               	dw	65535	; errata NOP
  4862  00288A                     __end_of_Z_axis:
  4863                           	callstack 0
  4864                           
  4865 ;; *************** function _Y_axis *****************
  4866 ;; Defined at:
  4867 ;;		line 410 in file "main.c"
  4868 ;; Parameters:    Size  Location     Type
  4869 ;;  direction       1    wreg     unsigned char 
  4870 ;; Auto vars:     Size  Location     Type
  4871 ;;  direction       1   13[COMRAM] unsigned char 
  4872 ;; Return value:  Size  Location     Type
  4873 ;;                  1    wreg      void 
  4874 ;; Registers used:
  4875 ;;		wreg, status,2, status,0, cstack
  4876 ;; Tracked objects:
  4877 ;;		On entry : 0/0
  4878 ;;		On exit  : 0/0
  4879 ;;		Unchanged: 0/0
  4880 ;; Data sizes:     COMRAM   BANK0   BANK1   BANK2   BANK3   BANK4   BANK5
  4881 ;;      Params:         0       0       0       0       0       0       0
  4882 ;;      Locals:         1       0       0       0       0       0       0
  4883 ;;      Temps:          0       0       0       0       0       0       0
  4884 ;;      Totals:         1       0       0       0       0       0       0
  4885 ;;Total ram usage:        1 bytes
  4886 ;; Hardware stack levels used: 1
  4887 ;; Hardware stack levels required when called: 2
  4888 ;; This function calls:
  4889 ;;		_ms_delay
  4890 ;; This function is called by:
  4891 ;;		_pick_and_place
  4892 ;;		_return_to_initial
  4893 ;; This function uses a non-reentrant model
  4894 ;;
  4895                           
  4896                           	psect	text12
  4897  00288A                     __ptext12:
  4898                           	callstack 0
  4899  00288A                     _Y_axis:
  4900                           	callstack 0
  4901  00288A  FFFF               	dw	65535	; assembler added errata NOP
  4902                           
  4903                           ;incstack = 0
  4904                           ;Y_axis@direction stored from wreg
  4905  00288C  6E0E               	movwf	Y_axis@direction^0,c
  4906  00288E                     
  4907                           ;main.c: 411:     if(!New_char_RX){
  4908  00288E  5076               	movf	_New_char_RX^0,w,c
  4909  002890  A4D8               	btfss	status,2,c
  4910  002892  EF4D  F014         	goto	u4591
  4911  002896  EF50  F014         	goto	u4590
  4912  00289A                     u4591:
  4913  00289A  FFFF               	dw	65535	; assembler added errata NOP
  4914  00289C  EFBF  F014         	goto	l4122
  4915  0028A0                     u4590:
  4916  0028A0  FFFF               	dw	65535	; assembler added errata NOP
  4917  0028A2                     
  4918                           ;main.c: 412:         if (direction == 0){
  4919  0028A2  500E               	movf	Y_axis@direction^0,w,c
  4920  0028A4  A4D8               	btfss	status,2,c
  4921  0028A6  EF57  F014         	goto	u4601
  4922  0028AA  EF5A  F014         	goto	u4600
  4923  0028AE                     u4601:
  4924  0028AE  FFFF               	dw	65535	; assembler added errata NOP
  4925  0028B0  EF87  F014         	goto	l4104
  4926  0028B4                     u4600:
  4927  0028B4  FFFF               	dw	65535	; assembler added errata NOP
  4928  0028B6                     
  4929                           ;main.c: 413:             PORTB = 0b00110000;
  4930  0028B6  0E30               	movlw	48
  4931  0028B8  6E81               	movwf	129,c	;volatile
  4932  0028BA                     
  4933                           ;main.c: 414:             ms_delay(1);
  4934  0028BA  0E00               	movlw	0
  4935  0028BC  6E09               	movwf	(ms_delay@val+1)^0,c
  4936  0028BE  0E01               	movlw	1
  4937  0028C0  6E08               	movwf	ms_delay@val^0,c
  4938  0028C2  EC82  F017         	call	_ms_delay	;wreg free
  4939  0028C6                     
  4940                           ;main.c: 415:             PORTB = 0b01100000;
  4941  0028C6  0E60               	movlw	96
  4942  0028C8  6E81               	movwf	129,c	;volatile
  4943                           
  4944                           ;main.c: 416:             ms_delay(1);
  4945  0028CA  0E00               	movlw	0
  4946  0028CC  6E09               	movwf	(ms_delay@val+1)^0,c
  4947  0028CE  0E01               	movlw	1
  4948  0028D0  6E08               	movwf	ms_delay@val^0,c
  4949  0028D2  EC82  F017         	call	_ms_delay	;wreg free
  4950  0028D6                     
  4951                           ;main.c: 417:             PORTB = 0b11000000;
  4952  0028D6  0EC0               	movlw	192
  4953  0028D8  6E81               	movwf	129,c	;volatile
  4954  0028DA                     
  4955                           ;main.c: 418:             ms_delay(1);
  4956  0028DA  0E00               	movlw	0
  4957  0028DC  6E09               	movwf	(ms_delay@val+1)^0,c
  4958  0028DE  0E01               	movlw	1
  4959  0028E0  6E08               	movwf	ms_delay@val^0,c
  4960  0028E2  EC82  F017         	call	_ms_delay	;wreg free
  4961                           
  4962                           ;main.c: 419:             PORTB = 0b10010000;
  4963  0028E6  0E90               	movlw	144
  4964  0028E8  6E81               	movwf	129,c	;volatile
  4965  0028EA                     
  4966                           ;main.c: 420:             ms_delay(1);
  4967  0028EA  0E00               	movlw	0
  4968  0028EC  6E09               	movwf	(ms_delay@val+1)^0,c
  4969  0028EE  0E01               	movlw	1
  4970  0028F0  6E08               	movwf	ms_delay@val^0,c
  4971  0028F2  EC82  F017         	call	_ms_delay	;wreg free
  4972  0028F6                     
  4973                           ;main.c: 421:             PORTB = 0b00110000;
  4974  0028F6  0E30               	movlw	48
  4975  0028F8  6E81               	movwf	129,c	;volatile
  4976                           
  4977                           ;main.c: 422:             ms_delay(1);
  4978  0028FA  0E00               	movlw	0
  4979  0028FC  6E09               	movwf	(ms_delay@val+1)^0,c
  4980  0028FE  0E01               	movlw	1
  4981  002900  6E08               	movwf	ms_delay@val^0,c
  4982  002902  EC82  F017         	call	_ms_delay	;wreg free
  4983  002906                     
  4984                           ;main.c: 423:             Step_Y--;
  4985  002906  0100               	movlb	0	; () banked
  4986  002908  07B4               	decf	_Step_Y& (0+255),f,b
  4987  00290A  A0D8               	btfss	status,0,c
  4988  00290C  07B5               	decf	(_Step_Y+1)& (0+255),f,b
  4989  00290E                     l4104:
  4990  00290E  FFFF               	dw	65535	; assembler added errata NOP
  4991                           
  4992                           ;main.c: 425:         if (direction == 1){
  4993  002910  040E               	decf	Y_axis@direction^0,w,c
  4994  002912  A4D8               	btfss	status,2,c
  4995  002914  EF8E  F014         	goto	u4611
  4996  002918  EF91  F014         	goto	u4610
  4997  00291C                     u4611:
  4998  00291C  FFFF               	dw	65535	; assembler added errata NOP
  4999  00291E  EFC2  F014         	goto	l289
  5000  002922                     u4610:
  5001  002922  FFFF               	dw	65535	; assembler added errata NOP
  5002  002924                     
  5003                           ;main.c: 426:             PORTB = 0b10010000;
  5004  002924  0E90               	movlw	144
  5005  002926  6E81               	movwf	129,c	;volatile
  5006  002928                     
  5007                           ;main.c: 427:             ms_delay(1);
  5008  002928  0E00               	movlw	0
  5009  00292A  6E09               	movwf	(ms_delay@val+1)^0,c
  5010  00292C  0E01               	movlw	1
  5011  00292E  6E08               	movwf	ms_delay@val^0,c
  5012  002930  EC82  F017         	call	_ms_delay	;wreg free
  5013  002934                     
  5014                           ;main.c: 428:             PORTB = 0b11000000;
  5015  002934  0EC0               	movlw	192
  5016  002936  6E81               	movwf	129,c	;volatile
  5017                           
  5018                           ;main.c: 429:             ms_delay(1);
  5019  002938  0E00               	movlw	0
  5020  00293A  6E09               	movwf	(ms_delay@val+1)^0,c
  5021  00293C  0E01               	movlw	1
  5022  00293E  6E08               	movwf	ms_delay@val^0,c
  5023  002940  EC82  F017         	call	_ms_delay	;wreg free
  5024  002944                     
  5025                           ;main.c: 430:             PORTB = 0b01100000;
  5026  002944  0E60               	movlw	96
  5027  002946  6E81               	movwf	129,c	;volatile
  5028  002948                     
  5029                           ;main.c: 431:             ms_delay(1);
  5030  002948  0E00               	movlw	0
  5031  00294A  6E09               	movwf	(ms_delay@val+1)^0,c
  5032  00294C  0E01               	movlw	1
  5033  00294E  6E08               	movwf	ms_delay@val^0,c
  5034  002950  EC82  F017         	call	_ms_delay	;wreg free
  5035                           
  5036                           ;main.c: 432:             PORTB = 0b00110000;
  5037  002954  0E30               	movlw	48
  5038  002956  6E81               	movwf	129,c	;volatile
  5039  002958                     
  5040                           ;main.c: 433:             ms_delay(1);
  5041  002958  0E00               	movlw	0
  5042  00295A  6E09               	movwf	(ms_delay@val+1)^0,c
  5043  00295C  0E01               	movlw	1
  5044  00295E  6E08               	movwf	ms_delay@val^0,c
  5045  002960  EC82  F017         	call	_ms_delay	;wreg free
  5046  002964                     
  5047                           ;main.c: 434:             PORTB = 0b10010000;
  5048  002964  0E90               	movlw	144
  5049  002966  6E81               	movwf	129,c	;volatile
  5050                           
  5051                           ;main.c: 435:             ms_delay(1);
  5052  002968  0E00               	movlw	0
  5053  00296A  6E09               	movwf	(ms_delay@val+1)^0,c
  5054  00296C  0E01               	movlw	1
  5055  00296E  6E08               	movwf	ms_delay@val^0,c
  5056  002970  EC82  F017         	call	_ms_delay	;wreg free
  5057  002974                     
  5058                           ;main.c: 436:             Step_Y++;
  5059  002974  0100               	movlb	0	; () banked
  5060  002976  4BB4               	infsnz	_Step_Y& (0+255),f,b
  5061  002978  2BB5               	incf	(_Step_Y+1)& (0+255),f,b
  5062  00297A  EFC2  F014         	goto	l289
  5063  00297E                     l4122:
  5064  00297E  FFFF               	dw	65535	; assembler added errata NOP
  5065                           
  5066                           ;main.c: 440:         stop=1;
  5067  002980  0E01               	movlw	1
  5068  002982  6E75               	movwf	_stop^0,c
  5069  002984                     l289:
  5070  002984  FFFF               	dw	65535	; assembler added errata NOP
  5071  002986  0012               	return		;funcret
  5072  002988  FFFF               	dw	65535	; errata NOP
  5073  00298A                     __end_of_Y_axis:
  5074                           	callstack 0
  5075                           
  5076 ;; *************** function _X_axis *****************
  5077 ;; Defined at:
  5078 ;;		line 376 in file "main.c"
  5079 ;; Parameters:    Size  Location     Type
  5080 ;;  direction       1    wreg     unsigned char 
  5081 ;; Auto vars:     Size  Location     Type
  5082 ;;  direction       1   13[COMRAM] unsigned char 
  5083 ;; Return value:  Size  Location     Type
  5084 ;;                  1    wreg      void 
  5085 ;; Registers used:
  5086 ;;		wreg, status,2, status,0, cstack
  5087 ;; Tracked objects:
  5088 ;;		On entry : 0/0
  5089 ;;		On exit  : 0/0
  5090 ;;		Unchanged: 0/0
  5091 ;; Data sizes:     COMRAM   BANK0   BANK1   BANK2   BANK3   BANK4   BANK5
  5092 ;;      Params:         0       0       0       0       0       0       0
  5093 ;;      Locals:         1       0       0       0       0       0       0
  5094 ;;      Temps:          0       0       0       0       0       0       0
  5095 ;;      Totals:         1       0       0       0       0       0       0
  5096 ;;Total ram usage:        1 bytes
  5097 ;; Hardware stack levels used: 1
  5098 ;; Hardware stack levels required when called: 2
  5099 ;; This function calls:
  5100 ;;		_ms_delay
  5101 ;; This function is called by:
  5102 ;;		_pick_and_place
  5103 ;;		_return_to_initial
  5104 ;; This function uses a non-reentrant model
  5105 ;;
  5106                           
  5107                           	psect	text13
  5108  00298A                     __ptext13:
  5109                           	callstack 0
  5110  00298A                     _X_axis:
  5111                           	callstack 0
  5112  00298A  FFFF               	dw	65535	; assembler added errata NOP
  5113                           
  5114                           ;incstack = 0
  5115                           ;X_axis@direction stored from wreg
  5116  00298C  6E0E               	movwf	X_axis@direction^0,c
  5117  00298E                     
  5118                           ;main.c: 377:     if(!New_char_RX){
  5119  00298E  5076               	movf	_New_char_RX^0,w,c
  5120  002990  A4D8               	btfss	status,2,c
  5121  002992  EFCD  F014         	goto	u4561
  5122  002996  EFD0  F014         	goto	u4560
  5123  00299A                     u4561:
  5124  00299A  FFFF               	dw	65535	; assembler added errata NOP
  5125  00299C  EF3F  F015         	goto	l4082
  5126  0029A0                     u4560:
  5127  0029A0  FFFF               	dw	65535	; assembler added errata NOP
  5128  0029A2                     
  5129                           ;main.c: 378:         if (direction == 0){
  5130  0029A2  500E               	movf	X_axis@direction^0,w,c
  5131  0029A4  A4D8               	btfss	status,2,c
  5132  0029A6  EFD7  F014         	goto	u4571
  5133  0029AA  EFDA  F014         	goto	u4570
  5134  0029AE                     u4571:
  5135  0029AE  FFFF               	dw	65535	; assembler added errata NOP
  5136  0029B0  EF07  F015         	goto	l4064
  5137  0029B4                     u4570:
  5138  0029B4  FFFF               	dw	65535	; assembler added errata NOP
  5139  0029B6                     
  5140                           ;main.c: 379:             PORTA = 0b00000011;
  5141  0029B6  0E03               	movlw	3
  5142  0029B8  6E80               	movwf	128,c	;volatile
  5143  0029BA                     
  5144                           ;main.c: 380:             ms_delay(1);
  5145  0029BA  0E00               	movlw	0
  5146  0029BC  6E09               	movwf	(ms_delay@val+1)^0,c
  5147  0029BE  0E01               	movlw	1
  5148  0029C0  6E08               	movwf	ms_delay@val^0,c
  5149  0029C2  EC82  F017         	call	_ms_delay	;wreg free
  5150  0029C6                     
  5151                           ;main.c: 381:             PORTA = 0b00000110;
  5152  0029C6  0E06               	movlw	6
  5153  0029C8  6E80               	movwf	128,c	;volatile
  5154                           
  5155                           ;main.c: 382:             ms_delay(1);
  5156  0029CA  0E00               	movlw	0
  5157  0029CC  6E09               	movwf	(ms_delay@val+1)^0,c
  5158  0029CE  0E01               	movlw	1
  5159  0029D0  6E08               	movwf	ms_delay@val^0,c
  5160  0029D2  EC82  F017         	call	_ms_delay	;wreg free
  5161  0029D6                     
  5162                           ;main.c: 383:             PORTA = 0b00001100;
  5163  0029D6  0E0C               	movlw	12
  5164  0029D8  6E80               	movwf	128,c	;volatile
  5165  0029DA                     
  5166                           ;main.c: 384:             ms_delay(1);
  5167  0029DA  0E00               	movlw	0
  5168  0029DC  6E09               	movwf	(ms_delay@val+1)^0,c
  5169  0029DE  0E01               	movlw	1
  5170  0029E0  6E08               	movwf	ms_delay@val^0,c
  5171  0029E2  EC82  F017         	call	_ms_delay	;wreg free
  5172                           
  5173                           ;main.c: 385:             PORTA = 0b00001001;
  5174  0029E6  0E09               	movlw	9
  5175  0029E8  6E80               	movwf	128,c	;volatile
  5176  0029EA                     
  5177                           ;main.c: 386:             ms_delay(1);
  5178  0029EA  0E00               	movlw	0
  5179  0029EC  6E09               	movwf	(ms_delay@val+1)^0,c
  5180  0029EE  0E01               	movlw	1
  5181  0029F0  6E08               	movwf	ms_delay@val^0,c
  5182  0029F2  EC82  F017         	call	_ms_delay	;wreg free
  5183  0029F6                     
  5184                           ;main.c: 387:             PORTA = 0b00000011;
  5185  0029F6  0E03               	movlw	3
  5186  0029F8  6E80               	movwf	128,c	;volatile
  5187                           
  5188                           ;main.c: 388:             ms_delay(1);
  5189  0029FA  0E00               	movlw	0
  5190  0029FC  6E09               	movwf	(ms_delay@val+1)^0,c
  5191  0029FE  0E01               	movlw	1
  5192  002A00  6E08               	movwf	ms_delay@val^0,c
  5193  002A02  EC82  F017         	call	_ms_delay	;wreg free
  5194  002A06                     
  5195                           ;main.c: 389:             Step_X--;
  5196  002A06  0100               	movlb	0	; () banked
  5197  002A08  07B6               	decf	_Step_X& (0+255),f,b
  5198  002A0A  A0D8               	btfss	status,0,c
  5199  002A0C  07B7               	decf	(_Step_X+1)& (0+255),f,b
  5200  002A0E                     l4064:
  5201  002A0E  FFFF               	dw	65535	; assembler added errata NOP
  5202                           
  5203                           ;main.c: 391:         if (direction == 1){
  5204  002A10  040E               	decf	X_axis@direction^0,w,c
  5205  002A12  A4D8               	btfss	status,2,c
  5206  002A14  EF0E  F015         	goto	u4581
  5207  002A18  EF11  F015         	goto	u4580
  5208  002A1C                     u4581:
  5209  002A1C  FFFF               	dw	65535	; assembler added errata NOP
  5210  002A1E  EF42  F015         	goto	l282
  5211  002A22                     u4580:
  5212  002A22  FFFF               	dw	65535	; assembler added errata NOP
  5213  002A24                     
  5214                           ;main.c: 392:             PORTA = 0b00001001;
  5215  002A24  0E09               	movlw	9
  5216  002A26  6E80               	movwf	128,c	;volatile
  5217  002A28                     
  5218                           ;main.c: 393:             ms_delay(1);
  5219  002A28  0E00               	movlw	0
  5220  002A2A  6E09               	movwf	(ms_delay@val+1)^0,c
  5221  002A2C  0E01               	movlw	1
  5222  002A2E  6E08               	movwf	ms_delay@val^0,c
  5223  002A30  EC82  F017         	call	_ms_delay	;wreg free
  5224  002A34                     
  5225                           ;main.c: 394:             PORTA = 0b00001100;
  5226  002A34  0E0C               	movlw	12
  5227  002A36  6E80               	movwf	128,c	;volatile
  5228                           
  5229                           ;main.c: 395:             ms_delay(1);
  5230  002A38  0E00               	movlw	0
  5231  002A3A  6E09               	movwf	(ms_delay@val+1)^0,c
  5232  002A3C  0E01               	movlw	1
  5233  002A3E  6E08               	movwf	ms_delay@val^0,c
  5234  002A40  EC82  F017         	call	_ms_delay	;wreg free
  5235  002A44                     
  5236                           ;main.c: 396:             PORTA = 0b00000110;
  5237  002A44  0E06               	movlw	6
  5238  002A46  6E80               	movwf	128,c	;volatile
  5239  002A48                     
  5240                           ;main.c: 397:             ms_delay(1);
  5241  002A48  0E00               	movlw	0
  5242  002A4A  6E09               	movwf	(ms_delay@val+1)^0,c
  5243  002A4C  0E01               	movlw	1
  5244  002A4E  6E08               	movwf	ms_delay@val^0,c
  5245  002A50  EC82  F017         	call	_ms_delay	;wreg free
  5246                           
  5247                           ;main.c: 398:             PORTA = 0b00000011;
  5248  002A54  0E03               	movlw	3
  5249  002A56  6E80               	movwf	128,c	;volatile
  5250  002A58                     
  5251                           ;main.c: 399:             ms_delay(1);
  5252  002A58  0E00               	movlw	0
  5253  002A5A  6E09               	movwf	(ms_delay@val+1)^0,c
  5254  002A5C  0E01               	movlw	1
  5255  002A5E  6E08               	movwf	ms_delay@val^0,c
  5256  002A60  EC82  F017         	call	_ms_delay	;wreg free
  5257  002A64                     
  5258                           ;main.c: 400:             PORTA = 0b00001001;
  5259  002A64  0E09               	movlw	9
  5260  002A66  6E80               	movwf	128,c	;volatile
  5261                           
  5262                           ;main.c: 401:             ms_delay(1);
  5263  002A68  0E00               	movlw	0
  5264  002A6A  6E09               	movwf	(ms_delay@val+1)^0,c
  5265  002A6C  0E01               	movlw	1
  5266  002A6E  6E08               	movwf	ms_delay@val^0,c
  5267  002A70  EC82  F017         	call	_ms_delay	;wreg free
  5268  002A74                     
  5269                           ;main.c: 402:             Step_X++;
  5270  002A74  0100               	movlb	0	; () banked
  5271  002A76  4BB6               	infsnz	_Step_X& (0+255),f,b
  5272  002A78  2BB7               	incf	(_Step_X+1)& (0+255),f,b
  5273  002A7A  EF42  F015         	goto	l282
  5274  002A7E                     l4082:
  5275  002A7E  FFFF               	dw	65535	; assembler added errata NOP
  5276                           
  5277                           ;main.c: 406:         stop=1;
  5278  002A80  0E01               	movlw	1
  5279  002A82  6E75               	movwf	_stop^0,c
  5280  002A84                     l282:
  5281  002A84  FFFF               	dw	65535	; assembler added errata NOP
  5282  002A86  0012               	return		;funcret
  5283  002A88  FFFF               	dw	65535	; errata NOP
  5284  002A8A                     __end_of_X_axis:
  5285                           	callstack 0
  5286                           
  5287 ;; *************** function _Twister *****************
  5288 ;; Defined at:
  5289 ;;		line 478 in file "main.c"
  5290 ;; Parameters:    Size  Location     Type
  5291 ;;  direction       1    wreg     unsigned char 
  5292 ;; Auto vars:     Size  Location     Type
  5293 ;;  direction       1   13[COMRAM] unsigned char 
  5294 ;; Return value:  Size  Location     Type
  5295 ;;                  1    wreg      void 
  5296 ;; Registers used:
  5297 ;;		wreg, status,2, status,0, cstack
  5298 ;; Tracked objects:
  5299 ;;		On entry : 0/0
  5300 ;;		On exit  : 0/0
  5301 ;;		Unchanged: 0/0
  5302 ;; Data sizes:     COMRAM   BANK0   BANK1   BANK2   BANK3   BANK4   BANK5
  5303 ;;      Params:         0       0       0       0       0       0       0
  5304 ;;      Locals:         1       0       0       0       0       0       0
  5305 ;;      Temps:          0       0       0       0       0       0       0
  5306 ;;      Totals:         1       0       0       0       0       0       0
  5307 ;;Total ram usage:        1 bytes
  5308 ;; Hardware stack levels used: 1
  5309 ;; Hardware stack levels required when called: 2
  5310 ;; This function calls:
  5311 ;;		_ms_delay
  5312 ;; This function is called by:
  5313 ;;		_pick_and_place
  5314 ;;		_return_to_initial
  5315 ;; This function uses a non-reentrant model
  5316 ;;
  5317                           
  5318                           	psect	text14
  5319  002B84                     __ptext14:
  5320                           	callstack 0
  5321  002B84                     _Twister:
  5322                           	callstack 0
  5323  002B84  FFFF               	dw	65535	; assembler added errata NOP
  5324                           
  5325                           ;incstack = 0
  5326                           ;Twister@direction stored from wreg
  5327  002B86  6E0E               	movwf	Twister@direction^0,c
  5328  002B88                     
  5329                           ;main.c: 479:     if(!New_char_RX){
  5330  002B88  5076               	movf	_New_char_RX^0,w,c
  5331  002B8A  A4D8               	btfss	status,2,c
  5332  002B8C  EFCA  F015         	goto	u4651
  5333  002B90  EFCD  F015         	goto	u4650
  5334  002B94                     u4651:
  5335  002B94  FFFF               	dw	65535	; assembler added errata NOP
  5336  002B96  EF2C  F016         	goto	l4198
  5337  002B9A                     u4650:
  5338  002B9A  FFFF               	dw	65535	; assembler added errata NOP
  5339  002B9C                     
  5340                           ;main.c: 480:         if (direction == 0){
  5341  002B9C  500E               	movf	Twister@direction^0,w,c
  5342  002B9E  A4D8               	btfss	status,2,c
  5343  002BA0  EFD4  F015         	goto	u4661
  5344  002BA4  EFD7  F015         	goto	u4660
  5345  002BA8                     u4661:
  5346  002BA8  FFFF               	dw	65535	; assembler added errata NOP
  5347  002BAA  EFFC  F015         	goto	l4182
  5348  002BAE                     u4660:
  5349  002BAE  FFFF               	dw	65535	; assembler added errata NOP
  5350  002BB0                     
  5351                           ;main.c: 481:             PORTD = 0b00110000;
  5352  002BB0  0E30               	movlw	48
  5353  002BB2  6E83               	movwf	131,c	;volatile
  5354  002BB4                     
  5355                           ;main.c: 482:             ms_delay(1);
  5356  002BB4  0E00               	movlw	0
  5357  002BB6  6E09               	movwf	(ms_delay@val+1)^0,c
  5358  002BB8  0E01               	movlw	1
  5359  002BBA  6E08               	movwf	ms_delay@val^0,c
  5360  002BBC  EC82  F017         	call	_ms_delay	;wreg free
  5361  002BC0                     
  5362                           ;main.c: 483:             PORTD = 0b11000000;
  5363  002BC0  0EC0               	movlw	192
  5364  002BC2  6E83               	movwf	131,c	;volatile
  5365                           
  5366                           ;main.c: 484:             ms_delay(1);
  5367  002BC4  0E00               	movlw	0
  5368  002BC6  6E09               	movwf	(ms_delay@val+1)^0,c
  5369  002BC8  0E01               	movlw	1
  5370  002BCA  6E08               	movwf	ms_delay@val^0,c
  5371  002BCC  EC82  F017         	call	_ms_delay	;wreg free
  5372  002BD0                     
  5373                           ;main.c: 485:             PORTD = 0b10010000;
  5374  002BD0  0E90               	movlw	144
  5375  002BD2  6E83               	movwf	131,c	;volatile
  5376  002BD4                     
  5377                           ;main.c: 486:             ms_delay(1);
  5378  002BD4  0E00               	movlw	0
  5379  002BD6  6E09               	movwf	(ms_delay@val+1)^0,c
  5380  002BD8  0E01               	movlw	1
  5381  002BDA  6E08               	movwf	ms_delay@val^0,c
  5382  002BDC  EC82  F017         	call	_ms_delay	;wreg free
  5383                           
  5384                           ;main.c: 487:             PORTD = 0b00110000;
  5385  002BE0  0E30               	movlw	48
  5386  002BE2  6E83               	movwf	131,c	;volatile
  5387  002BE4                     
  5388                           ;main.c: 488:             ms_delay(1);
  5389  002BE4  0E00               	movlw	0
  5390  002BE6  6E09               	movwf	(ms_delay@val+1)^0,c
  5391  002BE8  0E01               	movlw	1
  5392  002BEA  6E08               	movwf	ms_delay@val^0,c
  5393  002BEC  EC82  F017         	call	_ms_delay	;wreg free
  5394  002BF0                     
  5395                           ;main.c: 489:             Step_Angle--;
  5396  002BF0  0100               	movlb	0	; () banked
  5397  002BF2  07B0               	decf	_Step_Angle& (0+255),f,b
  5398  002BF4  A0D8               	btfss	status,0,c
  5399  002BF6  07B1               	decf	(_Step_Angle+1)& (0+255),f,b
  5400  002BF8                     l4182:
  5401  002BF8  FFFF               	dw	65535	; assembler added errata NOP
  5402                           
  5403                           ;main.c: 491:         if (direction == 1){
  5404  002BFA  040E               	decf	Twister@direction^0,w,c
  5405  002BFC  A4D8               	btfss	status,2,c
  5406  002BFE  EF03  F016         	goto	u4671
  5407  002C02  EF06  F016         	goto	u4670
  5408  002C06                     u4671:
  5409  002C06  FFFF               	dw	65535	; assembler added errata NOP
  5410  002C08  EF2F  F016         	goto	l303
  5411  002C0C                     u4670:
  5412  002C0C  FFFF               	dw	65535	; assembler added errata NOP
  5413  002C0E                     
  5414                           ;main.c: 492:             PORTD = 0b10010000;
  5415  002C0E  0E90               	movlw	144
  5416  002C10  6E83               	movwf	131,c	;volatile
  5417  002C12                     
  5418                           ;main.c: 493:             ms_delay(1);
  5419  002C12  0E00               	movlw	0
  5420  002C14  6E09               	movwf	(ms_delay@val+1)^0,c
  5421  002C16  0E01               	movlw	1
  5422  002C18  6E08               	movwf	ms_delay@val^0,c
  5423  002C1A  EC82  F017         	call	_ms_delay	;wreg free
  5424  002C1E                     
  5425                           ;main.c: 494:             PORTD = 0b01100000;
  5426  002C1E  0E60               	movlw	96
  5427  002C20  6E83               	movwf	131,c	;volatile
  5428                           
  5429                           ;main.c: 495:             ms_delay(1);
  5430  002C22  0E00               	movlw	0
  5431  002C24  6E09               	movwf	(ms_delay@val+1)^0,c
  5432  002C26  0E01               	movlw	1
  5433  002C28  6E08               	movwf	ms_delay@val^0,c
  5434  002C2A  EC82  F017         	call	_ms_delay	;wreg free
  5435  002C2E                     
  5436                           ;main.c: 496:             PORTD = 0b00110000;
  5437  002C2E  0E30               	movlw	48
  5438  002C30  6E83               	movwf	131,c	;volatile
  5439  002C32                     
  5440                           ;main.c: 497:             ms_delay(1);
  5441  002C32  0E00               	movlw	0
  5442  002C34  6E09               	movwf	(ms_delay@val+1)^0,c
  5443  002C36  0E01               	movlw	1
  5444  002C38  6E08               	movwf	ms_delay@val^0,c
  5445  002C3A  EC82  F017         	call	_ms_delay	;wreg free
  5446                           
  5447                           ;main.c: 498:             PORTD = 0b10010000;
  5448  002C3E  0E90               	movlw	144
  5449  002C40  6E83               	movwf	131,c	;volatile
  5450  002C42                     
  5451                           ;main.c: 499:             ms_delay(1);
  5452  002C42  0E00               	movlw	0
  5453  002C44  6E09               	movwf	(ms_delay@val+1)^0,c
  5454  002C46  0E01               	movlw	1
  5455  002C48  6E08               	movwf	ms_delay@val^0,c
  5456  002C4A  EC82  F017         	call	_ms_delay	;wreg free
  5457  002C4E                     
  5458                           ;main.c: 500:             Step_Angle++;
  5459  002C4E  0100               	movlb	0	; () banked
  5460  002C50  4BB0               	infsnz	_Step_Angle& (0+255),f,b
  5461  002C52  2BB1               	incf	(_Step_Angle+1)& (0+255),f,b
  5462  002C54  EF2F  F016         	goto	l303
  5463  002C58                     l4198:
  5464  002C58  FFFF               	dw	65535	; assembler added errata NOP
  5465                           
  5466                           ;main.c: 504:         stop=1;
  5467  002C5A  0E01               	movlw	1
  5468  002C5C  6E75               	movwf	_stop^0,c
  5469  002C5E                     l303:
  5470  002C5E  FFFF               	dw	65535	; assembler added errata NOP
  5471  002C60  0012               	return		;funcret
  5472  002C62  FFFF               	dw	65535	; errata NOP
  5473  002C64                     __end_of_Twister:
  5474                           	callstack 0
  5475                           
  5476 ;; *************** function _ms_delay *****************
  5477 ;; Defined at:
  5478 ;;		line 517 in file "main.c"
  5479 ;; Parameters:    Size  Location     Type
  5480 ;;  val             2    7[COMRAM] unsigned int 
  5481 ;; Auto vars:     Size  Location     Type
  5482 ;;  j               2   11[COMRAM] unsigned int 
  5483 ;;  i               2    9[COMRAM] unsigned int 
  5484 ;; Return value:  Size  Location     Type
  5485 ;;                  1    wreg      void 
  5486 ;; Registers used:
  5487 ;;		wreg, status,2, status,0
  5488 ;; Tracked objects:
  5489 ;;		On entry : 0/0
  5490 ;;		On exit  : 0/0
  5491 ;;		Unchanged: 0/0
  5492 ;; Data sizes:     COMRAM   BANK0   BANK1   BANK2   BANK3   BANK4   BANK5
  5493 ;;      Params:         2       0       0       0       0       0       0
  5494 ;;      Locals:         4       0       0       0       0       0       0
  5495 ;;      Temps:          0       0       0       0       0       0       0
  5496 ;;      Totals:         6       0       0       0       0       0       0
  5497 ;;Total ram usage:        6 bytes
  5498 ;; Hardware stack levels used: 1
  5499 ;; Hardware stack levels required when called: 1
  5500 ;; This function calls:
  5501 ;;		Nothing
  5502 ;; This function is called by:
  5503 ;;		_X_axis
  5504 ;;		_Y_axis
  5505 ;;		_Z_axis
  5506 ;;		_Twister
  5507 ;; This function uses a non-reentrant model
  5508 ;;
  5509                           
  5510                           	psect	text15
  5511  002F04                     __ptext15:
  5512                           	callstack 0
  5513  002F04                     _ms_delay:
  5514                           	callstack 0
  5515  002F04  FFFF               	dw	65535	; assembler added errata NOP
  5516  002F06                     
  5517                           ;main.c: 517: void ms_delay(unsigned int val);main.c: 518: {;main.c: 519:      unsigned 
      +                          int i,j;;main.c: 520:         for(i=0;i<val;i++)
  5518  002F06  0E00               	movlw	0
  5519  002F08  6E0B               	movwf	(ms_delay@i+1)^0,c
  5520  002F0A  0E00               	movlw	0
  5521  002F0C  6E0A               	movwf	ms_delay@i^0,c
  5522  002F0E  EF8C  F017         	goto	l4032
  5523  002F12                     l4030:
  5524  002F12  FFFF               	dw	65535	; assembler added errata NOP
  5525                           
  5526                           ;main.c: 521: ; for(j=0;j<1650;j++);
  5527  002F14  4A0A               	infsnz	ms_delay@i^0,f,c
  5528  002F16  2A0B               	incf	(ms_delay@i+1)^0,f,c
  5529  002F18                     l4032:
  5530  002F18  FFFF               	dw	65535	; assembler added errata NOP
  5531  002F1A  5008               	movf	ms_delay@val^0,w,c
  5532  002F1C  5C0A               	subwf	ms_delay@i^0,w,c
  5533  002F1E  5009               	movf	(ms_delay@val+1)^0,w,c
  5534  002F20  580B               	subwfb	(ms_delay@i+1)^0,w,c
  5535  002F22  A0D8               	btfss	status,0,c
  5536  002F24  EF96  F017         	goto	u4541
  5537  002F28  EF99  F017         	goto	u4540
  5538  002F2C                     u4541:
  5539  002F2C  FFFF               	dw	65535	; assembler added errata NOP
  5540  002F2E  EF89  F017         	goto	l4030
  5541  002F32                     u4540:
  5542  002F32  FFFF               	dw	65535	; assembler added errata NOP
  5543  002F34  0E00               	movlw	0
  5544  002F36  6E0D               	movwf	(ms_delay@j+1)^0,c
  5545  002F38  0E00               	movlw	0
  5546  002F3A  6E0C               	movwf	ms_delay@j^0,c
  5547  002F3C                     l4040:
  5548  002F3C  FFFF               	dw	65535	; assembler added errata NOP
  5549  002F3E  4A0C               	infsnz	ms_delay@j^0,f,c
  5550  002F40  2A0D               	incf	(ms_delay@j+1)^0,f,c
  5551  002F42  0E72               	movlw	114
  5552  002F44  5C0C               	subwf	ms_delay@j^0,w,c
  5553  002F46  0E06               	movlw	6
  5554  002F48  580D               	subwfb	(ms_delay@j+1)^0,w,c
  5555  002F4A  A0D8               	btfss	status,0,c
  5556  002F4C  EFAA  F017         	goto	u4551
  5557  002F50  EFAD  F017         	goto	u4550
  5558  002F54                     u4551:
  5559  002F54  FFFF               	dw	65535	; assembler added errata NOP
  5560  002F56  EF9E  F017         	goto	l4040
  5561  002F5A                     u4550:
  5562  002F5A  FFFF               	dw	65535	; assembler added errata NOP
  5563  002F5C  0012               	return		;funcret
  5564  002F5E  FFFF               	dw	65535	; errata NOP
  5565  002F60                     __end_of_ms_delay:
  5566                           	callstack 0
  5567                           
  5568 ;; *************** function _change_sequence *****************
  5569 ;; Defined at:
  5570 ;;		line 252 in file "main.c"
  5571 ;; Parameters:    Size  Location     Type
  5572 ;;		None
  5573 ;; Auto vars:     Size  Location     Type
  5574 ;;  i               2   16[COMRAM] int 
  5575 ;; Return value:  Size  Location     Type
  5576 ;;                  1    wreg      void 
  5577 ;; Registers used:
  5578 ;;		wreg, fsr1l, fsr1h, fsr2l, fsr2h, status,2, status,0, tblptrl, tblptrh, tblptru, cstack
  5579 ;; Tracked objects:
  5580 ;;		On entry : 0/0
  5581 ;;		On exit  : 0/0
  5582 ;;		Unchanged: 0/0
  5583 ;; Data sizes:     COMRAM   BANK0   BANK1   BANK2   BANK3   BANK4   BANK5
  5584 ;;      Params:         0       0       0       0       0       0       0
  5585 ;;      Locals:         2       0       0       0       0       0       0
  5586 ;;      Temps:          3       0       0       0       0       0       0
  5587 ;;      Totals:         5       0       0       0       0       0       0
  5588 ;;Total ram usage:        5 bytes
  5589 ;; Hardware stack levels used: 1
  5590 ;; Hardware stack levels required when called: 2
  5591 ;; This function calls:
  5592 ;;		_print_string
  5593 ;; This function is called by:
  5594 ;;		_start_up_menu
  5595 ;; This function uses a non-reentrant model
  5596 ;;
  5597                           
  5598                           	psect	text16
  5599  002D04                     __ptext16:
  5600                           	callstack 0
  5601  002D04                     _change_sequence:
  5602                           	callstack 0
  5603  002D04  FFFF               	dw	65535	; assembler added errata NOP
  5604  002D06                     
  5605                           ;main.c: 253:     print_string("\nThe current sequence is: ");
  5606  002D06  0E8D               	movlw	low STR_4
  5607  002D08  6E08               	movwf	print_string@strng^0,c
  5608  002D0A  0E7F               	movlw	high STR_4
  5609  002D0C  6E09               	movwf	(print_string@strng+1)^0,c
  5610  002D0E  EC32  F016         	call	_print_string	;wreg free
  5611                           
  5612                           ;main.c: 254:     print_string(sequence);
  5613  002D12  0EF5               	movlw	low _sequence
  5614  002D14  6E08               	movwf	print_string@strng^0,c
  5615  002D16  0E00               	movlw	high _sequence
  5616  002D18  6E09               	movwf	(print_string@strng+1)^0,c
  5617  002D1A  EC32  F016         	call	_print_string	;wreg free
  5618                           
  5619                           ;main.c: 255:     print_string("\nPlease give the new sequence as input\r");
  5620  002D1E  0E98               	movlw	low STR_5
  5621  002D20  6E08               	movwf	print_string@strng^0,c
  5622  002D22  0E7E               	movlw	high STR_5
  5623  002D24  6E09               	movwf	(print_string@strng+1)^0,c
  5624  002D26  EC32  F016         	call	_print_string	;wreg free
  5625  002D2A                     
  5626                           ;main.c: 256:     int i = 0;
  5627  002D2A  0E00               	movlw	0
  5628  002D2C  6E12               	movwf	(change_sequence@i+1)^0,c
  5629  002D2E  0E00               	movlw	0
  5630  002D30  6E11               	movwf	change_sequence@i^0,c
  5631  002D32                     l3716:
  5632  002D32  FFFF               	dw	65535	; assembler added errata NOP
  5633                           
  5634                           ;main.c: 258:         if(New_char_RX){
  5635  002D34  5076               	movf	_New_char_RX^0,w,c
  5636  002D36  B4D8               	btfsc	status,2,c
  5637  002D38  EFA0  F016         	goto	u4201
  5638  002D3C  EFA3  F016         	goto	u4200
  5639  002D40                     u4201:
  5640  002D40  FFFF               	dw	65535	; assembler added errata NOP
  5641  002D42  EF99  F016         	goto	l3716
  5642  002D46                     u4200:
  5643  002D46  FFFF               	dw	65535	; assembler added errata NOP
  5644  002D48                     l3718:
  5645  002D48  FFFF               	dw	65535	; assembler added errata NOP
  5646                           
  5647                           ;main.c: 260:                 sequence[i]=input_str[i];
  5648  002D4A  0EEB               	movlw	low _input_str
  5649  002D4C  2411               	addwf	change_sequence@i^0,w,c
  5650  002D4E  6ED9               	movwf	fsr2l,c
  5651  002D50  0E00               	movlw	high _input_str
  5652  002D52  2012               	addwfc	(change_sequence@i+1)^0,w,c
  5653  002D54  6EDA               	movwf	fsr2h,c
  5654  002D56  0EF5               	movlw	low _sequence
  5655  002D58  2411               	addwf	change_sequence@i^0,w,c
  5656  002D5A  6EE1               	movwf	fsr1l,c
  5657  002D5C  0E00               	movlw	high _sequence
  5658  002D5E  2012               	addwfc	(change_sequence@i+1)^0,w,c
  5659  002D60  6EE2               	movwf	fsr1h,c
  5660  002D62  CFDF FFE7          	movff	indf2,indf1
  5661  002D66                     
  5662                           ;main.c: 261:             }while(input_str[i++]!='\n');
  5663  002D66  5011               	movf	change_sequence@i^0,w,c
  5664  002D68  6E0E               	movwf	??_change_sequence^0,c
  5665  002D6A  5012               	movf	(change_sequence@i+1)^0,w,c
  5666  002D6C  6E0F               	movwf	(??_change_sequence+1)^0,c
  5667  002D6E  4A11               	infsnz	change_sequence@i^0,f,c
  5668  002D70  2A12               	incf	(change_sequence@i+1)^0,f,c
  5669  002D72  0EEB               	movlw	low _input_str
  5670  002D74  240E               	addwf	??_change_sequence^0,w,c
  5671  002D76  6ED9               	movwf	fsr2l,c
  5672  002D78  0E00               	movlw	high _input_str
  5673  002D7A  200F               	addwfc	(??_change_sequence+1)^0,w,c
  5674  002D7C  6EDA               	movwf	fsr2h,c
  5675  002D7E  0E0A               	movlw	10
  5676  002D80  18DE               	xorwf	postinc2,w,c
  5677  002D82  A4D8               	btfss	status,2,c
  5678  002D84  EFC6  F016         	goto	u4211
  5679  002D88  EFC9  F016         	goto	u4210
  5680  002D8C                     u4211:
  5681  002D8C  FFFF               	dw	65535	; assembler added errata NOP
  5682  002D8E  EFA4  F016         	goto	l3718
  5683  002D92                     u4210:
  5684  002D92  FFFF               	dw	65535	; assembler added errata NOP
  5685  002D94                     
  5686                           ;main.c: 262:             New_char_RX=0;
  5687  002D94  0E00               	movlw	0
  5688  002D96  6E76               	movwf	_New_char_RX^0,c
  5689  002D98  0012               	return		;funcret
  5690  002D9A  FFFF               	dw	65535	; errata NOP
  5691  002D9C                     __end_of_change_sequence:
  5692                           	callstack 0
  5693                           
  5694 ;; *************** function _add_component *****************
  5695 ;; Defined at:
  5696 ;;		line 268 in file "main.c"
  5697 ;; Parameters:    Size  Location     Type
  5698 ;;		None
  5699 ;; Auto vars:     Size  Location     Type
  5700 ;;  add_componnt    2   29[COMRAM] unsigned char [2]
  5701 ;; Return value:  Size  Location     Type
  5702 ;;                  1    wreg      void 
  5703 ;; Registers used:
  5704 ;;		wreg, fsr1l, fsr1h, fsr2l, fsr2h, status,2, status,0, tblptrl, tblptrh, tblptru, prodl, prodh, cstack
  5705 ;; Tracked objects:
  5706 ;;		On entry : 0/0
  5707 ;;		On exit  : 0/0
  5708 ;;		Unchanged: 0/0
  5709 ;; Data sizes:     COMRAM   BANK0   BANK1   BANK2   BANK3   BANK4   BANK5
  5710 ;;      Params:         0       0       0       0       0       0       0
  5711 ;;      Locals:         2       0       0       0       0       0       0
  5712 ;;      Temps:          0       0       0       0       0       0       0
  5713 ;;      Totals:         2       0       0       0       0       0       0
  5714 ;;Total ram usage:        2 bytes
  5715 ;; Hardware stack levels used: 1
  5716 ;; Hardware stack levels required when called: 3
  5717 ;; This function calls:
  5718 ;;		_atoi
  5719 ;;		_print_string
  5720 ;;		_strncat
  5721 ;; This function is called by:
  5722 ;;		_start_up_menu
  5723 ;; This function uses a non-reentrant model
  5724 ;;
  5725                           
  5726                           	psect	text17
  5727  001A88                     __ptext17:
  5728                           	callstack 0
  5729  001A88                     _add_component:
  5730                           	callstack 0
  5731  001A88  FFFF               	dw	65535	; assembler added errata NOP
  5732  001A8A                     
  5733                           ;main.c: 269:     char add_componnt[]=" ";
  5734  001A8A  C0E7  F01E         	movff	add_component@F3131,add_component@add_componnt
  5735  001A8E  C0E8  F01F         	movff	add_component@F3131+1,add_component@add_componnt+1
  5736  001A92                     
  5737                           ;main.c: 270:     print_string("\nThe Current sequence is:");
  5738  001A92  0EA8               	movlw	low STR_6
  5739  001A94  6E08               	movwf	print_string@strng^0,c
  5740  001A96  0E7F               	movlw	high STR_6
  5741  001A98  6E09               	movwf	(print_string@strng+1)^0,c
  5742  001A9A  EC32  F016         	call	_print_string	;wreg free
  5743                           
  5744                           ;main.c: 271:     print_string(sequence);
  5745  001A9E  0EF5               	movlw	low _sequence
  5746  001AA0  6E08               	movwf	print_string@strng^0,c
  5747  001AA2  0E00               	movlw	high _sequence
  5748  001AA4  6E09               	movwf	(print_string@strng+1)^0,c
  5749  001AA6  EC32  F016         	call	_print_string	;wreg free
  5750                           
  5751                           ;main.c: 272:     print_string("\nEnter the component you want to add: A, B, C or D?");
  5752  001AAA  0E64               	movlw	low STR_7
  5753  001AAC  6E08               	movwf	print_string@strng^0,c
  5754  001AAE  0E7E               	movlw	high STR_7
  5755  001AB0  6E09               	movwf	(print_string@strng+1)^0,c
  5756  001AB2  EC32  F016         	call	_print_string	;wreg free
  5757  001AB6                     l3728:
  5758  001AB6  FFFF               	dw	65535	; assembler added errata NOP
  5759                           
  5760                           ;main.c: 274:         if(New_char_RX){
  5761  001AB8  5076               	movf	_New_char_RX^0,w,c
  5762  001ABA  B4D8               	btfsc	status,2,c
  5763  001ABC  EF62  F00D         	goto	u4221
  5764  001AC0  EF65  F00D         	goto	u4220
  5765  001AC4                     u4221:
  5766  001AC4  FFFF               	dw	65535	; assembler added errata NOP
  5767  001AC6  EF5B  F00D         	goto	l3728
  5768  001ACA                     u4220:
  5769  001ACA  FFFF               	dw	65535	; assembler added errata NOP
  5770  001ACC                     
  5771                           ;main.c: 275:             add_componnt[0]=input_str[0];
  5772  001ACC  C0EB  F01E         	movff	_input_str,add_component@add_componnt	;volatile
  5773  001AD0                     
  5774                           ;main.c: 276:             if(add_componnt[0]=='D'){
  5775  001AD0  0E44               	movlw	68
  5776  001AD2  181E               	xorwf	add_component@add_componnt^0,w,c
  5777  001AD4  A4D8               	btfss	status,2,c
  5778  001AD6  EF6F  F00D         	goto	u4231
  5779  001ADA  EF72  F00D         	goto	u4230
  5780  001ADE                     u4231:
  5781  001ADE  FFFF               	dw	65535	; assembler added errata NOP
  5782  001AE0  EF21  F00E         	goto	l3782
  5783  001AE4                     u4230:
  5784  001AE4  FFFF               	dw	65535	; assembler added errata NOP
  5785  001AE6                     
  5786                           ;main.c: 277:                 New_char_RX=0;
  5787  001AE6  0E00               	movlw	0
  5788  001AE8  6E76               	movwf	_New_char_RX^0,c
  5789  001AEA                     
  5790                           ;main.c: 278:                 print_string("\nEnter the pick position X:");
  5791  001AEA  0E55               	movlw	low STR_8
  5792  001AEC  6E08               	movwf	print_string@strng^0,c
  5793  001AEE  0E7F               	movlw	high STR_8
  5794  001AF0  6E09               	movwf	(print_string@strng+1)^0,c
  5795  001AF2  EC32  F016         	call	_print_string	;wreg free
  5796  001AF6                     l3738:
  5797  001AF6  FFFF               	dw	65535	; assembler added errata NOP
  5798                           
  5799                           ;main.c: 280:                     if(New_char_RX){
  5800  001AF8  5076               	movf	_New_char_RX^0,w,c
  5801  001AFA  B4D8               	btfsc	status,2,c
  5802  001AFC  EF82  F00D         	goto	u4241
  5803  001B00  EF85  F00D         	goto	u4240
  5804  001B04                     u4241:
  5805  001B04  FFFF               	dw	65535	; assembler added errata NOP
  5806  001B06  EF7B  F00D         	goto	l3738
  5807  001B0A                     u4240:
  5808  001B0A  FFFF               	dw	65535	; assembler added errata NOP
  5809  001B0C                     
  5810                           ;main.c: 281:                         X_Pick_D=atoi(input_str);
  5811  001B0C  0EEB               	movlw	low _input_str
  5812  001B0E  6E0F               	movwf	atoi@s^0,c
  5813  001B10  0E00               	movlw	high _input_str
  5814  001B12  6E10               	movwf	(atoi@s+1)^0,c
  5815  001B14  EC40  F00F         	call	_atoi	;wreg free
  5816  001B18  C00F  F0AE         	movff	?_atoi,_X_Pick_D
  5817  001B1C  C010  F0AF         	movff	?_atoi+1,_X_Pick_D+1
  5818  001B20                     
  5819                           ;main.c: 282:                         New_char_RX=0;
  5820  001B20  0E00               	movlw	0
  5821  001B22  6E76               	movwf	_New_char_RX^0,c
  5822  001B24                     
  5823                           ;main.c: 286:                 print_string("\nEnter the pick position Y:");
  5824  001B24  0E71               	movlw	low STR_9
  5825  001B26  6E08               	movwf	print_string@strng^0,c
  5826  001B28  0E7F               	movlw	high STR_9
  5827  001B2A  6E09               	movwf	(print_string@strng+1)^0,c
  5828  001B2C  EC32  F016         	call	_print_string	;wreg free
  5829  001B30                     l3746:
  5830  001B30  FFFF               	dw	65535	; assembler added errata NOP
  5831                           
  5832                           ;main.c: 288:                     if(New_char_RX){
  5833  001B32  5076               	movf	_New_char_RX^0,w,c
  5834  001B34  B4D8               	btfsc	status,2,c
  5835  001B36  EF9F  F00D         	goto	u4251
  5836  001B3A  EFA2  F00D         	goto	u4250
  5837  001B3E                     u4251:
  5838  001B3E  FFFF               	dw	65535	; assembler added errata NOP
  5839  001B40  EF98  F00D         	goto	l3746
  5840  001B44                     u4250:
  5841  001B44  FFFF               	dw	65535	; assembler added errata NOP
  5842  001B46                     
  5843                           ;main.c: 289:                         Y_Pick_D=(atoi(input_str));
  5844  001B46  0EEB               	movlw	low _input_str
  5845  001B48  6E0F               	movwf	atoi@s^0,c
  5846  001B4A  0E00               	movlw	high _input_str
  5847  001B4C  6E10               	movwf	(atoi@s+1)^0,c
  5848  001B4E  EC40  F00F         	call	_atoi	;wreg free
  5849  001B52  C00F  F0AC         	movff	?_atoi,_Y_Pick_D
  5850  001B56  C010  F0AD         	movff	?_atoi+1,_Y_Pick_D+1
  5851  001B5A                     
  5852                           ;main.c: 290:                         New_char_RX=0;
  5853  001B5A  0E00               	movlw	0
  5854  001B5C  6E76               	movwf	_New_char_RX^0,c
  5855  001B5E                     
  5856                           ;main.c: 294:                 print_string("\nEnter the pick orientation:");
  5857  001B5E  0E38               	movlw	low STR_10
  5858  001B60  6E08               	movwf	print_string@strng^0,c
  5859  001B62  0E7F               	movlw	high STR_10
  5860  001B64  6E09               	movwf	(print_string@strng+1)^0,c
  5861  001B66  EC32  F016         	call	_print_string	;wreg free
  5862  001B6A                     l3754:
  5863  001B6A  FFFF               	dw	65535	; assembler added errata NOP
  5864                           
  5865                           ;main.c: 296:                     if(New_char_RX){
  5866  001B6C  5076               	movf	_New_char_RX^0,w,c
  5867  001B6E  B4D8               	btfsc	status,2,c
  5868  001B70  EFBC  F00D         	goto	u4261
  5869  001B74  EFBF  F00D         	goto	u4260
  5870  001B78                     u4261:
  5871  001B78  FFFF               	dw	65535	; assembler added errata NOP
  5872  001B7A  EFB5  F00D         	goto	l3754
  5873  001B7E                     u4260:
  5874  001B7E  FFFF               	dw	65535	; assembler added errata NOP
  5875  001B80                     
  5876                           ;main.c: 297:                         Pick_Angle_D=(atoi(input_str));
  5877  001B80  0EEB               	movlw	low _input_str
  5878  001B82  6E0F               	movwf	atoi@s^0,c
  5879  001B84  0E00               	movlw	high _input_str
  5880  001B86  6E10               	movwf	(atoi@s+1)^0,c
  5881  001B88  EC40  F00F         	call	_atoi	;wreg free
  5882  001B8C  C00F  F0AA         	movff	?_atoi,_Pick_Angle_D
  5883  001B90  C010  F0AB         	movff	?_atoi+1,_Pick_Angle_D+1
  5884  001B94                     
  5885                           ;main.c: 298:                         New_char_RX=0;
  5886  001B94  0E00               	movlw	0
  5887  001B96  6E76               	movwf	_New_char_RX^0,c
  5888  001B98                     
  5889                           ;main.c: 302:                 print_string("\nEnter the place position X:");
  5890  001B98  0EFE               	movlw	low STR_11
  5891  001B9A  6E08               	movwf	print_string@strng^0,c
  5892  001B9C  0E7E               	movlw	high STR_11
  5893  001B9E  6E09               	movwf	(print_string@strng+1)^0,c
  5894  001BA0  EC32  F016         	call	_print_string	;wreg free
  5895  001BA4                     l3762:
  5896  001BA4  FFFF               	dw	65535	; assembler added errata NOP
  5897                           
  5898                           ;main.c: 304:                     if(New_char_RX){
  5899  001BA6  5076               	movf	_New_char_RX^0,w,c
  5900  001BA8  B4D8               	btfsc	status,2,c
  5901  001BAA  EFD9  F00D         	goto	u4271
  5902  001BAE  EFDC  F00D         	goto	u4270
  5903  001BB2                     u4271:
  5904  001BB2  FFFF               	dw	65535	; assembler added errata NOP
  5905  001BB4  EFD2  F00D         	goto	l3762
  5906  001BB8                     u4270:
  5907  001BB8  FFFF               	dw	65535	; assembler added errata NOP
  5908  001BBA                     
  5909                           ;main.c: 305:                         X_Place_D=(atoi(input_str));
  5910  001BBA  0EEB               	movlw	low _input_str
  5911  001BBC  6E0F               	movwf	atoi@s^0,c
  5912  001BBE  0E00               	movlw	high _input_str
  5913  001BC0  6E10               	movwf	(atoi@s+1)^0,c
  5914  001BC2  EC40  F00F         	call	_atoi	;wreg free
  5915  001BC6  C00F  F0A8         	movff	?_atoi,_X_Place_D
  5916  001BCA  C010  F0A9         	movff	?_atoi+1,_X_Place_D+1
  5917  001BCE                     
  5918                           ;main.c: 306:                         New_char_RX=0;
  5919  001BCE  0E00               	movlw	0
  5920  001BD0  6E76               	movwf	_New_char_RX^0,c
  5921  001BD2                     
  5922                           ;main.c: 310:                 print_string("\nEnter the place position Y:");
  5923  001BD2  0E1B               	movlw	low STR_12
  5924  001BD4  6E08               	movwf	print_string@strng^0,c
  5925  001BD6  0E7F               	movlw	high STR_12
  5926  001BD8  6E09               	movwf	(print_string@strng+1)^0,c
  5927  001BDA  EC32  F016         	call	_print_string	;wreg free
  5928  001BDE                     l3770:
  5929  001BDE  FFFF               	dw	65535	; assembler added errata NOP
  5930                           
  5931                           ;main.c: 312:                     if(New_char_RX){
  5932  001BE0  5076               	movf	_New_char_RX^0,w,c
  5933  001BE2  B4D8               	btfsc	status,2,c
  5934  001BE4  EFF6  F00D         	goto	u4281
  5935  001BE8  EFF9  F00D         	goto	u4280
  5936  001BEC                     u4281:
  5937  001BEC  FFFF               	dw	65535	; assembler added errata NOP
  5938  001BEE  EFEF  F00D         	goto	l3770
  5939  001BF2                     u4280:
  5940  001BF2  FFFF               	dw	65535	; assembler added errata NOP
  5941  001BF4                     
  5942                           ;main.c: 313:                         Y_Place_D=(atoi(input_str));
  5943  001BF4  0EEB               	movlw	low _input_str
  5944  001BF6  6E0F               	movwf	atoi@s^0,c
  5945  001BF8  0E00               	movlw	high _input_str
  5946  001BFA  6E10               	movwf	(atoi@s+1)^0,c
  5947  001BFC  EC40  F00F         	call	_atoi	;wreg free
  5948  001C00  C00F  F0A6         	movff	?_atoi,_Y_Place_D
  5949  001C04  C010  F0A7         	movff	?_atoi+1,_Y_Place_D+1
  5950  001C08                     
  5951                           ;main.c: 314:                         New_char_RX=0;
  5952  001C08  0E00               	movlw	0
  5953  001C0A  6E76               	movwf	_New_char_RX^0,c
  5954  001C0C                     
  5955                           ;main.c: 318:                 print_string("\nEnter the place orientation:");
  5956  001C0C  0EE0               	movlw	low STR_13
  5957  001C0E  6E08               	movwf	print_string@strng^0,c
  5958  001C10  0E7E               	movlw	high STR_13
  5959  001C12  6E09               	movwf	(print_string@strng+1)^0,c
  5960  001C14  EC32  F016         	call	_print_string	;wreg free
  5961  001C18                     l3778:
  5962  001C18  FFFF               	dw	65535	; assembler added errata NOP
  5963                           
  5964                           ;main.c: 320:                         if(New_char_RX){
  5965  001C1A  5076               	movf	_New_char_RX^0,w,c
  5966  001C1C  B4D8               	btfsc	status,2,c
  5967  001C1E  EF13  F00E         	goto	u4291
  5968  001C22  EF16  F00E         	goto	u4290
  5969  001C26                     u4291:
  5970  001C26  FFFF               	dw	65535	; assembler added errata NOP
  5971  001C28  EF0C  F00E         	goto	l3778
  5972  001C2C                     u4290:
  5973  001C2C  FFFF               	dw	65535	; assembler added errata NOP
  5974  001C2E                     
  5975                           ;main.c: 321:                         Place_Angle_D=(atoi(input_str));
  5976  001C2E  0EEB               	movlw	low _input_str
  5977  001C30  6E0F               	movwf	atoi@s^0,c
  5978  001C32  0E00               	movlw	high _input_str
  5979  001C34  6E10               	movwf	(atoi@s+1)^0,c
  5980  001C36  EC40  F00F         	call	_atoi	;wreg free
  5981  001C3A  C00F  F0A4         	movff	?_atoi,_Place_Angle_D
  5982  001C3E  C010  F0A5         	movff	?_atoi+1,_Place_Angle_D+1
  5983  001C42                     l3782:
  5984  001C42  FFFF               	dw	65535	; assembler added errata NOP
  5985                           
  5986                           ;main.c: 322:                         New_char_RX=0;
  5987  001C44  0E00               	movlw	0
  5988  001C46  6E76               	movwf	_New_char_RX^0,c
  5989  001C48                     
  5990                           ;main.c: 334:     State='0';
  5991  001C48  0E30               	movlw	48
  5992  001C4A  6E77               	movwf	_State^0,c
  5993  001C4C                     
  5994                           ;main.c: 335:     strncat(sequence,add_componnt,1);
  5995  001C4C  0EF5               	movlw	low _sequence
  5996  001C4E  6E0C               	movwf	strncat@d^0,c
  5997  001C50  0E00               	movlw	high _sequence
  5998  001C52  6E0D               	movwf	(strncat@d+1)^0,c
  5999  001C54  0E1E               	movlw	low add_component@add_componnt
  6000  001C56  6E0E               	movwf	strncat@s^0,c
  6001  001C58  0E00               	movlw	high add_component@add_componnt
  6002  001C5A  6E0F               	movwf	(strncat@s+1)^0,c
  6003  001C5C  0E00               	movlw	0
  6004  001C5E  6E11               	movwf	(strncat@n+1)^0,c
  6005  001C60  0E01               	movlw	1
  6006  001C62  6E10               	movwf	strncat@n^0,c
  6007  001C64  ECCE  F016         	call	_strncat	;wreg free
  6008  001C68                     
  6009                           ;main.c: 336:     print_string("\n\nComponent Added: ");
  6010  001C68  0EC2               	movlw	low STR_14
  6011  001C6A  6E08               	movwf	print_string@strng^0,c
  6012  001C6C  0E7F               	movlw	high STR_14
  6013  001C6E  6E09               	movwf	(print_string@strng+1)^0,c
  6014  001C70  EC32  F016         	call	_print_string	;wreg free
  6015  001C74                     
  6016                           ;main.c: 337:     print_string(add_componnt);
  6017  001C74  0E1E               	movlw	low add_component@add_componnt
  6018  001C76  6E08               	movwf	print_string@strng^0,c
  6019  001C78  0E00               	movlw	high add_component@add_componnt
  6020  001C7A  6E09               	movwf	(print_string@strng+1)^0,c
  6021  001C7C  EC32  F016         	call	_print_string	;wreg free
  6022  001C80                     
  6023                           ;main.c: 338:     New_char_RX=0;
  6024  001C80  0E00               	movlw	0
  6025  001C82  6E76               	movwf	_New_char_RX^0,c
  6026  001C84  0012               	return		;funcret
  6027  001C86  FFFF               	dw	65535	; errata NOP
  6028  001C88                     __end_of_add_component:
  6029                           	callstack 0
  6030                           
  6031 ;; *************** function _strncat *****************
  6032 ;; Defined at:
  6033 ;;		line 3 in file "/opt/microchip/xc8/v2.32/pic/sources/c99/common/strncat.c"
  6034 ;; Parameters:    Size  Location     Type
  6035 ;;  d               2   11[COMRAM] PTR unsigned char 
  6036 ;;		 -> sequence(4), 
  6037 ;;  s               2   13[COMRAM] PTR const unsigned char 
  6038 ;;		 -> add_component@add_componnt(2), 
  6039 ;;  n               2   15[COMRAM] unsigned int 
  6040 ;; Auto vars:     Size  Location     Type
  6041 ;;  a               2    0        PTR unsigned char 
  6042 ;;		 -> sequence(4), 
  6043 ;; Return value:  Size  Location     Type
  6044 ;;                  2   11[COMRAM] PTR unsigned char 
  6045 ;; Registers used:
  6046 ;;		wreg, fsr1l, fsr1h, fsr2l, fsr2h, status,2, status,0, cstack
  6047 ;; Tracked objects:
  6048 ;;		On entry : 0/0
  6049 ;;		On exit  : 0/0
  6050 ;;		Unchanged: 0/0
  6051 ;; Data sizes:     COMRAM   BANK0   BANK1   BANK2   BANK3   BANK4   BANK5
  6052 ;;      Params:         6       0       0       0       0       0       0
  6053 ;;      Locals:         0       0       0       0       0       0       0
  6054 ;;      Temps:          0       0       0       0       0       0       0
  6055 ;;      Totals:         6       0       0       0       0       0       0
  6056 ;;Total ram usage:        6 bytes
  6057 ;; Hardware stack levels used: 1
  6058 ;; Hardware stack levels required when called: 2
  6059 ;; This function calls:
  6060 ;;		_strlen
  6061 ;; This function is called by:
  6062 ;;		_add_component
  6063 ;; This function uses a non-reentrant model
  6064 ;;
  6065                           
  6066                           	psect	text18
  6067  002D9C                     __ptext18:
  6068                           	callstack 0
  6069  002D9C                     _strncat:
  6070                           	callstack 0
  6071  002D9C  FFFF               	dw	65535	; assembler added errata NOP
  6072  002D9E  C00C  F008         	movff	strncat@d,strlen@s
  6073  002DA2  C00D  F009         	movff	strncat@d+1,strlen@s+1
  6074  002DA6  EC01  F018         	call	_strlen	;wreg free
  6075  002DAA  5008               	movf	?_strlen^0,w,c
  6076  002DAC  260C               	addwf	strncat@d^0,f,c
  6077  002DAE  5009               	movf	(?_strlen+1)^0,w,c
  6078  002DB0  220D               	addwfc	(strncat@d+1)^0,f,c
  6079  002DB2  EFED  F016         	goto	l2948
  6080  002DB6                     l2940:
  6081  002DB6  FFFF               	dw	65535	; assembler added errata NOP
  6082  002DB8  0610               	decf	strncat@n^0,f,c
  6083  002DBA  A0D8               	btfss	status,0,c
  6084  002DBC  0611               	decf	(strncat@n+1)^0,f,c
  6085  002DBE  C00E  FFD9         	movff	strncat@s,fsr2l
  6086  002DC2  C00F  FFDA         	movff	strncat@s+1,fsr2h
  6087  002DC6  C00C  FFE1         	movff	strncat@d,fsr1l
  6088  002DCA  C00D  FFE2         	movff	strncat@d+1,fsr1h
  6089  002DCE  CFDF FFE7          	movff	indf2,indf1
  6090  002DD2  4A0E               	infsnz	strncat@s^0,f,c
  6091  002DD4  2A0F               	incf	(strncat@s+1)^0,f,c
  6092  002DD6  4A0C               	infsnz	strncat@d^0,f,c
  6093  002DD8  2A0D               	incf	(strncat@d+1)^0,f,c
  6094  002DDA                     l2948:
  6095  002DDA  FFFF               	dw	65535	; assembler added errata NOP
  6096  002DDC  5010               	movf	strncat@n^0,w,c
  6097  002DDE  1011               	iorwf	(strncat@n+1)^0,w,c
  6098  002DE0  B4D8               	btfsc	status,2,c
  6099  002DE2  EFF5  F016         	goto	u2871
  6100  002DE6  EFF8  F016         	goto	u2870
  6101  002DEA                     u2871:
  6102  002DEA  FFFF               	dw	65535	; assembler added errata NOP
  6103  002DEC  EF06  F017         	goto	l2952
  6104  002DF0                     u2870:
  6105  002DF0  FFFF               	dw	65535	; assembler added errata NOP
  6106  002DF2  C00E  FFD9         	movff	strncat@s,fsr2l
  6107  002DF6  C00F  FFDA         	movff	strncat@s+1,fsr2h
  6108  002DFA  50DF               	movf	indf2,w,c
  6109  002DFC  A4D8               	btfss	status,2,c
  6110  002DFE  EF03  F017         	goto	u2881
  6111  002E02  EF06  F017         	goto	u2880
  6112  002E06                     u2881:
  6113  002E06  FFFF               	dw	65535	; assembler added errata NOP
  6114  002E08  EFDB  F016         	goto	l2940
  6115  002E0C                     u2880:
  6116  002E0C                     l2952:
  6117  002E0C  FFFF               	dw	65535	; assembler added errata NOP
  6118  002E0E  C00C  FFD9         	movff	strncat@d,fsr2l
  6119  002E12  C00D  FFDA         	movff	strncat@d+1,fsr2h
  6120  002E16  0E00               	movlw	0
  6121  002E18  6EDF               	movwf	indf2,c
  6122  002E1A  4A0C               	infsnz	strncat@d^0,f,c
  6123  002E1C  2A0D               	incf	(strncat@d+1)^0,f,c
  6124  002E1E  0012               	return		;funcret
  6125  002E20  FFFF               	dw	65535	; errata NOP
  6126  002E22                     __end_of_strncat:
  6127                           	callstack 0
  6128                           
  6129 ;; *************** function _strlen *****************
  6130 ;; Defined at:
  6131 ;;		line 5 in file "/opt/microchip/xc8/v2.32/pic/sources/c99/common/strlen.c"
  6132 ;; Parameters:    Size  Location     Type
  6133 ;;  s               2    7[COMRAM] PTR const unsigned char 
  6134 ;;		 -> sequence(4), 
  6135 ;; Auto vars:     Size  Location     Type
  6136 ;;  a               2    9[COMRAM] PTR const unsigned char 
  6137 ;;		 -> sequence(4), 
  6138 ;; Return value:  Size  Location     Type
  6139 ;;                  2    7[COMRAM] unsigned int 
  6140 ;; Registers used:
  6141 ;;		wreg, fsr2l, fsr2h, status,2, status,0
  6142 ;; Tracked objects:
  6143 ;;		On entry : 0/0
  6144 ;;		On exit  : 0/0
  6145 ;;		Unchanged: 0/0
  6146 ;; Data sizes:     COMRAM   BANK0   BANK1   BANK2   BANK3   BANK4   BANK5
  6147 ;;      Params:         2       0       0       0       0       0       0
  6148 ;;      Locals:         2       0       0       0       0       0       0
  6149 ;;      Temps:          0       0       0       0       0       0       0
  6150 ;;      Totals:         4       0       0       0       0       0       0
  6151 ;;Total ram usage:        4 bytes
  6152 ;; Hardware stack levels used: 1
  6153 ;; Hardware stack levels required when called: 1
  6154 ;; This function calls:
  6155 ;;		Nothing
  6156 ;; This function is called by:
  6157 ;;		_remove_component
  6158 ;;		_strncat
  6159 ;;		_strrchr
  6160 ;; This function uses a non-reentrant model
  6161 ;;
  6162                           
  6163                           	psect	text19
  6164  003002                     __ptext19:
  6165                           	callstack 0
  6166  003002                     _strlen:
  6167                           	callstack 0
  6168  003002  FFFF               	dw	65535	; assembler added errata NOP
  6169  003004  C008  F00A         	movff	strlen@s,strlen@a
  6170  003008  C009  F00B         	movff	strlen@s+1,strlen@a+1
  6171  00300C  EF0B  F018         	goto	l2624
  6172  003010                     l2622:
  6173  003010  FFFF               	dw	65535	; assembler added errata NOP
  6174  003012  4A08               	infsnz	strlen@s^0,f,c
  6175  003014  2A09               	incf	(strlen@s+1)^0,f,c
  6176  003016                     l2624:
  6177  003016  FFFF               	dw	65535	; assembler added errata NOP
  6178  003018  C008  FFD9         	movff	strlen@s,fsr2l
  6179  00301C  C009  FFDA         	movff	strlen@s+1,fsr2h
  6180  003020  50DF               	movf	indf2,w,c
  6181  003022  A4D8               	btfss	status,2,c
  6182  003024  EF16  F018         	goto	u2281
  6183  003028  EF19  F018         	goto	u2280
  6184  00302C                     u2281:
  6185  00302C  FFFF               	dw	65535	; assembler added errata NOP
  6186  00302E  EF08  F018         	goto	l2622
  6187  003032                     u2280:
  6188  003032  FFFF               	dw	65535	; assembler added errata NOP
  6189  003034  500A               	movf	strlen@a^0,w,c
  6190  003036  5C08               	subwf	strlen@s^0,w,c
  6191  003038  6E08               	movwf	?_strlen^0,c
  6192  00303A  500B               	movf	(strlen@a+1)^0,w,c
  6193  00303C  5809               	subwfb	(strlen@s+1)^0,w,c
  6194  00303E  6E09               	movwf	(?_strlen+1)^0,c
  6195  003040  0012               	return		;funcret
  6196  003042  FFFF               	dw	65535	; errata NOP
  6197  003044                     __end_of_strlen:
  6198                           	callstack 0
  6199                           
  6200 ;; *************** function _print_string *****************
  6201 ;; Defined at:
  6202 ;;		line 44 in file "serial_rs232.c"
  6203 ;; Parameters:    Size  Location     Type
  6204 ;;  strng           2    7[COMRAM] PTR unsigned char 
  6205 ;;		 -> STR_17(70), STR_16(19), STR_15(63), STR_14(20), 
  6206 ;;		 -> STR_13(30), STR_12(29), STR_11(29), STR_10(29), 
  6207 ;;		 -> STR_9(28), STR_8(28), STR_7(52), STR_6(26), 
  6208 ;;		 -> add_component@add_componnt(2), STR_5(40), STR_4(27), STR_3(32), 
  6209 ;;		 -> sequence(4), STR_2(20), STR_1(82), 
  6210 ;; Auto vars:     Size  Location     Type
  6211 ;;  i               2   11[COMRAM] int 
  6212 ;; Return value:  Size  Location     Type
  6213 ;;                  1    wreg      void 
  6214 ;; Registers used:
  6215 ;;		wreg, fsr1l, fsr1h, status,2, status,0, tblptrl, tblptrh, tblptru
  6216 ;; Tracked objects:
  6217 ;;		On entry : 0/0
  6218 ;;		On exit  : 0/0
  6219 ;;		Unchanged: 0/0
  6220 ;; Data sizes:     COMRAM   BANK0   BANK1   BANK2   BANK3   BANK4   BANK5
  6221 ;;      Params:         2       0       0       0       0       0       0
  6222 ;;      Locals:         2       0       0       0       0       0       0
  6223 ;;      Temps:          2       0       0       0       0       0       0
  6224 ;;      Totals:         6       0       0       0       0       0       0
  6225 ;;Total ram usage:        6 bytes
  6226 ;; Hardware stack levels used: 1
  6227 ;; Hardware stack levels required when called: 1
  6228 ;; This function calls:
  6229 ;;		Nothing
  6230 ;; This function is called by:
  6231 ;;		_start_up_menu
  6232 ;;		_change_sequence
  6233 ;;		_add_component
  6234 ;;		_remove_component
  6235 ;; This function uses a non-reentrant model
  6236 ;;
  6237                           
  6238                           	psect	text20
  6239  002C64                     __ptext20:
  6240                           	callstack 0
  6241  002C64                     _print_string:
  6242                           	callstack 0
  6243  002C64  FFFF               	dw	65535	; assembler added errata NOP
  6244  002C66                     
  6245                           ;serial_rs232.c: 44: void print_string(char strng[]);serial_rs232.c: 45: {;serial_rs232.
      +                          c: 46:     for(int i=0; strng[i]!=((void*)0);i++){
  6246  002C66  0E00               	movlw	0
  6247  002C68  6E0D               	movwf	(print_string@i+1)^0,c
  6248  002C6A  0E00               	movlw	0
  6249  002C6C  6E0C               	movwf	print_string@i^0,c
  6250  002C6E  EF5E  F016         	goto	l2892
  6251  002C72                     l2888:
  6252  002C72  FFFF               	dw	65535	; assembler added errata NOP
  6253                           
  6254                           ;serial_rs232.c: 47:         TXREG=strng[i];
  6255  002C74  500C               	movf	print_string@i^0,w,c
  6256  002C76  2408               	addwf	print_string@strng^0,w,c
  6257  002C78  6E0A               	movwf	??_print_string^0,c
  6258  002C7A  500D               	movf	(print_string@i+1)^0,w,c
  6259  002C7C  2009               	addwfc	(print_string@strng+1)^0,w,c
  6260  002C7E  6E0B               	movwf	(??_print_string+1)^0,c
  6261  002C80  C00A  FFF6         	movff	??_print_string,tblptrl
  6262  002C84  C00B  FFF7         	movff	??_print_string+1,tblptrh
  6263  002C88  6AF8               	clrf	tblptru,c
  6264  002C8A  0E05               	movlw	(high __ramtop+-1)
  6265  002C8C  64F7               	cpfsgt	tblptrh,c
  6266  002C8E  D004               	bra	u2767
  6267  002C90  0008               	tblrd		*
  6268  002C92  FFFF               	dw	65535	; errata NOP
  6269  002C94  50F5               	movf	tablat,w,c
  6270  002C96  D005               	bra	u2760
  6271  002C98                     u2767:
  6272  002C98  CFF6 FFE1          	movff	tblptrl,fsr1l
  6273  002C9C  CFF7 FFE2          	movff	tblptrh,fsr1h
  6274  002CA0  50E7               	movf	indf1,w,c
  6275  002CA2                     u2760:
  6276  002CA2  6EAD               	movwf	173,c	;volatile
  6277  002CA4                     l56:
  6278  002CA4  FFFF               	dw	65535	; assembler added errata NOP
  6279  002CA6  A2AC               	btfss	172,1,c	;volatile
  6280  002CA8  EF58  F016         	goto	u2771
  6281  002CAC  EF5B  F016         	goto	u2770
  6282  002CB0                     u2771:
  6283  002CB0  FFFF               	dw	65535	; assembler added errata NOP
  6284  002CB2  EF52  F016         	goto	l56
  6285  002CB6                     u2770:
  6286  002CB6  FFFF               	dw	65535	; assembler added errata NOP
  6287  002CB8                     
  6288                           ;serial_rs232.c: 49:     }
  6289  002CB8  4A0C               	infsnz	print_string@i^0,f,c
  6290  002CBA  2A0D               	incf	(print_string@i+1)^0,f,c
  6291  002CBC                     l2892:
  6292  002CBC  FFFF               	dw	65535	; assembler added errata NOP
  6293  002CBE  500C               	movf	print_string@i^0,w,c
  6294  002CC0  2408               	addwf	print_string@strng^0,w,c
  6295  002CC2  6E0A               	movwf	??_print_string^0,c
  6296  002CC4  500D               	movf	(print_string@i+1)^0,w,c
  6297  002CC6  2009               	addwfc	(print_string@strng+1)^0,w,c
  6298  002CC8  6E0B               	movwf	(??_print_string+1)^0,c
  6299  002CCA  C00A  FFF6         	movff	??_print_string,tblptrl
  6300  002CCE  C00B  FFF7         	movff	??_print_string+1,tblptrh
  6301  002CD2  6AF8               	clrf	tblptru,c
  6302  002CD4  0E05               	movlw	(high __ramtop+-1)
  6303  002CD6  64F7               	cpfsgt	tblptrh,c
  6304  002CD8  D004               	bra	u2787
  6305  002CDA  0008               	tblrd		*
  6306  002CDC  FFFF               	dw	65535	; errata NOP
  6307  002CDE  50F5               	movf	tablat,w,c
  6308  002CE0  D005               	bra	u2780
  6309  002CE2                     u2787:
  6310  002CE2  CFF6 FFE1          	movff	tblptrl,fsr1l
  6311  002CE6  CFF7 FFE2          	movff	tblptrh,fsr1h
  6312  002CEA  50E7               	movf	indf1,w,c
  6313  002CEC                     u2780:
  6314  002CEC  0900               	iorlw	0
  6315  002CEE  A4D8               	btfss	status,2,c
  6316  002CF0  EF7C  F016         	goto	u2791
  6317  002CF4  EF7F  F016         	goto	u2790
  6318  002CF8                     u2791:
  6319  002CF8  FFFF               	dw	65535	; assembler added errata NOP
  6320  002CFA  EF39  F016         	goto	l2888
  6321  002CFE                     u2790:
  6322  002CFE  FFFF               	dw	65535	; assembler added errata NOP
  6323  002D00  0012               	return		;funcret
  6324  002D02  FFFF               	dw	65535	; errata NOP
  6325  002D04                     __end_of_print_string:
  6326                           	callstack 0
  6327                           
  6328 ;; *************** function _atoi *****************
  6329 ;; Defined at:
  6330 ;;		line 4 in file "/opt/microchip/xc8/v2.32/pic/sources/c99/common/atoi.c"
  6331 ;; Parameters:    Size  Location     Type
  6332 ;;  s               2   14[COMRAM] PTR const unsigned char 
  6333 ;;		 -> input_str(10), 
  6334 ;; Auto vars:     Size  Location     Type
  6335 ;;  n               2   27[COMRAM] int 
  6336 ;;  neg             2   20[COMRAM] int 
  6337 ;; Return value:  Size  Location     Type
  6338 ;;                  2   14[COMRAM] int 
  6339 ;; Registers used:
  6340 ;;		wreg, fsr2l, fsr2h, status,2, status,0, prodl, prodh, cstack
  6341 ;; Tracked objects:
  6342 ;;		On entry : 0/0
  6343 ;;		On exit  : 0/0
  6344 ;;		Unchanged: 0/0
  6345 ;; Data sizes:     COMRAM   BANK0   BANK1   BANK2   BANK3   BANK4   BANK5
  6346 ;;      Params:         2       0       0       0       0       0       0
  6347 ;;      Locals:         9       0       0       0       0       0       0
  6348 ;;      Temps:          4       0       0       0       0       0       0
  6349 ;;      Totals:        15       0       0       0       0       0       0
  6350 ;;Total ram usage:       15 bytes
  6351 ;; Hardware stack levels used: 1
  6352 ;; Hardware stack levels required when called: 2
  6353 ;; This function calls:
  6354 ;;		___wmul
  6355 ;;		_isdigit
  6356 ;;		_isspace
  6357 ;; This function is called by:
  6358 ;;		_add_component
  6359 ;; This function uses a non-reentrant model
  6360 ;;
  6361                           
  6362                           	psect	text21
  6363  001E80                     __ptext21:
  6364                           	callstack 0
  6365  001E80                     _atoi:
  6366                           	callstack 0
  6367  001E80  FFFF               	dw	65535	; assembler added errata NOP
  6368  001E82  0E00               	movlw	0
  6369  001E84  6E1D               	movwf	(atoi@n+1)^0,c
  6370  001E86  0E00               	movlw	0
  6371  001E88  6E1C               	movwf	atoi@n^0,c
  6372  001E8A  0E00               	movlw	0
  6373  001E8C  6E16               	movwf	(atoi@neg+1)^0,c
  6374  001E8E  0E00               	movlw	0
  6375  001E90  6E15               	movwf	atoi@neg^0,c
  6376  001E92  EF4E  F00F         	goto	l2898
  6377  001E96                     l2896:
  6378  001E96  FFFF               	dw	65535	; assembler added errata NOP
  6379  001E98  4A0F               	infsnz	atoi@s^0,f,c
  6380  001E9A  2A10               	incf	(atoi@s+1)^0,f,c
  6381  001E9C                     l2898:
  6382  001E9C  FFFF               	dw	65535	; assembler added errata NOP
  6383  001E9E  0E01               	movlw	1
  6384  001EA0  6E1B               	movwf	_atoi$1134^0,c
  6385  001EA2  C00F  FFD9         	movff	atoi@s,fsr2l
  6386  001EA6  C010  FFDA         	movff	atoi@s+1,fsr2h
  6387  001EAA  0E20               	movlw	32
  6388  001EAC  18DE               	xorwf	postinc2,w,c
  6389  001EAE  B4D8               	btfsc	status,2,c
  6390  001EB0  EF5C  F00F         	goto	u2801
  6391  001EB4  EF5F  F00F         	goto	u2800
  6392  001EB8                     u2801:
  6393  001EB8  FFFF               	dw	65535	; assembler added errata NOP
  6394  001EBA  EF7E  F00F         	goto	l2906
  6395  001EBE                     u2800:
  6396  001EBE  FFFF               	dw	65535	; assembler added errata NOP
  6397  001EC0  0EF7               	movlw	247
  6398  001EC2  6E11               	movwf	??_atoi^0,c
  6399  001EC4  0EFF               	movlw	255
  6400  001EC6  6E12               	movwf	(??_atoi+1)^0,c
  6401  001EC8  C00F  FFD9         	movff	atoi@s,fsr2l
  6402  001ECC  C010  FFDA         	movff	atoi@s+1,fsr2h
  6403  001ED0  50DF               	movf	indf2,w,c
  6404  001ED2  6E13               	movwf	(??_atoi+2)^0,c
  6405  001ED4  6A14               	clrf	(??_atoi+3)^0,c
  6406  001ED6  5011               	movf	??_atoi^0,w,c
  6407  001ED8  2613               	addwf	(??_atoi+2)^0,f,c
  6408  001EDA  5012               	movf	(??_atoi+1)^0,w,c
  6409  001EDC  2214               	addwfc	(??_atoi+3)^0,f,c
  6410  001EDE  5014               	movf	(??_atoi+3)^0,w,c
  6411  001EE0  E10A               	bnz	u2810
  6412  001EE2  0E05               	movlw	5
  6413  001EE4  5C13               	subwf	(??_atoi+2)^0,w,c
  6414  001EE6  A0D8               	btfss	status,0,c
  6415  001EE8  EF78  F00F         	goto	u2811
  6416  001EEC  EF7B  F00F         	goto	u2810
  6417  001EF0                     u2811:
  6418  001EF0  FFFF               	dw	65535	; assembler added errata NOP
  6419  001EF2  EF7E  F00F         	goto	l2906
  6420  001EF6                     u2810:
  6421  001EF6  FFFF               	dw	65535	; assembler added errata NOP
  6422  001EF8  0E00               	movlw	0
  6423  001EFA  6E1B               	movwf	_atoi$1134^0,c
  6424  001EFC                     l2906:
  6425  001EFC  FFFF               	dw	65535	; assembler added errata NOP
  6426  001EFE  C01B  F017         	movff	_atoi$1134,_atoi$1133
  6427  001F02  6A18               	clrf	(_atoi$1133+1)^0,c
  6428  001F04  5017               	movf	_atoi$1133^0,w,c
  6429  001F06  1018               	iorwf	(_atoi$1133+1)^0,w,c
  6430  001F08  A4D8               	btfss	status,2,c
  6431  001F0A  EF89  F00F         	goto	u2821
  6432  001F0E  EF8C  F00F         	goto	u2820
  6433  001F12                     u2821:
  6434  001F12  FFFF               	dw	65535	; assembler added errata NOP
  6435  001F14  EF4B  F00F         	goto	l2896
  6436  001F18                     u2820:
  6437  001F18  FFFF               	dw	65535	; assembler added errata NOP
  6438  001F1A  EF99  F00F         	goto	l2916
  6439  001F1E                     l2912:
  6440  001F1E  FFFF               	dw	65535	; assembler added errata NOP
  6441  001F20  0E00               	movlw	0
  6442  001F22  6E16               	movwf	(atoi@neg+1)^0,c
  6443  001F24  0E01               	movlw	1
  6444  001F26  6E15               	movwf	atoi@neg^0,c
  6445  001F28                     l2914:
  6446  001F28  FFFF               	dw	65535	; assembler added errata NOP
  6447  001F2A  4A0F               	infsnz	atoi@s^0,f,c
  6448  001F2C  2A10               	incf	(atoi@s+1)^0,f,c
  6449  001F2E  EFD1  F00F         	goto	l2922
  6450  001F32                     l2916:
  6451  001F32  FFFF               	dw	65535	; assembler added errata NOP
  6452  001F34  C00F  FFD9         	movff	atoi@s,fsr2l
  6453  001F38  C010  FFDA         	movff	atoi@s+1,fsr2h
  6454  001F3C  50DF               	movf	indf2,w,c
  6455  001F3E  6E11               	movwf	??_atoi^0,c
  6456  001F40  6A12               	clrf	(??_atoi+1)^0,c
  6457                           
  6458                           ; Switch on 2 bytes has been partitioned into a top level switch of size 1, and 1 sub-sw
      +                          itches
  6459                           ; Switch size 1, requested type "simple"
  6460                           ; Number of cases is 1, Range of values is 0 to 0
  6461                           ; switch strategies available:
  6462                           ; Name         Instructions Cycles
  6463                           ; simple_byte            4     3 (average)
  6464                           ;	Chosen strategy is simple_byte
  6465  001F42  5012               	movf	(??_atoi+1)^0,w,c
  6466  001F44  0A00               	xorlw	0	; case 0
  6467  001F46  B4D8               	btfsc	status,2,c
  6468  001F48  EFA8  F00F         	goto	l4806
  6469  001F4C  EFD1  F00F         	goto	l2922
  6470  001F50                     l4806:
  6471  001F50  FFFF               	dw	65535	; assembler added errata NOP
  6472                           
  6473                           ; Switch size 1, requested type "simple"
  6474                           ; Number of cases is 2, Range of values is 43 to 45
  6475                           ; switch strategies available:
  6476                           ; Name         Instructions Cycles
  6477                           ; simple_byte            7     4 (average)
  6478                           ;	Chosen strategy is simple_byte
  6479  001F52  5011               	movf	??_atoi^0,w,c
  6480  001F54  0A2B               	xorlw	43	; case 43
  6481  001F56  B4D8               	btfsc	status,2,c
  6482  001F58  EF94  F00F         	goto	l2914
  6483  001F5C  0A06               	xorlw	6	; case 45
  6484  001F5E  B4D8               	btfsc	status,2,c
  6485  001F60  EF8F  F00F         	goto	l2912
  6486  001F64  EFD1  F00F         	goto	l2922
  6487  001F68                     l2918:
  6488  001F68  FFFF               	dw	65535	; assembler added errata NOP
  6489  001F6A  C01C  F008         	movff	atoi@n,___wmul@multiplier
  6490  001F6E  C01D  F009         	movff	atoi@n+1,___wmul@multiplier+1
  6491  001F72  0E00               	movlw	0
  6492  001F74  6E0B               	movwf	(___wmul@multiplicand+1)^0,c
  6493  001F76  0E0A               	movlw	10
  6494  001F78  6E0A               	movwf	___wmul@multiplicand^0,c
  6495  001F7A  ECA1  F018         	call	___wmul	;wreg free
  6496  001F7E  C00F  FFD9         	movff	atoi@s,fsr2l
  6497  001F82  C010  FFDA         	movff	atoi@s+1,fsr2h
  6498  001F86  50DF               	movf	indf2,w,c
  6499  001F88  6E11               	movwf	??_atoi^0,c
  6500  001F8A  5011               	movf	??_atoi^0,w,c
  6501  001F8C  5E08               	subwf	?___wmul^0,f,c
  6502  001F8E  0E00               	movlw	0
  6503  001F90  5A09               	subwfb	(?___wmul+1)^0,f,c
  6504  001F92  0E30               	movlw	48
  6505  001F94  2408               	addwf	?___wmul^0,w,c
  6506  001F96  6E1C               	movwf	atoi@n^0,c
  6507  001F98  0E00               	movlw	0
  6508  001F9A  2009               	addwfc	(?___wmul+1)^0,w,c
  6509  001F9C  6E1D               	movwf	(atoi@n+1)^0,c
  6510  001F9E  EF94  F00F         	goto	l2914
  6511  001FA2                     l2922:
  6512  001FA2  FFFF               	dw	65535	; assembler added errata NOP
  6513  001FA4  0ED0               	movlw	208
  6514  001FA6  6E11               	movwf	??_atoi^0,c
  6515  001FA8  0EFF               	movlw	255
  6516  001FAA  6E12               	movwf	(??_atoi+1)^0,c
  6517  001FAC  C00F  FFD9         	movff	atoi@s,fsr2l
  6518  001FB0  C010  FFDA         	movff	atoi@s+1,fsr2h
  6519  001FB4  50DF               	movf	indf2,w,c
  6520  001FB6  6E13               	movwf	(??_atoi+2)^0,c
  6521  001FB8  6A14               	clrf	(??_atoi+3)^0,c
  6522  001FBA  5011               	movf	??_atoi^0,w,c
  6523  001FBC  2613               	addwf	(??_atoi+2)^0,f,c
  6524  001FBE  5012               	movf	(??_atoi+1)^0,w,c
  6525  001FC0  2214               	addwfc	(??_atoi+3)^0,f,c
  6526  001FC2  5014               	movf	(??_atoi+3)^0,w,c
  6527  001FC4  E10B               	bnz	u2830
  6528  001FC6  0E0A               	movlw	10
  6529  001FC8  5C13               	subwf	(??_atoi+2)^0,w,c
  6530  001FCA  A0D8               	btfss	status,0,c
  6531  001FCC  EFEA  F00F         	goto	u2831
  6532  001FD0  EFEE  F00F         	goto	u2830
  6533  001FD4                     u2831:
  6534  001FD4  FFFF               	dw	65535	; assembler added errata NOP
  6535  001FD6  0E01               	movlw	1
  6536  001FD8  EFF0  F00F         	goto	u2840
  6537  001FDC                     u2830:
  6538  001FDC  FFFF               	dw	65535	; assembler added errata NOP
  6539  001FDE  0E00               	movlw	0
  6540  001FE0                     u2840:
  6541  001FE0  FFFF               	dw	65535	; assembler added errata NOP
  6542  001FE2  6E19               	movwf	_atoi$1135^0,c
  6543  001FE4  6A1A               	clrf	(_atoi$1135+1)^0,c
  6544  001FE6  5019               	movf	_atoi$1135^0,w,c
  6545  001FE8  101A               	iorwf	(_atoi$1135+1)^0,w,c
  6546  001FEA  A4D8               	btfss	status,2,c
  6547  001FEC  EFFA  F00F         	goto	u2851
  6548  001FF0  EFFD  F00F         	goto	u2850
  6549  001FF4                     u2851:
  6550  001FF4  FFFF               	dw	65535	; assembler added errata NOP
  6551  001FF6  EFB4  F00F         	goto	l2918
  6552  001FFA                     u2850:
  6553  001FFA  FFFF               	dw	65535	; assembler added errata NOP
  6554  001FFC  5015               	movf	atoi@neg^0,w,c
  6555  001FFE  1016               	iorwf	(atoi@neg+1)^0,w,c
  6556  002000  A4D8               	btfss	status,2,c
  6557  002002  EF05  F010         	goto	u2861
  6558  002006  EF08  F010         	goto	u2860
  6559  00200A                     u2861:
  6560  00200A  FFFF               	dw	65535	; assembler added errata NOP
  6561  00200C  EF17  F010         	goto	l1144
  6562  002010                     u2860:
  6563  002010  FFFF               	dw	65535	; assembler added errata NOP
  6564  002012  C01C  F011         	movff	atoi@n,??_atoi
  6565  002016  C01D  F012         	movff	atoi@n+1,??_atoi+1
  6566  00201A  1E11               	comf	??_atoi^0,f,c
  6567  00201C  1E12               	comf	(??_atoi+1)^0,f,c
  6568  00201E  4A11               	infsnz	??_atoi^0,f,c
  6569  002020  2A12               	incf	(??_atoi+1)^0,f,c
  6570  002022  C011  F00F         	movff	??_atoi,?_atoi
  6571  002026  C012  F010         	movff	??_atoi+1,?_atoi+1
  6572  00202A  EF1C  F010         	goto	l1147
  6573  00202E                     l1144:
  6574  00202E  FFFF               	dw	65535	; assembler added errata NOP
  6575  002030  C01C  F00F         	movff	atoi@n,?_atoi
  6576  002034  C01D  F010         	movff	atoi@n+1,?_atoi+1
  6577  002038                     l1147:
  6578  002038  FFFF               	dw	65535	; assembler added errata NOP
  6579  00203A  0012               	return		;funcret
  6580  00203C  FFFF               	dw	65535	; errata NOP
  6581  00203E                     __end_of_atoi:
  6582                           	callstack 0
  6583                           
  6584 ;; *************** function _isspace *****************
  6585 ;; Defined at:
  6586 ;;		line 5 in file "/opt/microchip/xc8/v2.32/pic/sources/c99/common/isspace.c"
  6587 ;; Parameters:    Size  Location     Type
  6588 ;;  c               2    7[COMRAM] int 
  6589 ;; Auto vars:     Size  Location     Type
  6590 ;;		None
  6591 ;; Return value:  Size  Location     Type
  6592 ;;                  2    7[COMRAM] int 
  6593 ;; Registers used:
  6594 ;;		wreg, status,2, status,0
  6595 ;; Tracked objects:
  6596 ;;		On entry : 0/0
  6597 ;;		On exit  : 0/0
  6598 ;;		Unchanged: 0/0
  6599 ;; Data sizes:     COMRAM   BANK0   BANK1   BANK2   BANK3   BANK4   BANK5
  6600 ;;      Params:         2       0       0       0       0       0       0
  6601 ;;      Locals:         1       0       0       0       0       0       0
  6602 ;;      Temps:          4       0       0       0       0       0       0
  6603 ;;      Totals:         7       0       0       0       0       0       0
  6604 ;;Total ram usage:        7 bytes
  6605 ;; Hardware stack levels used: 1
  6606 ;; Hardware stack levels required when called: 1
  6607 ;; This function calls:
  6608 ;;		Nothing
  6609 ;; This function is called by:
  6610 ;;		_atoi
  6611 ;; This function uses a non-reentrant model
  6612 ;;
  6613                           
  6614                           	psect	text22
  6615  002EA4                     __ptext22:
  6616                           	callstack 0
  6617  002EA4                     _isspace:
  6618                           	callstack 26
  6619  002EA4  FFFF               	dw	65535	; assembler added errata NOP
  6620  002EA6  0E01               	movlw	1
  6621  002EA8  6E0E               	movwf	_isspace$1151^0,c
  6622  002EAA  0E20               	movlw	32
  6623  002EAC  1808               	xorwf	isspace@c^0,w,c
  6624  002EAE  1009               	iorwf	(isspace@c+1)^0,w,c
  6625  002EB0  B4D8               	btfsc	status,2,c
  6626  002EB2  EF5D  F017         	goto	u2701
  6627  002EB6  EF60  F017         	goto	u2700
  6628  002EBA                     u2701:
  6629  002EBA  FFFF               	dw	65535	; assembler added errata NOP
  6630  002EBC  EF7C  F017         	goto	l2862
  6631  002EC0                     u2700:
  6632  002EC0  FFFF               	dw	65535	; assembler added errata NOP
  6633  002EC2  0EF7               	movlw	247
  6634  002EC4  6E0A               	movwf	??_isspace^0,c
  6635  002EC6  0EFF               	movlw	255
  6636  002EC8  6E0B               	movwf	(??_isspace+1)^0,c
  6637  002ECA  C008  F00C         	movff	isspace@c,??_isspace+2
  6638  002ECE  C009  F00D         	movff	isspace@c+1,??_isspace+3
  6639  002ED2  500A               	movf	??_isspace^0,w,c
  6640  002ED4  260C               	addwf	(??_isspace+2)^0,f,c
  6641  002ED6  500B               	movf	(??_isspace+1)^0,w,c
  6642  002ED8  220D               	addwfc	(??_isspace+3)^0,f,c
  6643  002EDA  500D               	movf	(??_isspace+3)^0,w,c
  6644  002EDC  E10A               	bnz	u2710
  6645  002EDE  0E05               	movlw	5
  6646  002EE0  5C0C               	subwf	(??_isspace+2)^0,w,c
  6647  002EE2  A0D8               	btfss	status,0,c
  6648  002EE4  EF76  F017         	goto	u2711
  6649  002EE8  EF79  F017         	goto	u2710
  6650  002EEC                     u2711:
  6651  002EEC  FFFF               	dw	65535	; assembler added errata NOP
  6652  002EEE  EF7C  F017         	goto	l2862
  6653  002EF2                     u2710:
  6654  002EF2  FFFF               	dw	65535	; assembler added errata NOP
  6655  002EF4  0E00               	movlw	0
  6656  002EF6  6E0E               	movwf	_isspace$1151^0,c
  6657  002EF8                     l2862:
  6658  002EF8  FFFF               	dw	65535	; assembler added errata NOP
  6659  002EFA  C00E  F008         	movff	_isspace$1151,?_isspace
  6660  002EFE  6A09               	clrf	(?_isspace+1)^0,c
  6661  002F00  0012               	return		;funcret
  6662  002F02  FFFF               	dw	65535	; errata NOP
  6663  002F04                     __end_of_isspace:
  6664                           	callstack 0
  6665                           
  6666 ;; *************** function _isdigit *****************
  6667 ;; Defined at:
  6668 ;;		line 5 in file "/opt/microchip/xc8/v2.32/pic/sources/c99/common/isdigit.c"
  6669 ;; Parameters:    Size  Location     Type
  6670 ;;  c               2    7[COMRAM] int 
  6671 ;; Auto vars:     Size  Location     Type
  6672 ;;		None
  6673 ;; Return value:  Size  Location     Type
  6674 ;;                  2    7[COMRAM] int 
  6675 ;; Registers used:
  6676 ;;		wreg, status,2, status,0
  6677 ;; Tracked objects:
  6678 ;;		On entry : 0/0
  6679 ;;		On exit  : 0/0
  6680 ;;		Unchanged: 0/0
  6681 ;; Data sizes:     COMRAM   BANK0   BANK1   BANK2   BANK3   BANK4   BANK5
  6682 ;;      Params:         2       0       0       0       0       0       0
  6683 ;;      Locals:         0       0       0       0       0       0       0
  6684 ;;      Temps:          4       0       0       0       0       0       0
  6685 ;;      Totals:         6       0       0       0       0       0       0
  6686 ;;Total ram usage:        6 bytes
  6687 ;; Hardware stack levels used: 1
  6688 ;; Hardware stack levels required when called: 1
  6689 ;; This function calls:
  6690 ;;		Nothing
  6691 ;; This function is called by:
  6692 ;;		_atoi
  6693 ;; This function uses a non-reentrant model
  6694 ;;
  6695                           
  6696                           	psect	text23
  6697  003044                     __ptext23:
  6698                           	callstack 0
  6699  003044                     _isdigit:
  6700                           	callstack 26
  6701  003044  FFFF               	dw	65535	; assembler added errata NOP
  6702  003046  0ED0               	movlw	208
  6703  003048  6E0A               	movwf	??_isdigit^0,c
  6704  00304A  0EFF               	movlw	255
  6705  00304C  6E0B               	movwf	(??_isdigit+1)^0,c
  6706  00304E  C008  F00C         	movff	isdigit@c,??_isdigit+2
  6707  003052  C009  F00D         	movff	isdigit@c+1,??_isdigit+3
  6708  003056  500A               	movf	??_isdigit^0,w,c
  6709  003058  260C               	addwf	(??_isdigit+2)^0,f,c
  6710  00305A  500B               	movf	(??_isdigit+1)^0,w,c
  6711  00305C  220D               	addwfc	(??_isdigit+3)^0,f,c
  6712  00305E  500D               	movf	(??_isdigit+3)^0,w,c
  6713  003060  E10B               	bnz	u2720
  6714  003062  0E0A               	movlw	10
  6715  003064  5C0C               	subwf	(??_isdigit+2)^0,w,c
  6716  003066  A0D8               	btfss	status,0,c
  6717  003068  EF38  F018         	goto	u2721
  6718  00306C  EF3C  F018         	goto	u2720
  6719  003070                     u2721:
  6720  003070  FFFF               	dw	65535	; assembler added errata NOP
  6721  003072  0E01               	movlw	1
  6722  003074  EF3E  F018         	goto	u2730
  6723  003078                     u2720:
  6724  003078  FFFF               	dw	65535	; assembler added errata NOP
  6725  00307A  0E00               	movlw	0
  6726  00307C                     u2730:
  6727  00307C  FFFF               	dw	65535	; assembler added errata NOP
  6728  00307E  6E08               	movwf	?_isdigit^0,c
  6729  003080  6A09               	clrf	(?_isdigit+1)^0,c
  6730  003082  0012               	return		;funcret
  6731  003084  FFFF               	dw	65535	; errata NOP
  6732  003086                     __end_of_isdigit:
  6733                           	callstack 0
  6734                           
  6735 ;; *************** function ___wmul *****************
  6736 ;; Defined at:
  6737 ;;		line 15 in file "/opt/microchip/xc8/v2.32/pic/sources/c99/common/Umul16.c"
  6738 ;; Parameters:    Size  Location     Type
  6739 ;;  multiplier      2    7[COMRAM] unsigned int 
  6740 ;;  multiplicand    2    9[COMRAM] unsigned int 
  6741 ;; Auto vars:     Size  Location     Type
  6742 ;;  product         2   11[COMRAM] unsigned int 
  6743 ;; Return value:  Size  Location     Type
  6744 ;;                  2    7[COMRAM] unsigned int 
  6745 ;; Registers used:
  6746 ;;		wreg, status,2, status,0, prodl, prodh
  6747 ;; Tracked objects:
  6748 ;;		On entry : 0/0
  6749 ;;		On exit  : 0/0
  6750 ;;		Unchanged: 0/0
  6751 ;; Data sizes:     COMRAM   BANK0   BANK1   BANK2   BANK3   BANK4   BANK5
  6752 ;;      Params:         4       0       0       0       0       0       0
  6753 ;;      Locals:         2       0       0       0       0       0       0
  6754 ;;      Temps:          0       0       0       0       0       0       0
  6755 ;;      Totals:         6       0       0       0       0       0       0
  6756 ;;Total ram usage:        6 bytes
  6757 ;; Hardware stack levels used: 1
  6758 ;; Hardware stack levels required when called: 1
  6759 ;; This function calls:
  6760 ;;		Nothing
  6761 ;; This function is called by:
  6762 ;;		_atoi
  6763 ;; This function uses a non-reentrant model
  6764 ;;
  6765                           
  6766                           	psect	text24
  6767  003142                     __ptext24:
  6768                           	callstack 0
  6769  003142                     ___wmul:
  6770                           	callstack 0
  6771  003142  FFFF               	dw	65535	; assembler added errata NOP
  6772  003144  5008               	movf	___wmul@multiplier^0,w,c
  6773  003146  020A               	mulwf	___wmul@multiplicand^0,c
  6774  003148  CFF3 F00C          	movff	prodl,___wmul@product
  6775  00314C  CFF4 F00D          	movff	prodh,___wmul@product+1
  6776  003150  5008               	movf	___wmul@multiplier^0,w,c
  6777  003152  020B               	mulwf	(___wmul@multiplicand+1)^0,c
  6778  003154  50F3               	movf	243,w,c
  6779  003156  260D               	addwf	(___wmul@product+1)^0,f,c
  6780  003158  5009               	movf	(___wmul@multiplier+1)^0,w,c
  6781  00315A  020A               	mulwf	___wmul@multiplicand^0,c
  6782  00315C  50F3               	movf	243,w,c
  6783  00315E  260D               	addwf	(___wmul@product+1)^0,f,c
  6784  003160  C00C  F008         	movff	___wmul@product,?___wmul
  6785  003164  C00D  F009         	movff	___wmul@product+1,?___wmul+1
  6786  003168  0012               	return		;funcret
  6787  00316A  FFFF               	dw	65535	; errata NOP
  6788  00316C                     __end_of___wmul:
  6789                           	callstack 0
  6790                           
  6791 ;; *************** function _init_interrupts *****************
  6792 ;; Defined at:
  6793 ;;		line 32 in file "init_PIC.c"
  6794 ;; Parameters:    Size  Location     Type
  6795 ;;		None
  6796 ;; Auto vars:     Size  Location     Type
  6797 ;;		None
  6798 ;; Return value:  Size  Location     Type
  6799 ;;                  1    wreg      void 
  6800 ;; Registers used:
  6801 ;;		wreg, status,2
  6802 ;; Tracked objects:
  6803 ;;		On entry : 0/0
  6804 ;;		On exit  : 0/0
  6805 ;;		Unchanged: 0/0
  6806 ;; Data sizes:     COMRAM   BANK0   BANK1   BANK2   BANK3   BANK4   BANK5
  6807 ;;      Params:         0       0       0       0       0       0       0
  6808 ;;      Locals:         0       0       0       0       0       0       0
  6809 ;;      Temps:          0       0       0       0       0       0       0
  6810 ;;      Totals:         0       0       0       0       0       0       0
  6811 ;;Total ram usage:        0 bytes
  6812 ;; Hardware stack levels used: 1
  6813 ;; Hardware stack levels required when called: 1
  6814 ;; This function calls:
  6815 ;;		Nothing
  6816 ;; This function is called by:
  6817 ;;		_main
  6818 ;; This function uses a non-reentrant model
  6819 ;;
  6820                           
  6821                           	psect	text25
  6822  0031D2                     __ptext25:
  6823                           	callstack 0
  6824  0031D2                     _init_interrupts:
  6825                           	callstack 0
  6826  0031D2  FFFF               	dw	65535	; assembler added errata NOP
  6827  0031D4                     
  6828                           ;init_PIC.c: 34:     PIR1bits.RCIF = 0;
  6829  0031D4  9A9E               	bcf	158,5,c	;volatile
  6830                           
  6831                           ;init_PIC.c: 35:  PIE1bits.RCIE = 1;
  6832  0031D6  8A9D               	bsf	157,5,c	;volatile
  6833                           
  6834                           ;init_PIC.c: 36:  INTCONbits.PEIE = 1;
  6835  0031D8  8CF2               	bsf	242,6,c	;volatile
  6836  0031DA                     
  6837                           ;init_PIC.c: 40:     INTCON2=0x00;
  6838  0031DA  0E00               	movlw	0
  6839  0031DC  6EF1               	movwf	241,c	;volatile
  6840  0031DE                     
  6841                           ;init_PIC.c: 41:     INTCONbits.INT0IF=0;
  6842  0031DE  92F2               	bcf	242,1,c	;volatile
  6843  0031E0                     
  6844                           ;init_PIC.c: 42:     INTCONbits.INT0IE=1;
  6845  0031E0  88F2               	bsf	242,4,c	;volatile
  6846  0031E2  0012               	return		;funcret
  6847  0031E4  FFFF               	dw	65535	; errata NOP
  6848  0031E6                     __end_of_init_interrupts:
  6849                           	callstack 0
  6850                           
  6851 ;; *************** function _init_USART *****************
  6852 ;; Defined at:
  6853 ;;		line 17 in file "serial_rs232.c"
  6854 ;; Parameters:    Size  Location     Type
  6855 ;;		None
  6856 ;; Auto vars:     Size  Location     Type
  6857 ;;		None
  6858 ;; Return value:  Size  Location     Type
  6859 ;;                  1    wreg      void 
  6860 ;; Registers used:
  6861 ;;		wreg, status,2, status,0, prodl, prodh, cstack
  6862 ;; Tracked objects:
  6863 ;;		On entry : 0/0
  6864 ;;		On exit  : 0/0
  6865 ;;		Unchanged: 0/0
  6866 ;; Data sizes:     COMRAM   BANK0   BANK1   BANK2   BANK3   BANK4   BANK5
  6867 ;;      Params:         0       0       0       0       0       0       0
  6868 ;;      Locals:         0       0       0       0       0       0       0
  6869 ;;      Temps:          0       0       0       0       0       0       0
  6870 ;;      Totals:         0       0       0       0       0       0       0
  6871 ;;Total ram usage:        0 bytes
  6872 ;; Hardware stack levels used: 1
  6873 ;; Hardware stack levels required when called: 4
  6874 ;; This function calls:
  6875 ;;		___fltol
  6876 ;;		_roundf
  6877 ;; This function is called by:
  6878 ;;		_main
  6879 ;; This function uses a non-reentrant model
  6880 ;;
  6881                           
  6882                           	psect	text26
  6883  0030C8                     __ptext26:
  6884                           	callstack 0
  6885  0030C8                     _init_USART:
  6886                           	callstack 0
  6887  0030C8  FFFF               	dw	65535	; assembler added errata NOP
  6888  0030CA                     
  6889                           ;serial_rs232.c: 33:     SPBRG = roundf(((Fosc / desired_BaudRate)/16)-1);
  6890  0030CA  0E55               	movlw	85
  6891  0030CC  6E3B               	movwf	roundf@x^0,c
  6892  0030CE  0E55               	movlw	85
  6893  0030D0  6E3C               	movwf	(roundf@x+1)^0,c
  6894  0030D2  0EC8               	movlw	200
  6895  0030D4  6E3D               	movwf	(roundf@x+2)^0,c
  6896  0030D6  0E41               	movlw	65
  6897  0030D8  6E3E               	movwf	(roundf@x+3)^0,c
  6898  0030DA  EC51  F00B         	call	_roundf	;wreg free
  6899  0030DE  C03B  F055         	movff	?_roundf,___fltol@f1
  6900  0030E2  C03C  F056         	movff	?_roundf+1,___fltol@f1+1
  6901  0030E6  C03D  F057         	movff	?_roundf+2,___fltol@f1+2
  6902  0030EA  C03E  F058         	movff	?_roundf+3,___fltol@f1+3
  6903  0030EE  EC77  F011         	call	___fltol	;wreg free
  6904  0030F2  5055               	movf	?___fltol^0,w,c
  6905  0030F4  6EAF               	movwf	175,c	;volatile
  6906  0030F6                     
  6907                           ;serial_rs232.c: 35:  TXSTAbits.TX9=0;
  6908  0030F6  9CAC               	bcf	172,6,c	;volatile
  6909  0030F8                     
  6910                           ;serial_rs232.c: 36:     TXSTAbits.TXEN=1;
  6911  0030F8  8AAC               	bsf	172,5,c	;volatile
  6912  0030FA                     
  6913                           ;serial_rs232.c: 37:     TXSTAbits.SYNC=0;
  6914  0030FA  98AC               	bcf	172,4,c	;volatile
  6915  0030FC                     
  6916                           ;serial_rs232.c: 38:     TXSTAbits.BRGH=1;
  6917  0030FC  84AC               	bsf	172,2,c	;volatile
  6918  0030FE                     
  6919                           ;serial_rs232.c: 39:     RCSTAbits.SPEN=1;
  6920  0030FE  8EAB               	bsf	171,7,c	;volatile
  6921  003100                     
  6922                           ;serial_rs232.c: 40:     RCSTAbits.RX9=0;
  6923  003100  9CAB               	bcf	171,6,c	;volatile
  6924  003102                     
  6925                           ;serial_rs232.c: 41:     RCSTAbits.CREN=1;
  6926  003102  88AB               	bsf	171,4,c	;volatile
  6927  003104  0012               	return		;funcret
  6928  003106  FFFF               	dw	65535	; errata NOP
  6929  003108                     __end_of_init_USART:
  6930                           	callstack 0
  6931                           
  6932 ;; *************** function _roundf *****************
  6933 ;; Defined at:
  6934 ;;		line 12 in file "/opt/microchip/xc8/v2.32/pic/sources/c99/common/roundf.c"
  6935 ;; Parameters:    Size  Location     Type
  6936 ;;  x               4   58[COMRAM] float 
  6937 ;; Auto vars:     Size  Location     Type
  6938 ;;  y               4   80[COMRAM] float 
  6939 ;;  u               4   76[COMRAM] struct .
  6940 ;;  e               2   70[COMRAM] int 
  6941 ;; Return value:  Size  Location     Type
  6942 ;;                  4   58[COMRAM] float 
  6943 ;; Registers used:
  6944 ;;		wreg, status,2, status,0, prodl, prodh, cstack
  6945 ;; Tracked objects:
  6946 ;;		On entry : 0/0
  6947 ;;		On exit  : 0/0
  6948 ;;		Unchanged: 0/0
  6949 ;; Data sizes:     COMRAM   BANK0   BANK1   BANK2   BANK3   BANK4   BANK5
  6950 ;;      Params:         4       0       0       0       0       0       0
  6951 ;;      Locals:        18       0       0       0       0       0       0
  6952 ;;      Temps:          4       0       0       0       0       0       0
  6953 ;;      Totals:        26       0       0       0       0       0       0
  6954 ;;Total ram usage:       26 bytes
  6955 ;; Hardware stack levels used: 1
  6956 ;; Hardware stack levels required when called: 3
  6957 ;; This function calls:
  6958 ;;		___fladd
  6959 ;;		___flge
  6960 ;;		___flmul
  6961 ;;		___flneg
  6962 ;;		___flsub
  6963 ;; This function is called by:
  6964 ;;		_init_USART
  6965 ;; This function uses a non-reentrant model
  6966 ;;
  6967                           
  6968                           	psect	text27
  6969  0016A2                     __ptext27:
  6970                           	callstack 0
  6971  0016A2                     _roundf:
  6972                           	callstack 0
  6973  0016A2  FFFF               	dw	65535	; assembler added errata NOP
  6974  0016A4  C09E  F04D         	movff	roundf@F528,roundf@u
  6975  0016A8  C09F  F04E         	movff	roundf@F528+1,roundf@u+1
  6976  0016AC  C0A0  F04F         	movff	roundf@F528+2,roundf@u+2
  6977  0016B0  C0A1  F050         	movff	roundf@F528+3,roundf@u+3
  6978  0016B4  C03B  F04D         	movff	roundf@x,roundf@u
  6979  0016B8  C03C  F04E         	movff	roundf@x+1,roundf@u+1
  6980  0016BC  C03D  F04F         	movff	roundf@x+2,roundf@u+2
  6981  0016C0  C03E  F050         	movff	roundf@x+3,roundf@u+3
  6982  0016C4  C04D  F03F         	movff	roundf@u,??_roundf
  6983  0016C8  C04E  F040         	movff	roundf@u+1,??_roundf+1
  6984  0016CC  C04F  F041         	movff	roundf@u+2,??_roundf+2
  6985  0016D0  C050  F042         	movff	roundf@u+3,??_roundf+3
  6986  0016D4  0E18               	movlw	24
  6987  0016D6  EF73  F00B         	goto	u5100
  6988  0016DA                     u5105:
  6989  0016DA  FFFF               	dw	65535	; assembler added errata NOP
  6990  0016DC  90D8               	bcf	status,0,c
  6991  0016DE  3242               	rrcf	(??_roundf+3)^0,f,c
  6992  0016E0  3241               	rrcf	(??_roundf+2)^0,f,c
  6993  0016E2  3240               	rrcf	(??_roundf+1)^0,f,c
  6994  0016E4  323F               	rrcf	??_roundf^0,f,c
  6995  0016E6                     u5100:
  6996  0016E6  FFFF               	dw	65535	; assembler added errata NOP
  6997  0016E8  2EE8               	decfsz	wreg,f,c
  6998  0016EA  EF6D  F00B         	goto	u5105
  6999  0016EE  503F               	movf	??_roundf^0,w,c
  7000  0016F0  6E47               	movwf	roundf@e^0,c
  7001  0016F2  6A48               	clrf	(roundf@e+1)^0,c
  7002  0016F4  BE48               	btfsc	(roundf@e+1)^0,7,c
  7003  0016F6  EF86  F00B         	goto	u5111
  7004  0016FA  5048               	movf	(roundf@e+1)^0,w,c
  7005  0016FC  E10A               	bnz	u5110
  7006  0016FE  0E96               	movlw	150
  7007  001700  5C47               	subwf	roundf@e^0,w,c
  7008  001702  A0D8               	btfss	status,0,c
  7009  001704  EF86  F00B         	goto	u5111
  7010  001708  EF89  F00B         	goto	u5110
  7011  00170C                     u5111:
  7012  00170C  FFFF               	dw	65535	; assembler added errata NOP
  7013  00170E  EF94  F00B         	goto	l4428
  7014  001712                     u5110:
  7015  001712  FFFF               	dw	65535	; assembler added errata NOP
  7016  001714  C03B  F03B         	movff	roundf@x,?_roundf
  7017  001718  C03C  F03C         	movff	roundf@x+1,?_roundf+1
  7018  00171C  C03D  F03D         	movff	roundf@x+2,?_roundf+2
  7019  001720  C03E  F03E         	movff	roundf@x+3,?_roundf+3
  7020  001724  EF41  F00D         	goto	l1179
  7021  001728                     l4428:
  7022  001728  FFFF               	dw	65535	; assembler added errata NOP
  7023  00172A  C04D  F03F         	movff	roundf@u,??_roundf
  7024  00172E  C04E  F040         	movff	roundf@u+1,??_roundf+1
  7025  001732  C04F  F041         	movff	roundf@u+2,??_roundf+2
  7026  001736  C050  F042         	movff	roundf@u+3,??_roundf+3
  7027  00173A  0E20               	movlw	32
  7028  00173C  EFA6  F00B         	goto	u5120
  7029  001740                     u5125:
  7030  001740  FFFF               	dw	65535	; assembler added errata NOP
  7031  001742  90D8               	bcf	status,0,c
  7032  001744  3242               	rrcf	(??_roundf+3)^0,f,c
  7033  001746  3241               	rrcf	(??_roundf+2)^0,f,c
  7034  001748  3240               	rrcf	(??_roundf+1)^0,f,c
  7035  00174A  323F               	rrcf	??_roundf^0,f,c
  7036  00174C                     u5120:
  7037  00174C  FFFF               	dw	65535	; assembler added errata NOP
  7038  00174E  2EE8               	decfsz	wreg,f,c
  7039  001750  EFA0  F00B         	goto	u5125
  7040  001754  503F               	movf	??_roundf^0,w,c
  7041  001756  1040               	iorwf	(??_roundf+1)^0,w,c
  7042  001758  1041               	iorwf	(??_roundf+2)^0,w,c
  7043  00175A  1042               	iorwf	(??_roundf+3)^0,w,c
  7044  00175C  B4D8               	btfsc	status,2,c
  7045  00175E  EFB3  F00B         	goto	u5131
  7046  001762  EFB6  F00B         	goto	u5130
  7047  001766                     u5131:
  7048  001766  FFFF               	dw	65535	; assembler added errata NOP
  7049  001768  EFC9  F00B         	goto	l4432
  7050  00176C                     u5130:
  7051  00176C  FFFF               	dw	65535	; assembler added errata NOP
  7052  00176E  C03B  F008         	movff	roundf@x,___flneg@f1
  7053  001772  C03C  F009         	movff	roundf@x+1,___flneg@f1+1
  7054  001776  C03D  F00A         	movff	roundf@x+2,___flneg@f1+2
  7055  00177A  C03E  F00B         	movff	roundf@x+3,___flneg@f1+3
  7056  00177E  EC43  F018         	call	___flneg	;wreg free
  7057  001782  C008  F03B         	movff	?___flneg,roundf@x
  7058  001786  C009  F03C         	movff	?___flneg+1,roundf@x+1
  7059  00178A  C00A  F03D         	movff	?___flneg+2,roundf@x+2
  7060  00178E  C00B  F03E         	movff	?___flneg+3,roundf@x+3
  7061  001792                     l4432:
  7062  001792  FFFF               	dw	65535	; assembler added errata NOP
  7063  001794  BE48               	btfsc	(roundf@e+1)^0,7,c
  7064  001796  EFD9  F00B         	goto	u5140
  7065  00179A  5048               	movf	(roundf@e+1)^0,w,c
  7066  00179C  E107               	bnz	u5141
  7067  00179E  0E7E               	movlw	126
  7068  0017A0  5C47               	subwf	roundf@e^0,w,c
  7069  0017A2  B0D8               	btfsc	status,0,c
  7070  0017A4  EFD6  F00B         	goto	u5141
  7071  0017A8  EFD9  F00B         	goto	u5140
  7072  0017AC                     u5141:
  7073  0017AC  FFFF               	dw	65535	; assembler added errata NOP
  7074  0017AE  EFF6  F00B         	goto	l4438
  7075  0017B2                     u5140:
  7076  0017B2  FFFF               	dw	65535	; assembler added errata NOP
  7077  0017B4  C04D  F008         	movff	roundf@u,___flmul@b
  7078  0017B8  C04E  F009         	movff	roundf@u+1,___flmul@b+1
  7079  0017BC  C04F  F00A         	movff	roundf@u+2,___flmul@b+2
  7080  0017C0  C050  F00B         	movff	roundf@u+3,___flmul@b+3
  7081  0017C4  0E00               	movlw	0
  7082  0017C6  6E0C               	movwf	___flmul@a^0,c
  7083  0017C8  0E00               	movlw	0
  7084  0017CA  6E0D               	movwf	(___flmul@a+1)^0,c
  7085  0017CC  0E00               	movlw	0
  7086  0017CE  6E0E               	movwf	(___flmul@a+2)^0,c
  7087  0017D0  0E00               	movlw	0
  7088  0017D2  6E0F               	movwf	(___flmul@a+3)^0,c
  7089  0017D4  ECE6  F006         	call	___flmul	;wreg free
  7090  0017D8  C008  F03B         	movff	?___flmul,?_roundf
  7091  0017DC  C009  F03C         	movff	?___flmul+1,?_roundf+1
  7092  0017E0  C00A  F03D         	movff	?___flmul+2,?_roundf+2
  7093  0017E4  C00B  F03E         	movff	?___flmul+3,?_roundf+3
  7094  0017E8  EF41  F00D         	goto	l1179
  7095  0017EC                     l4438:
  7096  0017EC  FFFF               	dw	65535	; assembler added errata NOP
  7097  0017EE  0E00               	movlw	0
  7098  0017F0  6E0C               	movwf	___fladd@a^0,c
  7099  0017F2  0E00               	movlw	0
  7100  0017F4  6E0D               	movwf	(___fladd@a+1)^0,c
  7101  0017F6  0E00               	movlw	0
  7102  0017F8  6E0E               	movwf	(___fladd@a+2)^0,c
  7103  0017FA  0E4B               	movlw	75
  7104  0017FC  6E0F               	movwf	(___fladd@a+3)^0,c
  7105  0017FE  C03B  F008         	movff	roundf@x,___fladd@b
  7106  001802  C03C  F009         	movff	roundf@x+1,___fladd@b+1
  7107  001806  C03D  F00A         	movff	roundf@x+2,___fladd@b+2
  7108  00180A  C03E  F00B         	movff	roundf@x+3,___fladd@b+3
  7109  00180E  EC12  F004         	call	___fladd	;wreg free
  7110  001812  C008  F049         	movff	?___fladd,_roundf$1404
  7111  001816  C009  F04A         	movff	?___fladd+1,_roundf$1404+1
  7112  00181A  C00A  F04B         	movff	?___fladd+2,_roundf$1404+2
  7113  00181E  C00B  F04C         	movff	?___fladd+3,_roundf$1404+3
  7114  001822  0E00               	movlw	0
  7115  001824  6E0C               	movwf	___fladd@a^0,c
  7116  001826  0E00               	movlw	0
  7117  001828  6E0D               	movwf	(___fladd@a+1)^0,c
  7118  00182A  0E00               	movlw	0
  7119  00182C  6E0E               	movwf	(___fladd@a+2)^0,c
  7120  00182E  0ECB               	movlw	203
  7121  001830  6E0F               	movwf	(___fladd@a+3)^0,c
  7122  001832  C049  F008         	movff	_roundf$1404,___fladd@b
  7123  001836  C04A  F009         	movff	_roundf$1404+1,___fladd@b+1
  7124  00183A  C04B  F00A         	movff	_roundf$1404+2,___fladd@b+2
  7125  00183E  C04C  F00B         	movff	_roundf$1404+3,___fladd@b+3
  7126  001842  EC12  F004         	call	___fladd	;wreg free
  7127  001846  C008  F043         	movff	?___fladd,_roundf$1405
  7128  00184A  C009  F044         	movff	?___fladd+1,_roundf$1405+1
  7129  00184E  C00A  F045         	movff	?___fladd+2,_roundf$1405+2
  7130  001852  C00B  F046         	movff	?___fladd+3,_roundf$1405+3
  7131  001856  C043  F018         	movff	_roundf$1405,___flsub@b
  7132  00185A  C044  F019         	movff	_roundf$1405+1,___flsub@b+1
  7133  00185E  C045  F01A         	movff	_roundf$1405+2,___flsub@b+2
  7134  001862  C046  F01B         	movff	_roundf$1405+3,___flsub@b+3
  7135  001866  C03B  F01C         	movff	roundf@x,___flsub@a
  7136  00186A  C03C  F01D         	movff	roundf@x+1,___flsub@a+1
  7137  00186E  C03D  F01E         	movff	roundf@x+2,___flsub@a+2
  7138  001872  C03E  F01F         	movff	roundf@x+3,___flsub@a+3
  7139  001876  ECDC  F017         	call	___flsub	;wreg free
  7140  00187A  C018  F051         	movff	?___flsub,roundf@y
  7141  00187E  C019  F052         	movff	?___flsub+1,roundf@y+1
  7142  001882  C01A  F053         	movff	?___flsub+2,roundf@y+2
  7143  001886  C01B  F054         	movff	?___flsub+3,roundf@y+3
  7144  00188A  0E00               	movlw	0
  7145  00188C  6E2F               	movwf	___flge@ff1^0,c
  7146  00188E  0E00               	movlw	0
  7147  001890  6E30               	movwf	(___flge@ff1+1)^0,c
  7148  001892  0E00               	movlw	0
  7149  001894  6E31               	movwf	(___flge@ff1+2)^0,c
  7150  001896  0E3F               	movlw	63
  7151  001898  6E32               	movwf	(___flge@ff1+3)^0,c
  7152  00189A  C051  F033         	movff	roundf@y,___flge@ff2
  7153  00189E  C052  F034         	movff	roundf@y+1,___flge@ff2+1
  7154  0018A2  C053  F035         	movff	roundf@y+2,___flge@ff2+2
  7155  0018A6  C054  F036         	movff	roundf@y+3,___flge@ff2+3
  7156  0018AA  ECAC  F012         	call	___flge	;wreg free
  7157  0018AE  B0D8               	btfsc	status,0,c
  7158  0018B0  EF5C  F00C         	goto	u5151
  7159  0018B4  EF5F  F00C         	goto	u5150
  7160  0018B8                     u5151:
  7161  0018B8  FFFF               	dw	65535	; assembler added errata NOP
  7162  0018BA  EF96  F00C         	goto	l4442
  7163  0018BE                     u5150:
  7164  0018BE  FFFF               	dw	65535	; assembler added errata NOP
  7165  0018C0  C03B  F00C         	movff	roundf@x,___fladd@a
  7166  0018C4  C03C  F00D         	movff	roundf@x+1,___fladd@a+1
  7167  0018C8  C03D  F00E         	movff	roundf@x+2,___fladd@a+2
  7168  0018CC  C03E  F00F         	movff	roundf@x+3,___fladd@a+3
  7169  0018D0  C051  F008         	movff	roundf@y,___fladd@b
  7170  0018D4  C052  F009         	movff	roundf@y+1,___fladd@b+1
  7171  0018D8  C053  F00A         	movff	roundf@y+2,___fladd@b+2
  7172  0018DC  C054  F00B         	movff	roundf@y+3,___fladd@b+3
  7173  0018E0  EC12  F004         	call	___fladd	;wreg free
  7174  0018E4  C008  F049         	movff	?___fladd,_roundf$1404
  7175  0018E8  C009  F04A         	movff	?___fladd+1,_roundf$1404+1
  7176  0018EC  C00A  F04B         	movff	?___fladd+2,_roundf$1404+2
  7177  0018F0  C00B  F04C         	movff	?___fladd+3,_roundf$1404+3
  7178  0018F4  C049  F008         	movff	_roundf$1404,___fladd@b
  7179  0018F8  C04A  F009         	movff	_roundf$1404+1,___fladd@b+1
  7180  0018FC  C04B  F00A         	movff	_roundf$1404+2,___fladd@b+2
  7181  001900  C04C  F00B         	movff	_roundf$1404+3,___fladd@b+3
  7182  001904  0E00               	movlw	0
  7183  001906  6E0C               	movwf	___fladd@a^0,c
  7184  001908  0E00               	movlw	0
  7185  00190A  6E0D               	movwf	(___fladd@a+1)^0,c
  7186  00190C  0E80               	movlw	128
  7187  00190E  6E0E               	movwf	(___fladd@a+2)^0,c
  7188  001910  0EBF               	movlw	191
  7189  001912  6E0F               	movwf	(___fladd@a+3)^0,c
  7190  001914  EC12  F004         	call	___fladd	;wreg free
  7191  001918  C008  F051         	movff	?___fladd,roundf@y
  7192  00191C  C009  F052         	movff	?___fladd+1,roundf@y+1
  7193  001920  C00A  F053         	movff	?___fladd+2,roundf@y+2
  7194  001924  C00B  F054         	movff	?___fladd+3,roundf@y+3
  7195  001928  EF03  F00D         	goto	l4448
  7196  00192C                     l4442:
  7197  00192C  FFFF               	dw	65535	; assembler added errata NOP
  7198  00192E  0E00               	movlw	0
  7199  001930  6E2F               	movwf	___flge@ff1^0,c
  7200  001932  0E00               	movlw	0
  7201  001934  6E30               	movwf	(___flge@ff1+1)^0,c
  7202  001936  0E00               	movlw	0
  7203  001938  6E31               	movwf	(___flge@ff1+2)^0,c
  7204  00193A  0EBF               	movlw	191
  7205  00193C  6E32               	movwf	(___flge@ff1+3)^0,c
  7206  00193E  C051  F033         	movff	roundf@y,___flge@ff2
  7207  001942  C052  F034         	movff	roundf@y+1,___flge@ff2+1
  7208  001946  C053  F035         	movff	roundf@y+2,___flge@ff2+2
  7209  00194A  C054  F036         	movff	roundf@y+3,___flge@ff2+3
  7210  00194E  ECAC  F012         	call	___flge	;wreg free
  7211  001952  A0D8               	btfss	status,0,c
  7212  001954  EFAE  F00C         	goto	u5161
  7213  001958  EFB1  F00C         	goto	u5160
  7214  00195C                     u5161:
  7215  00195C  FFFF               	dw	65535	; assembler added errata NOP
  7216  00195E  EFE8  F00C         	goto	l4446
  7217  001962                     u5160:
  7218  001962  FFFF               	dw	65535	; assembler added errata NOP
  7219  001964  C03B  F00C         	movff	roundf@x,___fladd@a
  7220  001968  C03C  F00D         	movff	roundf@x+1,___fladd@a+1
  7221  00196C  C03D  F00E         	movff	roundf@x+2,___fladd@a+2
  7222  001970  C03E  F00F         	movff	roundf@x+3,___fladd@a+3
  7223  001974  C051  F008         	movff	roundf@y,___fladd@b
  7224  001978  C052  F009         	movff	roundf@y+1,___fladd@b+1
  7225  00197C  C053  F00A         	movff	roundf@y+2,___fladd@b+2
  7226  001980  C054  F00B         	movff	roundf@y+3,___fladd@b+3
  7227  001984  EC12  F004         	call	___fladd	;wreg free
  7228  001988  C008  F049         	movff	?___fladd,_roundf$1404
  7229  00198C  C009  F04A         	movff	?___fladd+1,_roundf$1404+1
  7230  001990  C00A  F04B         	movff	?___fladd+2,_roundf$1404+2
  7231  001994  C00B  F04C         	movff	?___fladd+3,_roundf$1404+3
  7232  001998  C049  F008         	movff	_roundf$1404,___fladd@b
  7233  00199C  C04A  F009         	movff	_roundf$1404+1,___fladd@b+1
  7234  0019A0  C04B  F00A         	movff	_roundf$1404+2,___fladd@b+2
  7235  0019A4  C04C  F00B         	movff	_roundf$1404+3,___fladd@b+3
  7236  0019A8  0E00               	movlw	0
  7237  0019AA  6E0C               	movwf	___fladd@a^0,c
  7238  0019AC  0E00               	movlw	0
  7239  0019AE  6E0D               	movwf	(___fladd@a+1)^0,c
  7240  0019B0  0E80               	movlw	128
  7241  0019B2  6E0E               	movwf	(___fladd@a+2)^0,c
  7242  0019B4  0E3F               	movlw	63
  7243  0019B6  6E0F               	movwf	(___fladd@a+3)^0,c
  7244  0019B8  EC12  F004         	call	___fladd	;wreg free
  7245  0019BC  C008  F051         	movff	?___fladd,roundf@y
  7246  0019C0  C009  F052         	movff	?___fladd+1,roundf@y+1
  7247  0019C4  C00A  F053         	movff	?___fladd+2,roundf@y+2
  7248  0019C8  C00B  F054         	movff	?___fladd+3,roundf@y+3
  7249  0019CC  EF03  F00D         	goto	l4448
  7250  0019D0                     l4446:
  7251  0019D0  FFFF               	dw	65535	; assembler added errata NOP
  7252  0019D2  C051  F008         	movff	roundf@y,___fladd@b
  7253  0019D6  C052  F009         	movff	roundf@y+1,___fladd@b+1
  7254  0019DA  C053  F00A         	movff	roundf@y+2,___fladd@b+2
  7255  0019DE  C054  F00B         	movff	roundf@y+3,___fladd@b+3
  7256  0019E2  C03B  F00C         	movff	roundf@x,___fladd@a
  7257  0019E6  C03C  F00D         	movff	roundf@x+1,___fladd@a+1
  7258  0019EA  C03D  F00E         	movff	roundf@x+2,___fladd@a+2
  7259  0019EE  C03E  F00F         	movff	roundf@x+3,___fladd@a+3
  7260  0019F2  EC12  F004         	call	___fladd	;wreg free
  7261  0019F6  C008  F051         	movff	?___fladd,roundf@y
  7262  0019FA  C009  F052         	movff	?___fladd+1,roundf@y+1
  7263  0019FE  C00A  F053         	movff	?___fladd+2,roundf@y+2
  7264  001A02  C00B  F054         	movff	?___fladd+3,roundf@y+3
  7265  001A06                     l4448:
  7266  001A06  FFFF               	dw	65535	; assembler added errata NOP
  7267  001A08  C04D  F03F         	movff	roundf@u,??_roundf
  7268  001A0C  C04E  F040         	movff	roundf@u+1,??_roundf+1
  7269  001A10  C04F  F041         	movff	roundf@u+2,??_roundf+2
  7270  001A14  C050  F042         	movff	roundf@u+3,??_roundf+3
  7271  001A18  0E20               	movlw	32
  7272  001A1A  EF15  F00D         	goto	u5170
  7273  001A1E                     u5175:
  7274  001A1E  FFFF               	dw	65535	; assembler added errata NOP
  7275  001A20  90D8               	bcf	status,0,c
  7276  001A22  3242               	rrcf	(??_roundf+3)^0,f,c
  7277  001A24  3241               	rrcf	(??_roundf+2)^0,f,c
  7278  001A26  3240               	rrcf	(??_roundf+1)^0,f,c
  7279  001A28  323F               	rrcf	??_roundf^0,f,c
  7280  001A2A                     u5170:
  7281  001A2A  FFFF               	dw	65535	; assembler added errata NOP
  7282  001A2C  2EE8               	decfsz	wreg,f,c
  7283  001A2E  EF0F  F00D         	goto	u5175
  7284  001A32  503F               	movf	??_roundf^0,w,c
  7285  001A34  1040               	iorwf	(??_roundf+1)^0,w,c
  7286  001A36  1041               	iorwf	(??_roundf+2)^0,w,c
  7287  001A38  1042               	iorwf	(??_roundf+3)^0,w,c
  7288  001A3A  B4D8               	btfsc	status,2,c
  7289  001A3C  EF22  F00D         	goto	u5181
  7290  001A40  EF25  F00D         	goto	u5180
  7291  001A44                     u5181:
  7292  001A44  FFFF               	dw	65535	; assembler added errata NOP
  7293  001A46  EF38  F00D         	goto	l4452
  7294  001A4A                     u5180:
  7295  001A4A  FFFF               	dw	65535	; assembler added errata NOP
  7296  001A4C  C051  F008         	movff	roundf@y,___flneg@f1
  7297  001A50  C052  F009         	movff	roundf@y+1,___flneg@f1+1
  7298  001A54  C053  F00A         	movff	roundf@y+2,___flneg@f1+2
  7299  001A58  C054  F00B         	movff	roundf@y+3,___flneg@f1+3
  7300  001A5C  EC43  F018         	call	___flneg	;wreg free
  7301  001A60  C008  F051         	movff	?___flneg,roundf@y
  7302  001A64  C009  F052         	movff	?___flneg+1,roundf@y+1
  7303  001A68  C00A  F053         	movff	?___flneg+2,roundf@y+2
  7304  001A6C  C00B  F054         	movff	?___flneg+3,roundf@y+3
  7305  001A70                     l4452:
  7306  001A70  FFFF               	dw	65535	; assembler added errata NOP
  7307  001A72  C051  F03B         	movff	roundf@y,?_roundf
  7308  001A76  C052  F03C         	movff	roundf@y+1,?_roundf+1
  7309  001A7A  C053  F03D         	movff	roundf@y+2,?_roundf+2
  7310  001A7E  C054  F03E         	movff	roundf@y+3,?_roundf+3
  7311  001A82                     l1179:
  7312  001A82  FFFF               	dw	65535	; assembler added errata NOP
  7313  001A84  0012               	return		;funcret
  7314  001A86  FFFF               	dw	65535	; errata NOP
  7315  001A88                     __end_of_roundf:
  7316                           	callstack 0
  7317                           
  7318 ;; *************** function ___flsub *****************
  7319 ;; Defined at:
  7320 ;;		line 245 in file "/opt/microchip/xc8/v2.32/pic/sources/c99/common/sprcadd.c"
  7321 ;; Parameters:    Size  Location     Type
  7322 ;;  b               4   23[COMRAM] float 
  7323 ;;  a               4   27[COMRAM] float 
  7324 ;; Auto vars:     Size  Location     Type
  7325 ;;		None
  7326 ;; Return value:  Size  Location     Type
  7327 ;;                  4   23[COMRAM] float 
  7328 ;; Registers used:
  7329 ;;		wreg, status,2, status,0, cstack
  7330 ;; Tracked objects:
  7331 ;;		On entry : 0/0
  7332 ;;		On exit  : 0/0
  7333 ;;		Unchanged: 0/0
  7334 ;; Data sizes:     COMRAM   BANK0   BANK1   BANK2   BANK3   BANK4   BANK5
  7335 ;;      Params:         8       0       0       0       0       0       0
  7336 ;;      Locals:         0       0       0       0       0       0       0
  7337 ;;      Temps:          0       0       0       0       0       0       0
  7338 ;;      Totals:         8       0       0       0       0       0       0
  7339 ;;Total ram usage:        8 bytes
  7340 ;; Hardware stack levels used: 1
  7341 ;; Hardware stack levels required when called: 2
  7342 ;; This function calls:
  7343 ;;		___fladd
  7344 ;; This function is called by:
  7345 ;;		_roundf
  7346 ;; This function uses a non-reentrant model
  7347 ;;
  7348                           
  7349                           	psect	text28
  7350  002FB8                     __ptext28:
  7351                           	callstack 0
  7352  002FB8                     ___flsub:
  7353                           	callstack 0
  7354  002FB8  FFFF               	dw	65535	; assembler added errata NOP
  7355  002FBA  0E00               	movlw	0
  7356  002FBC  1A1C               	xorwf	___flsub@a^0,f,c
  7357  002FBE  0E00               	movlw	0
  7358  002FC0  1A1D               	xorwf	(___flsub@a+1)^0,f,c
  7359  002FC2  0E00               	movlw	0
  7360  002FC4  1A1E               	xorwf	(___flsub@a+2)^0,f,c
  7361  002FC6  0E80               	movlw	128
  7362  002FC8  1A1F               	xorwf	(___flsub@a+3)^0,f,c
  7363  002FCA  C018  F008         	movff	___flsub@b,___fladd@b
  7364  002FCE  C019  F009         	movff	___flsub@b+1,___fladd@b+1
  7365  002FD2  C01A  F00A         	movff	___flsub@b+2,___fladd@b+2
  7366  002FD6  C01B  F00B         	movff	___flsub@b+3,___fladd@b+3
  7367  002FDA  C01C  F00C         	movff	___flsub@a,___fladd@a
  7368  002FDE  C01D  F00D         	movff	___flsub@a+1,___fladd@a+1
  7369  002FE2  C01E  F00E         	movff	___flsub@a+2,___fladd@a+2
  7370  002FE6  C01F  F00F         	movff	___flsub@a+3,___fladd@a+3
  7371  002FEA  EC12  F004         	call	___fladd	;wreg free
  7372  002FEE  C008  F018         	movff	?___fladd,?___flsub
  7373  002FF2  C009  F019         	movff	?___fladd+1,?___flsub+1
  7374  002FF6  C00A  F01A         	movff	?___fladd+2,?___flsub+2
  7375  002FFA  C00B  F01B         	movff	?___fladd+3,?___flsub+3
  7376  002FFE  0012               	return		;funcret
  7377  003000  FFFF               	dw	65535	; errata NOP
  7378  003002                     __end_of___flsub:
  7379                           	callstack 0
  7380                           
  7381 ;; *************** function ___fladd *****************
  7382 ;; Defined at:
  7383 ;;		line 10 in file "/opt/microchip/xc8/v2.32/pic/sources/c99/common/sprcadd.c"
  7384 ;; Parameters:    Size  Location     Type
  7385 ;;  b               4    7[COMRAM] float 
  7386 ;;  a               4   11[COMRAM] float 
  7387 ;; Auto vars:     Size  Location     Type
  7388 ;;  grs             1   22[COMRAM] unsigned char 
  7389 ;;  bexp            1   21[COMRAM] unsigned char 
  7390 ;;  aexp            1   20[COMRAM] unsigned char 
  7391 ;;  signs           1   19[COMRAM] unsigned char 
  7392 ;; Return value:  Size  Location     Type
  7393 ;;                  4    7[COMRAM] unsigned char 
  7394 ;; Registers used:
  7395 ;;		wreg, status,2, status,0
  7396 ;; Tracked objects:
  7397 ;;		On entry : 0/0
  7398 ;;		On exit  : 0/0
  7399 ;;		Unchanged: 0/0
  7400 ;; Data sizes:     COMRAM   BANK0   BANK1   BANK2   BANK3   BANK4   BANK5
  7401 ;;      Params:         8       0       0       0       0       0       0
  7402 ;;      Locals:         4       0       0       0       0       0       0
  7403 ;;      Temps:          4       0       0       0       0       0       0
  7404 ;;      Totals:        16       0       0       0       0       0       0
  7405 ;;Total ram usage:       16 bytes
  7406 ;; Hardware stack levels used: 1
  7407 ;; Hardware stack levels required when called: 1
  7408 ;; This function calls:
  7409 ;;		Nothing
  7410 ;; This function is called by:
  7411 ;;		___flsub
  7412 ;;		_roundf
  7413 ;; This function uses a non-reentrant model
  7414 ;;
  7415                           
  7416                           	psect	text29
  7417  000824                     __ptext29:
  7418                           	callstack 0
  7419  000824                     ___fladd:
  7420                           	callstack 0
  7421  000824  FFFF               	dw	65535	; assembler added errata NOP
  7422  000826  500B               	movf	(___fladd@b+3)^0,w,c
  7423  000828  0B80               	andlw	128
  7424  00082A  6E14               	movwf	___fladd@signs^0,c
  7425  00082C  500B               	movf	(___fladd@b+3)^0,w,c
  7426  00082E  240B               	addwf	(___fladd@b+3)^0,w,c
  7427  000830  6E16               	movwf	___fladd@bexp^0,c
  7428  000832  AE0A               	btfss	(___fladd@b+2)^0,7,c
  7429  000834  EF1E  F004         	goto	u2311
  7430  000838  EF21  F004         	goto	u2310
  7431  00083C                     u2311:
  7432  00083C  FFFF               	dw	65535	; assembler added errata NOP
  7433  00083E  EF23  F004         	goto	l2658
  7434  000842                     u2310:
  7435  000842  FFFF               	dw	65535	; assembler added errata NOP
  7436  000844  8016               	bsf	___fladd@bexp^0,0,c
  7437  000846                     l2658:
  7438  000846  FFFF               	dw	65535	; assembler added errata NOP
  7439  000848  5016               	movf	___fladd@bexp^0,w,c
  7440  00084A  B4D8               	btfsc	status,2,c
  7441  00084C  EF2A  F004         	goto	u2321
  7442  000850  EF2D  F004         	goto	u2320
  7443  000854                     u2321:
  7444  000854  FFFF               	dw	65535	; assembler added errata NOP
  7445  000856  EF46  F004         	goto	l2668
  7446  00085A                     u2320:
  7447  00085A  FFFF               	dw	65535	; assembler added errata NOP
  7448  00085C  2816               	incf	___fladd@bexp^0,w,c
  7449  00085E  A4D8               	btfss	status,2,c
  7450  000860  EF34  F004         	goto	u2331
  7451  000864  EF37  F004         	goto	u2330
  7452  000868                     u2331:
  7453  000868  FFFF               	dw	65535	; assembler added errata NOP
  7454  00086A  EF40  F004         	goto	l2664
  7455  00086E                     u2330:
  7456  00086E  FFFF               	dw	65535	; assembler added errata NOP
  7457  000870  0E00               	movlw	0
  7458  000872  6E08               	movwf	___fladd@b^0,c
  7459  000874  0E00               	movlw	0
  7460  000876  6E09               	movwf	(___fladd@b+1)^0,c
  7461  000878  0E00               	movlw	0
  7462  00087A  6E0A               	movwf	(___fladd@b+2)^0,c
  7463  00087C  0E00               	movlw	0
  7464  00087E  6E0B               	movwf	(___fladd@b+3)^0,c
  7465  000880                     l2664:
  7466  000880  FFFF               	dw	65535	; assembler added errata NOP
  7467  000882  8E0A               	bsf	(___fladd@b+2)^0,7,c
  7468  000884  0E00               	movlw	0
  7469  000886  6E0B               	movwf	(___fladd@b+3)^0,c
  7470  000888  EF4F  F004         	goto	l2670
  7471  00088C                     l2668:
  7472  00088C  FFFF               	dw	65535	; assembler added errata NOP
  7473  00088E  0E00               	movlw	0
  7474  000890  6E08               	movwf	___fladd@b^0,c
  7475  000892  0E00               	movlw	0
  7476  000894  6E09               	movwf	(___fladd@b+1)^0,c
  7477  000896  0E00               	movlw	0
  7478  000898  6E0A               	movwf	(___fladd@b+2)^0,c
  7479  00089A  0E00               	movlw	0
  7480  00089C  6E0B               	movwf	(___fladd@b+3)^0,c
  7481  00089E                     l2670:
  7482  00089E  FFFF               	dw	65535	; assembler added errata NOP
  7483  0008A0  500F               	movf	(___fladd@a+3)^0,w,c
  7484  0008A2  0B80               	andlw	128
  7485  0008A4  6E15               	movwf	___fladd@aexp^0,c
  7486  0008A6  5014               	movf	___fladd@signs^0,w,c
  7487  0008A8  1815               	xorwf	___fladd@aexp^0,w,c
  7488  0008AA  B4D8               	btfsc	status,2,c
  7489  0008AC  EF5A  F004         	goto	u2341
  7490  0008B0  EF5D  F004         	goto	u2340
  7491  0008B4                     u2341:
  7492  0008B4  FFFF               	dw	65535	; assembler added errata NOP
  7493  0008B6  EF5F  F004         	goto	l2676
  7494  0008BA                     u2340:
  7495  0008BA  FFFF               	dw	65535	; assembler added errata NOP
  7496  0008BC  8C14               	bsf	___fladd@signs^0,6,c
  7497  0008BE                     l2676:
  7498  0008BE  FFFF               	dw	65535	; assembler added errata NOP
  7499  0008C0  500F               	movf	(___fladd@a+3)^0,w,c
  7500  0008C2  240F               	addwf	(___fladd@a+3)^0,w,c
  7501  0008C4  6E15               	movwf	___fladd@aexp^0,c
  7502  0008C6  AE0E               	btfss	(___fladd@a+2)^0,7,c
  7503  0008C8  EF68  F004         	goto	u2351
  7504  0008CC  EF6B  F004         	goto	u2350
  7505  0008D0                     u2351:
  7506  0008D0  FFFF               	dw	65535	; assembler added errata NOP
  7507  0008D2  EF6D  F004         	goto	l2682
  7508  0008D6                     u2350:
  7509  0008D6  FFFF               	dw	65535	; assembler added errata NOP
  7510  0008D8  8015               	bsf	___fladd@aexp^0,0,c
  7511  0008DA                     l2682:
  7512  0008DA  FFFF               	dw	65535	; assembler added errata NOP
  7513  0008DC  5015               	movf	___fladd@aexp^0,w,c
  7514  0008DE  B4D8               	btfsc	status,2,c
  7515  0008E0  EF74  F004         	goto	u2361
  7516  0008E4  EF77  F004         	goto	u2360
  7517  0008E8                     u2361:
  7518  0008E8  FFFF               	dw	65535	; assembler added errata NOP
  7519  0008EA  EF90  F004         	goto	l2692
  7520  0008EE                     u2360:
  7521  0008EE  FFFF               	dw	65535	; assembler added errata NOP
  7522  0008F0  2815               	incf	___fladd@aexp^0,w,c
  7523  0008F2  A4D8               	btfss	status,2,c
  7524  0008F4  EF7E  F004         	goto	u2371
  7525  0008F8  EF81  F004         	goto	u2370
  7526  0008FC                     u2371:
  7527  0008FC  FFFF               	dw	65535	; assembler added errata NOP
  7528  0008FE  EF8A  F004         	goto	l2688
  7529  000902                     u2370:
  7530  000902  FFFF               	dw	65535	; assembler added errata NOP
  7531  000904  0E00               	movlw	0
  7532  000906  6E0C               	movwf	___fladd@a^0,c
  7533  000908  0E00               	movlw	0
  7534  00090A  6E0D               	movwf	(___fladd@a+1)^0,c
  7535  00090C  0E00               	movlw	0
  7536  00090E  6E0E               	movwf	(___fladd@a+2)^0,c
  7537  000910  0E00               	movlw	0
  7538  000912  6E0F               	movwf	(___fladd@a+3)^0,c
  7539  000914                     l2688:
  7540  000914  FFFF               	dw	65535	; assembler added errata NOP
  7541  000916  8E0E               	bsf	(___fladd@a+2)^0,7,c
  7542  000918  0E00               	movlw	0
  7543  00091A  6E0F               	movwf	(___fladd@a+3)^0,c
  7544  00091C  EF99  F004         	goto	l2694
  7545  000920                     l2692:
  7546  000920  FFFF               	dw	65535	; assembler added errata NOP
  7547  000922  0E00               	movlw	0
  7548  000924  6E0C               	movwf	___fladd@a^0,c
  7549  000926  0E00               	movlw	0
  7550  000928  6E0D               	movwf	(___fladd@a+1)^0,c
  7551  00092A  0E00               	movlw	0
  7552  00092C  6E0E               	movwf	(___fladd@a+2)^0,c
  7553  00092E  0E00               	movlw	0
  7554  000930  6E0F               	movwf	(___fladd@a+3)^0,c
  7555  000932                     l2694:
  7556  000932  FFFF               	dw	65535	; assembler added errata NOP
  7557  000934  5016               	movf	___fladd@bexp^0,w,c
  7558  000936  5C15               	subwf	___fladd@aexp^0,w,c
  7559  000938  B0D8               	btfsc	status,0,c
  7560  00093A  EFA1  F004         	goto	u2381
  7561  00093E  EFA4  F004         	goto	u2380
  7562  000942                     u2381:
  7563  000942  FFFF               	dw	65535	; assembler added errata NOP
  7564  000944  EFCF  F004         	goto	l2730
  7565  000948                     u2380:
  7566  000948  FFFF               	dw	65535	; assembler added errata NOP
  7567  00094A  AC14               	btfss	___fladd@signs^0,6,c
  7568  00094C  EFAA  F004         	goto	u2391
  7569  000950  EFAD  F004         	goto	u2390
  7570  000954                     u2391:
  7571  000954  FFFF               	dw	65535	; assembler added errata NOP
  7572  000956  EFB0  F004         	goto	l2700
  7573  00095A                     u2390:
  7574  00095A  FFFF               	dw	65535	; assembler added errata NOP
  7575  00095C  0E80               	movlw	128
  7576  00095E  1A14               	xorwf	___fladd@signs^0,f,c
  7577  000960                     l2700:
  7578  000960  FFFF               	dw	65535	; assembler added errata NOP
  7579  000962  C016  F017         	movff	___fladd@bexp,___fladd@grs
  7580  000966  C015  F016         	movff	___fladd@aexp,___fladd@bexp
  7581  00096A  C017  F015         	movff	___fladd@grs,___fladd@aexp
  7582  00096E  C008  F017         	movff	___fladd@b,___fladd@grs
  7583  000972  C00C  F008         	movff	___fladd@a,___fladd@b
  7584  000976  C017  F00C         	movff	___fladd@grs,___fladd@a
  7585  00097A  C009  F017         	movff	___fladd@b+1,___fladd@grs
  7586  00097E  C00D  F009         	movff	___fladd@a+1,___fladd@b+1
  7587  000982  C017  F00D         	movff	___fladd@grs,___fladd@a+1
  7588  000986  C00A  F017         	movff	___fladd@b+2,___fladd@grs
  7589  00098A  C00E  F00A         	movff	___fladd@a+2,___fladd@b+2
  7590  00098E  C017  F00E         	movff	___fladd@grs,___fladd@a+2
  7591  000992  C00B  F017         	movff	___fladd@b+3,___fladd@grs
  7592  000996  C00F  F00B         	movff	___fladd@a+3,___fladd@b+3
  7593  00099A  C017  F00F         	movff	___fladd@grs,___fladd@a+3
  7594  00099E                     l2730:
  7595  00099E  FFFF               	dw	65535	; assembler added errata NOP
  7596  0009A0  0E00               	movlw	0
  7597  0009A2  6E17               	movwf	___fladd@grs^0,c
  7598  0009A4  5016               	movf	___fladd@bexp^0,w,c
  7599  0009A6  C015  F010         	movff	___fladd@aexp,??___fladd
  7600  0009AA  6A11               	clrf	(??___fladd+1)^0,c
  7601  0009AC  5E10               	subwf	??___fladd^0,f,c
  7602  0009AE  0E00               	movlw	0
  7603  0009B0  5A11               	subwfb	(??___fladd+1)^0,f,c
  7604  0009B2  BE11               	btfsc	(??___fladd+1)^0,7,c
  7605  0009B4  EFE5  F004         	goto	u2401
  7606  0009B8  5011               	movf	(??___fladd+1)^0,w,c
  7607  0009BA  E10A               	bnz	u2400
  7608  0009BC  0E1A               	movlw	26
  7609  0009BE  5C10               	subwf	??___fladd^0,w,c
  7610  0009C0  A0D8               	btfss	status,0,c
  7611  0009C2  EFE5  F004         	goto	u2401
  7612  0009C6  EFE8  F004         	goto	u2400
  7613  0009CA                     u2401:
  7614  0009CA  FFFF               	dw	65535	; assembler added errata NOP
  7615  0009CC  EF2B  F005         	goto	l974
  7616  0009D0                     u2400:
  7617  0009D0  FFFF               	dw	65535	; assembler added errata NOP
  7618  0009D2  5008               	movf	___fladd@b^0,w,c
  7619  0009D4  1009               	iorwf	(___fladd@b+1)^0,w,c
  7620  0009D6  100A               	iorwf	(___fladd@b+2)^0,w,c
  7621  0009D8  100B               	iorwf	(___fladd@b+3)^0,w,c
  7622  0009DA  A4D8               	btfss	status,2,c
  7623  0009DC  EFF2  F004         	goto	u2411
  7624  0009E0  EFF6  F004         	goto	u2410
  7625  0009E4                     u2411:
  7626  0009E4  FFFF               	dw	65535	; assembler added errata NOP
  7627  0009E6  0E01               	movlw	1
  7628  0009E8  EFF8  F004         	goto	u2420
  7629  0009EC                     u2410:
  7630  0009EC  FFFF               	dw	65535	; assembler added errata NOP
  7631  0009EE  0E00               	movlw	0
  7632  0009F0                     u2420:
  7633  0009F0  FFFF               	dw	65535	; assembler added errata NOP
  7634  0009F2  6E17               	movwf	___fladd@grs^0,c
  7635  0009F4  0E00               	movlw	0
  7636  0009F6  6E08               	movwf	___fladd@b^0,c
  7637  0009F8  0E00               	movlw	0
  7638  0009FA  6E09               	movwf	(___fladd@b+1)^0,c
  7639  0009FC  0E00               	movlw	0
  7640  0009FE  6E0A               	movwf	(___fladd@b+2)^0,c
  7641  000A00  0E00               	movlw	0
  7642  000A02  6E0B               	movwf	(___fladd@b+3)^0,c
  7643  000A04  C015  F016         	movff	___fladd@aexp,___fladd@bexp
  7644  000A08  EF36  F005         	goto	l973
  7645  000A0C                     l975:
  7646  000A0C  FFFF               	dw	65535	; assembler added errata NOP
  7647  000A0E  A017               	btfss	___fladd@grs^0,0,c
  7648  000A10  EF0C  F005         	goto	u2431
  7649  000A14  EF0F  F005         	goto	u2430
  7650  000A18                     u2431:
  7651  000A18  FFFF               	dw	65535	; assembler added errata NOP
  7652  000A1A  EF16  F005         	goto	l2742
  7653  000A1E                     u2430:
  7654  000A1E  FFFF               	dw	65535	; assembler added errata NOP
  7655  000A20  90D8               	bcf	status,0,c
  7656  000A22  3017               	rrcf	___fladd@grs^0,w,c
  7657  000A24  0901               	iorlw	1
  7658  000A26  6E17               	movwf	___fladd@grs^0,c
  7659  000A28  EF19  F005         	goto	l2744
  7660  000A2C                     l2742:
  7661  000A2C  FFFF               	dw	65535	; assembler added errata NOP
  7662  000A2E  90D8               	bcf	status,0,c
  7663  000A30  3217               	rrcf	___fladd@grs^0,f,c
  7664  000A32                     l2744:
  7665  000A32  FFFF               	dw	65535	; assembler added errata NOP
  7666  000A34  A008               	btfss	___fladd@b^0,0,c
  7667  000A36  EF1F  F005         	goto	u2441
  7668  000A3A  EF22  F005         	goto	u2440
  7669  000A3E                     u2441:
  7670  000A3E  FFFF               	dw	65535	; assembler added errata NOP
  7671  000A40  EF24  F005         	goto	l2748
  7672  000A44                     u2440:
  7673  000A44  FFFF               	dw	65535	; assembler added errata NOP
  7674  000A46  8E17               	bsf	___fladd@grs^0,7,c
  7675  000A48                     l2748:
  7676  000A48  FFFF               	dw	65535	; assembler added errata NOP
  7677  000A4A  340B               	rlcf	(___fladd@b+3)^0,w,c
  7678  000A4C  320B               	rrcf	(___fladd@b+3)^0,f,c
  7679  000A4E  320A               	rrcf	(___fladd@b+2)^0,f,c
  7680  000A50  3209               	rrcf	(___fladd@b+1)^0,f,c
  7681  000A52  3208               	rrcf	___fladd@b^0,f,c
  7682  000A54  2A16               	incf	___fladd@bexp^0,f,c
  7683  000A56                     l974:
  7684  000A56  FFFF               	dw	65535	; assembler added errata NOP
  7685  000A58  5015               	movf	___fladd@aexp^0,w,c
  7686  000A5A  5C16               	subwf	___fladd@bexp^0,w,c
  7687  000A5C  A0D8               	btfss	status,0,c
  7688  000A5E  EF33  F005         	goto	u2451
  7689  000A62  EF36  F005         	goto	u2450
  7690  000A66                     u2451:
  7691  000A66  FFFF               	dw	65535	; assembler added errata NOP
  7692  000A68  EF06  F005         	goto	l975
  7693  000A6C                     u2450:
  7694  000A6C                     l973:
  7695  000A6C  FFFF               	dw	65535	; assembler added errata NOP
  7696  000A6E  BC14               	btfsc	___fladd@signs^0,6,c
  7697  000A70  EF3C  F005         	goto	u2461
  7698  000A74  EF3F  F005         	goto	u2460
  7699  000A78                     u2461:
  7700  000A78  FFFF               	dw	65535	; assembler added errata NOP
  7701  000A7A  EF8C  F005         	goto	l2776
  7702  000A7E                     u2460:
  7703  000A7E  FFFF               	dw	65535	; assembler added errata NOP
  7704  000A80  5016               	movf	___fladd@bexp^0,w,c
  7705  000A82  A4D8               	btfss	status,2,c
  7706  000A84  EF46  F005         	goto	u2471
  7707  000A88  EF49  F005         	goto	u2470
  7708  000A8C                     u2471:
  7709  000A8C  FFFF               	dw	65535	; assembler added errata NOP
  7710  000A8E  EF54  F005         	goto	l2758
  7711  000A92                     u2470:
  7712  000A92  FFFF               	dw	65535	; assembler added errata NOP
  7713  000A94  0E00               	movlw	0
  7714  000A96  6E08               	movwf	?___fladd^0,c
  7715  000A98  0E00               	movlw	0
  7716  000A9A  6E09               	movwf	(?___fladd+1)^0,c
  7717  000A9C  0E00               	movlw	0
  7718  000A9E  6E0A               	movwf	(?___fladd+2)^0,c
  7719  000AA0  0E00               	movlw	0
  7720  000AA2  6E0B               	movwf	(?___fladd+3)^0,c
  7721  000AA4  EFE3  F006         	goto	l982
  7722  000AA8                     l2758:
  7723  000AA8  FFFF               	dw	65535	; assembler added errata NOP
  7724  000AAA  500C               	movf	___fladd@a^0,w,c
  7725  000AAC  2608               	addwf	___fladd@b^0,f,c
  7726  000AAE  500D               	movf	(___fladd@a+1)^0,w,c
  7727  000AB0  2209               	addwfc	(___fladd@b+1)^0,f,c
  7728  000AB2  500E               	movf	(___fladd@a+2)^0,w,c
  7729  000AB4  220A               	addwfc	(___fladd@b+2)^0,f,c
  7730  000AB6  500F               	movf	(___fladd@a+3)^0,w,c
  7731  000AB8  220B               	addwfc	(___fladd@b+3)^0,f,c
  7732  000ABA  A00B               	btfss	(___fladd@b+3)^0,0,c
  7733  000ABC  EF62  F005         	goto	u2481
  7734  000AC0  EF65  F005         	goto	u2480
  7735  000AC4                     u2481:
  7736  000AC4  FFFF               	dw	65535	; assembler added errata NOP
  7737  000AC6  EF30  F006         	goto	l2812
  7738  000ACA                     u2480:
  7739  000ACA  FFFF               	dw	65535	; assembler added errata NOP
  7740  000ACC  A017               	btfss	___fladd@grs^0,0,c
  7741  000ACE  EF6B  F005         	goto	u2491
  7742  000AD2  EF6E  F005         	goto	u2490
  7743  000AD6                     u2491:
  7744  000AD6  FFFF               	dw	65535	; assembler added errata NOP
  7745  000AD8  EF75  F005         	goto	l2766
  7746  000ADC                     u2490:
  7747  000ADC  FFFF               	dw	65535	; assembler added errata NOP
  7748  000ADE  90D8               	bcf	status,0,c
  7749  000AE0  3017               	rrcf	___fladd@grs^0,w,c
  7750  000AE2  0901               	iorlw	1
  7751  000AE4  6E17               	movwf	___fladd@grs^0,c
  7752  000AE6  EF78  F005         	goto	l2768
  7753  000AEA                     l2766:
  7754  000AEA  FFFF               	dw	65535	; assembler added errata NOP
  7755  000AEC  90D8               	bcf	status,0,c
  7756  000AEE  3217               	rrcf	___fladd@grs^0,f,c
  7757  000AF0                     l2768:
  7758  000AF0  FFFF               	dw	65535	; assembler added errata NOP
  7759  000AF2  A008               	btfss	___fladd@b^0,0,c
  7760  000AF4  EF7E  F005         	goto	u2501
  7761  000AF8  EF81  F005         	goto	u2500
  7762  000AFC                     u2501:
  7763  000AFC  FFFF               	dw	65535	; assembler added errata NOP
  7764  000AFE  EF83  F005         	goto	l2772
  7765  000B02                     u2500:
  7766  000B02  FFFF               	dw	65535	; assembler added errata NOP
  7767  000B04  8E17               	bsf	___fladd@grs^0,7,c
  7768  000B06                     l2772:
  7769  000B06  FFFF               	dw	65535	; assembler added errata NOP
  7770  000B08  340B               	rlcf	(___fladd@b+3)^0,w,c
  7771  000B0A  320B               	rrcf	(___fladd@b+3)^0,f,c
  7772  000B0C  320A               	rrcf	(___fladd@b+2)^0,f,c
  7773  000B0E  3209               	rrcf	(___fladd@b+1)^0,f,c
  7774  000B10  3208               	rrcf	___fladd@b^0,f,c
  7775  000B12  2A16               	incf	___fladd@bexp^0,f,c
  7776  000B14  EF30  F006         	goto	l2812
  7777  000B18                     l2776:
  7778  000B18  FFFF               	dw	65535	; assembler added errata NOP
  7779  000B1A  500C               	movf	___fladd@a^0,w,c
  7780  000B1C  5C08               	subwf	___fladd@b^0,w,c
  7781  000B1E  500D               	movf	(___fladd@a+1)^0,w,c
  7782  000B20  5809               	subwfb	(___fladd@b+1)^0,w,c
  7783  000B22  500E               	movf	(___fladd@a+2)^0,w,c
  7784  000B24  580A               	subwfb	(___fladd@b+2)^0,w,c
  7785  000B26  500B               	movf	(___fladd@b+3)^0,w,c
  7786  000B28  0A80               	xorlw	128
  7787  000B2A  6E10               	movwf	??___fladd^0,c
  7788  000B2C  500F               	movf	(___fladd@a+3)^0,w,c
  7789  000B2E  0A80               	xorlw	128
  7790  000B30  5810               	subwfb	??___fladd^0,w,c
  7791  000B32  B0D8               	btfsc	status,0,c
  7792  000B34  EF9E  F005         	goto	u2511
  7793  000B38  EFA1  F005         	goto	u2510
  7794  000B3C                     u2511:
  7795  000B3C  FFFF               	dw	65535	; assembler added errata NOP
  7796  000B3E  EFCF  F005         	goto	l2786
  7797  000B42                     u2510:
  7798  000B42  FFFF               	dw	65535	; assembler added errata NOP
  7799  000B44  5008               	movf	___fladd@b^0,w,c
  7800  000B46  5C0C               	subwf	___fladd@a^0,w,c
  7801  000B48  6E10               	movwf	??___fladd^0,c
  7802  000B4A  5009               	movf	(___fladd@b+1)^0,w,c
  7803  000B4C  580D               	subwfb	(___fladd@a+1)^0,w,c
  7804  000B4E  6E11               	movwf	(??___fladd+1)^0,c
  7805  000B50  500A               	movf	(___fladd@b+2)^0,w,c
  7806  000B52  580E               	subwfb	(___fladd@a+2)^0,w,c
  7807  000B54  6E12               	movwf	(??___fladd+2)^0,c
  7808  000B56  500B               	movf	(___fladd@b+3)^0,w,c
  7809  000B58  580F               	subwfb	(___fladd@a+3)^0,w,c
  7810  000B5A  6E13               	movwf	(??___fladd+3)^0,c
  7811  000B5C  0EFF               	movlw	255
  7812  000B5E  2410               	addwf	??___fladd^0,w,c
  7813  000B60  6E08               	movwf	___fladd@b^0,c
  7814  000B62  0EFF               	movlw	255
  7815  000B64  2011               	addwfc	(??___fladd+1)^0,w,c
  7816  000B66  6E09               	movwf	(___fladd@b+1)^0,c
  7817  000B68  0EFF               	movlw	255
  7818  000B6A  2012               	addwfc	(??___fladd+2)^0,w,c
  7819  000B6C  6E0A               	movwf	(___fladd@b+2)^0,c
  7820  000B6E  0EFF               	movlw	255
  7821  000B70  2013               	addwfc	(??___fladd+3)^0,w,c
  7822  000B72  6E0B               	movwf	(___fladd@b+3)^0,c
  7823  000B74  0E80               	movlw	128
  7824  000B76  1A14               	xorwf	___fladd@signs^0,f,c
  7825  000B78  6C17               	negf	___fladd@grs^0,c
  7826  000B7A  5017               	movf	___fladd@grs^0,w,c
  7827  000B7C  A4D8               	btfss	status,2,c
  7828  000B7E  EFC3  F005         	goto	u2521
  7829  000B82  EFC6  F005         	goto	u2520
  7830  000B86                     u2521:
  7831  000B86  FFFF               	dw	65535	; assembler added errata NOP
  7832  000B88  EFD8  F005         	goto	l990
  7833  000B8C                     u2520:
  7834  000B8C  FFFF               	dw	65535	; assembler added errata NOP
  7835  000B8E  0E01               	movlw	1
  7836  000B90  2608               	addwf	___fladd@b^0,f,c
  7837  000B92  0E00               	movlw	0
  7838  000B94  2209               	addwfc	(___fladd@b+1)^0,f,c
  7839  000B96  220A               	addwfc	(___fladd@b+2)^0,f,c
  7840  000B98  220B               	addwfc	(___fladd@b+3)^0,f,c
  7841  000B9A  EFD8  F005         	goto	l990
  7842  000B9E                     l2786:
  7843  000B9E  FFFF               	dw	65535	; assembler added errata NOP
  7844  000BA0  500C               	movf	___fladd@a^0,w,c
  7845  000BA2  5E08               	subwf	___fladd@b^0,f,c
  7846  000BA4  500D               	movf	(___fladd@a+1)^0,w,c
  7847  000BA6  5A09               	subwfb	(___fladd@b+1)^0,f,c
  7848  000BA8  500E               	movf	(___fladd@a+2)^0,w,c
  7849  000BAA  5A0A               	subwfb	(___fladd@b+2)^0,f,c
  7850  000BAC  500F               	movf	(___fladd@a+3)^0,w,c
  7851  000BAE  5A0B               	subwfb	(___fladd@b+3)^0,f,c
  7852  000BB0                     l990:
  7853  000BB0  FFFF               	dw	65535	; assembler added errata NOP
  7854  000BB2  5008               	movf	___fladd@b^0,w,c
  7855  000BB4  1009               	iorwf	(___fladd@b+1)^0,w,c
  7856  000BB6  100A               	iorwf	(___fladd@b+2)^0,w,c
  7857  000BB8  100B               	iorwf	(___fladd@b+3)^0,w,c
  7858  000BBA  A4D8               	btfss	status,2,c
  7859  000BBC  EFE2  F005         	goto	u2531
  7860  000BC0  EFE5  F005         	goto	u2530
  7861  000BC4                     u2531:
  7862  000BC4  FFFF               	dw	65535	; assembler added errata NOP
  7863  000BC6  EF27  F006         	goto	l2810
  7864  000BCA                     u2530:
  7865  000BCA  FFFF               	dw	65535	; assembler added errata NOP
  7866  000BCC  5017               	movf	___fladd@grs^0,w,c
  7867  000BCE  A4D8               	btfss	status,2,c
  7868  000BD0  EFEC  F005         	goto	u2541
  7869  000BD4  EFEF  F005         	goto	u2540
  7870  000BD8                     u2541:
  7871  000BD8  FFFF               	dw	65535	; assembler added errata NOP
  7872  000BDA  EF27  F006         	goto	l2810
  7873  000BDE                     u2540:
  7874  000BDE  FFFF               	dw	65535	; assembler added errata NOP
  7875  000BE0  0E00               	movlw	0
  7876  000BE2  6E08               	movwf	?___fladd^0,c
  7877  000BE4  0E00               	movlw	0
  7878  000BE6  6E09               	movwf	(?___fladd+1)^0,c
  7879  000BE8  0E00               	movlw	0
  7880  000BEA  6E0A               	movwf	(?___fladd+2)^0,c
  7881  000BEC  0E00               	movlw	0
  7882  000BEE  6E0B               	movwf	(?___fladd+3)^0,c
  7883  000BF0  EFE3  F006         	goto	l982
  7884  000BF4                     l2794:
  7885  000BF4  FFFF               	dw	65535	; assembler added errata NOP
  7886  000BF6  90D8               	bcf	status,0,c
  7887  000BF8  3608               	rlcf	___fladd@b^0,f,c
  7888  000BFA  3609               	rlcf	(___fladd@b+1)^0,f,c
  7889  000BFC  360A               	rlcf	(___fladd@b+2)^0,f,c
  7890  000BFE  360B               	rlcf	(___fladd@b+3)^0,f,c
  7891  000C00  AE17               	btfss	___fladd@grs^0,7,c
  7892  000C02  EF05  F006         	goto	u2551
  7893  000C06  EF08  F006         	goto	u2550
  7894  000C0A                     u2551:
  7895  000C0A  FFFF               	dw	65535	; assembler added errata NOP
  7896  000C0C  EF0A  F006         	goto	l2800
  7897  000C10                     u2550:
  7898  000C10  FFFF               	dw	65535	; assembler added errata NOP
  7899  000C12  8008               	bsf	___fladd@b^0,0,c
  7900  000C14                     l2800:
  7901  000C14  FFFF               	dw	65535	; assembler added errata NOP
  7902  000C16  A017               	btfss	___fladd@grs^0,0,c
  7903  000C18  EF10  F006         	goto	u2561
  7904  000C1C  EF13  F006         	goto	u2560
  7905  000C20                     u2561:
  7906  000C20  FFFF               	dw	65535	; assembler added errata NOP
  7907  000C22  EF18  F006         	goto	l2804
  7908  000C26                     u2560:
  7909  000C26  FFFF               	dw	65535	; assembler added errata NOP
  7910  000C28  80D8               	bsf	status,0,c
  7911  000C2A  3617               	rlcf	___fladd@grs^0,f,c
  7912  000C2C  EF1B  F006         	goto	l2806
  7913  000C30                     l2804:
  7914  000C30  FFFF               	dw	65535	; assembler added errata NOP
  7915  000C32  90D8               	bcf	status,0,c
  7916  000C34  3617               	rlcf	___fladd@grs^0,f,c
  7917  000C36                     l2806:
  7918  000C36  FFFF               	dw	65535	; assembler added errata NOP
  7919  000C38  5016               	movf	___fladd@bexp^0,w,c
  7920  000C3A  B4D8               	btfsc	status,2,c
  7921  000C3C  EF22  F006         	goto	u2571
  7922  000C40  EF25  F006         	goto	u2570
  7923  000C44                     u2571:
  7924  000C44  FFFF               	dw	65535	; assembler added errata NOP
  7925  000C46  EF27  F006         	goto	l2810
  7926  000C4A                     u2570:
  7927  000C4A  FFFF               	dw	65535	; assembler added errata NOP
  7928  000C4C  0616               	decf	___fladd@bexp^0,f,c
  7929  000C4E                     l2810:
  7930  000C4E  FFFF               	dw	65535	; assembler added errata NOP
  7931  000C50  AE0A               	btfss	(___fladd@b+2)^0,7,c
  7932  000C52  EF2D  F006         	goto	u2581
  7933  000C56  EF30  F006         	goto	u2580
  7934  000C5A                     u2581:
  7935  000C5A  FFFF               	dw	65535	; assembler added errata NOP
  7936  000C5C  EFFA  F005         	goto	l2794
  7937  000C60                     u2580:
  7938  000C60                     l2812:
  7939  000C60  FFFF               	dw	65535	; assembler added errata NOP
  7940  000C62  0E00               	movlw	0
  7941  000C64  6E15               	movwf	___fladd@aexp^0,c
  7942  000C66  AE17               	btfss	___fladd@grs^0,7,c
  7943  000C68  EF38  F006         	goto	u2591
  7944  000C6C  EF3B  F006         	goto	u2590
  7945  000C70                     u2591:
  7946  000C70  FFFF               	dw	65535	; assembler added errata NOP
  7947  000C72  EF5A  F006         	goto	l999
  7948  000C76                     u2590:
  7949  000C76  FFFF               	dw	65535	; assembler added errata NOP
  7950  000C78  C017  F010         	movff	___fladd@grs,??___fladd
  7951  000C7C  0E7F               	movlw	127
  7952  000C7E  1610               	andwf	??___fladd^0,f,c
  7953  000C80  B4D8               	btfsc	status,2,c
  7954  000C82  EF45  F006         	goto	u2601
  7955  000C86  EF48  F006         	goto	u2600
  7956  000C8A                     u2601:
  7957  000C8A  FFFF               	dw	65535	; assembler added errata NOP
  7958  000C8C  EF4E  F006         	goto	l1000
  7959  000C90                     u2600:
  7960  000C90  FFFF               	dw	65535	; assembler added errata NOP
  7961  000C92                     l2818:
  7962  000C92  FFFF               	dw	65535	; assembler added errata NOP
  7963  000C94  0E01               	movlw	1
  7964  000C96  6E15               	movwf	___fladd@aexp^0,c
  7965  000C98  EF5A  F006         	goto	l999
  7966  000C9C                     l1000:
  7967  000C9C  FFFF               	dw	65535	; assembler added errata NOP
  7968  000C9E  A008               	btfss	___fladd@b^0,0,c
  7969  000CA0  EF54  F006         	goto	u2611
  7970  000CA4  EF57  F006         	goto	u2610
  7971  000CA8                     u2611:
  7972  000CA8  FFFF               	dw	65535	; assembler added errata NOP
  7973  000CAA  EF5A  F006         	goto	l999
  7974  000CAE                     u2610:
  7975  000CAE  FFFF               	dw	65535	; assembler added errata NOP
  7976  000CB0  EF49  F006         	goto	l2818
  7977  000CB4                     l999:
  7978  000CB4  FFFF               	dw	65535	; assembler added errata NOP
  7979  000CB6  5015               	movf	___fladd@aexp^0,w,c
  7980  000CB8  B4D8               	btfsc	status,2,c
  7981  000CBA  EF61  F006         	goto	u2621
  7982  000CBE  EF64  F006         	goto	u2620
  7983  000CC2                     u2621:
  7984  000CC2  FFFF               	dw	65535	; assembler added errata NOP
  7985  000CC4  EF94  F006         	goto	l2830
  7986  000CC8                     u2620:
  7987  000CC8  FFFF               	dw	65535	; assembler added errata NOP
  7988  000CCA  0E01               	movlw	1
  7989  000CCC  2608               	addwf	___fladd@b^0,f,c
  7990  000CCE  0E00               	movlw	0
  7991  000CD0  2209               	addwfc	(___fladd@b+1)^0,f,c
  7992  000CD2  220A               	addwfc	(___fladd@b+2)^0,f,c
  7993  000CD4  220B               	addwfc	(___fladd@b+3)^0,f,c
  7994  000CD6  A00B               	btfss	(___fladd@b+3)^0,0,c
  7995  000CD8  EF70  F006         	goto	u2631
  7996  000CDC  EF73  F006         	goto	u2630
  7997  000CE0                     u2631:
  7998  000CE0  FFFF               	dw	65535	; assembler added errata NOP
  7999  000CE2  EF94  F006         	goto	l2830
  8000  000CE6                     u2630:
  8001  000CE6  FFFF               	dw	65535	; assembler added errata NOP
  8002  000CE8  C008  F010         	movff	___fladd@b,??___fladd
  8003  000CEC  C009  F011         	movff	___fladd@b+1,??___fladd+1
  8004  000CF0  C00A  F012         	movff	___fladd@b+2,??___fladd+2
  8005  000CF4  C00B  F013         	movff	___fladd@b+3,??___fladd+3
  8006  000CF8  3413               	rlcf	(??___fladd+3)^0,w,c
  8007  000CFA  3213               	rrcf	(??___fladd+3)^0,f,c
  8008  000CFC  3212               	rrcf	(??___fladd+2)^0,f,c
  8009  000CFE  3211               	rrcf	(??___fladd+1)^0,f,c
  8010  000D00  3210               	rrcf	??___fladd^0,f,c
  8011  000D02  C010  F008         	movff	??___fladd,___fladd@b
  8012  000D06  C011  F009         	movff	??___fladd+1,___fladd@b+1
  8013  000D0A  C012  F00A         	movff	??___fladd+2,___fladd@b+2
  8014  000D0E  C013  F00B         	movff	??___fladd+3,___fladd@b+3
  8015  000D12  2816               	incf	___fladd@bexp^0,w,c
  8016  000D14  B4D8               	btfsc	status,2,c
  8017  000D16  EF8F  F006         	goto	u2641
  8018  000D1A  EF92  F006         	goto	u2640
  8019  000D1E                     u2641:
  8020  000D1E  FFFF               	dw	65535	; assembler added errata NOP
  8021  000D20  EF94  F006         	goto	l2830
  8022  000D24                     u2640:
  8023  000D24  FFFF               	dw	65535	; assembler added errata NOP
  8024  000D26  2A16               	incf	___fladd@bexp^0,f,c
  8025  000D28                     l2830:
  8026  000D28  FFFF               	dw	65535	; assembler added errata NOP
  8027  000D2A  2816               	incf	___fladd@bexp^0,w,c
  8028  000D2C  B4D8               	btfsc	status,2,c
  8029  000D2E  EF9B  F006         	goto	u2651
  8030  000D32  EF9E  F006         	goto	u2650
  8031  000D36                     u2651:
  8032  000D36  FFFF               	dw	65535	; assembler added errata NOP
  8033  000D38  EFA8  F006         	goto	l2834
  8034  000D3C                     u2650:
  8035  000D3C  FFFF               	dw	65535	; assembler added errata NOP
  8036  000D3E  5016               	movf	___fladd@bexp^0,w,c
  8037  000D40  A4D8               	btfss	status,2,c
  8038  000D42  EFA5  F006         	goto	u2661
  8039  000D46  EFA8  F006         	goto	u2660
  8040  000D4A                     u2661:
  8041  000D4A  FFFF               	dw	65535	; assembler added errata NOP
  8042  000D4C  EFBD  F006         	goto	l2838
  8043  000D50                     u2660:
  8044  000D50                     l2834:
  8045  000D50  FFFF               	dw	65535	; assembler added errata NOP
  8046  000D52  0E00               	movlw	0
  8047  000D54  6E08               	movwf	___fladd@b^0,c
  8048  000D56  0E00               	movlw	0
  8049  000D58  6E09               	movwf	(___fladd@b+1)^0,c
  8050  000D5A  0E00               	movlw	0
  8051  000D5C  6E0A               	movwf	(___fladd@b+2)^0,c
  8052  000D5E  0E00               	movlw	0
  8053  000D60  6E0B               	movwf	(___fladd@b+3)^0,c
  8054  000D62  5016               	movf	___fladd@bexp^0,w,c
  8055  000D64  A4D8               	btfss	status,2,c
  8056  000D66  EFB7  F006         	goto	u2671
  8057  000D6A  EFBA  F006         	goto	u2670
  8058  000D6E                     u2671:
  8059  000D6E  FFFF               	dw	65535	; assembler added errata NOP
  8060  000D70  EFBD  F006         	goto	l2838
  8061  000D74                     u2670:
  8062  000D74  FFFF               	dw	65535	; assembler added errata NOP
  8063  000D76  0E00               	movlw	0
  8064  000D78  6E14               	movwf	___fladd@signs^0,c
  8065  000D7A                     l2838:
  8066  000D7A  FFFF               	dw	65535	; assembler added errata NOP
  8067  000D7C  A016               	btfss	___fladd@bexp^0,0,c
  8068  000D7E  EFC3  F006         	goto	u2681
  8069  000D82  EFC6  F006         	goto	u2680
  8070  000D86                     u2681:
  8071  000D86  FFFF               	dw	65535	; assembler added errata NOP
  8072  000D88  EFCA  F006         	goto	l2842
  8073  000D8C                     u2680:
  8074  000D8C  FFFF               	dw	65535	; assembler added errata NOP
  8075  000D8E  8E0A               	bsf	(___fladd@b+2)^0,7,c
  8076  000D90  EFCC  F006         	goto	l2844
  8077  000D94                     l2842:
  8078  000D94  FFFF               	dw	65535	; assembler added errata NOP
  8079  000D96  9E0A               	bcf	(___fladd@b+2)^0,7,c
  8080  000D98                     l2844:
  8081  000D98  FFFF               	dw	65535	; assembler added errata NOP
  8082  000D9A  90D8               	bcf	status,0,c
  8083  000D9C  3016               	rrcf	___fladd@bexp^0,w,c
  8084  000D9E  6E0B               	movwf	(___fladd@b+3)^0,c
  8085  000DA0  AE14               	btfss	___fladd@signs^0,7,c
  8086  000DA2  EFD5  F006         	goto	u2691
  8087  000DA6  EFD8  F006         	goto	u2690
  8088  000DAA                     u2691:
  8089  000DAA  FFFF               	dw	65535	; assembler added errata NOP
  8090  000DAC  EFDA  F006         	goto	l2850
  8091  000DB0                     u2690:
  8092  000DB0  FFFF               	dw	65535	; assembler added errata NOP
  8093  000DB2  8E0B               	bsf	(___fladd@b+3)^0,7,c
  8094  000DB4                     l2850:
  8095  000DB4  FFFF               	dw	65535	; assembler added errata NOP
  8096  000DB6  C008  F008         	movff	___fladd@b,?___fladd
  8097  000DBA  C009  F009         	movff	___fladd@b+1,?___fladd+1
  8098  000DBE  C00A  F00A         	movff	___fladd@b+2,?___fladd+2
  8099  000DC2  C00B  F00B         	movff	___fladd@b+3,?___fladd+3
  8100  000DC6                     l982:
  8101  000DC6  FFFF               	dw	65535	; assembler added errata NOP
  8102  000DC8  0012               	return		;funcret
  8103  000DCA  FFFF               	dw	65535	; errata NOP
  8104  000DCC                     __end_of___fladd:
  8105                           	callstack 0
  8106                           
  8107 ;; *************** function ___flneg *****************
  8108 ;; Defined at:
  8109 ;;		line 15 in file "/opt/microchip/xc8/v2.32/pic/sources/c99/common/flneg.c"
  8110 ;; Parameters:    Size  Location     Type
  8111 ;;  f1              4    7[COMRAM] unsigned char 
  8112 ;; Auto vars:     Size  Location     Type
  8113 ;;		None
  8114 ;; Return value:  Size  Location     Type
  8115 ;;                  4    7[COMRAM] unsigned char 
  8116 ;; Registers used:
  8117 ;;		wreg, status,2, status,0
  8118 ;; Tracked objects:
  8119 ;;		On entry : 0/0
  8120 ;;		On exit  : 0/0
  8121 ;;		Unchanged: 0/0
  8122 ;; Data sizes:     COMRAM   BANK0   BANK1   BANK2   BANK3   BANK4   BANK5
  8123 ;;      Params:         4       0       0       0       0       0       0
  8124 ;;      Locals:         0       0       0       0       0       0       0
  8125 ;;      Temps:          0       0       0       0       0       0       0
  8126 ;;      Totals:         4       0       0       0       0       0       0
  8127 ;;Total ram usage:        4 bytes
  8128 ;; Hardware stack levels used: 1
  8129 ;; Hardware stack levels required when called: 1
  8130 ;; This function calls:
  8131 ;;		Nothing
  8132 ;; This function is called by:
  8133 ;;		_roundf
  8134 ;; This function uses a non-reentrant model
  8135 ;;
  8136                           
  8137                           	psect	text30
  8138  003086                     __ptext30:
  8139                           	callstack 0
  8140  003086                     ___flneg:
  8141                           	callstack 0
  8142  003086  FFFF               	dw	65535	; assembler added errata NOP
  8143  003088  5008               	movf	___flneg@f1^0,w,c
  8144  00308A  1009               	iorwf	(___flneg@f1+1)^0,w,c
  8145  00308C  100A               	iorwf	(___flneg@f1+2)^0,w,c
  8146  00308E  100B               	iorwf	(___flneg@f1+3)^0,w,c
  8147  003090  B4D8               	btfsc	status,2,c
  8148  003092  EF4D  F018         	goto	u3571
  8149  003096  EF50  F018         	goto	u3570
  8150  00309A                     u3571:
  8151  00309A  FFFF               	dw	65535	; assembler added errata NOP
  8152  00309C  EF59  F018         	goto	l3454
  8153  0030A0                     u3570:
  8154  0030A0  FFFF               	dw	65535	; assembler added errata NOP
  8155  0030A2  0E00               	movlw	0
  8156  0030A4  1A08               	xorwf	___flneg@f1^0,f,c
  8157  0030A6  0E00               	movlw	0
  8158  0030A8  1A09               	xorwf	(___flneg@f1+1)^0,f,c
  8159  0030AA  0E00               	movlw	0
  8160  0030AC  1A0A               	xorwf	(___flneg@f1+2)^0,f,c
  8161  0030AE  0E80               	movlw	128
  8162  0030B0  1A0B               	xorwf	(___flneg@f1+3)^0,f,c
  8163  0030B2                     l3454:
  8164  0030B2  FFFF               	dw	65535	; assembler added errata NOP
  8165  0030B4  C008  F008         	movff	___flneg@f1,?___flneg
  8166  0030B8  C009  F009         	movff	___flneg@f1+1,?___flneg+1
  8167  0030BC  C00A  F00A         	movff	___flneg@f1+2,?___flneg+2
  8168  0030C0  C00B  F00B         	movff	___flneg@f1+3,?___flneg+3
  8169  0030C4  0012               	return		;funcret
  8170  0030C6  FFFF               	dw	65535	; errata NOP
  8171  0030C8                     __end_of___flneg:
  8172                           	callstack 0
  8173                           
  8174 ;; *************** function ___flmul *****************
  8175 ;; Defined at:
  8176 ;;		line 8 in file "/opt/microchip/xc8/v2.32/pic/sources/c99/common/sprcmul.c"
  8177 ;; Parameters:    Size  Location     Type
  8178 ;;  b               4    7[COMRAM] unsigned char 
  8179 ;;  a               4   11[COMRAM] unsigned char 
  8180 ;; Auto vars:     Size  Location     Type
  8181 ;;  prod            4   26[COMRAM] struct .
  8182 ;;  grs             4   20[COMRAM] unsigned long 
  8183 ;;  temp            2   30[COMRAM] struct .
  8184 ;;  bexp            1   25[COMRAM] unsigned char 
  8185 ;;  aexp            1   24[COMRAM] unsigned char 
  8186 ;;  sign            1   19[COMRAM] unsigned char 
  8187 ;; Return value:  Size  Location     Type
  8188 ;;                  4    7[COMRAM] unsigned char 
  8189 ;; Registers used:
  8190 ;;		wreg, status,2, status,0, prodl, prodh
  8191 ;; Tracked objects:
  8192 ;;		On entry : 0/0
  8193 ;;		On exit  : 0/0
  8194 ;;		Unchanged: 0/0
  8195 ;; Data sizes:     COMRAM   BANK0   BANK1   BANK2   BANK3   BANK4   BANK5
  8196 ;;      Params:         8       0       0       0       0       0       0
  8197 ;;      Locals:        13       0       0       0       0       0       0
  8198 ;;      Temps:          4       0       0       0       0       0       0
  8199 ;;      Totals:        25       0       0       0       0       0       0
  8200 ;;Total ram usage:       25 bytes
  8201 ;; Hardware stack levels used: 1
  8202 ;; Hardware stack levels required when called: 1
  8203 ;; This function calls:
  8204 ;;		Nothing
  8205 ;; This function is called by:
  8206 ;;		_roundf
  8207 ;; This function uses a non-reentrant model
  8208 ;;
  8209                           
  8210                           	psect	text31
  8211  000DCC                     __ptext31:
  8212                           	callstack 0
  8213  000DCC                     ___flmul:
  8214                           	callstack 0
  8215  000DCC  FFFF               	dw	65535	; assembler added errata NOP
  8216  000DCE  500B               	movf	(___flmul@b+3)^0,w,c
  8217  000DD0  0B80               	andlw	128
  8218  000DD2  6E14               	movwf	___flmul@sign^0,c
  8219  000DD4  500B               	movf	(___flmul@b+3)^0,w,c
  8220  000DD6  240B               	addwf	(___flmul@b+3)^0,w,c
  8221  000DD8  6E1A               	movwf	___flmul@bexp^0,c
  8222  000DDA  AE0A               	btfss	(___flmul@b+2)^0,7,c
  8223  000DDC  EFF2  F006         	goto	u3331
  8224  000DE0  EFF5  F006         	goto	u3330
  8225  000DE4                     u3331:
  8226  000DE4  FFFF               	dw	65535	; assembler added errata NOP
  8227  000DE6  EFF7  F006         	goto	l3298
  8228  000DEA                     u3330:
  8229  000DEA  FFFF               	dw	65535	; assembler added errata NOP
  8230  000DEC  801A               	bsf	___flmul@bexp^0,0,c
  8231  000DEE                     l3298:
  8232  000DEE  FFFF               	dw	65535	; assembler added errata NOP
  8233  000DF0  501A               	movf	___flmul@bexp^0,w,c
  8234  000DF2  B4D8               	btfsc	status,2,c
  8235  000DF4  EFFE  F006         	goto	u3341
  8236  000DF8  EF01  F007         	goto	u3340
  8237  000DFC                     u3341:
  8238  000DFC  FFFF               	dw	65535	; assembler added errata NOP
  8239  000DFE  EF18  F007         	goto	l3306
  8240  000E02                     u3340:
  8241  000E02  FFFF               	dw	65535	; assembler added errata NOP
  8242  000E04  281A               	incf	___flmul@bexp^0,w,c
  8243  000E06  A4D8               	btfss	status,2,c
  8244  000E08  EF08  F007         	goto	u3351
  8245  000E0C  EF0B  F007         	goto	u3350
  8246  000E10                     u3351:
  8247  000E10  FFFF               	dw	65535	; assembler added errata NOP
  8248  000E12  EF14  F007         	goto	l3304
  8249  000E16                     u3350:
  8250  000E16  FFFF               	dw	65535	; assembler added errata NOP
  8251  000E18  0E00               	movlw	0
  8252  000E1A  6E08               	movwf	___flmul@b^0,c
  8253  000E1C  0E00               	movlw	0
  8254  000E1E  6E09               	movwf	(___flmul@b+1)^0,c
  8255  000E20  0E00               	movlw	0
  8256  000E22  6E0A               	movwf	(___flmul@b+2)^0,c
  8257  000E24  0E00               	movlw	0
  8258  000E26  6E0B               	movwf	(___flmul@b+3)^0,c
  8259  000E28                     l3304:
  8260  000E28  FFFF               	dw	65535	; assembler added errata NOP
  8261  000E2A  8E0A               	bsf	(___flmul@b+2)^0,7,c
  8262  000E2C  EF21  F007         	goto	l3308
  8263  000E30                     l3306:
  8264  000E30  FFFF               	dw	65535	; assembler added errata NOP
  8265  000E32  0E00               	movlw	0
  8266  000E34  6E08               	movwf	___flmul@b^0,c
  8267  000E36  0E00               	movlw	0
  8268  000E38  6E09               	movwf	(___flmul@b+1)^0,c
  8269  000E3A  0E00               	movlw	0
  8270  000E3C  6E0A               	movwf	(___flmul@b+2)^0,c
  8271  000E3E  0E00               	movlw	0
  8272  000E40  6E0B               	movwf	(___flmul@b+3)^0,c
  8273  000E42                     l3308:
  8274  000E42  FFFF               	dw	65535	; assembler added errata NOP
  8275  000E44  500F               	movf	(___flmul@a+3)^0,w,c
  8276  000E46  0B80               	andlw	128
  8277  000E48  1A14               	xorwf	___flmul@sign^0,f,c
  8278  000E4A  500F               	movf	(___flmul@a+3)^0,w,c
  8279  000E4C  240F               	addwf	(___flmul@a+3)^0,w,c
  8280  000E4E  6E19               	movwf	___flmul@aexp^0,c
  8281  000E50  AE0E               	btfss	(___flmul@a+2)^0,7,c
  8282  000E52  EF2D  F007         	goto	u3361
  8283  000E56  EF30  F007         	goto	u3360
  8284  000E5A                     u3361:
  8285  000E5A  FFFF               	dw	65535	; assembler added errata NOP
  8286  000E5C  EF32  F007         	goto	l3316
  8287  000E60                     u3360:
  8288  000E60  FFFF               	dw	65535	; assembler added errata NOP
  8289  000E62  8019               	bsf	___flmul@aexp^0,0,c
  8290  000E64                     l3316:
  8291  000E64  FFFF               	dw	65535	; assembler added errata NOP
  8292  000E66  5019               	movf	___flmul@aexp^0,w,c
  8293  000E68  B4D8               	btfsc	status,2,c
  8294  000E6A  EF39  F007         	goto	u3371
  8295  000E6E  EF3C  F007         	goto	u3370
  8296  000E72                     u3371:
  8297  000E72  FFFF               	dw	65535	; assembler added errata NOP
  8298  000E74  EF53  F007         	goto	l3324
  8299  000E78                     u3370:
  8300  000E78  FFFF               	dw	65535	; assembler added errata NOP
  8301  000E7A  2819               	incf	___flmul@aexp^0,w,c
  8302  000E7C  A4D8               	btfss	status,2,c
  8303  000E7E  EF43  F007         	goto	u3381
  8304  000E82  EF46  F007         	goto	u3380
  8305  000E86                     u3381:
  8306  000E86  FFFF               	dw	65535	; assembler added errata NOP
  8307  000E88  EF4F  F007         	goto	l3322
  8308  000E8C                     u3380:
  8309  000E8C  FFFF               	dw	65535	; assembler added errata NOP
  8310  000E8E  0E00               	movlw	0
  8311  000E90  6E0C               	movwf	___flmul@a^0,c
  8312  000E92  0E00               	movlw	0
  8313  000E94  6E0D               	movwf	(___flmul@a+1)^0,c
  8314  000E96  0E00               	movlw	0
  8315  000E98  6E0E               	movwf	(___flmul@a+2)^0,c
  8316  000E9A  0E00               	movlw	0
  8317  000E9C  6E0F               	movwf	(___flmul@a+3)^0,c
  8318  000E9E                     l3322:
  8319  000E9E  FFFF               	dw	65535	; assembler added errata NOP
  8320  000EA0  8E0E               	bsf	(___flmul@a+2)^0,7,c
  8321  000EA2  EF5C  F007         	goto	l1059
  8322  000EA6                     l3324:
  8323  000EA6  FFFF               	dw	65535	; assembler added errata NOP
  8324  000EA8  0E00               	movlw	0
  8325  000EAA  6E0C               	movwf	___flmul@a^0,c
  8326  000EAC  0E00               	movlw	0
  8327  000EAE  6E0D               	movwf	(___flmul@a+1)^0,c
  8328  000EB0  0E00               	movlw	0
  8329  000EB2  6E0E               	movwf	(___flmul@a+2)^0,c
  8330  000EB4  0E00               	movlw	0
  8331  000EB6  6E0F               	movwf	(___flmul@a+3)^0,c
  8332  000EB8                     l1059:
  8333  000EB8  FFFF               	dw	65535	; assembler added errata NOP
  8334  000EBA  5019               	movf	___flmul@aexp^0,w,c
  8335  000EBC  B4D8               	btfsc	status,2,c
  8336  000EBE  EF63  F007         	goto	u3391
  8337  000EC2  EF66  F007         	goto	u3390
  8338  000EC6                     u3391:
  8339  000EC6  FFFF               	dw	65535	; assembler added errata NOP
  8340  000EC8  EF70  F007         	goto	l3328
  8341  000ECC                     u3390:
  8342  000ECC  FFFF               	dw	65535	; assembler added errata NOP
  8343  000ECE  501A               	movf	___flmul@bexp^0,w,c
  8344  000ED0  A4D8               	btfss	status,2,c
  8345  000ED2  EF6D  F007         	goto	u3401
  8346  000ED6  EF70  F007         	goto	u3400
  8347  000EDA                     u3401:
  8348  000EDA  FFFF               	dw	65535	; assembler added errata NOP
  8349  000EDC  EF7B  F007         	goto	l3332
  8350  000EE0                     u3400:
  8351  000EE0                     l3328:
  8352  000EE0  FFFF               	dw	65535	; assembler added errata NOP
  8353  000EE2  0E00               	movlw	0
  8354  000EE4  6E08               	movwf	?___flmul^0,c
  8355  000EE6  0E00               	movlw	0
  8356  000EE8  6E09               	movwf	(?___flmul+1)^0,c
  8357  000EEA  0E00               	movlw	0
  8358  000EEC  6E0A               	movwf	(?___flmul+2)^0,c
  8359  000EEE  0E00               	movlw	0
  8360  000EF0  6E0B               	movwf	(?___flmul+3)^0,c
  8361  000EF2  EF35  F009         	goto	l1063
  8362  000EF6                     l3332:
  8363  000EF6  FFFF               	dw	65535	; assembler added errata NOP
  8364  000EF8  500E               	movf	(___flmul@a+2)^0,w,c
  8365  000EFA  0208               	mulwf	___flmul@b^0,c
  8366  000EFC  CFF3 F01F          	movff	prodl,___flmul@temp
  8367  000F00  CFF4 F020          	movff	prodh,___flmul@temp+1
  8368  000F04  501F               	movf	___flmul@temp^0,w,c
  8369  000F06  6E15               	movwf	___flmul@grs^0,c
  8370  000F08  6A16               	clrf	(___flmul@grs+1)^0,c
  8371  000F0A  6A17               	clrf	(___flmul@grs+2)^0,c
  8372  000F0C  6A18               	clrf	(___flmul@grs+3)^0,c
  8373  000F0E  5020               	movf	(___flmul@temp+1)^0,w,c
  8374  000F10  6E1B               	movwf	___flmul@prod^0,c
  8375  000F12  6A1C               	clrf	(___flmul@prod+1)^0,c
  8376  000F14  6A1D               	clrf	(___flmul@prod+2)^0,c
  8377  000F16  6A1E               	clrf	(___flmul@prod+3)^0,c
  8378  000F18  500D               	movf	(___flmul@a+1)^0,w,c
  8379  000F1A  0209               	mulwf	(___flmul@b+1)^0,c
  8380  000F1C  CFF3 F01F          	movff	prodl,___flmul@temp
  8381  000F20  CFF4 F020          	movff	prodh,___flmul@temp+1
  8382  000F24  501F               	movf	___flmul@temp^0,w,c
  8383  000F26  2615               	addwf	___flmul@grs^0,f,c
  8384  000F28  0E00               	movlw	0
  8385  000F2A  2216               	addwfc	(___flmul@grs+1)^0,f,c
  8386  000F2C  2217               	addwfc	(___flmul@grs+2)^0,f,c
  8387  000F2E  2218               	addwfc	(___flmul@grs+3)^0,f,c
  8388  000F30  5020               	movf	(___flmul@temp+1)^0,w,c
  8389  000F32  261B               	addwf	___flmul@prod^0,f,c
  8390  000F34  0E00               	movlw	0
  8391  000F36  221C               	addwfc	(___flmul@prod+1)^0,f,c
  8392  000F38  221D               	addwfc	(___flmul@prod+2)^0,f,c
  8393  000F3A  221E               	addwfc	(___flmul@prod+3)^0,f,c
  8394  000F3C  500C               	movf	___flmul@a^0,w,c
  8395  000F3E  020A               	mulwf	(___flmul@b+2)^0,c
  8396  000F40  CFF3 F01F          	movff	prodl,___flmul@temp
  8397  000F44  CFF4 F020          	movff	prodh,___flmul@temp+1
  8398  000F48  501F               	movf	___flmul@temp^0,w,c
  8399  000F4A  2615               	addwf	___flmul@grs^0,f,c
  8400  000F4C  0E00               	movlw	0
  8401  000F4E  2216               	addwfc	(___flmul@grs+1)^0,f,c
  8402  000F50  2217               	addwfc	(___flmul@grs+2)^0,f,c
  8403  000F52  2218               	addwfc	(___flmul@grs+3)^0,f,c
  8404  000F54  5020               	movf	(___flmul@temp+1)^0,w,c
  8405  000F56  261B               	addwf	___flmul@prod^0,f,c
  8406  000F58  0E00               	movlw	0
  8407  000F5A  221C               	addwfc	(___flmul@prod+1)^0,f,c
  8408  000F5C  221D               	addwfc	(___flmul@prod+2)^0,f,c
  8409  000F5E  221E               	addwfc	(___flmul@prod+3)^0,f,c
  8410  000F60  C017  F018         	movff	___flmul@grs+2,___flmul@grs+3
  8411  000F64  C016  F017         	movff	___flmul@grs+1,___flmul@grs+2
  8412  000F68  C015  F016         	movff	___flmul@grs,___flmul@grs+1
  8413  000F6C  6A15               	clrf	___flmul@grs^0,c
  8414  000F6E  500C               	movf	___flmul@a^0,w,c
  8415  000F70  0209               	mulwf	(___flmul@b+1)^0,c
  8416  000F72  CFF3 F01F          	movff	prodl,___flmul@temp
  8417  000F76  CFF4 F020          	movff	prodh,___flmul@temp+1
  8418  000F7A  501F               	movf	___flmul@temp^0,w,c
  8419  000F7C  2615               	addwf	___flmul@grs^0,f,c
  8420  000F7E  5020               	movf	(___flmul@temp+1)^0,w,c
  8421  000F80  2216               	addwfc	(___flmul@grs+1)^0,f,c
  8422  000F82  0E00               	movlw	0
  8423  000F84  2217               	addwfc	(___flmul@grs+2)^0,f,c
  8424  000F86  0E00               	movlw	0
  8425  000F88  2218               	addwfc	(___flmul@grs+3)^0,f,c
  8426  000F8A  500D               	movf	(___flmul@a+1)^0,w,c
  8427  000F8C  0208               	mulwf	___flmul@b^0,c
  8428  000F8E  CFF3 F01F          	movff	prodl,___flmul@temp
  8429  000F92  CFF4 F020          	movff	prodh,___flmul@temp+1
  8430  000F96  501F               	movf	___flmul@temp^0,w,c
  8431  000F98  2615               	addwf	___flmul@grs^0,f,c
  8432  000F9A  5020               	movf	(___flmul@temp+1)^0,w,c
  8433  000F9C  2216               	addwfc	(___flmul@grs+1)^0,f,c
  8434  000F9E  0E00               	movlw	0
  8435  000FA0  2217               	addwfc	(___flmul@grs+2)^0,f,c
  8436  000FA2  0E00               	movlw	0
  8437  000FA4  2218               	addwfc	(___flmul@grs+3)^0,f,c
  8438  000FA6  C017  F018         	movff	___flmul@grs+2,___flmul@grs+3
  8439  000FAA  C016  F017         	movff	___flmul@grs+1,___flmul@grs+2
  8440  000FAE  C015  F016         	movff	___flmul@grs,___flmul@grs+1
  8441  000FB2  6A15               	clrf	___flmul@grs^0,c
  8442  000FB4  500C               	movf	___flmul@a^0,w,c
  8443  000FB6  0208               	mulwf	___flmul@b^0,c
  8444  000FB8  CFF3 F01F          	movff	prodl,___flmul@temp
  8445  000FBC  CFF4 F020          	movff	prodh,___flmul@temp+1
  8446  000FC0  501F               	movf	___flmul@temp^0,w,c
  8447  000FC2  2615               	addwf	___flmul@grs^0,f,c
  8448  000FC4  5020               	movf	(___flmul@temp+1)^0,w,c
  8449  000FC6  2216               	addwfc	(___flmul@grs+1)^0,f,c
  8450  000FC8  0E00               	movlw	0
  8451  000FCA  2217               	addwfc	(___flmul@grs+2)^0,f,c
  8452  000FCC  0E00               	movlw	0
  8453  000FCE  2218               	addwfc	(___flmul@grs+3)^0,f,c
  8454  000FD0  500E               	movf	(___flmul@a+2)^0,w,c
  8455  000FD2  0209               	mulwf	(___flmul@b+1)^0,c
  8456  000FD4  CFF3 F01F          	movff	prodl,___flmul@temp
  8457  000FD8  CFF4 F020          	movff	prodh,___flmul@temp+1
  8458  000FDC  501F               	movf	___flmul@temp^0,w,c
  8459  000FDE  261B               	addwf	___flmul@prod^0,f,c
  8460  000FE0  5020               	movf	(___flmul@temp+1)^0,w,c
  8461  000FE2  221C               	addwfc	(___flmul@prod+1)^0,f,c
  8462  000FE4  0E00               	movlw	0
  8463  000FE6  221D               	addwfc	(___flmul@prod+2)^0,f,c
  8464  000FE8  0E00               	movlw	0
  8465  000FEA  221E               	addwfc	(___flmul@prod+3)^0,f,c
  8466  000FEC  500D               	movf	(___flmul@a+1)^0,w,c
  8467  000FEE  020A               	mulwf	(___flmul@b+2)^0,c
  8468  000FF0  CFF3 F01F          	movff	prodl,___flmul@temp
  8469  000FF4  CFF4 F020          	movff	prodh,___flmul@temp+1
  8470  000FF8  501F               	movf	___flmul@temp^0,w,c
  8471  000FFA  261B               	addwf	___flmul@prod^0,f,c
  8472  000FFC  5020               	movf	(___flmul@temp+1)^0,w,c
  8473  000FFE  221C               	addwfc	(___flmul@prod+1)^0,f,c
  8474  001000  0E00               	movlw	0
  8475  001002  221D               	addwfc	(___flmul@prod+2)^0,f,c
  8476  001004  0E00               	movlw	0
  8477  001006  221E               	addwfc	(___flmul@prod+3)^0,f,c
  8478  001008  500E               	movf	(___flmul@a+2)^0,w,c
  8479  00100A  020A               	mulwf	(___flmul@b+2)^0,c
  8480  00100C  CFF3 F01F          	movff	prodl,___flmul@temp
  8481  001010  CFF4 F020          	movff	prodh,___flmul@temp+1
  8482  001014  501F               	movf	___flmul@temp^0,w,c
  8483  001016  6E10               	movwf	??___flmul^0,c
  8484  001018  5020               	movf	(___flmul@temp+1)^0,w,c
  8485  00101A  6E11               	movwf	(??___flmul+1)^0,c
  8486  00101C  6A12               	clrf	(??___flmul+2)^0,c
  8487  00101E  6A13               	clrf	(??___flmul+3)^0,c
  8488  001020  C012  F013         	movff	??___flmul+2,??___flmul+3
  8489  001024  C011  F012         	movff	??___flmul+1,??___flmul+2
  8490  001028  C010  F011         	movff	??___flmul,??___flmul+1
  8491  00102C  6A10               	clrf	??___flmul^0,c
  8492  00102E  5010               	movf	??___flmul^0,w,c
  8493  001030  261B               	addwf	___flmul@prod^0,f,c
  8494  001032  5011               	movf	(??___flmul+1)^0,w,c
  8495  001034  221C               	addwfc	(___flmul@prod+1)^0,f,c
  8496  001036  5012               	movf	(??___flmul+2)^0,w,c
  8497  001038  221D               	addwfc	(___flmul@prod+2)^0,f,c
  8498  00103A  5013               	movf	(??___flmul+3)^0,w,c
  8499  00103C  221E               	addwfc	(___flmul@prod+3)^0,f,c
  8500  00103E  C015  F010         	movff	___flmul@grs,??___flmul
  8501  001042  C016  F011         	movff	___flmul@grs+1,??___flmul+1
  8502  001046  C017  F012         	movff	___flmul@grs+2,??___flmul+2
  8503  00104A  C018  F013         	movff	___flmul@grs+3,??___flmul+3
  8504  00104E  0E19               	movlw	25
  8505  001050  EF30  F008         	goto	u3410
  8506  001054                     u3415:
  8507  001054  FFFF               	dw	65535	; assembler added errata NOP
  8508  001056  90D8               	bcf	status,0,c
  8509  001058  3213               	rrcf	(??___flmul+3)^0,f,c
  8510  00105A  3212               	rrcf	(??___flmul+2)^0,f,c
  8511  00105C  3211               	rrcf	(??___flmul+1)^0,f,c
  8512  00105E  3210               	rrcf	??___flmul^0,f,c
  8513  001060                     u3410:
  8514  001060  FFFF               	dw	65535	; assembler added errata NOP
  8515  001062  2EE8               	decfsz	wreg,f,c
  8516  001064  EF2A  F008         	goto	u3415
  8517  001068  5010               	movf	??___flmul^0,w,c
  8518  00106A  261B               	addwf	___flmul@prod^0,f,c
  8519  00106C  5011               	movf	(??___flmul+1)^0,w,c
  8520  00106E  221C               	addwfc	(___flmul@prod+1)^0,f,c
  8521  001070  5012               	movf	(??___flmul+2)^0,w,c
  8522  001072  221D               	addwfc	(___flmul@prod+2)^0,f,c
  8523  001074  5013               	movf	(??___flmul+3)^0,w,c
  8524  001076  221E               	addwfc	(___flmul@prod+3)^0,f,c
  8525  001078  C017  F018         	movff	___flmul@grs+2,___flmul@grs+3
  8526  00107C  C016  F017         	movff	___flmul@grs+1,___flmul@grs+2
  8527  001080  C015  F016         	movff	___flmul@grs,___flmul@grs+1
  8528  001084  6A15               	clrf	___flmul@grs^0,c
  8529  001086  5019               	movf	___flmul@aexp^0,w,c
  8530  001088  C01A  F010         	movff	___flmul@bexp,??___flmul
  8531  00108C  6A11               	clrf	(??___flmul+1)^0,c
  8532  00108E  2610               	addwf	??___flmul^0,f,c
  8533  001090  0E00               	movlw	0
  8534  001092  2211               	addwfc	(??___flmul+1)^0,f,c
  8535  001094  0E82               	movlw	130
  8536  001096  2410               	addwf	??___flmul^0,w,c
  8537  001098  6E1F               	movwf	___flmul@temp^0,c
  8538  00109A  0EFF               	movlw	255
  8539  00109C  2011               	addwfc	(??___flmul+1)^0,w,c
  8540  00109E  6E20               	movwf	(___flmul@temp+1)^0,c
  8541  0010A0  EF6B  F008         	goto	l3380
  8542  0010A4                     l3374:
  8543  0010A4  FFFF               	dw	65535	; assembler added errata NOP
  8544  0010A6  90D8               	bcf	status,0,c
  8545  0010A8  361B               	rlcf	___flmul@prod^0,f,c
  8546  0010AA  361C               	rlcf	(___flmul@prod+1)^0,f,c
  8547  0010AC  361D               	rlcf	(___flmul@prod+2)^0,f,c
  8548  0010AE  361E               	rlcf	(___flmul@prod+3)^0,f,c
  8549  0010B0  AE18               	btfss	(___flmul@grs+3)^0,7,c
  8550  0010B2  EF5D  F008         	goto	u3421
  8551  0010B6  EF60  F008         	goto	u3420
  8552  0010BA                     u3421:
  8553  0010BA  FFFF               	dw	65535	; assembler added errata NOP
  8554  0010BC  EF62  F008         	goto	l1066
  8555  0010C0                     u3420:
  8556  0010C0  FFFF               	dw	65535	; assembler added errata NOP
  8557  0010C2  801B               	bsf	___flmul@prod^0,0,c
  8558  0010C4                     l1066:
  8559  0010C4  FFFF               	dw	65535	; assembler added errata NOP
  8560  0010C6  90D8               	bcf	status,0,c
  8561  0010C8  3615               	rlcf	___flmul@grs^0,f,c
  8562  0010CA  3616               	rlcf	(___flmul@grs+1)^0,f,c
  8563  0010CC  3617               	rlcf	(___flmul@grs+2)^0,f,c
  8564  0010CE  3618               	rlcf	(___flmul@grs+3)^0,f,c
  8565  0010D0  061F               	decf	___flmul@temp^0,f,c
  8566  0010D2  A0D8               	btfss	status,0,c
  8567  0010D4  0620               	decf	(___flmul@temp+1)^0,f,c
  8568  0010D6                     l3380:
  8569  0010D6  FFFF               	dw	65535	; assembler added errata NOP
  8570  0010D8  AE1D               	btfss	(___flmul@prod+2)^0,7,c
  8571  0010DA  EF71  F008         	goto	u3431
  8572  0010DE  EF74  F008         	goto	u3430
  8573  0010E2                     u3431:
  8574  0010E2  FFFF               	dw	65535	; assembler added errata NOP
  8575  0010E4  EF52  F008         	goto	l3374
  8576  0010E8                     u3430:
  8577  0010E8  FFFF               	dw	65535	; assembler added errata NOP
  8578  0010EA  0E00               	movlw	0
  8579  0010EC  6E19               	movwf	___flmul@aexp^0,c
  8580  0010EE  AE18               	btfss	(___flmul@grs+3)^0,7,c
  8581  0010F0  EF7C  F008         	goto	u3441
  8582  0010F4  EF7F  F008         	goto	u3440
  8583  0010F8                     u3441:
  8584  0010F8  FFFF               	dw	65535	; assembler added errata NOP
  8585  0010FA  EFAA  F008         	goto	l1068
  8586  0010FE                     u3440:
  8587  0010FE  FFFF               	dw	65535	; assembler added errata NOP
  8588  001100  0EFF               	movlw	255
  8589  001102  1415               	andwf	___flmul@grs^0,w,c
  8590  001104  6E10               	movwf	??___flmul^0,c
  8591  001106  0EFF               	movlw	255
  8592  001108  1416               	andwf	(___flmul@grs+1)^0,w,c
  8593  00110A  6E11               	movwf	(??___flmul+1)^0,c
  8594  00110C  0EFF               	movlw	255
  8595  00110E  1417               	andwf	(___flmul@grs+2)^0,w,c
  8596  001110  6E12               	movwf	(??___flmul+2)^0,c
  8597  001112  0E7F               	movlw	127
  8598  001114  1418               	andwf	(___flmul@grs+3)^0,w,c
  8599  001116  6E13               	movwf	(??___flmul+3)^0,c
  8600  001118  5010               	movf	??___flmul^0,w,c
  8601  00111A  1011               	iorwf	(??___flmul+1)^0,w,c
  8602  00111C  1012               	iorwf	(??___flmul+2)^0,w,c
  8603  00111E  1013               	iorwf	(??___flmul+3)^0,w,c
  8604  001120  B4D8               	btfsc	status,2,c
  8605  001122  EF95  F008         	goto	u3451
  8606  001126  EF98  F008         	goto	u3450
  8607  00112A                     u3451:
  8608  00112A  FFFF               	dw	65535	; assembler added errata NOP
  8609  00112C  EF9E  F008         	goto	l1069
  8610  001130                     u3450:
  8611  001130  FFFF               	dw	65535	; assembler added errata NOP
  8612  001132                     l3388:
  8613  001132  FFFF               	dw	65535	; assembler added errata NOP
  8614  001134  0E01               	movlw	1
  8615  001136  6E19               	movwf	___flmul@aexp^0,c
  8616  001138  EFAA  F008         	goto	l1068
  8617  00113C                     l1069:
  8618  00113C  FFFF               	dw	65535	; assembler added errata NOP
  8619  00113E  A01B               	btfss	___flmul@prod^0,0,c
  8620  001140  EFA4  F008         	goto	u3461
  8621  001144  EFA7  F008         	goto	u3460
  8622  001148                     u3461:
  8623  001148  FFFF               	dw	65535	; assembler added errata NOP
  8624  00114A  EFAA  F008         	goto	l1068
  8625  00114E                     u3460:
  8626  00114E  FFFF               	dw	65535	; assembler added errata NOP
  8627  001150  EF99  F008         	goto	l3388
  8628  001154                     l1068:
  8629  001154  FFFF               	dw	65535	; assembler added errata NOP
  8630  001156  5019               	movf	___flmul@aexp^0,w,c
  8631  001158  B4D8               	btfsc	status,2,c
  8632  00115A  EFB1  F008         	goto	u3471
  8633  00115E  EFB4  F008         	goto	u3470
  8634  001162                     u3471:
  8635  001162  FFFF               	dw	65535	; assembler added errata NOP
  8636  001164  EFDB  F008         	goto	l3400
  8637  001168                     u3470:
  8638  001168  FFFF               	dw	65535	; assembler added errata NOP
  8639  00116A  0E01               	movlw	1
  8640  00116C  261B               	addwf	___flmul@prod^0,f,c
  8641  00116E  0E00               	movlw	0
  8642  001170  221C               	addwfc	(___flmul@prod+1)^0,f,c
  8643  001172  221D               	addwfc	(___flmul@prod+2)^0,f,c
  8644  001174  221E               	addwfc	(___flmul@prod+3)^0,f,c
  8645  001176  A01E               	btfss	(___flmul@prod+3)^0,0,c
  8646  001178  EFC0  F008         	goto	u3481
  8647  00117C  EFC3  F008         	goto	u3480
  8648  001180                     u3481:
  8649  001180  FFFF               	dw	65535	; assembler added errata NOP
  8650  001182  EFDB  F008         	goto	l3400
  8651  001186                     u3480:
  8652  001186  FFFF               	dw	65535	; assembler added errata NOP
  8653  001188  C01B  F010         	movff	___flmul@prod,??___flmul
  8654  00118C  C01C  F011         	movff	___flmul@prod+1,??___flmul+1
  8655  001190  C01D  F012         	movff	___flmul@prod+2,??___flmul+2
  8656  001194  C01E  F013         	movff	___flmul@prod+3,??___flmul+3
  8657  001198  3413               	rlcf	(??___flmul+3)^0,w,c
  8658  00119A  3213               	rrcf	(??___flmul+3)^0,f,c
  8659  00119C  3212               	rrcf	(??___flmul+2)^0,f,c
  8660  00119E  3211               	rrcf	(??___flmul+1)^0,f,c
  8661  0011A0  3210               	rrcf	??___flmul^0,f,c
  8662  0011A2  C010  F01B         	movff	??___flmul,___flmul@prod
  8663  0011A6  C011  F01C         	movff	??___flmul+1,___flmul@prod+1
  8664  0011AA  C012  F01D         	movff	??___flmul+2,___flmul@prod+2
  8665  0011AE  C013  F01E         	movff	??___flmul+3,___flmul@prod+3
  8666  0011B2  4A1F               	infsnz	___flmul@temp^0,f,c
  8667  0011B4  2A20               	incf	(___flmul@temp+1)^0,f,c
  8668  0011B6                     l3400:
  8669  0011B6  FFFF               	dw	65535	; assembler added errata NOP
  8670  0011B8  BE20               	btfsc	(___flmul@temp+1)^0,7,c
  8671  0011BA  EFE7  F008         	goto	u3491
  8672  0011BE  5020               	movf	(___flmul@temp+1)^0,w,c
  8673  0011C0  E109               	bnz	u3490
  8674  0011C2  281F               	incf	___flmul@temp^0,w,c
  8675  0011C4  A0D8               	btfss	status,0,c
  8676  0011C6  EFE7  F008         	goto	u3491
  8677  0011CA  EFEA  F008         	goto	u3490
  8678  0011CE                     u3491:
  8679  0011CE  FFFF               	dw	65535	; assembler added errata NOP
  8680  0011D0  EFF5  F008         	goto	l3404
  8681  0011D4                     u3490:
  8682  0011D4  FFFF               	dw	65535	; assembler added errata NOP
  8683  0011D6  0E00               	movlw	0
  8684  0011D8  6E1B               	movwf	___flmul@prod^0,c
  8685  0011DA  0E00               	movlw	0
  8686  0011DC  6E1C               	movwf	(___flmul@prod+1)^0,c
  8687  0011DE  0E80               	movlw	128
  8688  0011E0  6E1D               	movwf	(___flmul@prod+2)^0,c
  8689  0011E2  0E7F               	movlw	127
  8690  0011E4  6E1E               	movwf	(___flmul@prod+3)^0,c
  8691  0011E6  EF2A  F009         	goto	l3416
  8692  0011EA                     l3404:
  8693  0011EA  FFFF               	dw	65535	; assembler added errata NOP
  8694  0011EC  BE20               	btfsc	(___flmul@temp+1)^0,7,c
  8695  0011EE  EF04  F009         	goto	u3500
  8696  0011F2  5020               	movf	(___flmul@temp+1)^0,w,c
  8697  0011F4  E106               	bnz	u3501
  8698  0011F6  041F               	decf	___flmul@temp^0,w,c
  8699  0011F8  B0D8               	btfsc	status,0,c
  8700  0011FA  EF01  F009         	goto	u3501
  8701  0011FE  EF04  F009         	goto	u3500
  8702  001202                     u3501:
  8703  001202  FFFF               	dw	65535	; assembler added errata NOP
  8704  001204  EF11  F009         	goto	l1076
  8705  001208                     u3500:
  8706  001208  FFFF               	dw	65535	; assembler added errata NOP
  8707  00120A  0E00               	movlw	0
  8708  00120C  6E1B               	movwf	___flmul@prod^0,c
  8709  00120E  0E00               	movlw	0
  8710  001210  6E1C               	movwf	(___flmul@prod+1)^0,c
  8711  001212  0E00               	movlw	0
  8712  001214  6E1D               	movwf	(___flmul@prod+2)^0,c
  8713  001216  0E00               	movlw	0
  8714  001218  6E1E               	movwf	(___flmul@prod+3)^0,c
  8715  00121A  0E00               	movlw	0
  8716  00121C  6E14               	movwf	___flmul@sign^0,c
  8717  00121E  EF2A  F009         	goto	l3416
  8718  001222                     l1076:
  8719  001222  FFFF               	dw	65535	; assembler added errata NOP
  8720  001224  C01F  F01A         	movff	___flmul@temp,___flmul@bexp
  8721  001228  0EFF               	movlw	255
  8722  00122A  161B               	andwf	___flmul@prod^0,f,c
  8723  00122C  0EFF               	movlw	255
  8724  00122E  161C               	andwf	(___flmul@prod+1)^0,f,c
  8725  001230  0E7F               	movlw	127
  8726  001232  161D               	andwf	(___flmul@prod+2)^0,f,c
  8727  001234  0E00               	movlw	0
  8728  001236  161E               	andwf	(___flmul@prod+3)^0,f,c
  8729  001238  A01A               	btfss	___flmul@bexp^0,0,c
  8730  00123A  EF21  F009         	goto	u3511
  8731  00123E  EF24  F009         	goto	u3510
  8732  001242                     u3511:
  8733  001242  FFFF               	dw	65535	; assembler added errata NOP
  8734  001244  EF26  F009         	goto	l3414
  8735  001248                     u3510:
  8736  001248  FFFF               	dw	65535	; assembler added errata NOP
  8737  00124A  8E1D               	bsf	(___flmul@prod+2)^0,7,c
  8738  00124C                     l3414:
  8739  00124C  FFFF               	dw	65535	; assembler added errata NOP
  8740  00124E  90D8               	bcf	status,0,c
  8741  001250  301A               	rrcf	___flmul@bexp^0,w,c
  8742  001252  6E1E               	movwf	(___flmul@prod+3)^0,c
  8743  001254                     l3416:
  8744  001254  FFFF               	dw	65535	; assembler added errata NOP
  8745  001256  5014               	movf	___flmul@sign^0,w,c
  8746  001258  121E               	iorwf	(___flmul@prod+3)^0,f,c
  8747  00125A  C01B  F008         	movff	___flmul@prod,?___flmul
  8748  00125E  C01C  F009         	movff	___flmul@prod+1,?___flmul+1
  8749  001262  C01D  F00A         	movff	___flmul@prod+2,?___flmul+2
  8750  001266  C01E  F00B         	movff	___flmul@prod+3,?___flmul+3
  8751  00126A                     l1063:
  8752  00126A  FFFF               	dw	65535	; assembler added errata NOP
  8753  00126C  0012               	return		;funcret
  8754  00126E  FFFF               	dw	65535	; errata NOP
  8755  001270                     __end_of___flmul:
  8756                           	callstack 0
  8757                           
  8758 ;; *************** function ___flge *****************
  8759 ;; Defined at:
  8760 ;;		line 4 in file "/opt/microchip/xc8/v2.32/pic/sources/c99/common/flge.c"
  8761 ;; Parameters:    Size  Location     Type
  8762 ;;  ff1             4   46[COMRAM] unsigned char 
  8763 ;;  ff2             4   50[COMRAM] unsigned char 
  8764 ;; Auto vars:     Size  Location     Type
  8765 ;;		None
  8766 ;; Return value:  Size  Location     Type
  8767 ;;		None               void
  8768 ;; Registers used:
  8769 ;;		wreg, status,2, status,0
  8770 ;; Tracked objects:
  8771 ;;		On entry : 0/0
  8772 ;;		On exit  : 0/0
  8773 ;;		Unchanged: 0/0
  8774 ;; Data sizes:     COMRAM   BANK0   BANK1   BANK2   BANK3   BANK4   BANK5
  8775 ;;      Params:         8       0       0       0       0       0       0
  8776 ;;      Locals:         0       0       0       0       0       0       0
  8777 ;;      Temps:          4       0       0       0       0       0       0
  8778 ;;      Totals:        12       0       0       0       0       0       0
  8779 ;;Total ram usage:       12 bytes
  8780 ;; Hardware stack levels used: 1
  8781 ;; Hardware stack levels required when called: 1
  8782 ;; This function calls:
  8783 ;;		Nothing
  8784 ;; This function is called by:
  8785 ;;		_pick_and_place
  8786 ;;		_roundf
  8787 ;; This function uses a non-reentrant model
  8788 ;;
  8789                           
  8790                           	psect	text32
  8791  002558                     __ptext32:
  8792                           	callstack 0
  8793  002558                     ___flge:
  8794                           	callstack 0
  8795  002558  FFFF               	dw	65535	; assembler added errata NOP
  8796  00255A  0E00               	movlw	0
  8797  00255C  142F               	andwf	___flge@ff1^0,w,c
  8798  00255E  6E37               	movwf	??___flge^0,c
  8799  002560  0E00               	movlw	0
  8800  002562  1430               	andwf	(___flge@ff1+1)^0,w,c
  8801  002564  6E38               	movwf	(??___flge+1)^0,c
  8802  002566  0E80               	movlw	128
  8803  002568  1431               	andwf	(___flge@ff1+2)^0,w,c
  8804  00256A  6E39               	movwf	(??___flge+2)^0,c
  8805  00256C  0E7F               	movlw	127
  8806  00256E  1432               	andwf	(___flge@ff1+3)^0,w,c
  8807  002570  6E3A               	movwf	(??___flge+3)^0,c
  8808  002572  5037               	movf	??___flge^0,w,c
  8809  002574  1038               	iorwf	(??___flge+1)^0,w,c
  8810  002576  1039               	iorwf	(??___flge+2)^0,w,c
  8811  002578  103A               	iorwf	(??___flge+3)^0,w,c
  8812  00257A  A4D8               	btfss	status,2,c
  8813  00257C  EFC2  F012         	goto	u4951
  8814  002580  EFC5  F012         	goto	u4950
  8815  002584                     u4951:
  8816  002584  FFFF               	dw	65535	; assembler added errata NOP
  8817  002586  EFCE  F012         	goto	l4358
  8818  00258A                     u4950:
  8819  00258A  FFFF               	dw	65535	; assembler added errata NOP
  8820  00258C  0E00               	movlw	0
  8821  00258E  6E2F               	movwf	___flge@ff1^0,c
  8822  002590  0E00               	movlw	0
  8823  002592  6E30               	movwf	(___flge@ff1+1)^0,c
  8824  002594  0E00               	movlw	0
  8825  002596  6E31               	movwf	(___flge@ff1+2)^0,c
  8826  002598  0E00               	movlw	0
  8827  00259A  6E32               	movwf	(___flge@ff1+3)^0,c
  8828  00259C                     l4358:
  8829  00259C  FFFF               	dw	65535	; assembler added errata NOP
  8830  00259E  0E00               	movlw	0
  8831  0025A0  1433               	andwf	___flge@ff2^0,w,c
  8832  0025A2  6E37               	movwf	??___flge^0,c
  8833  0025A4  0E00               	movlw	0
  8834  0025A6  1434               	andwf	(___flge@ff2+1)^0,w,c
  8835  0025A8  6E38               	movwf	(??___flge+1)^0,c
  8836  0025AA  0E80               	movlw	128
  8837  0025AC  1435               	andwf	(___flge@ff2+2)^0,w,c
  8838  0025AE  6E39               	movwf	(??___flge+2)^0,c
  8839  0025B0  0E7F               	movlw	127
  8840  0025B2  1436               	andwf	(___flge@ff2+3)^0,w,c
  8841  0025B4  6E3A               	movwf	(??___flge+3)^0,c
  8842  0025B6  5037               	movf	??___flge^0,w,c
  8843  0025B8  1038               	iorwf	(??___flge+1)^0,w,c
  8844  0025BA  1039               	iorwf	(??___flge+2)^0,w,c
  8845  0025BC  103A               	iorwf	(??___flge+3)^0,w,c
  8846  0025BE  A4D8               	btfss	status,2,c
  8847  0025C0  EFE4  F012         	goto	u4961
  8848  0025C4  EFE7  F012         	goto	u4960
  8849  0025C8                     u4961:
  8850  0025C8  FFFF               	dw	65535	; assembler added errata NOP
  8851  0025CA  EFF0  F012         	goto	l4362
  8852  0025CE                     u4960:
  8853  0025CE  FFFF               	dw	65535	; assembler added errata NOP
  8854  0025D0  0E00               	movlw	0
  8855  0025D2  6E33               	movwf	___flge@ff2^0,c
  8856  0025D4  0E00               	movlw	0
  8857  0025D6  6E34               	movwf	(___flge@ff2+1)^0,c
  8858  0025D8  0E00               	movlw	0
  8859  0025DA  6E35               	movwf	(___flge@ff2+2)^0,c
  8860  0025DC  0E00               	movlw	0
  8861  0025DE  6E36               	movwf	(___flge@ff2+3)^0,c
  8862  0025E0                     l4362:
  8863  0025E0  FFFF               	dw	65535	; assembler added errata NOP
  8864  0025E2  AE32               	btfss	(___flge@ff1+3)^0,7,c
  8865  0025E4  EFF6  F012         	goto	u4971
  8866  0025E8  EFF9  F012         	goto	u4970
  8867  0025EC                     u4971:
  8868  0025EC  FFFF               	dw	65535	; assembler added errata NOP
  8869  0025EE  EF03  F013         	goto	l4366
  8870  0025F2                     u4970:
  8871  0025F2  FFFF               	dw	65535	; assembler added errata NOP
  8872  0025F4  6C2F               	negf	___flge@ff1^0,c
  8873  0025F6  1E30               	comf	(___flge@ff1+1)^0,f,c
  8874  0025F8  B0D8               	btfsc	status,0,c
  8875  0025FA  2A30               	incf	(___flge@ff1+1)^0,f,c
  8876  0025FC  1E31               	comf	(___flge@ff1+2)^0,f,c
  8877  0025FE  B0D8               	btfsc	status,0,c
  8878  002600  2A31               	incf	(___flge@ff1+2)^0,f,c
  8879  002602  0E80               	movlw	128
  8880  002604  5632               	subfwb	(___flge@ff1+3)^0,f,c
  8881  002606                     l4366:
  8882  002606  FFFF               	dw	65535	; assembler added errata NOP
  8883  002608  AE36               	btfss	(___flge@ff2+3)^0,7,c
  8884  00260A  EF09  F013         	goto	u4981
  8885  00260E  EF0C  F013         	goto	u4980
  8886  002612                     u4981:
  8887  002612  FFFF               	dw	65535	; assembler added errata NOP
  8888  002614  EF16  F013         	goto	l710
  8889  002618                     u4980:
  8890  002618  FFFF               	dw	65535	; assembler added errata NOP
  8891  00261A  6C33               	negf	___flge@ff2^0,c
  8892  00261C  1E34               	comf	(___flge@ff2+1)^0,f,c
  8893  00261E  B0D8               	btfsc	status,0,c
  8894  002620  2A34               	incf	(___flge@ff2+1)^0,f,c
  8895  002622  1E35               	comf	(___flge@ff2+2)^0,f,c
  8896  002624  B0D8               	btfsc	status,0,c
  8897  002626  2A35               	incf	(___flge@ff2+2)^0,f,c
  8898  002628  0E80               	movlw	128
  8899  00262A  5636               	subfwb	(___flge@ff2+3)^0,f,c
  8900  00262C                     l710:
  8901  00262C  FFFF               	dw	65535	; assembler added errata NOP
  8902  00262E  0E00               	movlw	0
  8903  002630  1A2F               	xorwf	___flge@ff1^0,f,c
  8904  002632  0E00               	movlw	0
  8905  002634  1A30               	xorwf	(___flge@ff1+1)^0,f,c
  8906  002636  0E00               	movlw	0
  8907  002638  1A31               	xorwf	(___flge@ff1+2)^0,f,c
  8908  00263A  0E80               	movlw	128
  8909  00263C  1A32               	xorwf	(___flge@ff1+3)^0,f,c
  8910  00263E  0E00               	movlw	0
  8911  002640  1A33               	xorwf	___flge@ff2^0,f,c
  8912  002642  0E00               	movlw	0
  8913  002644  1A34               	xorwf	(___flge@ff2+1)^0,f,c
  8914  002646  0E00               	movlw	0
  8915  002648  1A35               	xorwf	(___flge@ff2+2)^0,f,c
  8916  00264A  0E80               	movlw	128
  8917  00264C  1A36               	xorwf	(___flge@ff2+3)^0,f,c
  8918  00264E  5033               	movf	___flge@ff2^0,w,c
  8919  002650  5C2F               	subwf	___flge@ff1^0,w,c
  8920  002652  5034               	movf	(___flge@ff2+1)^0,w,c
  8921  002654  5830               	subwfb	(___flge@ff1+1)^0,w,c
  8922  002656  5035               	movf	(___flge@ff2+2)^0,w,c
  8923  002658  5831               	subwfb	(___flge@ff1+2)^0,w,c
  8924  00265A  5036               	movf	(___flge@ff2+3)^0,w,c
  8925  00265C  5832               	subwfb	(___flge@ff1+3)^0,w,c
  8926  00265E  B0D8               	btfsc	status,0,c
  8927  002660  EF34  F013         	goto	u4991
  8928  002664  EF37  F013         	goto	u4990
  8929  002668                     u4991:
  8930  002668  FFFF               	dw	65535	; assembler added errata NOP
  8931  00266A  EF3B  F013         	goto	l4372
  8932  00266E                     u4990:
  8933  00266E  FFFF               	dw	65535	; assembler added errata NOP
  8934  002670  90D8               	bcf	status,0,c
  8935  002672  EF3D  F013         	goto	l715
  8936  002676                     l4372:
  8937  002676  FFFF               	dw	65535	; assembler added errata NOP
  8938  002678  80D8               	bsf	status,0,c
  8939  00267A                     l715:
  8940  00267A  FFFF               	dw	65535	; assembler added errata NOP
  8941  00267C  0012               	return		;funcret
  8942  00267E  FFFF               	dw	65535	; errata NOP
  8943  002680                     __end_of___flge:
  8944                           	callstack 0
  8945                           
  8946 ;; *************** function ___fltol *****************
  8947 ;; Defined at:
  8948 ;;		line 43 in file "/opt/microchip/xc8/v2.32/pic/sources/c99/common/fltol.c"
  8949 ;; Parameters:    Size  Location     Type
  8950 ;;  f1              4   84[COMRAM] unsigned char 
  8951 ;; Auto vars:     Size  Location     Type
  8952 ;;  exp1            1    1[BANK0 ] unsigned char 
  8953 ;;  sign1           1    0[BANK0 ] unsigned char 
  8954 ;; Return value:  Size  Location     Type
  8955 ;;                  4   84[COMRAM] long 
  8956 ;; Registers used:
  8957 ;;		wreg, status,2, status,0
  8958 ;; Tracked objects:
  8959 ;;		On entry : 0/0
  8960 ;;		On exit  : 0/0
  8961 ;;		Unchanged: 0/0
  8962 ;; Data sizes:     COMRAM   BANK0   BANK1   BANK2   BANK3   BANK4   BANK5
  8963 ;;      Params:         4       0       0       0       0       0       0
  8964 ;;      Locals:         0       2       0       0       0       0       0
  8965 ;;      Temps:          4       0       0       0       0       0       0
  8966 ;;      Totals:         8       2       0       0       0       0       0
  8967 ;;Total ram usage:       10 bytes
  8968 ;; Hardware stack levels used: 1
  8969 ;; Hardware stack levels required when called: 1
  8970 ;; This function calls:
  8971 ;;		Nothing
  8972 ;; This function is called by:
  8973 ;;		_init_USART
  8974 ;; This function uses a non-reentrant model
  8975 ;;
  8976                           
  8977                           	psect	text33
  8978  0022EE                     __ptext33:
  8979                           	callstack 0
  8980  0022EE                     ___fltol:
  8981                           	callstack 0
  8982  0022EE  FFFF               	dw	65535	; assembler added errata NOP
  8983  0022F0  3457               	rlcf	(___fltol@f1+2)^0,w,c
  8984  0022F2  3458               	rlcf	(___fltol@f1+3)^0,w,c
  8985  0022F4  0100               	movlb	0	; () banked
  8986  0022F6  6FBF               	movwf	___fltol@exp1& (0+255),b
  8987  0022F8  51BF               	movf	___fltol@exp1& (0+255),w,b
  8988  0022FA  A4D8               	btfss	status,2,c
  8989  0022FC  EF82  F011         	goto	u5621
  8990  002300  EF85  F011         	goto	u5620
  8991  002304                     u5621:
  8992  002304  FFFF               	dw	65535	; assembler added errata NOP
  8993  002306  EF91  F011         	goto	l4636
  8994  00230A                     u5620:
  8995  00230A  FFFF               	dw	65535	; assembler added errata NOP
  8996  00230C                     l4632:
  8997  00230C  FFFF               	dw	65535	; assembler added errata NOP
  8998                           
  8999                           ; BSR set to: 0
  9000  00230E  0E00               	movlw	0
  9001  002310  6E55               	movwf	?___fltol^0,c
  9002  002312  0E00               	movlw	0
  9003  002314  6E56               	movwf	(?___fltol+1)^0,c
  9004  002316  0E00               	movlw	0
  9005  002318  6E57               	movwf	(?___fltol+2)^0,c
  9006  00231A  0E00               	movlw	0
  9007  00231C  6E58               	movwf	(?___fltol+3)^0,c
  9008  00231E  EF10  F012         	goto	l742
  9009  002322                     l4636:
  9010  002322  FFFF               	dw	65535	; assembler added errata NOP
  9011                           
  9012                           ; BSR set to: 0
  9013  002324  C055  F059         	movff	___fltol@f1,??___fltol
  9014  002328  C056  F05A         	movff	___fltol@f1+1,??___fltol+1
  9015  00232C  C057  F05B         	movff	___fltol@f1+2,??___fltol+2
  9016  002330  C058  F05C         	movff	___fltol@f1+3,??___fltol+3
  9017  002334  0E20               	movlw	32
  9018  002336  EFA3  F011         	goto	u5630
  9019  00233A                     u5635:
  9020  00233A  FFFF               	dw	65535	; assembler added errata NOP
  9021  00233C  90D8               	bcf	status,0,c
  9022  00233E  325C               	rrcf	(??___fltol+3)^0,f,c
  9023  002340  325B               	rrcf	(??___fltol+2)^0,f,c
  9024  002342  325A               	rrcf	(??___fltol+1)^0,f,c
  9025  002344  3259               	rrcf	??___fltol^0,f,c
  9026  002346                     u5630:
  9027  002346  FFFF               	dw	65535	; assembler added errata NOP
  9028  002348  2EE8               	decfsz	wreg,f,c
  9029  00234A  EF9D  F011         	goto	u5635
  9030  00234E  5059               	movf	??___fltol^0,w,c
  9031  002350  6FBE               	movwf	___fltol@sign1& (0+255),b
  9032  002352                     
  9033                           ; BSR set to: 0
  9034  002352  8E57               	bsf	(___fltol@f1+2)^0,7,c
  9035  002354                     
  9036                           ; BSR set to: 0
  9037  002354  0EFF               	movlw	255
  9038  002356  1655               	andwf	___fltol@f1^0,f,c
  9039  002358  0EFF               	movlw	255
  9040  00235A  1656               	andwf	(___fltol@f1+1)^0,f,c
  9041  00235C  0EFF               	movlw	255
  9042  00235E  1657               	andwf	(___fltol@f1+2)^0,f,c
  9043  002360  0E00               	movlw	0
  9044  002362  1658               	andwf	(___fltol@f1+3)^0,f,c
  9045  002364                     
  9046                           ; BSR set to: 0
  9047  002364  0E96               	movlw	150
  9048  002366  5FBF               	subwf	___fltol@exp1& (0+255),f,b
  9049  002368                     
  9050                           ; BSR set to: 0
  9051  002368  BFBF               	btfsc	___fltol@exp1& (0+255),7,b
  9052  00236A  EFBC  F011         	goto	u5640
  9053  00236E  EFB9  F011         	goto	u5641
  9054  002372                     u5641:
  9055  002372  FFFF               	dw	65535	; assembler added errata NOP
  9056  002374  EFD6  F011         	goto	l4656
  9057  002378                     u5640:
  9058  002378  FFFF               	dw	65535	; assembler added errata NOP
  9059  00237A                     
  9060                           ; BSR set to: 0
  9061  00237A  51BF               	movf	___fltol@exp1& (0+255),w,b
  9062  00237C  0A80               	xorlw	128
  9063  00237E  0F97               	addlw	151
  9064  002380  B0D8               	btfsc	status,0,c
  9065  002382  EFC5  F011         	goto	u5651
  9066  002386  EFC8  F011         	goto	u5650
  9067  00238A                     u5651:
  9068  00238A  FFFF               	dw	65535	; assembler added errata NOP
  9069  00238C  EFCB  F011         	goto	l4652
  9070  002390                     u5650:
  9071  002390  FFFF               	dw	65535	; assembler added errata NOP
  9072  002392  EF86  F011         	goto	l4632
  9073  002396                     l4652:
  9074  002396  FFFF               	dw	65535	; assembler added errata NOP
  9075                           
  9076                           ; BSR set to: 0
  9077  002398  90D8               	bcf	status,0,c
  9078  00239A  3258               	rrcf	(___fltol@f1+3)^0,f,c
  9079  00239C  3257               	rrcf	(___fltol@f1+2)^0,f,c
  9080  00239E  3256               	rrcf	(___fltol@f1+1)^0,f,c
  9081  0023A0  3255               	rrcf	___fltol@f1^0,f,c
  9082  0023A2                     
  9083                           ; BSR set to: 0
  9084  0023A2  3FBF               	incfsz	___fltol@exp1& (0+255),f,b
  9085  0023A4  EFCB  F011         	goto	l4652
  9086  0023A8  EFF4  F011         	goto	l4666
  9087  0023AC                     l4656:
  9088  0023AC  FFFF               	dw	65535	; assembler added errata NOP
  9089                           
  9090                           ; BSR set to: 0
  9091  0023AE  0E1F               	movlw	31
  9092  0023B0  65BF               	cpfsgt	___fltol@exp1& (0+255),b
  9093  0023B2  EFDD  F011         	goto	u5661
  9094  0023B6  EFE0  F011         	goto	u5660
  9095  0023BA                     u5661:
  9096  0023BA  FFFF               	dw	65535	; assembler added errata NOP
  9097  0023BC  EFEA  F011         	goto	l4664
  9098  0023C0                     u5660:
  9099  0023C0  FFFF               	dw	65535	; assembler added errata NOP
  9100  0023C2  EF86  F011         	goto	l4632
  9101  0023C6                     l4662:
  9102  0023C6  FFFF               	dw	65535	; assembler added errata NOP
  9103                           
  9104                           ; BSR set to: 0
  9105  0023C8  90D8               	bcf	status,0,c
  9106  0023CA  3655               	rlcf	___fltol@f1^0,f,c
  9107  0023CC  3656               	rlcf	(___fltol@f1+1)^0,f,c
  9108  0023CE  3657               	rlcf	(___fltol@f1+2)^0,f,c
  9109  0023D0  3658               	rlcf	(___fltol@f1+3)^0,f,c
  9110  0023D2  07BF               	decf	___fltol@exp1& (0+255),f,b
  9111  0023D4                     l4664:
  9112  0023D4  FFFF               	dw	65535	; assembler added errata NOP
  9113                           
  9114                           ; BSR set to: 0
  9115  0023D6  51BF               	movf	___fltol@exp1& (0+255),w,b
  9116  0023D8  A4D8               	btfss	status,2,c
  9117  0023DA  EFF1  F011         	goto	u5671
  9118  0023DE  EFF4  F011         	goto	u5670
  9119  0023E2                     u5671:
  9120  0023E2  FFFF               	dw	65535	; assembler added errata NOP
  9121  0023E4  EFE3  F011         	goto	l4662
  9122  0023E8                     u5670:
  9123  0023E8                     l4666:
  9124  0023E8  FFFF               	dw	65535	; assembler added errata NOP
  9125                           
  9126                           ; BSR set to: 0
  9127  0023EA  51BE               	movf	___fltol@sign1& (0+255),w,b
  9128  0023EC  B4D8               	btfsc	status,2,c
  9129  0023EE  EFFB  F011         	goto	u5681
  9130  0023F2  EFFE  F011         	goto	u5680
  9131  0023F6                     u5681:
  9132  0023F6  FFFF               	dw	65535	; assembler added errata NOP
  9133  0023F8  EF07  F012         	goto	l4670
  9134  0023FC                     u5680:
  9135  0023FC  FFFF               	dw	65535	; assembler added errata NOP
  9136  0023FE                     
  9137                           ; BSR set to: 0
  9138  0023FE  1E58               	comf	(___fltol@f1+3)^0,f,c
  9139  002400  1E57               	comf	(___fltol@f1+2)^0,f,c
  9140  002402  1E56               	comf	(___fltol@f1+1)^0,f,c
  9141  002404  6C55               	negf	___fltol@f1^0,c
  9142  002406  0E00               	movlw	0
  9143  002408  2256               	addwfc	(___fltol@f1+1)^0,f,c
  9144  00240A  2257               	addwfc	(___fltol@f1+2)^0,f,c
  9145  00240C  2258               	addwfc	(___fltol@f1+3)^0,f,c
  9146  00240E                     l4670:
  9147  00240E  FFFF               	dw	65535	; assembler added errata NOP
  9148                           
  9149                           ; BSR set to: 0
  9150  002410  C055  F055         	movff	___fltol@f1,?___fltol
  9151  002414  C056  F056         	movff	___fltol@f1+1,?___fltol+1
  9152  002418  C057  F057         	movff	___fltol@f1+2,?___fltol+2
  9153  00241C  C058  F058         	movff	___fltol@f1+3,?___fltol+3
  9154  002420                     l742:
  9155  002420  FFFF               	dw	65535	; assembler added errata NOP
  9156                           
  9157                           ; BSR set to: 0
  9158  002422  0012               	return		;funcret
  9159  002424  FFFF               	dw	65535	; errata NOP
  9160  002426                     __end_of___fltol:
  9161                           	callstack 0
  9162                           
  9163 ;; *************** function _init_PORTS *****************
  9164 ;; Defined at:
  9165 ;;		line 9 in file "init_PIC.c"
  9166 ;; Parameters:    Size  Location     Type
  9167 ;;		None
  9168 ;; Auto vars:     Size  Location     Type
  9169 ;;		None
  9170 ;; Return value:  Size  Location     Type
  9171 ;;                  1    wreg      void 
  9172 ;; Registers used:
  9173 ;;		wreg, status,2
  9174 ;; Tracked objects:
  9175 ;;		On entry : 0/0
  9176 ;;		On exit  : 0/0
  9177 ;;		Unchanged: 0/0
  9178 ;; Data sizes:     COMRAM   BANK0   BANK1   BANK2   BANK3   BANK4   BANK5
  9179 ;;      Params:         0       0       0       0       0       0       0
  9180 ;;      Locals:         0       0       0       0       0       0       0
  9181 ;;      Temps:          0       0       0       0       0       0       0
  9182 ;;      Totals:         0       0       0       0       0       0       0
  9183 ;;Total ram usage:        0 bytes
  9184 ;; Hardware stack levels used: 1
  9185 ;; Hardware stack levels required when called: 1
  9186 ;; This function calls:
  9187 ;;		Nothing
  9188 ;; This function is called by:
  9189 ;;		_main
  9190 ;; This function uses a non-reentrant model
  9191 ;;
  9192                           
  9193                           	psect	text34
  9194  00316C                     __ptext34:
  9195                           	callstack 0
  9196  00316C                     _init_PORTS:
  9197                           	callstack 0
  9198  00316C  FFFF               	dw	65535	; assembler added errata NOP
  9199  00316E                     
  9200                           ;init_PIC.c: 11:     TRISBbits.RB0 = 1;
  9201  00316E  8093               	bsf	147,0,c	;volatile
  9202                           
  9203                           ;init_PIC.c: 12:     TRISBbits.RB2 = 1;
  9204  003170  8493               	bsf	147,2,c	;volatile
  9205  003172                     
  9206                           ;init_PIC.c: 13:     TRISD = 0x00;
  9207  003172  0E00               	movlw	0
  9208  003174  6E95               	movwf	149,c	;volatile
  9209                           
  9210                           ;init_PIC.c: 14:     TRISA = 0x00;
  9211  003176  0E00               	movlw	0
  9212  003178  6E92               	movwf	146,c	;volatile
  9213                           
  9214                           ;init_PIC.c: 15:     TRISB = 0X0F;
  9215  00317A  0E0F               	movlw	15
  9216  00317C  6E93               	movwf	147,c	;volatile
  9217                           
  9218                           ;init_PIC.c: 16:     PORTA = 0x00;
  9219  00317E  0E00               	movlw	0
  9220  003180  6E80               	movwf	128,c	;volatile
  9221                           
  9222                           ;init_PIC.c: 17:     PORTD = 0x00;
  9223  003182  0E00               	movlw	0
  9224  003184  6E83               	movwf	131,c	;volatile
  9225                           
  9226                           ;init_PIC.c: 22:     LATC = 0;
  9227  003186  0E00               	movlw	0
  9228  003188  6E8B               	movwf	139,c	;volatile
  9229                           
  9230                           ;init_PIC.c: 23:     PORTC = 0;
  9231  00318A  0E00               	movlw	0
  9232  00318C  6E82               	movwf	130,c	;volatile
  9233  00318E                     
  9234                           ;init_PIC.c: 24:     TRISCbits.RC7 = 1;
  9235  00318E  8E94               	bsf	148,7,c	;volatile
  9236  003190                     
  9237                           ;init_PIC.c: 25:     TRISCbits.RC6 = 0;
  9238  003190  9C94               	bcf	148,6,c	;volatile
  9239  003192  0012               	return		;funcret
  9240  003194  FFFF               	dw	65535	; errata NOP
  9241  003196                     __end_of_init_PORTS:
  9242                           	callstack 0
  9243                           
  9244 ;; *************** function _Rx_char_USART *****************
  9245 ;; Defined at:
  9246 ;;		line 637 in file "main.c"
  9247 ;; Parameters:    Size  Location     Type
  9248 ;;		None
  9249 ;; Auto vars:     Size  Location     Type
  9250 ;;  i               2    5[COMRAM] int 
  9251 ;; Return value:  Size  Location     Type
  9252 ;;                  1    wreg      void 
  9253 ;; Registers used:
  9254 ;;		wreg, fsr2l, fsr2h, status,2, status,0
  9255 ;; Tracked objects:
  9256 ;;		On entry : 0/0
  9257 ;;		On exit  : 0/0
  9258 ;;		Unchanged: 0/0
  9259 ;; Data sizes:     COMRAM   BANK0   BANK1   BANK2   BANK3   BANK4   BANK5
  9260 ;;      Params:         0       0       0       0       0       0       0
  9261 ;;      Locals:         2       0       0       0       0       0       0
  9262 ;;      Temps:          5       0       0       0       0       0       0
  9263 ;;      Totals:         7       0       0       0       0       0       0
  9264 ;;Total ram usage:        7 bytes
  9265 ;; Hardware stack levels used: 1
  9266 ;; This function calls:
  9267 ;;		Nothing
  9268 ;; This function is called by:
  9269 ;;		Interrupt level 2
  9270 ;; This function uses a non-reentrant model
  9271 ;;
  9272                           
  9273                           	psect	intcode
  9274  000008                     __pintcode:
  9275                           	callstack 0
  9276  000008                     _Rx_char_USART:
  9277                           	callstack 0
  9278  000008  FFFF               	dw	65535	; assembler added errata NOP
  9279                           
  9280                           ;incstack = 0
  9281  00000A  8278               	bsf	int$flags,1,c	;set compiler interrupt flag (level 2)
  9282  00000C  CFD9 F004          	movff	fsr2l,??_Rx_char_USART+3
  9283  000010  CFDA F005          	movff	fsr2h,??_Rx_char_USART+4
  9284  000014                     
  9285                           ;main.c: 639:     int i=0;
  9286  000014  0E00               	movlw	0
  9287  000016  6E07               	movwf	(Rx_char_USART@i+1)^0,c
  9288  000018  0E00               	movlw	0
  9289  00001A  6E06               	movwf	Rx_char_USART@i^0,c
  9290  00001C                     i2l433:
  9291  00001C  FFFF               	dw	65535	; assembler added errata NOP
  9292  00001E  B2F2               	btfsc	242,1,c	;volatile
  9293  000020  EF14  F000         	goto	i2u448_41
  9294  000024  EF17  F000         	goto	i2u448_40
  9295  000028                     i2u448_41:
  9296  000028  FFFF               	dw	65535	; assembler added errata NOP
  9297  00002A  EF20  F000         	goto	i2l3970
  9298  00002E                     i2u448_40:
  9299  00002E  FFFF               	dw	65535	; assembler added errata NOP
  9300  000030  AA9E               	btfss	3998,5,c	;volatile
  9301  000032  EF1D  F000         	goto	i2u449_41
  9302  000036  EF20  F000         	goto	i2u449_40
  9303  00003A                     i2u449_41:
  9304  00003A  FFFF               	dw	65535	; assembler added errata NOP
  9305  00003C  EF0E  F000         	goto	i2l433
  9306  000040                     i2u449_40:
  9307  000040                     i2l3970:
  9308  000040  FFFF               	dw	65535	; assembler added errata NOP
  9309                           
  9310                           ;main.c: 643:         input_str[i]=RCREG;
  9311  000042  0EEB               	movlw	low _input_str
  9312  000044  2406               	addwf	Rx_char_USART@i^0,w,c
  9313  000046  6ED9               	movwf	fsr2l,c
  9314  000048  0E00               	movlw	high _input_str
  9315  00004A  2007               	addwfc	(Rx_char_USART@i+1)^0,w,c
  9316  00004C  6EDA               	movwf	fsr2h,c
  9317  00004E  CFAE FFDF          	movff	4014,indf2	;volatile
  9318  000052                     
  9319                           ;main.c: 644:     }while(INTCONbits.INT0IF==0 && input_str[i++] != '\n');
  9320  000052  B2F2               	btfsc	242,1,c	;volatile
  9321  000054  EF2E  F000         	goto	i2u450_41
  9322  000058  EF31  F000         	goto	i2u450_40
  9323  00005C                     i2u450_41:
  9324  00005C  FFFF               	dw	65535	; assembler added errata NOP
  9325  00005E  EF48  F000         	goto	i2l440
  9326  000062                     i2u450_40:
  9327  000062  FFFF               	dw	65535	; assembler added errata NOP
  9328  000064  5006               	movf	Rx_char_USART@i^0,w,c
  9329  000066  6E01               	movwf	??_Rx_char_USART^0,c
  9330  000068  5007               	movf	(Rx_char_USART@i+1)^0,w,c
  9331  00006A  6E02               	movwf	(??_Rx_char_USART+1)^0,c
  9332  00006C  4A06               	infsnz	Rx_char_USART@i^0,f,c
  9333  00006E  2A07               	incf	(Rx_char_USART@i+1)^0,f,c
  9334  000070  0EEB               	movlw	low _input_str
  9335  000072  2401               	addwf	??_Rx_char_USART^0,w,c
  9336  000074  6ED9               	movwf	fsr2l,c
  9337  000076  0E00               	movlw	high _input_str
  9338  000078  2002               	addwfc	(??_Rx_char_USART+1)^0,w,c
  9339  00007A  6EDA               	movwf	fsr2h,c
  9340  00007C  0E0A               	movlw	10
  9341  00007E  18DE               	xorwf	postinc2,w,c
  9342  000080  A4D8               	btfss	status,2,c
  9343  000082  EF45  F000         	goto	i2u451_41
  9344  000086  EF48  F000         	goto	i2u451_40
  9345  00008A                     i2u451_41:
  9346  00008A  FFFF               	dw	65535	; assembler added errata NOP
  9347  00008C  EF0E  F000         	goto	i2l433
  9348  000090                     i2u451_40:
  9349  000090                     i2l440:
  9350  000090  FFFF               	dw	65535	; assembler added errata NOP
  9351                           
  9352                           ;main.c: 646:     PIR1bits.RCIF = 0;
  9353  000092  9A9E               	bcf	158,5,c	;volatile
  9354  000094                     
  9355                           ;main.c: 647:     New_char_RX = 1;
  9356  000094  0E01               	movlw	1
  9357  000096  6E76               	movwf	_New_char_RX^0,c
  9358  000098                     
  9359                           ;main.c: 648:     State = input_str[0];
  9360  000098  C0EB  F077         	movff	_input_str,_State	;volatile
  9361  00009C                     
  9362                           ;main.c: 649:     if(INTCONbits.INT0IF==1 && INTCONbits.INT0IE==1){
  9363  00009C  A2F2               	btfss	242,1,c	;volatile
  9364  00009E  EF53  F000         	goto	i2u452_41
  9365  0000A2  EF56  F000         	goto	i2u452_40
  9366  0000A6                     i2u452_41:
  9367  0000A6  FFFF               	dw	65535	; assembler added errata NOP
  9368  0000A8  EF66  F000         	goto	i2l442
  9369  0000AC                     i2u452_40:
  9370  0000AC  FFFF               	dw	65535	; assembler added errata NOP
  9371  0000AE  A8F2               	btfss	242,4,c	;volatile
  9372  0000B0  EF5C  F000         	goto	i2u453_41
  9373  0000B4  EF5F  F000         	goto	i2u453_40
  9374  0000B8                     i2u453_41:
  9375  0000B8  FFFF               	dw	65535	; assembler added errata NOP
  9376  0000BA  EF66  F000         	goto	i2l442
  9377  0000BE                     i2u453_40:
  9378  0000BE  FFFF               	dw	65535	; assembler added errata NOP
  9379  0000C0                     
  9380                           ;main.c: 650:         INTCONbits.INT0IF=0;
  9381  0000C0  92F2               	bcf	242,1,c	;volatile
  9382  0000C2                     
  9383                           ;main.c: 652:         input_str[0]="Q";
  9384  0000C2  0EFD               	movlw	low (low STR_18)
  9385  0000C4  0100               	movlb	0	; () banked
  9386  0000C6  6FEB               	movwf	_input_str& (0+255),b	;volatile
  9387                           
  9388                           ;main.c: 653:         stop=1;
  9389  0000C8  0E01               	movlw	1
  9390  0000CA  6E75               	movwf	_stop^0,c
  9391  0000CC                     i2l442:
  9392  0000CC  FFFF               	dw	65535	; assembler added errata NOP
  9393  0000CE  C005  FFDA         	movff	??_Rx_char_USART+4,fsr2h
  9394  0000D2  C004  FFD9         	movff	??_Rx_char_USART+3,fsr2l
  9395  0000D6  9278               	bcf	int$flags,1,c	;clear compiler interrupt flag (level 2)
  9396  0000D8  0011               	retfie		f
  9397  0000DA  FFFF               	dw	65535	; errata NOP
  9398  0000DC                     __end_of_Rx_char_USART:
  9399                           	callstack 0
  9400                           
  9401                           	psect	rparam
  9402  0000                     
  9403                           	psect	temp
  9404  000078                     btemp:
  9405                           	callstack 0
  9406  000078                     	ds	1
  9407  0000                     int$flags	set	btemp
  9408  0000                     wtemp8	set	btemp+1
  9409  0000                     ttemp5	set	btemp+1
  9410  0000                     ttemp6	set	btemp+4
  9411  0000                     ttemp7	set	btemp+8
  9412                           
  9413                           	psect	idloc
  9414                           
  9415                           ;Config register IDLOC0 @ 0x200000
  9416                           ;	unspecified, using default values
  9417  200000                     	org	2097152
  9418  200000  FF                 	db	255
  9419                           
  9420                           ;Config register IDLOC1 @ 0x200001
  9421                           ;	unspecified, using default values
  9422  200001                     	org	2097153
  9423  200001  FF                 	db	255
  9424                           
  9425                           ;Config register IDLOC2 @ 0x200002
  9426                           ;	unspecified, using default values
  9427  200002                     	org	2097154
  9428  200002  FF                 	db	255
  9429                           
  9430                           ;Config register IDLOC3 @ 0x200003
  9431                           ;	unspecified, using default values
  9432  200003                     	org	2097155
  9433  200003  FF                 	db	255
  9434                           
  9435                           ;Config register IDLOC4 @ 0x200004
  9436                           ;	unspecified, using default values
  9437  200004                     	org	2097156
  9438  200004  FF                 	db	255
  9439                           
  9440                           ;Config register IDLOC5 @ 0x200005
  9441                           ;	unspecified, using default values
  9442  200005                     	org	2097157
  9443  200005  FF                 	db	255
  9444                           
  9445                           ;Config register IDLOC6 @ 0x200006
  9446                           ;	unspecified, using default values
  9447  200006                     	org	2097158
  9448  200006  FF                 	db	255
  9449                           
  9450                           ;Config register IDLOC7 @ 0x200007
  9451                           ;	unspecified, using default values
  9452  200007                     	org	2097159
  9453  200007  FF                 	db	255
  9454                           
  9455                           	psect	config
  9456                           
  9457                           ; Padding undefined space
  9458  300000                     	org	3145728
  9459  300000  FF                 	db	255
  9460                           
  9461                           ;Config register CONFIG1H @ 0x300001
  9462                           ;	Oscillator Selection bits
  9463                           ;	OSC = XT, XT oscillator
  9464                           ;	Oscillator System Clock Switch Enable bit
  9465                           ;	OSCS = OFF, Oscillator system clock switch option is disabled (main oscillator is sour
      +                          ce)
  9466  300001                     	org	3145729
  9467  300001  21                 	db	33
  9468                           
  9469                           ;Config register CONFIG2L @ 0x300002
  9470                           ;	Power-up Timer Enable bit
  9471                           ;	PWRT = OFF, PWRT disabled
  9472                           ;	Brown-out Reset Enable bit
  9473                           ;	BOR = OFF, Brown-out Reset disabled
  9474                           ;	Brown-out Reset Voltage bits
  9475                           ;	BORV = 20, VBOR set to 2.0V
  9476  300002                     	org	3145730
  9477  300002  0D                 	db	13
  9478                           
  9479                           ;Config register CONFIG2H @ 0x300003
  9480                           ;	Watchdog Timer Enable bit
  9481                           ;	WDT = OFF, WDT disabled (control is placed on the SWDTEN bit)
  9482                           ;	Watchdog Timer Postscale Select bits
  9483                           ;	WDTPS = 128, 1:128
  9484  300003                     	org	3145731
  9485  300003  0E                 	db	14
  9486                           
  9487                           ; Padding undefined space
  9488  300004                     	org	3145732
  9489  300004  FF                 	db	255
  9490                           
  9491                           ;Config register CONFIG3H @ 0x300005
  9492                           ;	CCP2 Mux bit
  9493                           ;	CCP2MUX = OFF, CCP2 input/output is multiplexed with RB3
  9494  300005                     	org	3145733
  9495  300005  00                 	db	0
  9496                           
  9497                           ;Config register CONFIG4L @ 0x300006
  9498                           ;	Stack Full/Underflow Reset Enable bit
  9499                           ;	STVR = OFF, Stack Full/Underflow will not cause RESET
  9500                           ;	Low Voltage ICSP Enable bit
  9501                           ;	LVP = OFF, Low Voltage ICSP disabled
  9502                           ;	Background Debugger Enable bit
  9503                           ;	DEBUG = 0x1, unprogrammed default
  9504  300006                     	org	3145734
  9505  300006  80                 	db	128
  9506                           
  9507                           ; Padding undefined space
  9508  300007                     	org	3145735
  9509  300007  FF                 	db	255
  9510                           
  9511                           ;Config register CONFIG5L @ 0x300008
  9512                           ;	Code Protection bit
  9513                           ;	CP0 = OFF, Block 0 (000200-001FFFh) not code protected
  9514                           ;	Code Protection bit
  9515                           ;	CP1 = OFF, Block 1 (002000-003FFFh) not code protected
  9516                           ;	Code Protection bit
  9517                           ;	CP2 = OFF, Block 2 (004000-005FFFh) not code protected
  9518                           ;	Code Protection bit
  9519                           ;	CP3 = OFF, Block 3 (006000-007FFFh) not code protected
  9520  300008                     	org	3145736
  9521  300008  0F                 	db	15
  9522                           
  9523                           ;Config register CONFIG5H @ 0x300009
  9524                           ;	Boot Block Code Protection bit
  9525                           ;	CPB = OFF, Boot Block (000000-0001FFh) not code protected
  9526                           ;	Data EEPROM Code Protection bit
  9527                           ;	CPD = OFF, Data EEPROM not code protected
  9528  300009                     	org	3145737
  9529  300009  C0                 	db	192
  9530                           
  9531                           ;Config register CONFIG6L @ 0x30000A
  9532                           ;	Write Protection bit
  9533                           ;	WRT0 = OFF, Block 0 (000200-001FFFh) not write protected
  9534                           ;	Write Protection bit
  9535                           ;	WRT1 = OFF, Block 1 (002000-003FFFh) not write protected
  9536                           ;	Write Protection bit
  9537                           ;	WRT2 = OFF, Block 2 (004000-005FFFh) not write protected
  9538                           ;	Write Protection bit
  9539                           ;	WRT3 = OFF, Block 3 (006000-007FFFh) not write protected
  9540  30000A                     	org	3145738
  9541  30000A  0F                 	db	15
  9542                           
  9543                           ;Config register CONFIG6H @ 0x30000B
  9544                           ;	Configuration Register Write Protection bit
  9545                           ;	WRTC = OFF, Configuration registers (300000-3000FFh) not write protected
  9546                           ;	Boot Block Write Protection bit
  9547                           ;	WRTB = OFF, Boot Block (000000-0001FFh) not write protected
  9548                           ;	Data EEPROM Write Protection bit
  9549                           ;	WRTD = OFF, Data EEPROM not write protected
  9550  30000B                     	org	3145739
  9551  30000B  E0                 	db	224
  9552                           
  9553                           ;Config register CONFIG7L @ 0x30000C
  9554                           ;	Table Read Protection bit
  9555                           ;	EBTR0 = OFF, Block 0 (000200-001FFFh) not protected from Table Reads executed in other
      +                           blocks
  9556                           ;	Table Read Protection bit
  9557                           ;	EBTR1 = OFF, Block 1 (002000-003FFFh) not protected from Table Reads executed in other
      +                           blocks
  9558                           ;	Table Read Protection bit
  9559                           ;	EBTR2 = OFF, Block 2 (004000-005FFFh) not protected from Table Reads executed in other
      +                           blocks
  9560                           ;	Table Read Protection bit
  9561                           ;	EBTR3 = OFF, Block 3 (006000-007FFFh) not protected from Table Reads executed in other
      +                           blocks
  9562  30000C                     	org	3145740
  9563  30000C  0F                 	db	15
  9564                           
  9565                           ;Config register CONFIG7H @ 0x30000D
  9566                           ;	Boot Block Table Read Protection bit
  9567                           ;	EBTRB = OFF, Boot Block (000000-0001FFh) not protected from Table Reads executed in ot
      +                          her blocks
  9568  30000D                     	org	3145741
  9569  30000D  40                 	db	64
  9570                           tosu	equ	0xFFF
  9571                           tosh	equ	0xFFE
  9572                           tosl	equ	0xFFD
  9573                           stkptr	equ	0xFFC
  9574                           pclatu	equ	0xFFB
  9575                           pclath	equ	0xFFA
  9576                           pcl	equ	0xFF9
  9577                           tblptru	equ	0xFF8
  9578                           tblptrh	equ	0xFF7
  9579                           tblptrl	equ	0xFF6
  9580                           tablat	equ	0xFF5
  9581                           prodh	equ	0xFF4
  9582                           prodl	equ	0xFF3
  9583                           indf0	equ	0xFEF
  9584                           postinc0	equ	0xFEE
  9585                           postdec0	equ	0xFED
  9586                           preinc0	equ	0xFEC
  9587                           plusw0	equ	0xFEB
  9588                           fsr0h	equ	0xFEA
  9589                           fsr0l	equ	0xFE9
  9590                           wreg	equ	0xFE8
  9591                           indf1	equ	0xFE7
  9592                           postinc1	equ	0xFE6
  9593                           postdec1	equ	0xFE5
  9594                           preinc1	equ	0xFE4
  9595                           plusw1	equ	0xFE3
  9596                           fsr1h	equ	0xFE2
  9597                           fsr1l	equ	0xFE1
  9598                           bsr	equ	0xFE0
  9599                           indf2	equ	0xFDF
  9600                           postinc2	equ	0xFDE
  9601                           postdec2	equ	0xFDD
  9602                           preinc2	equ	0xFDC
  9603                           plusw2	equ	0xFDB
  9604                           fsr2h	equ	0xFDA
  9605                           fsr2l	equ	0xFD9
  9606                           status	equ	0xFD8

Data Sizes:
    Strings     626
    Constant    20
    Data        27
    BSS         87
    Persistent  1
    Stack       0

Auto Spaces:
    Space          Size  Autos    Used
    COMRAM          126     92     119
    BANK0           128     33     121
    BANK1           256      0       0
    BANK2           256      0       0
    BANK3           256      0       0
    BANK4           256      0       0
    BANK5           256      0       0

Pointer List with Targets:

    __memrchr@m	PTR const void  size(2) Largest target is 4
		 -> sequence(BANK0[4]), 

    __memrchr@s	PTR const unsigned char  size(2) Largest target is 4
		 -> sequence(BANK0[4]), 

    sp____memrchr	PTR void  size(2) Largest target is 4
		 -> sequence(BANK0[4]), NULL(NULL[0]), 

    strrchr@s	PTR const unsigned char  size(2) Largest target is 4
		 -> sequence(BANK0[4]), 

    strncat@s	PTR const unsigned char  size(2) Largest target is 2
		 -> add_component@add_componnt(COMRAM[2]), 

    strncat@d	PTR unsigned char  size(2) Largest target is 4
		 -> sequence(BANK0[4]), 

    strncat@a	PTR unsigned char  size(2) Largest target is 4
		 -> sequence(BANK0[4]), 

    strlen@s	PTR const unsigned char  size(2) Largest target is 4
		 -> sequence(BANK0[4]), 

    strlen@a	PTR const unsigned char  size(2) Largest target is 4
		 -> sequence(BANK0[4]), 

    memmove@d1	PTR void  size(2) Largest target is 4
		 -> sequence(BANK0[4]), 

    memmove@d	PTR unsigned char  size(2) Largest target is 4
		 -> sequence(BANK0[4]), 

    memmove@s1	PTR const void  size(2) Largest target is 4
		 -> sequence(BANK0[4]), 

    memmove@s	PTR const unsigned char  size(2) Largest target is 4
		 -> sequence(BANK0[4]), 

    atoi@s	PTR const unsigned char  size(2) Largest target is 10
		 -> input_str(BANK0[10]), 

    sp__memmove	PTR void  size(2) Largest target is 4
		 -> sequence(BANK0[4]), 

    sp__strrchr	PTR unsigned char  size(2) Largest target is 4
		 -> sequence(BANK0[4]), NULL(NULL[0]), 

    remove_component@ptr	PTR unsigned char  size(2) Largest target is 4
		 -> sequence(BANK0[4]), NULL(NULL[0]), 

    sp__strncat	PTR unsigned char  size(2) Largest target is 4
		 -> sequence(BANK0[4]), 

    print_string@strng	PTR unsigned char  size(2) Largest target is 82
		 -> STR_17(CODE[70]), STR_16(CODE[19]), STR_15(CODE[63]), STR_14(CODE[20]), 
		 -> STR_13(CODE[30]), STR_12(CODE[29]), STR_11(CODE[29]), STR_10(CODE[29]), 
		 -> STR_9(CODE[28]), STR_8(CODE[28]), STR_7(CODE[52]), STR_6(CODE[26]), 
		 -> add_component@add_componnt(COMRAM[2]), STR_5(CODE[40]), STR_4(CODE[27]), STR_3(CODE[32]), 
		 -> sequence(BANK0[4]), STR_2(CODE[20]), STR_1(CODE[82]), 


Critical Paths under _main in COMRAM

    _start_up_menu->_pick_and_place
    _return_to_initial->_Twister
    _return_to_initial->_X_axis
    _return_to_initial->_Y_axis
    _return_to_initial->_Z_axis
    _remove_component->_strrchr
    _strrchr->___memrchr
    ___memrchr->_strlen
    _memmove->_strlen
    _pick_and_place->___flge
    ___fldiv->___xxtofl
    _Z_axis->_ms_delay
    _Y_axis->_ms_delay
    _X_axis->_ms_delay
    _Twister->_ms_delay
    _change_sequence->_print_string
    _add_component->_atoi
    _strncat->_strlen
    _atoi->_isspace
    _init_USART->___fltol
    _roundf->___flge
    ___flsub->___fladd
    ___flge->___fldiv
    ___fltol->_roundf

Critical Paths under _Rx_char_USART in COMRAM

    None.

Critical Paths under _main in BANK0

    _start_up_menu->_pick_and_place
    _init_USART->___fltol

Critical Paths under _Rx_char_USART in BANK0

    None.

Critical Paths under _main in BANK1

    None.

Critical Paths under _Rx_char_USART in BANK1

    None.

Critical Paths under _main in BANK2

    None.

Critical Paths under _Rx_char_USART in BANK2

    None.

Critical Paths under _main in BANK3

    None.

Critical Paths under _Rx_char_USART in BANK3

    None.

Critical Paths under _main in BANK4

    None.

Critical Paths under _Rx_char_USART in BANK4

    None.

Critical Paths under _main in BANK5

    None.

Critical Paths under _Rx_char_USART in BANK5

    None.

Call Graph Tables:

 ---------------------------------------------------------------------------------
 (Depth) Function   	        Calls       Base Space   Used Autos Params    Refs
 ---------------------------------------------------------------------------------
 (0) _main                                                 0     0      0   56506
                         _init_PORTS
                         _init_USART
                    _init_interrupts
                      _start_up_menu
 ---------------------------------------------------------------------------------
 (1) _start_up_menu                                        5     5      0   45273
                                             60 COMRAM     5     5      0
                      _add_component
                    _change_sequence
                     _pick_and_place
                       _print_string
                   _remove_component
                  _return_to_initial
 ---------------------------------------------------------------------------------
 (2) _return_to_initial                                    9     9      0   14620
                                             14 COMRAM     9     9      0
                            _Twister
                             _X_axis
                             _Y_axis
                             _Z_axis
 ---------------------------------------------------------------------------------
 (2) _remove_component                                     5     5      0    3771
                                             25 COMRAM     5     5      0
                            _memmove
                       _print_string
                             _strlen
                            _strrchr
 ---------------------------------------------------------------------------------
 (3) _strrchr                                              4     0      4     942
                                             21 COMRAM     4     0      4
                          ___memrchr
                             _strlen
 ---------------------------------------------------------------------------------
 (4) ___memrchr                                           10     4      6     406
                                             11 COMRAM    10     4      6
                             _strlen (ARG)
 ---------------------------------------------------------------------------------
 (3) _memmove                                             12     6      6     592
                                             11 COMRAM    12     6      6
                             _strlen (ARG)
 ---------------------------------------------------------------------------------
 (2) _pick_and_place                                      35    35      0   19224
                                             58 COMRAM     2     2      0
                                              0 BANK0     33    33      0
                            _Twister
                             _X_axis
                             _Y_axis
                             _Z_axis
                            ___fldiv
                             ___flge
                           ___xxtofl
                   _fetch_parameters
 ---------------------------------------------------------------------------------
 (3) _fetch_parameters                                     1     1      0     124
                                              7 COMRAM     1     1      0
 ---------------------------------------------------------------------------------
 (3) ___xxtofl                                            14    10      4     836
                                              7 COMRAM    14    10      4
 ---------------------------------------------------------------------------------
 (3) ___fldiv                                             25    17      8    2183
                                             21 COMRAM    25    17      8
                           ___xxtofl (ARG)
 ---------------------------------------------------------------------------------
 (3) _Z_axis                                               1     1      0    3618
                                             13 COMRAM     1     1      0
                           _ms_delay
 ---------------------------------------------------------------------------------
 (3) _Y_axis                                               1     1      0    3618
                                             13 COMRAM     1     1      0
                           _ms_delay
 ---------------------------------------------------------------------------------
 (3) _X_axis                                               1     1      0    3618
                                             13 COMRAM     1     1      0
                           _ms_delay
 ---------------------------------------------------------------------------------
 (3) _Twister                                              1     1      0    3618
                                             13 COMRAM     1     1      0
                           _ms_delay
 ---------------------------------------------------------------------------------
 (4) _ms_delay                                             6     4      2    3556
                                              7 COMRAM     6     4      2
 ---------------------------------------------------------------------------------
 (2) _change_sequence                                      5     5      0    1829
                                             13 COMRAM     5     5      0
                       _print_string
 ---------------------------------------------------------------------------------
 (2) _add_component                                        2     2      0    4002
                                             29 COMRAM     2     2      0
                               _atoi
                       _print_string
                            _strncat
 ---------------------------------------------------------------------------------
 (3) _strncat                                              8     2      6     712
                                             11 COMRAM     6     0      6
                             _strlen
 ---------------------------------------------------------------------------------
 (4) _strlen                                               4     2      2     318
                                              7 COMRAM     4     2      2
 ---------------------------------------------------------------------------------
 (3) _print_string                                         6     4      2    1762
                                              7 COMRAM     6     4      2
 ---------------------------------------------------------------------------------
 (3) _atoi                                                15    13      2    1456
                                             14 COMRAM    15    13      2
                             ___wmul
                            _isdigit
                            _isspace
 ---------------------------------------------------------------------------------
 (4) _isspace                                              7     5      2     207
                                              7 COMRAM     7     5      2
 ---------------------------------------------------------------------------------
 (4) _isdigit                                              6     4      2     161
                                              7 COMRAM     6     4      2
 ---------------------------------------------------------------------------------
 (4) ___wmul                                               6     2      4     311
                                              7 COMRAM     6     2      4
 ---------------------------------------------------------------------------------
 (1) _init_interrupts                                      0     0      0       0
 ---------------------------------------------------------------------------------
 (1) _init_USART                                           0     0      0   11233
                            ___fltol
                             _roundf
 ---------------------------------------------------------------------------------
 (2) _roundf                                              26    22      4   10806
                                             58 COMRAM    26    22      4
                            ___fladd
                             ___flge
                            ___flmul
                            ___flneg
                            ___flsub
 ---------------------------------------------------------------------------------
 (3) ___flsub                                              8     0      8    3649
                                             23 COMRAM     8     0      8
                            ___fladd
 ---------------------------------------------------------------------------------
 (4) ___fladd                                             16     8      8    3326
                                              7 COMRAM    16     8      8
 ---------------------------------------------------------------------------------
 (3) ___flneg                                              4     0      4     197
                                              7 COMRAM     4     0      4
 ---------------------------------------------------------------------------------
 (3) ___flmul                                             25    17      8    1744
                                              7 COMRAM    25    17      8
 ---------------------------------------------------------------------------------
 (3) ___flge                                              12     4      8     986
                                             46 COMRAM    12     4      8
                            ___fldiv (ARG)
                           ___xxtofl (ARG)
 ---------------------------------------------------------------------------------
 (2) ___fltol                                             10     6      4     427
                                             84 COMRAM     8     4      4
                                              0 BANK0      2     2      0
                             _roundf (ARG)
 ---------------------------------------------------------------------------------
 (1) _init_PORTS                                           0     0      0       0
 ---------------------------------------------------------------------------------
 Estimated maximum stack depth 4
 ---------------------------------------------------------------------------------
 (Depth) Function   	        Calls       Base Space   Used Autos Params    Refs
 ---------------------------------------------------------------------------------
 (5) _Rx_char_USART                                        7     7      0      45
                                              0 COMRAM     7     7      0
 ---------------------------------------------------------------------------------
 Estimated maximum stack depth 5
 ---------------------------------------------------------------------------------

 Call Graph Graphs:

 _main (ROOT)
   _init_PORTS
   _init_USART
     ___fltol
       _roundf (ARG)
         ___fladd
         ___flge
           ___fldiv (ARG)
             ___xxtofl (ARG)
           ___xxtofl (ARG)
         ___flmul
         ___flneg
         ___flsub
           ___fladd
     _roundf
   _init_interrupts
   _start_up_menu
     _add_component
       _atoi
         ___wmul
         _isdigit
         _isspace
       _print_string
       _strncat
         _strlen
     _change_sequence
       _print_string
     _pick_and_place
       _Twister
         _ms_delay
       _X_axis
         _ms_delay
       _Y_axis
         _ms_delay
       _Z_axis
         _ms_delay
       ___fldiv
       ___flge
       ___xxtofl
       _fetch_parameters
     _print_string
     _remove_component
       _memmove
         _strlen (ARG)
       _print_string
       _strlen
       _strrchr
         ___memrchr
           _strlen (ARG)
         _strlen
     _return_to_initial
       _Twister
       _X_axis
       _Y_axis
       _Z_axis

 _Rx_char_USART (ROOT)

 Address spaces:
Name               Size   Autos  Total    Cost      Usage
BIGRAM             5FF      0       0      17        0.0%
EEDATA             100      0       0       0        0.0%
BITBANK5           100      0       0      16        0.0%
BANK5              100      0       0      14        0.0%
BITBANK4           100      0       0      12        0.0%
BANK4              100      0       0      13        0.0%
BITBANK3           100      0       0      10        0.0%
BANK3              100      0       0      11        0.0%
BITBANK2           100      0       0       8        0.0%
BANK2              100      0       0       9        0.0%
BITBANK1           100      0       0       6        0.0%
BANK1              100      0       0       7        0.0%
BITBANK0            80      0       0       4        0.0%
BANK0               80     21      79       5       94.5%
BITCOMRAM           7E      0       0       0        0.0%
COMRAM              7E     5C      77       1       94.4%
BITSFR               0      0       0     200        0.0%
SFR                  0      0       0     200        0.0%
STACK                0      0       0       2        0.0%
NULL                 0      0       0       0        0.0%
ABS                  0      0      F0      15        0.0%
DATA                 0      0      F0       3        0.0%
CODE                 0      0       0       0        0.0%


Microchip Technology PIC18 Macro Assembler V2.32 build 20210201212658 
Symbol Table                                                                                   Sat Jun 26 00:07:00 2021

                                                               ___fldiv@aexp 002E  
                                                               ___fldiv@bexp 002D  
                                                               ___fldiv@sign 0026  
                                                                         l32 31E2  
                                                                         l51 3104  
                                                                         l60 2D00  
                                                                         l29 3192  
                                                                         l56 2CA4  
                                                        ___wmul@multiplicand 000A  
                                                     __size_of_start_up_menu 0178  
                                                                        l210 21AE  
                                                                        l303 2C5E  
                                                                        l217 21B0  
                                                                        l226 2D98  
                                                                        l322 22E8  
                                                                        l402 0806  
                                                                        l403 0820  
                                                                        l411 24B8  
                                                                        l316 2F5C  
                                                                        l420 2552  
                                                                        l261 1C84  
                                                                        l326 22E8  
                                                                        l414 24FC  
                                                                        l336 01E2  
                                                                        l408 2474  
                                                                        l345 028E  
                                                                        l282 2A84  
                                                                        l275 2786  
                                                                        l445 3168  
                                                                        l373 056E  
                                                                        l710 262C  
                                                                        l382 061A  
                                                                        l296 2884  
                                                                        l289 2984  
                                                                        l715 267A  
                                                                        l742 2420  
                                                                        l719 30C4  
                                                                        l973 0A6C  
                                                                        l990 0BB0  
                                                                        l982 0DC6  
                                                                        l974 0A56  
                                                                        l975 0A0C  
                                                                        l999 0CB4  
                                                          ??_init_interrupts 0008  
                                                                        wreg 000FE8  
                                                               ___flmul@aexp 0019  
                                                               ___flmul@bexp 001A  
                                                               ___flmul@sign 0014  
                                                               ___flmul@temp 001F  
                                                               ___flmul@prod 001B  
                                                               ___fltol@exp1 00BF  
                                                                       l1000 0C9C  
                                                                       l1100 1CE8  
                                                                       l1015 2FFE  
                                                                       l1103 1E7A  
                                                                       l1040 159A  
                                                                       l1032 146E  
                                                                       l1041 1582  
                                                                       l1202 2E1E  
                                                                       l1114 1E00  
                                                                       l1027 169C  
                                                                       l1107 1D94  
                                                                       l1029 14B4  
                                                                       l1150 3082  
                                                                       l1038 150A  
                                                                       l1063 126A  
                                                                       l1215 2E9E  
                                                                       l1144 202E  
                                                                       l1209 313E  
                                                                       l1066 10C4  
                                                                       l1059 0EB8  
                                                                       l1147 2038  
                                                                       l1171 2B7E  
                                                                       l1076 1222  
                                                                       l1068 1154  
                                                                       l1069 113C  
                                                                       l1158 2F00  
                                                                       l1192 3040  
                                                                       l1179 1A82  
                                                                       l3300 0E04  
                                                                       l4100 28F6  
                                                                       l3310 0E4A  
                                                                       l3302 0E18  
                                                                       l4030 2F12  
                                                                       l4110 2934  
                                                                       l4102 2906  
                                                                       l3400 11B6  
                                                                       l3320 0E8E  
                                                                       l3312 0E50  
                                                                       l3304 0E28  
                                                                       l4040 2F3C  
                                                                       l4032 2F18  
                                                                       l4120 2974  
                                                                       l4112 2944  
                                                                       l4104 290E  
                                                                       l4200 21BA  
                                                                       l3410 1238  
                                                                       l3402 11D6  
                                                                       l3322 0E9E  
                                                                       l3314 0E62  
                                                                       l3306 0E30  
                                                                       l4042 2F42  
                                                                       l4034 2F34  
                                                                       l4050 29BA  
                                                                       l4114 2948  
                                                                       l4106 2924  
                                                                       l4122 297E  
                                                                       l4130 27BA  
                                                                       l4210 2268  
                                                                       l4202 21D0  
                                                                       l3412 124A  
                                                                       l3404 11EA  
                                                                       l3340 0F30  
                                                                       l3332 0EF6  
                                                                       l3324 0EA6  
                                                                       l3316 0E64  
                                                                       l3308 0E42  
                                                                       l2700 0960  
                                                                       l2620 3004  
                                                                       l4028 2F06  
                                                                       l4060 29F6  
                                                                       l4052 29C6  
                                                                       l4044 298E  
                                                                       l4116 2958  
                                                                       l4108 2928  
                                                                       l4140 27F6  
                                                                       l4132 27C6  
                                                                       l4124 278E  
                                                                       l4300 14CA  
                                                                       l4220 1290  
                                                                       l4212 229C  
                                                                       l4204 2204  
                                                                       l3414 124C  
                                                                       l3406 120A  
                                                                       l3350 0F7A  
                                                                       l3342 0F48  
                                                                       l3334 0F04  
                                                                       l3326 0ECE  
                                                                       l3318 0E7A  
                                                                       l2710 0976  
                                                                       l2702 0966  
                                                                       l3422 2FBA  
                                                                       l2622 3010  
                                                                       l4070 2A34  
                                                                       l4062 2A06  
                                                                       l4054 29D6  
                                                                       l4046 29A2  
                                                                       l4118 2964  
                                                                       l4150 2834  
                                                                       l4142 2806  
                                                                       l4134 27D6  
                                                                       l4126 27A2  
                                                                       l4302 14E4  
                                                                       l4310 151C  
                                                                       l4230 12D0  
                                                                       l4222 1292  
                                                                       l4214 22B4  
                                                                       l4206 221C  
                                                                       l2480 3190  
                                                                       l3408 1228  
                                                                       l3416 1254  
                                                                       l3360 0FD0  
                                                                       l3352 0F8A  
                                                                       l3344 0F54  
                                                                       l3336 0F0E  
                                                                       l3328 0EE0  
                                                                       l2800 0C14  
                                                                       l2720 098A  
                                                                       l2712 097A  
                                                                       l2704 096A  
                                                                       l3424 2FCA  
                                                                       l2624 3016  
                                                                       l4080 2A74  
                                                                       l4072 2A44  
                                                                       l4056 29DA  
                                                                       l4048 29B6  
                                                                       l4064 2A0E  
                                                                       l4160 2874  
                                                                       l4152 2844  
                                                                       l4136 27DA  
                                                                       l4128 27B6  
                                                                       l4144 280E  
                                                                       l4312 1530  
                                                                       l4304 14EA  
                                                                       l4240 130A  
                                                                       l4224 12A8  
                                                                       l4232 12D8  
                                                                       l4216 1272  
                                                                       l4400 1DCC  
                                                                       l4208 2250  
                                                                       l2474 316E  
                                                                       l3418 125A  
                                                                       l3370 1078  
                                                                       l3362 0FEC  
                                                                       l3354 0F96  
                                                                       l3346 0F60  
                                                                       l3338 0F24  
                                                                       l3450 3088  
                                                                       l2802 0C28  
                                                                       l2810 0C4E  
                                                                       l2722 098E  
                                                                       l2714 097E  
                                                                       l2706 096E  
                                                                       l2730 099E  
                                                                       l2490 31E0  
                                                                       l2626 3034  
                                                                       l4170 2BB4  
                                                                       l4074 2A48  
                                                                       l4066 2A24  
                                                                       l4058 29EA  
                                                                       l4082 2A7E  
                                                                       l4090 28BA  
                                                                       l4154 2848  
                                                                       l4146 2824  
                                                                       l4138 27EA  
                                                                       l4162 287E  
                                                                       l4322 15B0  
                                                                       l4330 15FC  
                                                                       l4314 1534  
                                                                       l4306 14F6  
                                                                       l4250 134A  
                                                                       l4242 130C  
                                                                       l4234 12EA  
                                                                       l4226 12BC  
                                                                       l4218 127E  
                                                                       l4410 1E1C  
                                                                       l4402 1DDA  
                                                                       l2476 3172  
                                                                       l3380 10D6  
                                                                       l3372 1086  
                                                                       l3364 0FF8  
                                                                       l3356 0FA6  
                                                                       l3348 0F6E  
                                                                       l3292 0DCE  
                                                                       l3452 30A2  
                                                                       l2804 0C30  
                                                                       l2812 0C60  
                                                                       l2740 0A20  
                                                                       l2732 09A4  
                                                                       l2724 0992  
                                                                       l2716 0982  
                                                                       l2708 0972  
                                                                       l2660 085C  
                                                                       l2652 0826  
                                                                       l2484 31D4  
                                                                       l2900 1EA2  
                                                                       l4180 2BF0  
                                                                       l4172 2BC0  
                                                                       l4164 2B88  
                                                                       l4076 2A58  
                                                                       l4068 2A28  
                                                                       l4092 28C6  
                                                                       l4084 288E  
                                                                       l4156 2858  
                                                                       l4148 2828  
                                                                       l4340 1674  
                                                                       l4332 161C  
                                                                       l4324 15BC  
                                                                       l4316 1546  
                                                                       l4308 1508  
                                                                       l4260 1398  
                                                                       l4244 1322  
                                                                       l4252 1352  
                                                                       l4236 12F2  
                                                                       l4228 12CC  
                                                                       l4412 1E40  
                                                                       l4404 1DEE  
                                                                       l4500 016C  
                                                                       l2478 318E  
                                                                       l3382 10EA  
                                                                       l3374 10A4  
                                                                       l3366 1014  
                                                                       l3358 0FC0  
                                                                       l3294 0DDA  
                                                                       l3454 30B2  
                                                                       l2822 0CCA  
                                                                       l2830 0D28  
                                                                       l2814 0C66  
                                                                       l2806 0C36  
                                                                       l2750 0A54  
                                                                       l2742 0A2C  
                                                                       l2734 09D2  
                                                                       l2726 0996  
                                                                       l2718 0986  
                                                                       l2670 089E  
                                                                       l2662 0870  
                                                                       l2654 0832  
                                                                       l4430 176E  
                                                                       l4422 16A4  
                                                                       l2486 31DA  
                                                                       l2646 3144  
                                                                       l2910 1F04  
                                                                       l2902 1EC0  
                                                                       l4190 2C2E  
                                                                       l4174 2BD0  
                                                                       l4182 2BF8  
                                                                       l4166 2B9C  
                                                                       l4078 2A64  
                                                                       l4094 28D6  
                                                                       l4086 28A2  
                                                                       l4158 2864  
                                                                       l4342 1686  
                                                                       l4334 1632  
                                                                       l4326 15CE  
                                                                       l4318 1578  
                                                                       l4270 13C8  
                                                                       l4262 139E  
                                                                       l4254 1364  
                                                                       l4246 1336  
                                                                       l4238 12F8  
                                                                       l4414 1E54  
                                                                       l4406 1E14  
                                                                       l4510 01D4  
                                                                       l4502 017A  
                                                                       l4360 25D0  
                                                                       l3392 116A  
                                                                       l3384 10EE  
                                                                       l3376 10B0  
                                                                       l3368 103E  
                                                                       l3296 0DEC  
                                                                       l2840 0D8E  
                                                                       l2832 0D3E  
                                                                       l2824 0CD6  
                                                                       l2816 0C78  
                                                                       l2808 0C4C  
                                                                       l2760 0ABA  
                                                                       l2752 0A80  
                                                                       l2744 0A32  
                                                                       l2736 09F4  
                                                                       l2728 099A  
                                                                       l2680 08D8  
                                                                       l2672 08A6  
                                                                       l2664 0880  
                                                                       l2656 0844  
                                                                       l4440 18C0  
                                                                       l4432 1792  
                                                                       l4424 16C4  
                                                                       l2488 31DE  
                                                                       l2648 3160  
                                                                       l2912 1F1E  
                                                                       l2904 1EF8  
                                                                       l3720 2D66  
                                                                       l3712 2D06  
                                                                       l4192 2C32  
                                                                       l4184 2C0E  
                                                                       l4176 2BD4  
                                                                       l4168 2BB0  
                                                                       l4096 28DA  
                                                                       l4088 28B6  
                                                                       l4344 168C  
                                                                       l4336 1652  
                                                                       l4328 15F8  
                                                                       l4280 1418  
                                                                       l4256 1380  
                                                                       l4248 1346  
                                                                       l4416 1E66  
                                                                       l4408 1E16  
                                                                       l4600 066C  
                                                                       l4520 0234  
                                                                       l4512 0206  
                                                                       l4504 0182  
                                                                       l3800 269A  
                                                                       l4370 2670  
                                                                       l4362 25E0  
                                                                       l4354 255A  
                                                                       l3394 1176  
                                                                       l3386 1100  
                                                                       l3378 10C2  
                                                                       l3298 0DEE  
                                                                       l2850 0DB4  
                                                                       l2842 0D94  
                                                                       l2834 0D50  
                                                                       l2826 0CE8  
                                                                       l2818 0C92  
                                                                       l2770 0B04  
                                                                       l2762 0ACC  
                                                                       l2754 0A94  
                                                                       l2746 0A46  
                                                                       l2738 0A04  
                                                                       l2690 0918  
                                                                       l2682 08DA  
                                                                       l2674 08BC  
                                                                       l2666 0884  
                                                                       l2658 0846  
                                                                       l4450 1A4C  
                                                                       l4442 192C  
                                                                       l4434 17B4  
                                                                       l4426 1714  
                                                                       l2930 2012  
                                                                       l2922 1FA2  
                                                                       l2914 1F28  
                                                                       l2906 1EFC  
                                                                       l3730 1ACC  
                                                                       l3722 2D94  
                                                                       l3714 2D2A  
                                                                       l4194 2C42  
                                                                       l4186 2C12  
                                                                       l4178 2BE4  
                                                                       l4098 28EA  
                                                                       l4346 1690  
                                                                       l4338 166E  
                                                                       l4290 146C  
                                                                       l4282 1428  
                                                                       l4274 13DC  
                                                                       l4258 1390  
                                                                       l4266 13B2  
                                                                       l4418 1E68  
                                                                       l4610 0764  
                                                                       l4602 0698  
                                                                       l4530 02D2  
                                                                       l4522 0260  
                                                                       l4514 0218  
                                                                       l4506 0188  
                                                                       l3802 26B0  
                                                                       l4372 2676  
                                                                       l4364 25F4  
                                                                       l4356 258C  
                                                                       l3396 1188  
                                                                       l3388 1132  
                                                                       l2844 0D98  
                                                                       l2836 0D76  
                                                                       l2828 0D26  
                                                                       l2780 0B78  
                                                                       l2772 0B06  
                                                                       l2764 0ADE  
                                                                       l2748 0A48  
                                                                       l2684 08F0  
                                                                       l2692 0920  
                                                                       l2676 08BE  
                                                                       l2668 088C  
                                                                       l4452 1A70  
                                                                       l4444 1964  
                                                                       l4428 1728  
                                                                       l2860 2EF4  
                                                                       l2916 1F32  
                                                                       l2940 2DB6  
                                                                       l3740 1B0C  
                                                                       l3732 1AD0  
                                                                       l3724 1A8A  
                                                                       l3716 2D32  
                                                                       l4196 2C4E  
                                                                       l4188 2C1E  
                                                                       l4292 147A  
                                                                       l4284 1430  
                                                                       l4276 13F8  
                                                                       l4268 13C8  
                                                                       l4380 1CB2  
                                                                       l4620 07B6  
                                                                       l4612 0774  
                                                                       l4604 06B8  
                                                                       l4540 033A  
                                                                       l4532 02DA  
                                                                       l4524 0280  
                                                                       l4516 0226  
                                                                       l4508 01B4  
                                                                       l3820 2744  
                                                                       l3804 26B4  
                                                                       l4460 2444  
                                                                       l4700 2098  
                                                                       l4630 22F0  
                                                                       l4366 2606  
                                                                       l4358 259C  
                                                                       l3398 11B2  
                                                                       l2846 0DA0  
                                                                       l2838 0D7A  
                                                                       l2790 0BE0  
                                                                       l2782 0B7A  
                                                                       l2774 0B12  
                                                                       l2766 0AEA  
                                                                       l2758 0AA8  
                                                                       l2694 0932  
                                                                       l2686 0904  
                                                                       l2678 08C6  
                                                                       l4446 19D0  
                                                                       l4438 17EC  
                                                                       l2862 2EF8  
                                                                       l2854 2EA4  
                                                                       l2926 1FE6  
                                                                       l2918 1F68  
                                                                       l2950 2DF2  
                                                                       l2942 2DBE  
                                                                       l3750 1B5A  
                                                                       l3742 1B20  
                                                                       l3734 1AE6  
                                                                       l3726 1A92  
                                                                       l3718 2D48  
                                                                       l4198 2C58  
                                                                       l4294 149E  
                                                                       l4286 1446  
                                                                       l4278 1408  
                                                                       l4390 1D34  
                                                                       l4382 1CFA  
                                                                       l4622 07C4  
                                                                       l4614 077C  
                                                                       l4606 06C6  
                                                                       l4550 03F6  
                                                                       l4542 03C6  
                                                                       l4534 02E0  
                                                                       l4526 02B2  
                                                                       l4518 022E  
                                                                       l2870 2E24  
                                                                       l3822 2750  
                                                                       l3830 2780  
                                                                       l3814 26EC  
                                                                       l3806 26B8  
                                                                       l4470 2490  
                                                                       l4462 244C  
                                                                       l4710 2124  
                                                                       l4702 20BA  
                                                                       l4640 2354  
                                                                       l4632 230C  
                                                                       l4368 261A  
                                                                       l2848 0DB2  
                                                                       l2784 0B8E  
                                                                       l2768 0AF0  
                                                                       l2776 0B18  
                                                                       l2696 094A  
                                                                       l2688 0914  
                                                                       l4448 1A06  
                                                                       l2856 2EAA  
                                                                       l2928 1FFC  
                                                                       l2952 2E0C  
                                                                       l2944 2DD2  
                                                                       l2936 2D9E  
                                                                       l3760 1B98  
                                                                       l3752 1B5E  
                                                                       l3744 1B24  
                                                                       l3736 1AEA  
                                                                       l3728 1AB6  
                                                                       l4296 14A0  
                                                                       l4288 145A  
                                                                       l4392 1D42  
                                                                       l4384 1D16  
                                                                       l4376 1C8C  
                                                                       l4624 07CC  
                                                                       l4616 0782  
                                                                       l4608 0752  
                                                                       l4560 0446  
                                                                       l4552 0418  
                                                                       l4544 03D8  
                                                                       l4536 030C  
                                                                       l4528 02C4  
                                                                       l2880 2E76  
                                                                       l2872 2E2C  
                                                                       l3816 2704  
                                                                       l3808 26D2  
                                                                       l4480 24D8  
                                                                       l4472 2494  
                                                                       l4464 2450  
                                                                       l4456 2428  
                                                                       l4712 213C  
                                                                       l4704 20CE  
                                                                       l4642 2364  
                                                                       l2794 0BF4  
                                                                       l2778 0B44  
                                                                       l2786 0B9E  
                                                                       l2698 095C  
                                                                       l2866 3044  
                                                                       l2858 2EC2  
                                                                       l2890 2CB8  
                                                                       l2954 2E1A  
                                                                       l2946 2DD6  
                                                                       l2938 2D9E  
                                                                       l3770 1BDE  
                                                                       l3762 1BA4  
                                                                       l3754 1B6A  
                                                                       l3746 1B30  
                                                                       l3738 1AF6  
                                                                       l4298 14B0  
                                                                       l4394 1D7A  
                                                                       l4378 1CA0  
                                                                       l4626 07D2  
                                                                       l4618 07A4  
                                                                       l4570 050E  
                                                                       l4562 0468  
                                                                       l4554 042A  
                                                                       l4546 03E8  
                                                                       l4538 032C  
                                                                       l2970 2B0E  
                                                                       l2962 2A8C  
                                                                       l2882 2E96  
                                                                       l2874 2E36  
                                                                       l3818 2710  
                                                                       l3826 2758  
                                                                       l4490 2540  
                                                                       l4482 2504  
                                                                       l4474 24C0  
                                                                       l4466 247C  
                                                                       l4458 2430  
                                                                       l4714 2146  
                                                                       l4706 20E2  
                                                                       l4722 2168  
                                                                       l4730 319C  
                                                                       l4652 2396  
                                                                       l4644 2368  
                                                                       l4636 2322  
                                                                       l2796 0C00  
                                                                       l2788 0BCC  
                                                                       l2892 2CBC  
                                                                       l2948 2DDA  
                                                                       l3780 1C2E  
                                                                       l3772 1BF4  
                                                                       l3764 1BBA  
                                                                       l3756 1B80  
                                                                       l3748 1B46  
                                                                       l4396 1D7E  
                                                                       l4388 1D2A  
                                                                       l4628 07F4  
                                                                       l4580 05A4  
                                                                       l4572 0514  
                                                                       l4564 047A  
                                                                       l4556 0438  
                                                                       l4548 03F0  
                                                                       l4492 00E6  
                                                                       l2980 2B64  
                                                                       l2964 2AB6  
                                                                       l2972 2B2E  
                                                                       l2876 2E66  
                                                                       l3828 2766  
                                                                       l4484 2510  
                                                                       l4476 24CC  
                                                                       l4468 2488  
                                                                       l4804 217E  
                                                                       l4716 2150  
                                                                       l4708 210E  
                                                                       l4732 31A0  
                                                                       l4670 240E  
                                                                       l4662 23C6  
                                                                       l4654 23A2  
                                                                       l4646 237A  
                                                                       l4638 2352  
                                                                       l2798 0C12  
                                                                       l4806 1F50  
                                                                       l2894 1E82  
                                                                       l2886 2C66  
                                                                       l3790 1C4C  
                                                                       l3774 1C08  
                                                                       l3766 1BCE  
                                                                       l3758 1B94  
                                                                       l3782 1C42  
                                                                       l4398 1D8A  
                                                                       l4590 060C  
                                                                       l4582 05B2  
                                                                       l4574 0540  
                                                                       l4566 04FA  
                                                                       l4558 0440  
                                                                       l4494 00EE  
                                                                       l2974 2B46  
                                                                       l2966 2ADC  
                                                                       l2958 310A  
                                                                       l4486 2518  
                                                                       l4478 24D4  
                                                                       l4718 215A  
                                                                       l4734 31A4  
                                                                       l4664 23D4  
                                                                       l4656 23AC  
                                                                       l4680 30FA  
                                                                       l2896 1E96  
                                                                       l2888 2C72  
                                                                       l3792 1C68  
                                                                       l3776 1C0C  
                                                                       l3768 1BD2  
                                                                       l4592 063E  
                                                                       l4584 05BA  
                                                                       l4576 0560  
                                                                       l4568 0506  
                                                                       l4496 0118  
                                                                       l2976 2B5C  
                                                                       l2968 2AEC  
                                                                       l4488 251C  
                                                                       l4736 31A6  
                                                                       l4728 3196  
                                                                       l4666 23E8  
                                                                       l4682 30FC  
                                                                       l4674 30CA  
                                                                       l2898 1E9C  
                                                                       l3794 1C74  
                                                                       l3778 1C18  
                                                                       l4594 0650  
                                                                       l4586 05C0  
                                                                       l4578 0592  
                                                                       l4498 0142  
                                                                       l2978 2B60  
                                                                       l4690 2040  
                                                                       l4738 31AC  
                                                                       l4668 23FE  
                                                                       l4684 30FE  
                                                                       l4676 30F6  
                                                                       l3796 1C80  
                                                                       l3788 1C48  
                                                                       l4596 065E  
                                                                       l4588 05EC  
                                                                       l4692 204C  
                                                                       l4686 3100  
                                                                       l4678 30F8  
                                                                       l4598 0666  
                                                                       l3798 2682  
                                                                       l4694 2062  
                                                                       l4688 3102  
                                                                       l4696 206A  
                                                                       l4698 2090  
                                                                       STR_1 7D8D  
                                                                       STR_2 7FD6  
                                                                       STR_3 7EC0  
                                                                       STR_4 7F8D  
                                                                       STR_5 7E98  
                                                                       STR_6 7FA8  
                                                                       STR_7 7E64  
                                                                       STR_8 7F55  
                                                                       STR_9 7F71  
                                                                       u2310 0842  
                                                                       u2311 083C  
                                                                       _LATC 000F8B  
                                                                       u2400 09D0  
                                                                       u2320 085A  
                                                                       u2401 09CA  
                                                                       u2321 0854  
                                                                       u2410 09EC  
                                                                       u2330 086E  
                                                                       u2411 09E4  
                                                                       u2331 0868  
                                                                       u2500 0B02  
                                                                       u2420 09F0  
                                                                       u2340 08BA  
                                                                       u2501 0AFC  
                                                                       u2341 08B4  
                                                                       u2510 0B42  
                                                                       u2430 0A1E  
                                                                       u2350 08D6  
                                                                       u2511 0B3C  
                                                                       u2431 0A18  
                                                                       u2351 08D0  
                                                                       u3400 0EE0  
                                                                       u2600 0C90  
                                                                       u2520 0B8C  
                                                                       u2440 0A44  
                                                                       u2360 08EE  
                                                                       u2280 3032  
                                                                       u4200 2D46  
                                                                       u5000 1C9E  
                                                                       u3401 0EDA  
                                                                       u2601 0C8A  
                                                                       u2521 0B86  
                                                                       u2441 0A3E  
                                                                       u2361 08E8  
                                                                       u2281 302C  
                                                                       u4201 2D40  
                                                                       u5001 1C98  
                                                                       u3410 1060  
                                                                       u3330 0DEA  
                                                                       u2610 0CAE  
                                                                       u2530 0BCA  
                                                                       u2450 0A6C  
                                                                       u2370 0902  
                                                                       u4210 2D92  
                                                                       u5010 1CB0  
                                                                       u3331 0DE4  
                                                                       u2611 0CA8  
                                                                       u2531 0BC4  
                                                                       u2451 0A66  
                                                                       u2371 08FC  
                                                                       u4211 2D8C  
                                                                       u5011 1CAA  
                                                                       u3500 1208  
                                                                       u3420 10C0  
                                                                       u3340 0E02  
                                                                       u2620 0CC8  
                                                                       u2540 0BDE  
                                                                       u2460 0A7E  
                                                                       u2380 0948  
                                                                       u5100 16E6  
                                                                       u2700 2EC0  
                                                                       u4220 1ACA  
                                                                       u5020 1D14  
                                                                       u4300 26AE  
                                                                       u3501 1202  
                                                                       u3421 10BA  
                                                                       u3341 0DFC  
                                                                       u2621 0CC2  
                                                                       u2541 0BD8  
                                                                       u2461 0A78  
                                                                       u2381 0942  
                                                                       u2701 2EBA  
                                                                       u4221 1AC4  
                                                                       u5021 1D0E  
                                                                       u4301 26A8  
                                                                       u3510 1248  
                                                                       u3430 10E8  
                                                                       u3350 0E16  
                                                                       u2630 0CE6  
                                                                       u2550 0C10  
                                                                       u2470 0A92  
                                                                       u2390 095A  
                                                                       u5110 1712  
                                                                       u2710 2EF2  
                                                                       u4230 1AE4  
                                                                       u5030 1D74  
                                                                       u4310 26E6  
                                                                       u3511 1242  
                                                                       u3431 10E2  
                                                                       u3415 1054  
                                                                       u3351 0E10  
                                                                       u2631 0CE0  
                                                                       u2551 0C0A  
                                                                       u2471 0A8C  
                                                                       u2391 0954  
                                                                       u5111 170C  
                                                                       u2711 2EEC  
                                                                       u4231 1ADE  
                                                                       u5031 1D6E  
                                                                       u4311 26E0  
                                                                       u3440 10FE  
                                                                       u3360 0E60  
                                                                       u2640 0D24  
                                                                       u2560 0C26  
                                                                       u2480 0ACA  
                                                                       u5120 174C  
                                                                       u2720 3078  
                                                                       u2800 1EBE  
                                                                       u4240 1B0A  
                                                                       u5040 1DC6  
                                                                       u4320 2702  
                                                                       u5200 24B6  
                                                                       u3441 10F8  
                                                                       u3361 0E5A  
                                                                       u2641 0D1E  
                                                                       u2561 0C20  
                                                                       u2481 0AC4  
                                                                       u5105 16DA  
                                                                       u2721 3070  
                                                                       u2801 1EB8  
                                                                       u4241 1B04  
                                                                       u5041 1DC0  
                                                                       u4321 26FC  
                                                                       u5201 24B0  
                                                                       u3450 1130  
                                                                       u3370 0E78  
                                                                       u2650 0D3C  
                                                                       u2570 0C4A  
                                                                       u2490 0ADC  
                                                                       u5130 176C  
                                                                       u2730 307C  
                                                                       u2810 1EF6  
                                                                       u4250 1B44  
                                                                       u5050 1DEC  
                                                                       u4330 277A  
                                                                       u5210 24FA  
                                                                       u3451 112A  
                                                                       u3371 0E72  
                                                                       u2651 0D36  
                                                                       u2571 0C44  
                                                                       u2491 0AD6  
                                                                       u5131 1766  
                                                                       u2811 1EF0  
                                                                       u4251 1B3E  
                                                                       u5051 1DE6  
                                                                       u4331 2774  
                                                                       u5211 24F4  
                                                                       u3460 114E  
                                                                       u3380 0E8C  
                                                                       u2660 0D50  
                                                                       u2580 0C60  
                                                                       u5140 17B2  
                                                                       u2820 1F18  
                                                                       u4260 1B7E  
                                                                       u5060 1E00  
                                                                       u5300 01B2  
                                                                       u2900 2ADA  
                                                                       u2740 2E64  
                                                                       u5220 253E  
                                                                       u3461 1148  
                                                                       u3381 0E86  
                                                                       u2661 0D4A  
                                                                       u2581 0C5A  
                                                                       u5141 17AC  
                                                                       u5125 1740  
                                                                       u2821 1F12  
                                                                       u4261 1B78  
                                                                       u5061 1DFA  
                                                                       u5301 01AC  
                                                                       u2901 2AD4  
                                                                       u2741 2E5E  
                                                                       u5221 2538  
                                                                       u3470 1168  
                                                                       u3390 0ECC  
                                                                       u2670 0D74  
                                                                       u2590 0C76  
                                                                       u5150 18BE  
                                                                       u2830 1FDC  
                                                                       u4270 1BB8  
                                                                       u5070 1E12  
                                                                       u5310 0204  
                                                                       u2910 2B28  
                                                                       u2750 2E94  
                                                                       u5230 2552  
                                                                       u3471 1162  
                                                                       u3391 0EC6  
                                                                       u2671 0D6E  
                                                                       u2591 0C70  
                                                                       u5151 18B8  
                                                                       u2831 1FD4  
                                                                       u4271 1BB2  
                                                                       u5071 1E0C  
                                                                       u5311 01FE  
                                                                       u2911 2B22  
                                                                       u2751 2E8E  
                                                                       u5231 254C  
                                                                       u3480 1186  
                                                                       u2680 0D8C  
                                                                       u5160 1962  
                                                                       u2840 1FE0  
                                                                       u2760 2CA2  
                                                                       u4280 1BF2  
                                                                       u4600 28B4  
                                                                       u5080 1E52  
                                                                       u5400 042A  
                                                                       u5320 0218  
                                                                       u5240 0110  
                                                                       u2920 2B44  
                                                                       u3481 1180  
                                                                       u2681 0D86  
                                                                       u5161 195C  
                                                                       u4281 1BEC  
                                                                       u4601 28AE  
                                                                       u5081 1E4C  
                                                                       u5401 0424  
                                                                       u5321 0212  
                                                                       u5241 0108  
                                                                       u2921 2B3E  
                                                                       u3490 11D4  
                                                                       u3570 30A0  
                                                                       u2690 0DB0  
                                                                       u5170 1A2A  
                                                                       u2850 1FFA  
                                                                       u2770 2CB6  
                                                                       u4290 1C2C  
                                                                       u4610 2922  
                                                                       u5090 1E64  
                                                                       u5410 0466  
                                                                       u5330 025E  
                                                                       u5250 0114  
                                                                       u2930 2B7E  
                                                                       u3491 11CE  
                                                                       u3571 309A  
                                                                       u2691 0DAA  
                                                                       u2851 1FF4  
                                                                       u2771 2CB0  
                                                                       u4291 1C26  
                                                                       u4611 291C  
                                                                       u5091 1E5E  
                                                                       u5411 0460  
                                                                       u5331 0258  
                                                                       u2931 2B78  
                                                                       u5180 1A4A  
                                                                       u2860 2010  
                                                                       u2780 2CEC  
                                                                       u4540 2F32  
                                                                       u4620 27A0  
                                                                       u4700 2266  
                                                                       u5500 0590  
                                                                       u5420 047A  
                                                                       u5340 02B0  
                                                                       u5260 013A  
                                                                       u5181 1A44  
                                                                       u2861 200A  
                                                                       u4541 2F2C  
                                                                       u4621 279A  
                                                                       u4701 2260  
                                                                       u5501 058A  
                                                                       u5421 0474  
                                                                       u5341 02AA  
                                                                       u5261 0132  
                                                                       u2790 2CFE  
                                                                       u2870 2DF0  
                                                                       u4550 2F5A  
                                                                       u4630 27B4  
                                                                       u4710 22B2  
                                                                       u5510 05A4  
                                                                       u5430 049E  
                                                                       u5350 02C4  
                                                                       u5270 013E  
                                                                       u5190 2472  
                                                                       u5175 1A1E  
                                                                       u2791 2CF8  
                                                                       u2767 2C98  
                                                                       u2871 2DEA  
                                                                       u4551 2F54  
                                                                       u4631 27AE  
                                                                       u4711 22AC  
                                                                       u5511 059E  
                                                                       u5431 0496  
                                                                       u5351 02BE  
                                                                       u5191 246C  
                                                                       u2880 2E0C  
                                                                       u4560 29A0  
                                                                       u4640 2822  
                                                                       u4800 1444  
                                                                       u4720 128E  
                                                                       u5600 07F2  
                                                                       u5520 05EA  
                                                                       u5440 04A2  
                                                                       u5360 030A  
                                                                       u5280 0164  
                                                                       u2881 2E06  
                                                                       u4561 299A  
                                                                       u4641 281C  
                                                                       u4801 143E  
                                                                       u4721 1288  
                                                                       u5601 07EC  
                                                                       u5521 05E4  
                                                                       u5361 0304  
                                                                       u5281 015C  
                                                                       u4650 2B9A  
                                                                       u4570 29B4  
                                                                       u4810 146A  
                                                                       u4730 12A6  
                                                                       u5610 0806  
                                                                       u5530 063C  
                                                                       u5450 04C8  
                                                                       u5370 03C4  
                                                                       u5290 0168  
                                                                       u2890 2AB4  
                                                                       u2787 2CE2  
                                                                       u4651 2B94  
                                                                       u4571 29AE  
                                                                       u4811 1464  
                                                                       u4731 12A0  
                                                                       u5611 0800  
                                                                       u5531 0636  
                                                                       u5451 04C0  
                                                                       u5371 03BE  
                                                                       u2891 2AAE  
                                                                       u5620 230A  
                                                                       u4660 2BAE  
                                                                       u4580 2A22  
                                                                       u4900 15AE  
                                                                       u4820 149C  
                                                                       u4740 12BA  
                                                                       u5540 0650  
                                                                       u5460 04CC  
                                                                       u5380 03D8  
                                                                       u5700 20E0  
                                                                       _RCIF 007CF5  
                                                                       u5621 2304  
                                                                       u4661 2BA8  
                                                                       u4581 2A1C  
                                                                       u4901 15A8  
                                                                       u4821 1496  
                                                                       u4741 12B4  
                                                                       u5541 064A  
                                                                       u5381 03D2  
                                                                       u5701 20DA  
                                                                       u5630 2346  
                                                                       u4670 2C0C  
                                                                       u4590 28A0  
                                                                       u4910 15CC  
                                                                       u4830 14C8  
                                                                       u4750 1308  
                                                                       u5550 0696  
                                                                       u5470 04F2  
                                                                       u5390 0416  
                                                                       u5710 210E  
                                                                       u4671 2C06  
                                                                       u4591 289A  
                                                                       u4911 15C6  
                                                                       u4831 14C2  
                                                                       u4751 1302  
                                                                       u5551 0690  
                                                                       u5471 04EA  
                                                                       u5391 0410  
                                                                       u5711 2108  
                                                                       u5640 2378  
                                                                       u4920 161A  
                                                                       u4840 14E2  
                                                                       u4760 1320  
                                                                       u4680 21CE  
                                                                       u5560 0750  
                                                                       u5480 04F6  
                                                                       u5720 2122  
                                                                       u5641 2372  
                                                                       u4921 1614  
                                                                       u4841 14DC  
                                                                       u4761 131A  
                                                                       u4681 21C8  
                                                                       u5561 074A  
                                                                       u5721 211C  
                                                                       u5650 2390  
                                                                       u4930 1650  
                                                                       u4850 1506  
                                                                       u4770 1334  
                                                                       u4690 221A  
                                                                       u5570 0764  
                                                                       u5490 053E  
                                                                       u5730 2136  
                                                                       u5651 238A  
                                                                       u5635 233A  
                                                                       u4931 164A  
                                                                       u4851 1500  
                                                                       u4771 132E  
                                                                       u4691 2214  
                                                                       u5571 075E  
                                                                       u5491 0538  
                                                                       u5731 2130  
                                                                       u5660 23C0  
                                                                       u4940 1684  
                                                                       u4860 152E  
                                                                       u4780 137E  
                                                                       u5580 07A2  
                                                                       u5661 23BA  
                                                                       u4941 167E  
                                                                       u4861 1528  
                                                                       u4781 1378  
                                                                       u5581 079C  
                                                                       u5670 23E8  
                                                                       u4950 258A  
                                                                       u4870 1544  
                                                                       u4790 13C6  
                                                                       u5590 07B6  
                                                                       u5671 23E2  
                                                                       u4951 2584  
                                                                       u4871 153E  
                                                                       u4791 13C0  
                                                                       u5591 07B0  
                                                                       u5680 23FC  
                                                                       u4960 25CE  
                                                                       u4880 1576  
                                                                       u5681 23F6  
                                                                       u4961 25C8  
                                                                       u4881 1570  
                                                                       u4970 25F2  
                                                                       u4890 1594  
                                                                       u5690 2060  
                                                                       u4971 25EC  
                                                                       u4891 158E  
                                                                       u5691 205A  
                                                                       u4980 2618  
                                                                       u4981 2612  
                                                                       u4990 266E  
                                                                       u4991 2668  
                                                                       _Fosc 7D89  
                                                                       _Tosc 00E3  
                                                                       _atoi 1E80  
                                                                       _main 3196  
                                                                       fsr1h 000FE2  
                                                                       fsr2h 000FDA  
                                                                       indf1 000FE7  
                                                                       indf2 000FDF  
                                                                       fsr1l 000FE1  
                                                                       fsr2l 000FD9  
                                                                       btemp 0078  
                                                                       _stop 0075  
                                                                       prodh 000FF4  
                                                                       prodl 000FF3  
                                                                       start 00DC  
                                                                 _Angle_diff 005F  
                                                            ___fldiv@new_exp 0027  
                                                               ___param_bank 000000  
                                                              ___fltol@sign1 00BE  
                                                                      ?_atoi 000F  
                                                            __end_of___fladd 0DCC  
                                                                      ?_main 0001  
                                                            __end_of___fldiv 16A2  
                                                            __end_of___flneg 30C8  
                                                                      STR_10 7F38  
                                                                      STR_11 7EFE  
                                                                      STR_12 7F1B  
                                                                      STR_13 7EE0  
                                                                      STR_14 7FC2  
                                                                      STR_15 7E25  
                                                                      STR_16 7FEA  
                                                                      STR_17 7DDF  
                                                                      STR_18 7FFD  
                                                            __end_of___flmul 1270  
                                                            __end_of___flsub 3002  
                                                            __end_of___fltol 2426  
                                                            __end_of_Twister 2C64  
                                                                      i2l440 0090  
                                                                      i2l433 001C  
                                                                      i2l442 00CC  
                                                                      _RCREG 000FAE  
                                                                      _SPBRG 000FAF  
                                                                      _PORTA 000F80  
                                                                      _PORTB 000F81  
                                                                      _PORTC 000F82  
                                                                      _PORTD 000F83  
                                                                      _TRISA 000F92  
                                                                      _TRISB 000F93  
                                                                      _TRISD 000F95  
                                                                      _TXREG 000FAD  
                                                           Twister@direction 000E  
                                                                      _X_dir 0074  
                                                                      _Y_dir 0073  
                                                                      _State 0077  
                                                                      _Steps 005D  
                                                     __size_of_add_component 0200  
                                                            __end_of_isdigit 3086  
                                                            __end_of_memmove 2B84  
                                                                      atoi@n 001C  
                                                                      atoi@s 000F  
                                         __end_of_desired_BaudRate@main$F553 7D81  
                                                 _desired_BaudRate@main$F553 7D7D  
                                                                      _toint 7D79  
                                                            __end_of_isspace 2F04  
                                                                      tablat 000FF5  
                                                              _start_up_menu 203E  
                                                            _change_sequence 2D04  
                                                   __end_of_fetch_parameters 22EE  
                                                                      ttemp5 0079  
                                                                      ttemp6 007C  
                                                            Y_axis@direction 000E  
                                                                      ttemp7 0080  
                                                                      status 000FD8  
                                                                      wtemp8 0079  
                                                            __end_of_strncat 2E22  
                                                            __end_of_strrchr 3142  
                                                               __end_of_Fosc 7D8D  
                                                            __initialization 2F60  
                                                               __end_of_atoi 203E  
                                                               __end_of_main 31B8  
                                                                 _Pick_Angle 0067  
                                                                     ??_atoi 0011  
                                                                     ??_main 005D  
                                                              __activetblptr 000002  
                                                              print_string@i 000C  
                                                             ?_start_up_menu 0001  
                                                                     i2l3970 0040  
                                                                     i2l3980 009C  
                                                                     i2l3972 0052  
                                                                     i2l3982 00AE  
                                                                     i2l3974 0064  
                                                                     i2l3966 0014  
                                                                     i2l3984 00C0  
                                                                     i2l3976 0094  
                                                                     i2l3968 0030  
                                                                     i2l3986 00C2  
                                                                     i2l3978 0098  
                                                           __end_of___xxtofl 1E80  
                                                    remove_component@rm_comp 001C  
                                                                     _X_Pick 006F  
                                                                     _Y_Pick 006B  
                                                                     _X_diff 0063  
                                                                     _Y_diff 0061  
                                                                     _X_axis 298A  
                                                                     _Y_axis 288A  
                                                                     _Z_axis 278A  
                                                              _add_component 1A88  
                                                          ?_remove_component 0001  
                                                                     _Step_X 00B6  
                                                                     _Step_Y 00B4  
                                                                     _Step_Z 00B2  
                                                                     ___flge 2558  
                                                                  ??___fladd 0010  
                                                                     ___wmul 3142  
                                                                  ??___fldiv 001E  
                                                                  ??___flneg 000C  
                                                                  ??___flmul 0010  
                                                                  ??___flsub 0020  
                                                                  ??___fltol 0059  
                                                           ??_pick_and_place 003B  
                                                         ??_remove_component 001A  
                                                                  ??_Twister 000E  
                                                                     clear_0 2F98  
                                                                     clear_1 2FA4  
                                                                     isa$std 000001  
                                                           __end_of_ms_delay 2F60  
                                                                     _roundf 16A2  
                                                                     _strlen 3002  
                                                               __pdataCOMRAM 0077  
                                                                  ??_isdigit 000A  
                                                                  ??_memmove 0012  
                                                              _Place_Angle_D 00A4  
                                                                 _Step_Angle 00B0  
                                                               __mediumconst 7D78  
                                                                  ??_isspace 000A  
                                                                     tblptrh 000FF7  
                                                                     tblptrl 000FF6  
                                                                     tblptru 000FF8  
                                                    __end_of_change_sequence 2D9C  
                                                   fetch_parameters@Componnt 0008  
                                                                  ??_strncat 0012  
                                                                  ??_strrchr 001A  
                                                          _return_to_initial 2426  
                                                                 ___flge@ff1 002F  
                                                                 ___flge@ff2 0033  
                                                               ___xxtofl@arg 0012  
                                                               ___xxtofl@exp 0011  
                                                               ___xxtofl@val 0008  
                                                                 __accesstop 0080  
                                                    __end_of__initialization 2FAA  
                                                         __size_of___memrchr 0082  
                                                         ?_return_to_initial 0001  
                                                                 ___flneg@f1 0008  
                                                              ___rparam_used 000001  
                                                                 ___fltol@f1 0055  
                                                         _pick_and_place$660 00D1  
                                                         _pick_and_place$652 00C5  
                                                         _pick_and_place$662 00D5  
                                                         _pick_and_place$655 00C9  
                                                         _pick_and_place$664 00D9  
                                                         _pick_and_place$649 00C1  
                                                             ?_add_component 0001  
                                                            _init_interrupts 31D2  
                                                        ??_return_to_initial 000F  
                                                             __pcstackCOMRAM 0001  
                                                               __pidataBANK0 31B8  
                                                              __end_of_toint 7D7D  
                                                                ms_delay@val 0008  
                                                           _desired_BaudRate 7D81  
                                                  __end_of_return_to_initial 2558  
                                                            ??_start_up_menu 003D  
                                                                _Place_Angle 0065  
                                                                _New_char_RX 0076  
                                                                 __pbssBANK0 0080  
                                                      __end_of_Rx_char_USART 00DC  
                                                  remove_component@indxToDel 001D  
                                                                 __pnvCOMRAM 0076  
                                                                 _angle_diff 00A2  
                                                                    ?_X_axis 0001  
                                                                    ?_Y_axis 0001  
                                                                    ?_Z_axis 0001  
                                                                    ?___flge 002F  
                                                                    ?___wmul 0008  
                                                                    ?_roundf 003B  
                                                          __end_of___memrchr 2EA4  
                                                                    ?_strlen 0008  
                                                                    _INTCON2 000FF1  
                                                                  ?___xxtofl 0008  
                                                        pick_and_place@i_650 00C3  
                                                        pick_and_place@i_661 00D3  
                                                        pick_and_place@i_653 00C7  
                                                        pick_and_place@i_663 00D7  
                                                        pick_and_place@i_656 00CB  
                                                        pick_and_place@i_665 00DB  
                                                        pick_and_place@i_666 00DD  
                                                        pick_and_place@i_658 00CD  
                                                        pick_and_place@i_659 00CF  
                                                           ?_change_sequence 0001  
                                                                    _RX_Char 0071  
                                                    __end_of_init_interrupts 31E6  
                                                          ?_fetch_parameters 0001  
                                                            ??_add_component 001E  
                                                                  ?_ms_delay 0008  
                                                                    _X_Place 006D  
                                                                    _Y_Place 0069  
                                                         ??_fetch_parameters 0008  
                                                                    __Hparam 0000  
                                                                    __Lparam 0000  
                                                            pick_and_place@i 00BF  
                                                                 _init_PORTS 316C  
                                                                 _init_USART 30C8  
                                                            __size_of_X_axis 0100  
                                                            __size_of_Y_axis 0100  
                                                                    _Rot_dir 0072  
                                                            __size_of_Z_axis 0100  
                                                            __size_of___flge 0128  
                                                                    ___fladd 0824  
                                                                    ___fldiv 1270  
                                                                    ___flneg 3086  
                                                                    ___flmul 0DCC  
                                                                    ___flsub 2FB8  
                                                                    ___fltol 22EE  
                                                            __size_of___wmul 002A  
                                                                    _Twister 2B84  
                                                                    __pcinit 2F60  
                                                                    __ramtop 0600  
                                                                    __ptext0 3196  
                                                                    __ptext1 203E  
                                                                    __ptext2 2426  
                                                                    __ptext3 2680  
                                                                    __ptext4 3108  
                                                                    __ptext5 2E22  
                                                                    __ptext6 2A8A  
                                                                    __ptext7 00E0  
                                                                    __ptext8 21B6  
                                                                    __ptext9 1C88  
                                                            __size_of_roundf 03E6  
                                                            __size_of_strlen 0042  
                                                                    _isdigit 3044  
                                                                    _memmove 2A8A  
                                                                 ??___xxtofl 000C  
                                                                    _isspace 2EA4  
                                                 __size_of_return_to_initial 0132  
                                                                    atoi@neg 0015  
                                                                    _strncat 2D9C  
                                                                    _strrchr 3108  
                                                       end_of_initialization 2FAA  
                                                        remove_component@ptr 001A  
                                                              __Lmediumconst 7D78  
                                                                 ??_ms_delay 000A  
                                                                  _RCSTAbits 000FAB  
                                                                    postdec1 000FE5  
                                                                    postinc0 000FEE  
                                                                    postinc2 000FDE  
                                                                    roundf@e 0047  
                                                                    roundf@u 004D  
                                                                    roundf@x 003B  
                                                                    roundf@y 0051  
                                                                    strlen@a 000A  
                                                                    strlen@s 0008  
                                                         add_component@F3131 00E7  
                                                                ___fladd@grs 0017  
                                                              ___xxtofl@sign 0010  
                                                  __size_of_remove_component 010A  
                                                                  _TRISBbits 000F93  
                                                                  _TRISCbits 000F94  
                                                                ___fldiv@grs 0029  
                                                                ___fldiv@rem 0022  
                                                              ?_print_string 0008  
                                                                ___flmul@grs 0015  
                                                           ?_init_interrupts 0001  
                                                                  _TXSTAbits 000FAC  
                                                                ___memrchr@c 000E  
                                                                ___memrchr@m 000C  
                                                                ___memrchr@n 0010  
                                                                ___memrchr@s 0014  
                                                   __end_of_desired_BaudRate 7D85  
                                                                ?_init_PORTS 0001  
                                                                ?_init_USART 0001  
                                                             __end_of_X_axis 2A8A  
                                                             __end_of_Y_axis 298A  
                                                             __end_of_Z_axis 288A  
                                                             __end_of___flge 2680  
                                                             __end_of___wmul 316C  
                                                              __pidataCOMRAM 31E8  
                                                             __end_of_roundf 1A88  
                                                             __end_of_strlen 3044  
                                                        start_initialization 2F60  
                                                             ??_print_string 000A  
                                                                  _X_Place_D 00A8  
                                                                  _Y_Place_D 00A6  
                                                            X_axis@direction 000E  
                                                               _Pick_Angle_D 00AA  
                                                             _Tosc@main$F552 00DF  
                                                                   ??_X_axis 000E  
                                                                   ??_Y_axis 000E  
                                                                   ??_Z_axis 000E  
                                                                   ??___flge 0037  
                                                                   ??___wmul 000C  
                                                                __pdataBANK0 00DF  
                                                             _lenth_of_array 00E9  
                                                         return_to_initial@i 0010  
                                                                   ??_roundf 003F  
                                                                   ??_strlen 000A  
                                                                  ___fladd@a 000C  
                                                                  ___fladd@b 0008  
                                                                  ___fldiv@a 001A  
                                                                  ___fldiv@b 0016  
                                                                  ___flmul@a 000C  
                                                                  ___flmul@b 0008  
                                                                __pbssCOMRAM 005D  
                                                           change_sequence@i 0011  
                                                                  ___flsub@a 001C  
                                                                  ___flsub@b 0018  
                                                              __pcstackBANK0 00BE  
                                                    __size_of_pick_and_place 0744  
                                                                  ___memrchr 2E22  
                                                          __size_of___xxtofl 01F8  
                                                        __size_of_init_PORTS 002A  
                                                        __size_of_init_USART 0040  
                                                      __end_of_start_up_menu 21B6  
                                                                  _atoi$1133 0017  
                                                                  _atoi$1134 001B  
                                                                  _atoi$1135 0019  
                                                            Z_axis@direction 000E  
                                                          __size_of_ms_delay 005C  
                                                                  __pintcode 0008  
                                                              __pmediumconst 7D78  
                                                                   ?___fladd 0008  
                                                                   ?___fldiv 0016  
                                                                   ?___flneg 0008  
                                                                   ?___flmul 0008  
                                                                   ?___flsub 0018  
                                                                   ?___fltol 0055  
                                                                   ?_Twister 0001  
                                                             Rx_char_USART@i 0006  
                                                  __size_of_fetch_parameters 0138  
                                                     __size_of_Rx_char_USART 00D4  
                                                          print_string@strng 0008  
                                                                   ?_isdigit 0008  
                                                                   ?_memmove 000C  
                                                                   ?_isspace 0008  
                                                           _remove_component 2680  
                                                             _Fosc@main$F551 7D85  
                                                                 ?___memrchr 000C  
                                                                   ?_strncat 000C  
                                                                   ?_strrchr 0016  
                                                                  _input_str 00EB  
                                                             ___wmul@product 000C  
                                                   __size_of_change_sequence 0098  
                                                                   _PIE1bits 000F9D  
                                                      __end_of_add_component 1C88  
                                                                   _PIR1bits 000F9E  
                                                                   i2u450_40 0062  
                                                                   i2u450_41 005C  
                                                                   i2u451_40 0090  
                                                                   i2u451_41 008A  
                                                                   i2u452_40 00AC  
                                                                   i2u452_41 00A6  
                                                                   i2u453_40 00BE  
                                                                   i2u453_41 00B8  
                                                                   i2u448_40 002E  
                                                                   i2u448_41 0028  
                                                                   i2u449_40 0040  
                                                                   i2u449_41 003A  
                                                       __end_of_print_string 2D04  
                                                                  _testarray 0080  
                                                          ___wmul@multiplier 0008  
                                                     __end_of_Fosc@main$F551 7D89  
                                                               _isspace$1151 000E  
                                                                  copy_data0 2F74  
                                                                   _X_Pick_D 00AE  
                                                              _Rx_char_USART 0008  
                                                                   _Y_Pick_D 00AC  
                                                                 roundf@F528 009E  
                                                                   __Hrparam 0000  
                                                               ??_init_PORTS 0008  
                                                               ??_init_USART 005D  
                                                                   __Lrparam 0000  
                                                                  memmove@d1 000C  
                                                                  memmove@s1 000E  
                                                           __size_of___fladd 05A8  
                                                           __size_of___fldiv 0432  
                                                           __size_of___flneg 0042  
                                                           __size_of___flmul 04A4  
                                                           __size_of___flsub 004A  
                                                           __size_of___fltol 0138  
                                                           __size_of_Twister 00E0  
                                                                  ms_delay@i 000A  
                                                                  ms_delay@j 000C  
                                                                   ___xxtofl 1C88  
                                                             _pick_and_place 00E0  
                                                           __size_of_isdigit 0042  
                                                           __size_of_memmove 00FA  
                                                                ??___memrchr 0012  
                                                           __size_of_isspace 0060  
                                                                   __ptext10 1270  
                                                                   __ptext11 278A  
                                                                   __ptext20 2C64  
                                                                   __ptext12 288A  
                                                                   __ptext21 1E80  
                                                                   __ptext13 298A  
                                                                   __ptext30 3086  
                                                                   __ptext22 2EA4  
                                                                   __ptext14 2B84  
                                                                   __ptext31 0DCC  
                                                                   __ptext23 3044  
                                                                   __ptext15 2F04  
                                                                   __ptext32 2558  
                                                                   __ptext24 3142  
                                                                   __ptext16 2D04  
                                                                   __ptext33 22EE  
                                                                   __ptext25 31D2  
                                                                   __ptext17 1A88  
                                                                   __ptext34 316C  
                                                                   __ptext26 30C8  
                                                                   __ptext18 2D9C  
                                                                   __ptext27 16A2  
                                                                   __ptext19 3002  
                                                                   __ptext28 2FB8  
                                                                   __ptext29 0824  
                                                         __end_of_init_PORTS 3196  
                                                         __end_of_init_USART 3108  
                                                           __size_of_strncat 0086  
                                                           __size_of_strrchr 003A  
                                                             ?_Rx_char_USART 0001  
                                                              __size_of_atoi 01BE  
                                                              __size_of_main 0022  
                                                                   _ms_delay 2F04  
                                                                   isa$xinst 000000  
                                                                   _sequence 00F5  
                                                   __size_of_init_interrupts 0014  
                                                          ??_change_sequence 000E  
                                                                   int$flags 0078  
                                                                   _rotation 00B8  
                                                           _fetch_parameters 21B6  
                                                     __end_of_pick_and_place 0824  
                                                                 _INTCONbits 000FF2  
                                                     return_to_initial@i_670 0014  
                                                     return_to_initial@i_671 0016  
                                                     return_to_initial@i_669 0012  
                                                                   isdigit@c 0008  
                                                                   memmove@d 0014  
                                                                   memmove@n 0010  
                                                                   memmove@s 0016  
                                                                   intlevel2 31E6  
                                                                   isspace@c 0008  
                                                             _displacement_X 00BC  
                                                             _displacement_Y 00BA  
                                                      __size_of_print_string 00A0  
                                                   __end_of_remove_component 278A  
                                                     pick_and_place@Componnt 00BE  
                                                            ?_pick_and_place 0001  
                                                                   strncat@d 000C  
                                                                   strncat@n 0010  
                                                                   strncat@s 000E  
                                                                   strrchr@c 0018  
                                                                   strrchr@s 0016  
                                                              ___fladd@signs 0014  
                                                            ??_Rx_char_USART 0001  
                                                               _print_string 2C64  
                                                               ___fladd@aexp 0015  
                                                               ___fladd@bexp 0016  
                                                  add_component@add_componnt 001E  
                                                             start_up_menu@i 0040  
                                                                _roundf$1404 0049  
                                                                _roundf$1405 0043  
