

Microchip MPLAB XC8 Assembler V2.32 build 20210201212658 
                                                                                               Mon Jun 28 22:19:55 2021

Microchip MPLAB XC8 C Compiler v2.32 (Free license) build 20210201212658 Og1 
     1                           	processor	18F452
     2                           	fnconf	rparam,??,?,0
     3                           	pagewidth 120
     4                           	opt	flic
     5                           	psect	idataBANK0,global,class=CODE,delta=1,noexec
     6                           	psect	mediumconst,global,reloc=2,class=MEDIUMCONST,delta=1,noexec
     7                           	psect	nvCOMRAM,global,class=COMRAM,space=1,delta=1,lowdata,noexec
     8                           	psect	cinit,global,reloc=2,class=CODE,delta=1
     9                           	psect	bssCOMRAM,global,class=COMRAM,space=1,delta=1,lowdata,noexec
    10                           	psect	bssBANK0,global,class=BANK0,space=1,delta=1,lowdata,noexec
    11                           	psect	dataBANK0,global,class=BANK0,space=1,delta=1,lowdata,noexec
    12                           	psect	cstackBANK1,global,class=BANK1,space=1,delta=1,lowdata,noexec
    13                           	psect	cstackBANK0,global,class=BANK0,space=1,delta=1,lowdata,noexec
    14                           	psect	cstackCOMRAM,global,class=COMRAM,space=1,delta=1,lowdata,noexec
    15                           	psect	text0,global,reloc=2,class=CODE,delta=1
    16                           	psect	text1,global,reloc=2,class=CODE,delta=1
    17                           	psect	text2,global,reloc=2,class=CODE,delta=1
    18                           	psect	text3,global,reloc=2,class=CODE,delta=1
    19                           	psect	text4,global,reloc=2,class=CODE,delta=1,group=2
    20                           	psect	text5,global,reloc=2,class=CODE,delta=1,group=2
    21                           	psect	text6,global,reloc=2,class=CODE,delta=1,group=2
    22                           	psect	text7,global,reloc=2,class=CODE,delta=1
    23                           	psect	text8,global,reloc=2,class=CODE,delta=1
    24                           	psect	text9,global,reloc=2,class=CODE,delta=1,group=1
    25                           	psect	text10,global,reloc=2,class=CODE,delta=1,group=1
    26                           	psect	text11,global,reloc=2,class=CODE,delta=1
    27                           	psect	text12,global,reloc=2,class=CODE,delta=1
    28                           	psect	text13,global,reloc=2,class=CODE,delta=1
    29                           	psect	text14,global,reloc=2,class=CODE,delta=1
    30                           	psect	text15,global,reloc=2,class=CODE,delta=1
    31                           	psect	text16,global,reloc=2,class=CODE,delta=1
    32                           	psect	text17,global,reloc=2,class=CODE,delta=1
    33                           	psect	text18,global,reloc=2,class=CODE,delta=1
    34                           	psect	text19,global,reloc=2,class=CODE,delta=1,group=2
    35                           	psect	text20,global,reloc=2,class=CODE,delta=1,group=2
    36                           	psect	text21,global,reloc=2,class=CODE,delta=1
    37                           	psect	text22,global,reloc=2,class=CODE,delta=1,group=2
    38                           	psect	text23,global,reloc=2,class=CODE,delta=1,group=2
    39                           	psect	text24,global,reloc=2,class=CODE,delta=1,group=2
    40                           	psect	text25,global,reloc=2,class=CODE,delta=1,group=1
    41                           	psect	text26,global,reloc=2,class=CODE,delta=1
    42                           	psect	text27,global,reloc=2,class=CODE,delta=1
    43                           	psect	text28,global,reloc=2,class=CODE,delta=1,group=2
    44                           	psect	text29,global,reloc=2,class=CODE,delta=1,group=1
    45                           	psect	text30,global,reloc=2,class=CODE,delta=1,group=1
    46                           	psect	text31,global,reloc=2,class=CODE,delta=1,group=1
    47                           	psect	text32,global,reloc=2,class=CODE,delta=1,group=1
    48                           	psect	text33,global,reloc=2,class=CODE,delta=1,group=1
    49                           	psect	text34,global,reloc=2,class=CODE,delta=1,group=1
    50                           	psect	text35,global,reloc=2,class=CODE,delta=1
    51                           	psect	text36,global,reloc=2,class=CODE,delta=1
    52                           	psect	intcode,global,reloc=2,class=CODE,delta=1
    53                           	psect	text38,global,reloc=2,class=CODE,delta=1
    54                           	psect	intsave_regs,global,class=BIGRAM,space=1,delta=1,noexec
    55                           	psect	rparam,global,class=COMRAM,space=1,delta=1,noexec
    56                           	psect	temp,global,ovrld,common,class=COMRAM,space=1,delta=1
    57                           	psect	idloc,global,abs,ovrld,class=IDLOC,space=5,delta=1,noexec
    58                           	psect	config,global,abs,ovrld,class=CONFIG,space=4,delta=1,noexec
    59  0000                     
    60                           ; Version 2.20
    61                           ; Generated 12/02/2020 GMT
    62                           ; 
    63                           ; Copyright © 2020, Microchip Technology Inc. and its subsidiaries ("Microchip")
    64                           ; All rights reserved.
    65                           ; 
    66                           ; This software is developed by Microchip Technology Inc. and its subsidiaries ("Microch
      +                          ip").
    67                           ; 
    68                           ; Redistribution and use in source and binary forms, with or without modification, are
    69                           ; permitted provided that the following conditions are met:
    70                           ; 
    71                           ;     1. Redistributions of source code must retain the above copyright notice, this lis
      +                          t of
    72                           ;        conditions and the following disclaimer.
    73                           ; 
    74                           ;     2. Redistributions in binary form must reproduce the above copyright notice, this 
      +                          list
    75                           ;        of conditions and the following disclaimer in the documentation and/or other
    76                           ;        materials provided with the distribution.
    77                           ; 
    78                           ;     3. Microchip's name may not be used to endorse or promote products derived from th
      +                          is
    79                           ;        software without specific prior written permission.
    80                           ; 
    81                           ; THIS SOFTWARE IS PROVIDED BY MICROCHIP "AS IS" AND ANY EXPRESS OR IMPLIED WARRANTIES,
    82                           ; INCLUDING, BUT NOT LIMITED TO, THE IMPLIED WARRANTIES OF MERCHANTABILITY AND FITNESS F
      +                          OR
    83                           ; PURPOSE ARE DISCLAIMED.  IN NO EVENT SHALL MICROCHIP BE LIABLE FOR ANY DIRECT, INDIREC
      +                          T,
    84                           ; INCIDENTAL, SPECIAL, EXEMPLARY, OR CONSEQUENTIAL DAMAGES (INCLUDING BUT NOT LIMITED TO
    85                           ; PROCUREMENT OF SUBSTITUTE GOODS OR SERVICES; LOSS OF USE, DATA OR PROFITS; OR BUSINESS
    86                           ; INTERRUPTION) HOWSOEVER CAUSED AND ON ANY THEORY OF LIABILITY, WHETHER IN CONTRACT, ST
      +                          RICT
    87                           ; LIABILITY, OR TORT (INCLUDING NEGLIGENCE OR OTHERWISE) ARISING IN ANY WAY OUT OF THE U
      +                          SE OF
    88                           ; THIS SOFTWARE, EVEN IF ADVISED OF THE POSSIBILITY OF SUCH DAMAGE.
    89                           ; 
    90                           ; 
    91                           ; Code-generator required, PIC18F452 Definitions
    92                           ; 
    93                           ; SFR Addresses
    94  0000                     
    95                           	psect	idataBANK0
    96  0033E6                     __pidataBANK0:
    97                           	callstack 0
    98                           
    99                           ;initializer for _Tosc@main$F791
   100  0033E6  37BD               	dw	14269
   101  0033E8  3486               	dw	13446
   102                           
   103                           ;initializer for _Tosc
   104  0033EA  37BD               	dw	14269
   105  0033EC  3486               	dw	13446
   106                           
   107                           ;initializer for add_component@F3138
   108  0033EE  20                 	db	32
   109  0033EF  00                 	db	0
   110                           
   111                           ;initializer for _lenth_of_array
   112  0033F0  001E               	dw	30
   113                           
   114                           ;initializer for _new_TMR1L@main$F823
   115  0033F2  4D                 	db	77
   116                           
   117                           ;initializer for _new_TMR1H@main$F822
   118  0033F3  FA                 	db	250
   119                           
   120                           ;initializer for _State
   121  0033F4  30                 	db	48
   122                           
   123                           ;initializer for _new_TMR1L
   124  0033F5  4D                 	db	77
   125                           
   126                           ;initializer for _new_TMR1H
   127  0033F6  FA                 	db	250
   128                           
   129                           ;initializer for _input_str
   130  0033F7  20                 	db	32
   131  0033F8  00                 	db	0
   132  0033F9  00                 	db	0
   133  0033FA  00                 	db	0
   134  0033FB  00                 	db	0
   135  0033FC  00                 	db	0
   136  0033FD  00                 	db	0
   137  0033FE  00                 	db	0
   138  0033FF  00                 	db	0
   139  003400  00                 	db	0
   140                           
   141                           ;initializer for _sequence
   142  003401  43                 	db	67
   143  003402  41                 	db	65
   144  003403  42                 	db	66
   145  003404  00                 	db	0
   146                           
   147                           	psect	mediumconst
   148  007D60                     __pmediumconst:
   149                           	callstack 0
   150  007D60  00                 	db	0
   151  007D61  0000               	dw	0
   152  007D63  4B00               	dw	19200
   153  007D65                     __end_of_toint:
   154                           	callstack 0
   155  007D65  0000               	dw	0
   156  007D67  4616               	dw	17942
   157  007D69                     __end_of_desired_BaudRate@main$F792:
   158                           	callstack 0
   159  007D69  0000               	dw	0
   160  007D6B  4616               	dw	17942
   161  007D6D                     __end_of_desired_BaudRate:
   162                           	callstack 0
   163  007D6D  2400               	dw	9216
   164  007D6F  4A74               	dw	19060
   165  007D71                     __end_of_Fosc@main$F790:
   166                           	callstack 0
   167  007D71  2400               	dw	9216
   168  007D73  4A74               	dw	19060
   169  007D75                     __end_of_Fosc:
   170                           	callstack 0
   171  007D75                     STR_1:
   172  007D75  0A                 	db	10
   173  007D76  0A                 	db	10
   174  007D77  31                 	db	49	;'1'
   175  007D78  2E                 	db	46
   176  007D79  20                 	db	32
   177  007D7A  53                 	db	83	;'S'
   178  007D7B  74                 	db	116	;'t'
   179  007D7C  61                 	db	97	;'a'
   180  007D7D  72                 	db	114	;'r'
   181  007D7E  74                 	db	116	;'t'
   182  007D7F  20                 	db	32
   183  007D80  53                 	db	83	;'S'
   184  007D81  65                 	db	101	;'e'
   185  007D82  71                 	db	113	;'q'
   186  007D83  75                 	db	117	;'u'
   187  007D84  65                 	db	101	;'e'
   188  007D85  6E                 	db	110	;'n'
   189  007D86  63                 	db	99	;'c'
   190  007D87  65                 	db	101	;'e'
   191  007D88  0A                 	db	10
   192  007D89  32                 	db	50	;'2'
   193  007D8A  2E                 	db	46
   194  007D8B  20                 	db	32
   195  007D8C  43                 	db	67	;'C'
   196  007D8D  68                 	db	104	;'h'
   197  007D8E  61                 	db	97	;'a'
   198  007D8F  6E                 	db	110	;'n'
   199  007D90  67                 	db	103	;'g'
   200  007D91  65                 	db	101	;'e'
   201  007D92  20                 	db	32
   202  007D93  73                 	db	115	;'s'
   203  007D94  65                 	db	101	;'e'
   204  007D95  71                 	db	113	;'q'
   205  007D96  75                 	db	117	;'u'
   206  007D97  65                 	db	101	;'e'
   207  007D98  6E                 	db	110	;'n'
   208  007D99  63                 	db	99	;'c'
   209  007D9A  65                 	db	101	;'e'
   210  007D9B  0A                 	db	10
   211  007D9C  33                 	db	51	;'3'
   212  007D9D  2E                 	db	46
   213  007D9E  20                 	db	32
   214  007D9F  41                 	db	65	;'A'
   215  007DA0  64                 	db	100	;'d'
   216  007DA1  64                 	db	100	;'d'
   217  007DA2  20                 	db	32
   218  007DA3  6E                 	db	110	;'n'
   219  007DA4  65                 	db	101	;'e'
   220  007DA5  77                 	db	119	;'w'
   221  007DA6  20                 	db	32
   222  007DA7  63                 	db	99	;'c'
   223  007DA8  6F                 	db	111	;'o'
   224  007DA9  6D                 	db	109	;'m'
   225  007DAA  70                 	db	112	;'p'
   226  007DAB  6F                 	db	111	;'o'
   227  007DAC  6E                 	db	110	;'n'
   228  007DAD  65                 	db	101	;'e'
   229  007DAE  6E                 	db	110	;'n'
   230  007DAF  74                 	db	116	;'t'
   231  007DB0  0A                 	db	10
   232  007DB1  34                 	db	52	;'4'
   233  007DB2  2E                 	db	46
   234  007DB3  20                 	db	32
   235  007DB4  52                 	db	82	;'R'
   236  007DB5  65                 	db	101	;'e'
   237  007DB6  6D                 	db	109	;'m'
   238  007DB7  6F                 	db	111	;'o'
   239  007DB8  76                 	db	118	;'v'
   240  007DB9  65                 	db	101	;'e'
   241  007DBA  20                 	db	32
   242  007DBB  61                 	db	97	;'a'
   243  007DBC  20                 	db	32
   244  007DBD  63                 	db	99	;'c'
   245  007DBE  6F                 	db	111	;'o'
   246  007DBF  6D                 	db	109	;'m'
   247  007DC0  70                 	db	112	;'p'
   248  007DC1  6F                 	db	111	;'o'
   249  007DC2  6E                 	db	110	;'n'
   250  007DC3  65                 	db	101	;'e'
   251  007DC4  6E                 	db	110	;'n'
   252  007DC5  74                 	db	116	;'t'
   253  007DC6  00                 	db	0
   254  007DC7                     STR_17:
   255  007DC7  0A                 	db	10
   256  007DC8  63                 	db	99	;'c'
   257  007DC9  6F                 	db	111	;'o'
   258  007DCA  6D                 	db	109	;'m'
   259  007DCB  70                 	db	112	;'p'
   260  007DCC  6F                 	db	111	;'o'
   261  007DCD  6E                 	db	110	;'n'
   262  007DCE  65                 	db	101	;'e'
   263  007DCF  6E                 	db	110	;'n'
   264  007DD0  74                 	db	116	;'t'
   265  007DD1  20                 	db	32
   266  007DD2  69                 	db	105	;'i'
   267  007DD3  73                 	db	115	;'s'
   268  007DD4  20                 	db	32
   269  007DD5  6E                 	db	110	;'n'
   270  007DD6  6F                 	db	111	;'o'
   271  007DD7  74                 	db	116	;'t'
   272  007DD8  20                 	db	32
   273  007DD9  69                 	db	105	;'i'
   274  007DDA  6E                 	db	110	;'n'
   275  007DDB  20                 	db	32
   276  007DDC  74                 	db	116	;'t'
   277  007DDD  68                 	db	104	;'h'
   278  007DDE  65                 	db	101	;'e'
   279  007DDF  20                 	db	32
   280  007DE0  73                 	db	115	;'s'
   281  007DE1  65                 	db	101	;'e'
   282  007DE2  71                 	db	113	;'q'
   283  007DE3  75                 	db	117	;'u'
   284  007DE4  65                 	db	101	;'e'
   285  007DE5  6E                 	db	110	;'n'
   286  007DE6  63                 	db	99	;'c'
   287  007DE7  65                 	db	101	;'e'
   288  007DE8  2E                 	db	46
   289  007DE9  20                 	db	32
   290  007DEA  54                 	db	84	;'T'
   291  007DEB  72                 	db	114	;'r'
   292  007DEC  79                 	db	121	;'y'
   293  007DED  20                 	db	32
   294  007DEE  73                 	db	115	;'s'
   295  007DEF  65                 	db	101	;'e'
   296  007DF0  6C                 	db	108	;'l'
   297  007DF1  65                 	db	101	;'e'
   298  007DF2  63                 	db	99	;'c'
   299  007DF3  74                 	db	116	;'t'
   300  007DF4  69                 	db	105	;'i'
   301  007DF5  6E                 	db	110	;'n'
   302  007DF6  67                 	db	103	;'g'
   303  007DF7  20                 	db	32
   304  007DF8  61                 	db	97	;'a'
   305  007DF9  6E                 	db	110	;'n'
   306  007DFA  6F                 	db	111	;'o'
   307  007DFB  74                 	db	116	;'t'
   308  007DFC  68                 	db	104	;'h'
   309  007DFD  65                 	db	101	;'e'
   310  007DFE  72                 	db	114	;'r'
   311  007DFF  20                 	db	32
   312  007E00  63                 	db	99	;'c'
   313  007E01  6F                 	db	111	;'o'
   314  007E02  6D                 	db	109	;'m'
   315  007E03  70                 	db	112	;'p'
   316  007E04  6F                 	db	111	;'o'
   317  007E05  6E                 	db	110	;'n'
   318  007E06  65                 	db	101	;'e'
   319  007E07  6E                 	db	110	;'n'
   320  007E08  74                 	db	116	;'t'
   321  007E09  3A                 	db	58	;':'
   322  007E0A  20                 	db	32
   323  007E0B  0A                 	db	10
   324  007E0C  00                 	db	0
   325  007E0D                     STR_15:
   326  007E0D  0A                 	db	10
   327  007E0E  57                 	db	87	;'W'
   328  007E0F  68                 	db	104	;'h'
   329  007E10  69                 	db	105	;'i'
   330  007E11  63                 	db	99	;'c'
   331  007E12  68                 	db	104	;'h'
   332  007E13  20                 	db	32
   333  007E14  63                 	db	99	;'c'
   334  007E15  6F                 	db	111	;'o'
   335  007E16  6D                 	db	109	;'m'
   336  007E17  70                 	db	112	;'p'
   337  007E18  6F                 	db	111	;'o'
   338  007E19  6E                 	db	110	;'n'
   339  007E1A  65                 	db	101	;'e'
   340  007E1B  6E                 	db	110	;'n'
   341  007E1C  74                 	db	116	;'t'
   342  007E1D  20                 	db	32
   343  007E1E  77                 	db	119	;'w'
   344  007E1F  6F                 	db	111	;'o'
   345  007E20  75                 	db	117	;'u'
   346  007E21  6C                 	db	108	;'l'
   347  007E22  64                 	db	100	;'d'
   348  007E23  20                 	db	32
   349  007E24  79                 	db	121	;'y'
   350  007E25  6F                 	db	111	;'o'
   351  007E26  75                 	db	117	;'u'
   352  007E27  20                 	db	32
   353  007E28  6C                 	db	108	;'l'
   354  007E29  69                 	db	105	;'i'
   355  007E2A  6B                 	db	107	;'k'
   356  007E2B  65                 	db	101	;'e'
   357  007E2C  20                 	db	32
   358  007E2D  74                 	db	116	;'t'
   359  007E2E  6F                 	db	111	;'o'
   360  007E2F  20                 	db	32
   361  007E30  72                 	db	114	;'r'
   362  007E31  65                 	db	101	;'e'
   363  007E32  6D                 	db	109	;'m'
   364  007E33  6F                 	db	111	;'o'
   365  007E34  76                 	db	118	;'v'
   366  007E35  65                 	db	101	;'e'
   367  007E36  20                 	db	32
   368  007E37  66                 	db	102	;'f'
   369  007E38  72                 	db	114	;'r'
   370  007E39  6F                 	db	111	;'o'
   371  007E3A  6D                 	db	109	;'m'
   372  007E3B  20                 	db	32
   373  007E3C  74                 	db	116	;'t'
   374  007E3D  68                 	db	104	;'h'
   375  007E3E  65                 	db	101	;'e'
   376  007E3F  20                 	db	32
   377  007E40  20                 	db	32
   378  007E41  73                 	db	115	;'s'
   379  007E42  65                 	db	101	;'e'
   380  007E43  71                 	db	113	;'q'
   381  007E44  75                 	db	117	;'u'
   382  007E45  65                 	db	101	;'e'
   383  007E46  6E                 	db	110	;'n'
   384  007E47  63                 	db	99	;'c'
   385  007E48  65                 	db	101	;'e'
   386  007E49  3F                 	db	63	;'?'
   387  007E4A  0A                 	db	10
   388  007E4B  00                 	db	0
   389  007E4C                     STR_7:
   390  007E4C  0A                 	db	10
   391  007E4D  45                 	db	69	;'E'
   392  007E4E  6E                 	db	110	;'n'
   393  007E4F  74                 	db	116	;'t'
   394  007E50  65                 	db	101	;'e'
   395  007E51  72                 	db	114	;'r'
   396  007E52  20                 	db	32
   397  007E53  74                 	db	116	;'t'
   398  007E54  68                 	db	104	;'h'
   399  007E55  65                 	db	101	;'e'
   400  007E56  20                 	db	32
   401  007E57  63                 	db	99	;'c'
   402  007E58  6F                 	db	111	;'o'
   403  007E59  6D                 	db	109	;'m'
   404  007E5A  70                 	db	112	;'p'
   405  007E5B  6F                 	db	111	;'o'
   406  007E5C  6E                 	db	110	;'n'
   407  007E5D  65                 	db	101	;'e'
   408  007E5E  6E                 	db	110	;'n'
   409  007E5F  74                 	db	116	;'t'
   410  007E60  20                 	db	32
   411  007E61  79                 	db	121	;'y'
   412  007E62  6F                 	db	111	;'o'
   413  007E63  75                 	db	117	;'u'
   414  007E64  20                 	db	32
   415  007E65  77                 	db	119	;'w'
   416  007E66  61                 	db	97	;'a'
   417  007E67  6E                 	db	110	;'n'
   418  007E68  74                 	db	116	;'t'
   419  007E69  20                 	db	32
   420  007E6A  74                 	db	116	;'t'
   421  007E6B  6F                 	db	111	;'o'
   422  007E6C  20                 	db	32
   423  007E6D  61                 	db	97	;'a'
   424  007E6E  64                 	db	100	;'d'
   425  007E6F  64                 	db	100	;'d'
   426  007E70  3A                 	db	58	;':'
   427  007E71  20                 	db	32
   428  007E72  41                 	db	65	;'A'
   429  007E73  2C                 	db	44
   430  007E74  20                 	db	32
   431  007E75  42                 	db	66	;'B'
   432  007E76  2C                 	db	44
   433  007E77  20                 	db	32
   434  007E78  43                 	db	67	;'C'
   435  007E79  20                 	db	32
   436  007E7A  6F                 	db	111	;'o'
   437  007E7B  72                 	db	114	;'r'
   438  007E7C  20                 	db	32
   439  007E7D  44                 	db	68	;'D'
   440  007E7E  3F                 	db	63	;'?'
   441  007E7F  00                 	db	0
   442  007E80                     STR_5:
   443  007E80  0A                 	db	10
   444  007E81  50                 	db	80	;'P'
   445  007E82  6C                 	db	108	;'l'
   446  007E83  65                 	db	101	;'e'
   447  007E84  61                 	db	97	;'a'
   448  007E85  73                 	db	115	;'s'
   449  007E86  65                 	db	101	;'e'
   450  007E87  20                 	db	32
   451  007E88  67                 	db	103	;'g'
   452  007E89  69                 	db	105	;'i'
   453  007E8A  76                 	db	118	;'v'
   454  007E8B  65                 	db	101	;'e'
   455  007E8C  20                 	db	32
   456  007E8D  74                 	db	116	;'t'
   457  007E8E  68                 	db	104	;'h'
   458  007E8F  65                 	db	101	;'e'
   459  007E90  20                 	db	32
   460  007E91  6E                 	db	110	;'n'
   461  007E92  65                 	db	101	;'e'
   462  007E93  77                 	db	119	;'w'
   463  007E94  20                 	db	32
   464  007E95  73                 	db	115	;'s'
   465  007E96  65                 	db	101	;'e'
   466  007E97  71                 	db	113	;'q'
   467  007E98  75                 	db	117	;'u'
   468  007E99  65                 	db	101	;'e'
   469  007E9A  6E                 	db	110	;'n'
   470  007E9B  63                 	db	99	;'c'
   471  007E9C  65                 	db	101	;'e'
   472  007E9D  20                 	db	32
   473  007E9E  61                 	db	97	;'a'
   474  007E9F  73                 	db	115	;'s'
   475  007EA0  20                 	db	32
   476  007EA1  69                 	db	105	;'i'
   477  007EA2  6E                 	db	110	;'n'
   478  007EA3  70                 	db	112	;'p'
   479  007EA4  75                 	db	117	;'u'
   480  007EA5  74                 	db	116	;'t'
   481  007EA6  0D                 	db	13
   482  007EA7  00                 	db	0
   483  007EA8                     STR_3:
   484  007EA8  0A                 	db	10
   485  007EA9  45                 	db	69	;'E'
   486  007EAA  6E                 	db	110	;'n'
   487  007EAB  74                 	db	116	;'t'
   488  007EAC  65                 	db	101	;'e'
   489  007EAD  72                 	db	114	;'r'
   490  007EAE  20                 	db	32
   491  007EAF  27                 	db	39
   492  007EB0  51                 	db	81	;'Q'
   493  007EB1  27                 	db	39
   494  007EB2  20                 	db	32
   495  007EB3  74                 	db	116	;'t'
   496  007EB4  6F                 	db	111	;'o'
   497  007EB5  20                 	db	32
   498  007EB6  65                 	db	101	;'e'
   499  007EB7  78                 	db	120	;'x'
   500  007EB8  69                 	db	105	;'i'
   501  007EB9  74                 	db	116	;'t'
   502  007EBA  20                 	db	32
   503  007EBB  74                 	db	116	;'t'
   504  007EBC  6F                 	db	111	;'o'
   505  007EBD  20                 	db	32
   506  007EBE  4D                 	db	77	;'M'
   507  007EBF  41                 	db	65	;'A'
   508  007EC0  49                 	db	73	;'I'
   509  007EC1  4E                 	db	78	;'N'
   510  007EC2  20                 	db	32
   511  007EC3  4D                 	db	77	;'M'
   512  007EC4  45                 	db	69	;'E'
   513  007EC5  4E                 	db	78	;'N'
   514  007EC6  55                 	db	85	;'U'
   515  007EC7  00                 	db	0
   516  007EC8                     STR_13:
   517  007EC8  0A                 	db	10
   518  007EC9  45                 	db	69	;'E'
   519  007ECA  6E                 	db	110	;'n'
   520  007ECB  74                 	db	116	;'t'
   521  007ECC  65                 	db	101	;'e'
   522  007ECD  72                 	db	114	;'r'
   523  007ECE  20                 	db	32
   524  007ECF  74                 	db	116	;'t'
   525  007ED0  68                 	db	104	;'h'
   526  007ED1  65                 	db	101	;'e'
   527  007ED2  20                 	db	32
   528  007ED3  70                 	db	112	;'p'
   529  007ED4  6C                 	db	108	;'l'
   530  007ED5  61                 	db	97	;'a'
   531  007ED6  63                 	db	99	;'c'
   532  007ED7  65                 	db	101	;'e'
   533  007ED8  20                 	db	32
   534  007ED9  6F                 	db	111	;'o'
   535  007EDA  72                 	db	114	;'r'
   536  007EDB  69                 	db	105	;'i'
   537  007EDC  65                 	db	101	;'e'
   538  007EDD  6E                 	db	110	;'n'
   539  007EDE  74                 	db	116	;'t'
   540  007EDF  61                 	db	97	;'a'
   541  007EE0  74                 	db	116	;'t'
   542  007EE1  69                 	db	105	;'i'
   543  007EE2  6F                 	db	111	;'o'
   544  007EE3  6E                 	db	110	;'n'
   545  007EE4  3A                 	db	58	;':'
   546  007EE5  00                 	db	0
   547  007EE6                     STR_11:
   548  007EE6  0A                 	db	10
   549  007EE7  45                 	db	69	;'E'
   550  007EE8  6E                 	db	110	;'n'
   551  007EE9  74                 	db	116	;'t'
   552  007EEA  65                 	db	101	;'e'
   553  007EEB  72                 	db	114	;'r'
   554  007EEC  20                 	db	32
   555  007EED  74                 	db	116	;'t'
   556  007EEE  68                 	db	104	;'h'
   557  007EEF  65                 	db	101	;'e'
   558  007EF0  20                 	db	32
   559  007EF1  70                 	db	112	;'p'
   560  007EF2  6C                 	db	108	;'l'
   561  007EF3  61                 	db	97	;'a'
   562  007EF4  63                 	db	99	;'c'
   563  007EF5  65                 	db	101	;'e'
   564  007EF6  20                 	db	32
   565  007EF7  70                 	db	112	;'p'
   566  007EF8  6F                 	db	111	;'o'
   567  007EF9  73                 	db	115	;'s'
   568  007EFA  69                 	db	105	;'i'
   569  007EFB  74                 	db	116	;'t'
   570  007EFC  69                 	db	105	;'i'
   571  007EFD  6F                 	db	111	;'o'
   572  007EFE  6E                 	db	110	;'n'
   573  007EFF  20                 	db	32
   574  007F00  58                 	db	88	;'X'
   575  007F01  3A                 	db	58	;':'
   576  007F02  00                 	db	0
   577  007F03                     STR_12:
   578  007F03  0A                 	db	10
   579  007F04  45                 	db	69	;'E'
   580  007F05  6E                 	db	110	;'n'
   581  007F06  74                 	db	116	;'t'
   582  007F07  65                 	db	101	;'e'
   583  007F08  72                 	db	114	;'r'
   584  007F09  20                 	db	32
   585  007F0A  74                 	db	116	;'t'
   586  007F0B  68                 	db	104	;'h'
   587  007F0C  65                 	db	101	;'e'
   588  007F0D  20                 	db	32
   589  007F0E  70                 	db	112	;'p'
   590  007F0F  6C                 	db	108	;'l'
   591  007F10  61                 	db	97	;'a'
   592  007F11  63                 	db	99	;'c'
   593  007F12  65                 	db	101	;'e'
   594  007F13  20                 	db	32
   595  007F14  70                 	db	112	;'p'
   596  007F15  6F                 	db	111	;'o'
   597  007F16  73                 	db	115	;'s'
   598  007F17  69                 	db	105	;'i'
   599  007F18  74                 	db	116	;'t'
   600  007F19  69                 	db	105	;'i'
   601  007F1A  6F                 	db	111	;'o'
   602  007F1B  6E                 	db	110	;'n'
   603  007F1C  20                 	db	32
   604  007F1D  59                 	db	89	;'Y'
   605  007F1E  3A                 	db	58	;':'
   606  007F1F  00                 	db	0
   607  007F20                     STR_10:
   608  007F20  0A                 	db	10
   609  007F21  45                 	db	69	;'E'
   610  007F22  6E                 	db	110	;'n'
   611  007F23  74                 	db	116	;'t'
   612  007F24  65                 	db	101	;'e'
   613  007F25  72                 	db	114	;'r'
   614  007F26  20                 	db	32
   615  007F27  74                 	db	116	;'t'
   616  007F28  68                 	db	104	;'h'
   617  007F29  65                 	db	101	;'e'
   618  007F2A  20                 	db	32
   619  007F2B  70                 	db	112	;'p'
   620  007F2C  69                 	db	105	;'i'
   621  007F2D  63                 	db	99	;'c'
   622  007F2E  6B                 	db	107	;'k'
   623  007F2F  20                 	db	32
   624  007F30  6F                 	db	111	;'o'
   625  007F31  72                 	db	114	;'r'
   626  007F32  69                 	db	105	;'i'
   627  007F33  65                 	db	101	;'e'
   628  007F34  6E                 	db	110	;'n'
   629  007F35  74                 	db	116	;'t'
   630  007F36  61                 	db	97	;'a'
   631  007F37  74                 	db	116	;'t'
   632  007F38  69                 	db	105	;'i'
   633  007F39  6F                 	db	111	;'o'
   634  007F3A  6E                 	db	110	;'n'
   635  007F3B  3A                 	db	58	;':'
   636  007F3C  00                 	db	0
   637  007F3D                     STR_8:
   638  007F3D  0A                 	db	10
   639  007F3E  45                 	db	69	;'E'
   640  007F3F  6E                 	db	110	;'n'
   641  007F40  74                 	db	116	;'t'
   642  007F41  65                 	db	101	;'e'
   643  007F42  72                 	db	114	;'r'
   644  007F43  20                 	db	32
   645  007F44  74                 	db	116	;'t'
   646  007F45  68                 	db	104	;'h'
   647  007F46  65                 	db	101	;'e'
   648  007F47  20                 	db	32
   649  007F48  70                 	db	112	;'p'
   650  007F49  69                 	db	105	;'i'
   651  007F4A  63                 	db	99	;'c'
   652  007F4B  6B                 	db	107	;'k'
   653  007F4C  20                 	db	32
   654  007F4D  70                 	db	112	;'p'
   655  007F4E  6F                 	db	111	;'o'
   656  007F4F  73                 	db	115	;'s'
   657  007F50  69                 	db	105	;'i'
   658  007F51  74                 	db	116	;'t'
   659  007F52  69                 	db	105	;'i'
   660  007F53  6F                 	db	111	;'o'
   661  007F54  6E                 	db	110	;'n'
   662  007F55  20                 	db	32
   663  007F56  58                 	db	88	;'X'
   664  007F57  3A                 	db	58	;':'
   665  007F58  00                 	db	0
   666  007F59                     STR_9:
   667  007F59  0A                 	db	10
   668  007F5A  45                 	db	69	;'E'
   669  007F5B  6E                 	db	110	;'n'
   670  007F5C  74                 	db	116	;'t'
   671  007F5D  65                 	db	101	;'e'
   672  007F5E  72                 	db	114	;'r'
   673  007F5F  20                 	db	32
   674  007F60  74                 	db	116	;'t'
   675  007F61  68                 	db	104	;'h'
   676  007F62  65                 	db	101	;'e'
   677  007F63  20                 	db	32
   678  007F64  70                 	db	112	;'p'
   679  007F65  69                 	db	105	;'i'
   680  007F66  63                 	db	99	;'c'
   681  007F67  6B                 	db	107	;'k'
   682  007F68  20                 	db	32
   683  007F69  70                 	db	112	;'p'
   684  007F6A  6F                 	db	111	;'o'
   685  007F6B  73                 	db	115	;'s'
   686  007F6C  69                 	db	105	;'i'
   687  007F6D  74                 	db	116	;'t'
   688  007F6E  69                 	db	105	;'i'
   689  007F6F  6F                 	db	111	;'o'
   690  007F70  6E                 	db	110	;'n'
   691  007F71  20                 	db	32
   692  007F72  59                 	db	89	;'Y'
   693  007F73  3A                 	db	58	;':'
   694  007F74  00                 	db	0
   695  007F75                     STR_4:
   696  007F75  0A                 	db	10
   697  007F76  54                 	db	84	;'T'
   698  007F77  68                 	db	104	;'h'
   699  007F78  65                 	db	101	;'e'
   700  007F79  20                 	db	32
   701  007F7A  63                 	db	99	;'c'
   702  007F7B  75                 	db	117	;'u'
   703  007F7C  72                 	db	114	;'r'
   704  007F7D  72                 	db	114	;'r'
   705  007F7E  65                 	db	101	;'e'
   706  007F7F  6E                 	db	110	;'n'
   707  007F80  74                 	db	116	;'t'
   708  007F81  20                 	db	32
   709  007F82  73                 	db	115	;'s'
   710  007F83  65                 	db	101	;'e'
   711  007F84  71                 	db	113	;'q'
   712  007F85  75                 	db	117	;'u'
   713  007F86  65                 	db	101	;'e'
   714  007F87  6E                 	db	110	;'n'
   715  007F88  63                 	db	99	;'c'
   716  007F89  65                 	db	101	;'e'
   717  007F8A  20                 	db	32
   718  007F8B  69                 	db	105	;'i'
   719  007F8C  73                 	db	115	;'s'
   720  007F8D  3A                 	db	58	;':'
   721  007F8E  20                 	db	32
   722  007F8F  00                 	db	0
   723  007F90                     STR_6:
   724  007F90  0A                 	db	10
   725  007F91  54                 	db	84	;'T'
   726  007F92  68                 	db	104	;'h'
   727  007F93  65                 	db	101	;'e'
   728  007F94  20                 	db	32
   729  007F95  43                 	db	67	;'C'
   730  007F96  75                 	db	117	;'u'
   731  007F97  72                 	db	114	;'r'
   732  007F98  72                 	db	114	;'r'
   733  007F99  65                 	db	101	;'e'
   734  007F9A  6E                 	db	110	;'n'
   735  007F9B  74                 	db	116	;'t'
   736  007F9C  20                 	db	32
   737  007F9D  73                 	db	115	;'s'
   738  007F9E  65                 	db	101	;'e'
   739  007F9F  71                 	db	113	;'q'
   740  007FA0  75                 	db	117	;'u'
   741  007FA1  65                 	db	101	;'e'
   742  007FA2  6E                 	db	110	;'n'
   743  007FA3  63                 	db	99	;'c'
   744  007FA4  65                 	db	101	;'e'
   745  007FA5  20                 	db	32
   746  007FA6  69                 	db	105	;'i'
   747  007FA7  73                 	db	115	;'s'
   748  007FA8  3A                 	db	58	;':'
   749  007FA9  00                 	db	0
   750  007FAA                     STR_18:
   751  007FAA  0A                 	db	10
   752  007FAB  43                 	db	67	;'C'
   753  007FAC  6F                 	db	111	;'o'
   754  007FAD  6D                 	db	109	;'m'
   755  007FAE  70                 	db	112	;'p'
   756  007FAF  6F                 	db	111	;'o'
   757  007FB0  6E                 	db	110	;'n'
   758  007FB1  65                 	db	101	;'e'
   759  007FB2  6E                 	db	110	;'n'
   760  007FB3  74                 	db	116	;'t'
   761  007FB4  20                 	db	32
   762  007FB5  69                 	db	105	;'i'
   763  007FB6  73                 	db	115	;'s'
   764  007FB7  20                 	db	32
   765  007FB8  6D                 	db	109	;'m'
   766  007FB9  69                 	db	105	;'i'
   767  007FBA  73                 	db	115	;'s'
   768  007FBB  73                 	db	115	;'s'
   769  007FBC  69                 	db	105	;'i'
   770  007FBD  6E                 	db	110	;'n'
   771  007FBE  67                 	db	103	;'g'
   772  007FBF  21                 	db	33
   773  007FC0  00                 	db	0
   774  007FC1                     STR_14:
   775  007FC1  0A                 	db	10
   776  007FC2  0A                 	db	10
   777  007FC3  43                 	db	67	;'C'
   778  007FC4  6F                 	db	111	;'o'
   779  007FC5  6D                 	db	109	;'m'
   780  007FC6  70                 	db	112	;'p'
   781  007FC7  6F                 	db	111	;'o'
   782  007FC8  6E                 	db	110	;'n'
   783  007FC9  65                 	db	101	;'e'
   784  007FCA  6E                 	db	110	;'n'
   785  007FCB  74                 	db	116	;'t'
   786  007FCC  20                 	db	32
   787  007FCD  41                 	db	65	;'A'
   788  007FCE  64                 	db	100	;'d'
   789  007FCF  64                 	db	100	;'d'
   790  007FD0  65                 	db	101	;'e'
   791  007FD1  64                 	db	100	;'d'
   792  007FD2  3A                 	db	58	;':'
   793  007FD3  20                 	db	32
   794  007FD4  00                 	db	0
   795  007FD5                     STR_2:
   796  007FD5  0A                 	db	10
   797  007FD6  53                 	db	83	;'S'
   798  007FD7  74                 	db	116	;'t'
   799  007FD8  61                 	db	97	;'a'
   800  007FD9  72                 	db	114	;'r'
   801  007FDA  74                 	db	116	;'t'
   802  007FDB  69                 	db	105	;'i'
   803  007FDC  6E                 	db	110	;'n'
   804  007FDD  67                 	db	103	;'g'
   805  007FDE  20                 	db	32
   806  007FDF  73                 	db	115	;'s'
   807  007FE0  65                 	db	101	;'e'
   808  007FE1  71                 	db	113	;'q'
   809  007FE2  75                 	db	117	;'u'
   810  007FE3  65                 	db	101	;'e'
   811  007FE4  6E                 	db	110	;'n'
   812  007FE5  63                 	db	99	;'c'
   813  007FE6  65                 	db	101	;'e'
   814  007FE7  3A                 	db	58	;':'
   815  007FE8  00                 	db	0
   816  007FE9                     STR_16:
   817  007FE9  0A                 	db	10
   818  007FEA  63                 	db	99	;'c'
   819  007FEB  6F                 	db	111	;'o'
   820  007FEC  6D                 	db	109	;'m'
   821  007FED  70                 	db	112	;'p'
   822  007FEE  6F                 	db	111	;'o'
   823  007FEF  6E                 	db	110	;'n'
   824  007FF0  65                 	db	101	;'e'
   825  007FF1  6E                 	db	110	;'n'
   826  007FF2  74                 	db	116	;'t'
   827  007FF3  20                 	db	32
   828  007FF4  72                 	db	114	;'r'
   829  007FF5  65                 	db	101	;'e'
   830  007FF6  6D                 	db	109	;'m'
   831  007FF7  6F                 	db	111	;'o'
   832  007FF8  76                 	db	118	;'v'
   833  007FF9  65                 	db	101	;'e'
   834  007FFA  64                 	db	100	;'d'
   835  007FFB  00                 	db	0
   836  007FFC                     STR_19:
   837  007FFC  51                 	db	81	;'Q'
   838  007FFD  00                 	db	0
   839  007FFE  00                 	db	0	; dummy byte at the end
   840  0000                     
   841                           	psect	nvCOMRAM
   842  000074                     __pnvCOMRAM:
   843                           	callstack 0
   844  000074                     _New_char_RX:
   845                           	callstack 0
   846  000074                     	ds	1
   847  0000                     _RCREG	set	4014
   848  0000                     _PORTB	set	3969
   849  0000                     _LATCbits	set	3979
   850  0000                     _TXREG	set	4013
   851  0000                     _RCSTAbits	set	4011
   852  0000                     _TXSTAbits	set	4012
   853  0000                     _SPBRG	set	4015
   854  0000                     _INTCON3bits	set	4080
   855  0000                     _INTCON3	set	4080
   856  0000                     _INTCON2	set	4081
   857  0000                     _INTCONbits	set	4082
   858  0000                     _PIE1bits	set	3997
   859  0000                     _PIR1bits	set	3998
   860  0000                     _TMR1L	set	4046
   861  0000                     _TMR1H	set	4047
   862  0000                     _T1CONbits	set	4045
   863  0000                     _TMR0L	set	4054
   864  0000                     _TMR0H	set	4055
   865  0000                     _T0CONbits	set	4053
   866  0000                     _TRISCbits	set	3988
   867  0000                     _PORTC	set	3970
   868  0000                     _LATC	set	3979
   869  0000                     _PORTD	set	3971
   870  0000                     _PORTA	set	3968
   871  0000                     _TRISB	set	3987
   872  0000                     _TRISA	set	3986
   873  0000                     _TRISD	set	3989
   874  0000                     _RCIF	set	31989
   875                           
   876                           ; #config settings
   877                           
   878                           	psect	cinit
   879  003198                     __pcinit:
   880                           	callstack 0
   881  003198                     start_initialization:
   882                           	callstack 0
   883  003198                     __initialization:
   884                           	callstack 0
   885                           
   886                           ; Initialize objects allocated to BANK0 (31 bytes)
   887                           ; load TBLPTR registers with __pidataBANK0
   888  003198  0EE6               	movlw	low __pidataBANK0
   889  00319A  6EF6               	movwf	tblptrl,c
   890  00319C  0E33               	movlw	high __pidataBANK0
   891  00319E  6EF7               	movwf	tblptrh,c
   892  0031A0  0E00               	movlw	low (__pidataBANK0 shr (0+16))
   893  0031A2  6EF8               	movwf	tblptru,c
   894  0031A4  EE00  F0C1         	lfsr	0,__pdataBANK0
   895  0031A8  EE10 F01F          	lfsr	1,31
   896  0031AC                     copy_data0:
   897  0031AC  0009               	tblrd		*+
   898  0031AE  CFF5 FFEE          	movff	tablat,postinc0
   899  0031B2  50E5               	movf	postdec1,w,c
   900  0031B4  50E1               	movf	fsr1l,w,c
   901  0031B6  E1FA               	bnz	copy_data0
   902                           
   903                           ; Clear objects allocated to BANK0 (65 bytes)
   904  0031B8  EE00  F080         	lfsr	0,__pbssBANK0
   905  0031BC  0E41               	movlw	65
   906  0031BE                     clear_0:
   907  0031BE  6AEE               	clrf	postinc0,c
   908  0031C0  06E8               	decf	wreg,f,c
   909  0031C2  E1FD               	bnz	clear_0
   910                           
   911                           ; Clear objects allocated to COMRAM (23 bytes)
   912  0031C4  EE00  F05D         	lfsr	0,__pbssCOMRAM
   913  0031C8  0E17               	movlw	23
   914  0031CA                     clear_1:
   915  0031CA  6AEE               	clrf	postinc0,c
   916  0031CC  06E8               	decf	wreg,f,c
   917  0031CE  E1FD               	bnz	clear_1
   918  0031D0                     end_of_initialization:
   919                           	callstack 0
   920  0031D0                     __end_of__initialization:
   921                           	callstack 0
   922  0031D0  9075               	bcf	int$flags,0,c	;clear compiler interrupt flag (level 1)
   923  0031D2  9275               	bcf	int$flags,1,c	;clear compiler interrupt flag (level 2)
   924  0031D4  0E00               	movlw	low (__Lmediumconst shr (0+16))
   925  0031D6  6EF8               	movwf	tblptru,c
   926  0031D8  0100               	movlb	0
   927  0031DA  EF8F  F019         	goto	_main	;jump to C main() function
   928                           
   929                           	psect	bssCOMRAM
   930  00005D                     __pbssCOMRAM:
   931                           	callstack 0
   932  00005D                     _Angle_diff:
   933                           	callstack 0
   934  00005D                     	ds	2
   935  00005F                     _Y_diff:
   936                           	callstack 0
   937  00005F                     	ds	2
   938  000061                     _X_diff:
   939                           	callstack 0
   940  000061                     	ds	2
   941  000063                     _Place_Angle:
   942                           	callstack 0
   943  000063                     	ds	2
   944  000065                     _Pick_Angle:
   945                           	callstack 0
   946  000065                     	ds	2
   947  000067                     _Y_Place:
   948                           	callstack 0
   949  000067                     	ds	2
   950  000069                     _Y_Pick:
   951                           	callstack 0
   952  000069                     	ds	2
   953  00006B                     _X_Place:
   954                           	callstack 0
   955  00006B                     	ds	2
   956  00006D                     _X_Pick:
   957                           	callstack 0
   958  00006D                     	ds	2
   959  00006F                     _Rot_dir:
   960                           	callstack 0
   961  00006F                     	ds	1
   962  000070                     _Y_dir:
   963                           	callstack 0
   964  000070                     	ds	1
   965  000071                     _X_dir:
   966                           	callstack 0
   967  000071                     	ds	1
   968  000072                     _stop:
   969                           	callstack 0
   970  000072                     	ds	1
   971  000073                     _component_present:
   972                           	callstack 0
   973  000073                     	ds	1
   974                           
   975                           	psect	bssBANK0
   976  000080                     __pbssBANK0:
   977                           	callstack 0
   978  000080                     _testarray:
   979                           	callstack 0
   980  000080                     	ds	30
   981  00009E                     roundf@F528:
   982                           	callstack 0
   983  00009E                     	ds	4
   984  0000A2                     _angle_diff:
   985                           	callstack 0
   986  0000A2                     	ds	2
   987  0000A4                     _Place_Angle_D:
   988                           	callstack 0
   989  0000A4                     	ds	2
   990  0000A6                     _Y_Place_D:
   991                           	callstack 0
   992  0000A6                     	ds	2
   993  0000A8                     _X_Place_D:
   994                           	callstack 0
   995  0000A8                     	ds	2
   996  0000AA                     _Pick_Angle_D:
   997                           	callstack 0
   998  0000AA                     	ds	2
   999  0000AC                     _Y_Pick_D:
  1000                           	callstack 0
  1001  0000AC                     	ds	2
  1002  0000AE                     _X_Pick_D:
  1003                           	callstack 0
  1004  0000AE                     	ds	2
  1005  0000B0                     _Step_Angle:
  1006                           	callstack 0
  1007  0000B0                     	ds	2
  1008  0000B2                     _Step_Z:
  1009                           	callstack 0
  1010  0000B2                     	ds	2
  1011  0000B4                     _Step_Y:
  1012                           	callstack 0
  1013  0000B4                     	ds	2
  1014  0000B6                     _Step_X:
  1015                           	callstack 0
  1016  0000B6                     	ds	2
  1017  0000B8                     _Steps:
  1018                           	callstack 0
  1019  0000B8                     	ds	2
  1020  0000BA                     _rotation:
  1021                           	callstack 0
  1022  0000BA                     	ds	2
  1023  0000BC                     _displacement_Y:
  1024                           	callstack 0
  1025  0000BC                     	ds	2
  1026  0000BE                     _displacement_X:
  1027                           	callstack 0
  1028  0000BE                     	ds	2
  1029  0000C0                     _RX_Char:
  1030                           	callstack 0
  1031  0000C0                     	ds	1
  1032                           
  1033                           	psect	dataBANK0
  1034  0000C1                     __pdataBANK0:
  1035                           	callstack 0
  1036  0000C1                     	ds	4
  1037  0000C5                     	ds	4
  1038  0000C9                     add_component@F3138:
  1039                           	callstack 0
  1040  0000C9                     	ds	2
  1041  0000CB                     _lenth_of_array:
  1042                           	callstack 0
  1043  0000CB                     	ds	2
  1044  0000CD                     _new_TMR1L@main$F823:
  1045                           	callstack 0
  1046  0000CD                     	ds	1
  1047  0000CE                     _new_TMR1H@main$F822:
  1048                           	callstack 0
  1049  0000CE                     	ds	1
  1050  0000CF                     _State:
  1051                           	callstack 0
  1052  0000CF                     	ds	1
  1053  0000D0                     	ds	1
  1054  0000D1                     	ds	1
  1055  0000D2                     _input_str:
  1056                           	callstack 0
  1057  0000D2                     	ds	10
  1058  0000DC                     _sequence:
  1059                           	callstack 0
  1060  0000DC                     	ds	4
  1061                           
  1062                           	psect	cstackBANK1
  1063  000100                     __pcstackBANK1:
  1064                           	callstack 0
  1065  000100                     pick_and_place@Componnt:
  1066                           	callstack 0
  1067                           
  1068                           ; 1 bytes @ 0x0
  1069  000100                     	ds	1
  1070  000101                     pick_and_place@j:
  1071                           	callstack 0
  1072                           
  1073                           ; 2 bytes @ 0x1
  1074  000101                     	ds	2
  1075  000103                     pick_and_place@i:
  1076                           	callstack 0
  1077                           
  1078                           ; 2 bytes @ 0x3
  1079  000103                     	ds	2
  1080  000105                     _pick_and_place$904:
  1081                           	callstack 0
  1082                           
  1083                           ; 2 bytes @ 0x5
  1084  000105                     	ds	2
  1085  000107                     pick_and_place@i_905:
  1086                           	callstack 0
  1087                           
  1088                           ; 2 bytes @ 0x7
  1089  000107                     	ds	2
  1090  000109                     _pick_and_place$907:
  1091                           	callstack 0
  1092                           
  1093                           ; 2 bytes @ 0x9
  1094  000109                     	ds	2
  1095  00010B                     pick_and_place@i_908:
  1096                           	callstack 0
  1097                           
  1098                           ; 2 bytes @ 0xB
  1099  00010B                     	ds	2
  1100  00010D                     _pick_and_place$910:
  1101                           	callstack 0
  1102                           
  1103                           ; 2 bytes @ 0xD
  1104  00010D                     	ds	2
  1105  00010F                     pick_and_place@i_913:
  1106                           	callstack 0
  1107                           
  1108                           ; 2 bytes @ 0xF
  1109  00010F                     	ds	2
  1110  000111                     pick_and_place@i_915:
  1111                           	callstack 0
  1112                           
  1113                           ; 2 bytes @ 0x11
  1114  000111                     	ds	2
  1115  000113                     pick_and_place@i_916:
  1116                           	callstack 0
  1117                           
  1118                           ; 2 bytes @ 0x13
  1119  000113                     	ds	2
  1120  000115                     _pick_and_place$917:
  1121                           	callstack 0
  1122                           
  1123                           ; 2 bytes @ 0x15
  1124  000115                     	ds	2
  1125  000117                     pick_and_place@i_918:
  1126                           	callstack 0
  1127                           
  1128                           ; 2 bytes @ 0x17
  1129  000117                     	ds	2
  1130  000119                     _pick_and_place$919:
  1131                           	callstack 0
  1132                           
  1133                           ; 2 bytes @ 0x19
  1134  000119                     	ds	2
  1135  00011B                     pick_and_place@i_920:
  1136                           	callstack 0
  1137                           
  1138                           ; 2 bytes @ 0x1B
  1139  00011B                     	ds	2
  1140  00011D                     _pick_and_place$921:
  1141                           	callstack 0
  1142                           
  1143                           ; 2 bytes @ 0x1D
  1144  00011D                     	ds	2
  1145  00011F                     pick_and_place@i_922:
  1146                           	callstack 0
  1147                           
  1148                           ; 2 bytes @ 0x1F
  1149  00011F                     	ds	2
  1150  000121                     pick_and_place@i_923:
  1151                           	callstack 0
  1152                           
  1153                           ; 2 bytes @ 0x21
  1154  000121                     	ds	2
  1155                           
  1156                           	psect	cstackBANK0
  1157  0000E0                     __pcstackBANK0:
  1158                           	callstack 0
  1159  0000E0                     ??___fltol:
  1160                           
  1161                           ; 1 bytes @ 0x0
  1162  0000E0                     	ds	4
  1163                           
  1164                           	psect	cstackCOMRAM
  1165  000001                     __pcstackCOMRAM:
  1166                           	callstack 0
  1167  000001                     set_new_pos@nTMR1L:
  1168                           	callstack 0
  1169                           
  1170                           ; 1 bytes @ 0x0
  1171  000001                     	ds	1
  1172  000002                     set_new_pos@nTMR1H:
  1173                           	callstack 0
  1174                           
  1175                           ; 1 bytes @ 0x1
  1176  000002                     	ds	1
  1177  000003                     ??_Rx_char_USART:
  1178                           
  1179                           ; 1 bytes @ 0x2
  1180  000003                     	ds	5
  1181  000008                     Rx_char_USART@i:
  1182                           	callstack 0
  1183                           
  1184                           ; 2 bytes @ 0x7
  1185  000008                     	ds	2
  1186  00000A                     ?_strlen:
  1187                           	callstack 0
  1188  00000A                     ?_isspace:
  1189                           	callstack 0
  1190  00000A                     ?_isdigit:
  1191                           	callstack 0
  1192  00000A                     ?___wmul:
  1193                           	callstack 0
  1194  00000A                     ?___fladd:
  1195                           	callstack 0
  1196  00000A                     ?___flmul:
  1197                           	callstack 0
  1198  00000A                     ?___flneg:
  1199                           	callstack 0
  1200  00000A                     ?___xxtofl:
  1201                           	callstack 0
  1202  00000A                     Tweezer@action:
  1203                           	callstack 0
  1204  00000A                     fetch_parameters@Componnt:
  1205                           	callstack 0
  1206  00000A                     print_string@strng:
  1207                           	callstack 0
  1208  00000A                     ms_delay@val:
  1209                           	callstack 0
  1210  00000A                     ___wmul@multiplier:
  1211                           	callstack 0
  1212  00000A                     isdigit@c:
  1213                           	callstack 0
  1214  00000A                     isspace@c:
  1215                           	callstack 0
  1216  00000A                     strlen@s:
  1217                           	callstack 0
  1218  00000A                     ___flneg@f1:
  1219                           	callstack 0
  1220  00000A                     ___fladd@b:
  1221                           	callstack 0
  1222  00000A                     ___flmul@b:
  1223                           	callstack 0
  1224  00000A                     ___xxtofl@val:
  1225                           	callstack 0
  1226                           
  1227                           ; 4 bytes @ 0x9
  1228  00000A                     	ds	2
  1229  00000C                     ??_isspace:
  1230  00000C                     ??_isdigit:
  1231  00000C                     ??_print_string:
  1232  00000C                     ms_delay@i:
  1233                           	callstack 0
  1234  00000C                     ___wmul@multiplicand:
  1235                           	callstack 0
  1236  00000C                     strlen@a:
  1237                           	callstack 0
  1238                           
  1239                           ; 2 bytes @ 0xB
  1240  00000C                     	ds	2
  1241  00000E                     ??___xxtofl:
  1242  00000E                     ?___memrchr:
  1243                           	callstack 0
  1244  00000E                     print_string@i:
  1245                           	callstack 0
  1246  00000E                     ms_delay@j:
  1247                           	callstack 0
  1248  00000E                     ___wmul@product:
  1249                           	callstack 0
  1250  00000E                     memmove@d1:
  1251                           	callstack 0
  1252  00000E                     strncat@d:
  1253                           	callstack 0
  1254  00000E                     ___memrchr@m:
  1255                           	callstack 0
  1256  00000E                     ___fladd@a:
  1257                           	callstack 0
  1258  00000E                     ___flmul@a:
  1259                           	callstack 0
  1260                           
  1261                           ; 4 bytes @ 0xD
  1262  00000E                     	ds	2
  1263  000010                     ??_change_sequence:
  1264  000010                     X_axis@direction:
  1265                           	callstack 0
  1266  000010                     Y_axis@direction:
  1267                           	callstack 0
  1268  000010                     Z_axis@direction:
  1269                           	callstack 0
  1270  000010                     Twister@direction:
  1271                           	callstack 0
  1272  000010                     _isspace$1409:
  1273                           	callstack 0
  1274  000010                     memmove@s1:
  1275                           	callstack 0
  1276  000010                     strncat@s:
  1277                           	callstack 0
  1278  000010                     ___memrchr@c:
  1279                           	callstack 0
  1280                           
  1281                           ; 2 bytes @ 0xF
  1282  000010                     	ds	1
  1283  000011                     ??_return_to_initial:
  1284  000011                     ?_atoi:
  1285                           	callstack 0
  1286  000011                     atoi@s:
  1287                           	callstack 0
  1288                           
  1289                           ; 2 bytes @ 0x10
  1290  000011                     	ds	1
  1291  000012                     ??___fladd:
  1292  000012                     ??___flmul:
  1293  000012                     ___xxtofl@sign:
  1294                           	callstack 0
  1295  000012                     return_to_initial@i:
  1296                           	callstack 0
  1297  000012                     memmove@n:
  1298                           	callstack 0
  1299  000012                     strncat@n:
  1300                           	callstack 0
  1301  000012                     ___memrchr@n:
  1302                           	callstack 0
  1303                           
  1304                           ; 2 bytes @ 0x11
  1305  000012                     	ds	1
  1306  000013                     ??_atoi:
  1307  000013                     ___xxtofl@exp:
  1308                           	callstack 0
  1309  000013                     change_sequence@i:
  1310                           	callstack 0
  1311                           
  1312                           ; 2 bytes @ 0x12
  1313  000013                     	ds	1
  1314  000014                     ??_memmove:
  1315  000014                     ??___memrchr:
  1316  000014                     return_to_initial@i_926:
  1317                           	callstack 0
  1318  000014                     ___xxtofl@arg:
  1319                           	callstack 0
  1320                           
  1321                           ; 4 bytes @ 0x13
  1322  000014                     	ds	2
  1323  000016                     ___fladd@signs:
  1324                           	callstack 0
  1325  000016                     ___flmul@sign:
  1326                           	callstack 0
  1327  000016                     return_to_initial@i_927:
  1328                           	callstack 0
  1329  000016                     memmove@d:
  1330                           	callstack 0
  1331  000016                     ___memrchr@s:
  1332                           	callstack 0
  1333                           
  1334                           ; 2 bytes @ 0x15
  1335  000016                     	ds	1
  1336  000017                     ___fladd@aexp:
  1337                           	callstack 0
  1338  000017                     atoi@neg:
  1339                           	callstack 0
  1340  000017                     ___flmul@grs:
  1341                           	callstack 0
  1342                           
  1343                           ; 4 bytes @ 0x16
  1344  000017                     	ds	1
  1345  000018                     ?_strrchr:
  1346                           	callstack 0
  1347  000018                     ?___fldiv:
  1348                           	callstack 0
  1349  000018                     ___fladd@bexp:
  1350                           	callstack 0
  1351  000018                     return_to_initial@i_928:
  1352                           	callstack 0
  1353  000018                     memmove@s:
  1354                           	callstack 0
  1355  000018                     strrchr@s:
  1356                           	callstack 0
  1357  000018                     ___fldiv@b:
  1358                           	callstack 0
  1359                           
  1360                           ; 4 bytes @ 0x17
  1361  000018                     	ds	1
  1362  000019                     ___fladd@grs:
  1363                           	callstack 0
  1364  000019                     _atoi$1391:
  1365                           	callstack 0
  1366                           
  1367                           ; 2 bytes @ 0x18
  1368  000019                     	ds	1
  1369  00001A                     ?___flsub:
  1370                           	callstack 0
  1371  00001A                     strrchr@c:
  1372                           	callstack 0
  1373  00001A                     ___flsub@b:
  1374                           	callstack 0
  1375                           
  1376                           ; 4 bytes @ 0x19
  1377  00001A                     	ds	1
  1378  00001B                     ___flmul@aexp:
  1379                           	callstack 0
  1380  00001B                     _atoi$1393:
  1381                           	callstack 0
  1382                           
  1383                           ; 2 bytes @ 0x1A
  1384  00001B                     	ds	1
  1385  00001C                     ___flmul@bexp:
  1386                           	callstack 0
  1387  00001C                     remove_component@ptr:
  1388                           	callstack 0
  1389  00001C                     ___fldiv@a:
  1390                           	callstack 0
  1391                           
  1392                           ; 4 bytes @ 0x1B
  1393  00001C                     	ds	1
  1394  00001D                     _atoi$1392:
  1395                           	callstack 0
  1396  00001D                     ___flmul@prod:
  1397                           	callstack 0
  1398                           
  1399                           ; 4 bytes @ 0x1C
  1400  00001D                     	ds	1
  1401  00001E                     remove_component@rm_comp:
  1402                           	callstack 0
  1403  00001E                     atoi@n:
  1404                           	callstack 0
  1405  00001E                     ___flsub@a:
  1406                           	callstack 0
  1407                           
  1408                           ; 4 bytes @ 0x1D
  1409  00001E                     	ds	1
  1410  00001F                     remove_component@indxToDel:
  1411                           	callstack 0
  1412                           
  1413                           ; 2 bytes @ 0x1E
  1414  00001F                     	ds	1
  1415  000020                     ??___fldiv:
  1416  000020                     add_component@add_componnt:
  1417                           	callstack 0
  1418                           
  1419                           ; 2 bytes @ 0x1F
  1420  000020                     	ds	1
  1421  000021                     ___flmul@temp:
  1422                           	callstack 0
  1423                           
  1424                           ; 2 bytes @ 0x20
  1425  000021                     	ds	1
  1426  000022                     
  1427                           ; 1 bytes @ 0x21
  1428  000022                     	ds	2
  1429  000024                     ___fldiv@rem:
  1430                           	callstack 0
  1431                           
  1432                           ; 4 bytes @ 0x23
  1433  000024                     	ds	4
  1434  000028                     ___fldiv@sign:
  1435                           	callstack 0
  1436                           
  1437                           ; 1 bytes @ 0x27
  1438  000028                     	ds	1
  1439  000029                     ___fldiv@new_exp:
  1440                           	callstack 0
  1441                           
  1442                           ; 2 bytes @ 0x28
  1443  000029                     	ds	2
  1444  00002B                     ___fldiv@grs:
  1445                           	callstack 0
  1446                           
  1447                           ; 4 bytes @ 0x2A
  1448  00002B                     	ds	4
  1449  00002F                     ___fldiv@bexp:
  1450                           	callstack 0
  1451                           
  1452                           ; 1 bytes @ 0x2E
  1453  00002F                     	ds	1
  1454  000030                     ___fldiv@aexp:
  1455                           	callstack 0
  1456                           
  1457                           ; 1 bytes @ 0x2F
  1458  000030                     	ds	1
  1459  000031                     ___flge@ff1:
  1460                           	callstack 0
  1461                           
  1462                           ; 4 bytes @ 0x30
  1463  000031                     	ds	4
  1464  000035                     ___flge@ff2:
  1465                           	callstack 0
  1466                           
  1467                           ; 4 bytes @ 0x34
  1468  000035                     	ds	4
  1469  000039                     ??___flge:
  1470                           
  1471                           ; 1 bytes @ 0x38
  1472  000039                     	ds	4
  1473  00003D                     ??_pick_and_place:
  1474  00003D                     ?_roundf:
  1475                           	callstack 0
  1476  00003D                     roundf@x:
  1477                           	callstack 0
  1478                           
  1479                           ; 4 bytes @ 0x3C
  1480  00003D                     	ds	2
  1481  00003F                     ??_start_up_menu:
  1482                           
  1483                           ; 1 bytes @ 0x3E
  1484  00003F                     	ds	2
  1485  000041                     ??_roundf:
  1486                           
  1487                           ; 1 bytes @ 0x40
  1488  000041                     	ds	1
  1489  000042                     start_up_menu@i:
  1490                           	callstack 0
  1491                           
  1492                           ; 2 bytes @ 0x41
  1493  000042                     	ds	3
  1494  000045                     _roundf$1666:
  1495                           	callstack 0
  1496                           
  1497                           ; 4 bytes @ 0x44
  1498  000045                     	ds	4
  1499  000049                     roundf@e:
  1500                           	callstack 0
  1501                           
  1502                           ; 2 bytes @ 0x48
  1503  000049                     	ds	2
  1504  00004B                     _roundf$1665:
  1505                           	callstack 0
  1506                           
  1507                           ; 4 bytes @ 0x4A
  1508  00004B                     	ds	4
  1509  00004F                     roundf@u:
  1510                           	callstack 0
  1511                           
  1512                           ; 4 bytes @ 0x4E
  1513  00004F                     	ds	4
  1514  000053                     roundf@y:
  1515                           	callstack 0
  1516                           
  1517                           ; 4 bytes @ 0x52
  1518  000053                     	ds	4
  1519  000057                     ?___fltol:
  1520                           	callstack 0
  1521  000057                     ___fltol@f1:
  1522                           	callstack 0
  1523                           
  1524                           ; 4 bytes @ 0x56
  1525  000057                     	ds	4
  1526  00005B                     ___fltol@sign1:
  1527                           	callstack 0
  1528                           
  1529                           ; 1 bytes @ 0x5A
  1530  00005B                     	ds	1
  1531  00005C                     ___fltol@exp1:
  1532                           	callstack 0
  1533                           
  1534                           ; 1 bytes @ 0x5B
  1535  00005C                     	ds	1
  1536  00005D                     
  1537                           ; 1 bytes @ 0x5C
  1538 ;;
  1539 ;;Main: autosize = 0, tempsize = 0, incstack = 0, save=0
  1540 ;;
  1541 ;; *************** function _main *****************
  1542 ;; Defined at:
  1543 ;;		line 198 in file "main.c"
  1544 ;; Parameters:    Size  Location     Type
  1545 ;;		None
  1546 ;; Auto vars:     Size  Location     Type
  1547 ;;		None
  1548 ;; Return value:  Size  Location     Type
  1549 ;;                  1    wreg      void 
  1550 ;; Registers used:
  1551 ;;		wreg, fsr1l, fsr1h, fsr2l, fsr2h, status,2, status,0, tblptrl, tblptrh, tblptru, prodl, prodh, cstack
  1552 ;; Tracked objects:
  1553 ;;		On entry : 0/0
  1554 ;;		On exit  : 0/0
  1555 ;;		Unchanged: 0/0
  1556 ;; Data sizes:     COMRAM   BANK0   BANK1   BANK2   BANK3   BANK4   BANK5
  1557 ;;      Params:         0       0       0       0       0       0       0
  1558 ;;      Locals:         0       0       0       0       0       0       0
  1559 ;;      Temps:          0       0       0       0       0       0       0
  1560 ;;      Totals:         0       0       0       0       0       0       0
  1561 ;;Total ram usage:        0 bytes
  1562 ;; Hardware stack levels required when called: 6
  1563 ;; This function calls:
  1564 ;;		_init_PORTS
  1565 ;;		_init_Timers
  1566 ;;		_init_USART
  1567 ;;		_init_interrupts
  1568 ;;		_start_up_menu
  1569 ;; This function is called by:
  1570 ;;		Startup code after reset
  1571 ;; This function uses a non-reentrant model
  1572 ;;
  1573                           
  1574                           	psect	text0
  1575  00331E                     __ptext0:
  1576                           	callstack 0
  1577  00331E                     _main:
  1578                           	callstack 25
  1579  00331E  FFFF               	dw	65535	; assembler added errata NOP
  1580                           
  1581                           ;main.c: 201:     init_PORTS();
  1582  003320  ECCF  F019         	call	_init_PORTS	;wreg free
  1583  003324                     
  1584                           ;main.c: 202:     init_USART();
  1585  003324  EC52  F019         	call	_init_USART	;wreg free
  1586  003328                     
  1587                           ;main.c: 203:     init_interrupts();
  1588  003328  ECE3  F019         	call	_init_interrupts	;wreg free
  1589  00332C                     
  1590                           ;main.c: 205:     init_Timers();
  1591  00332C  ECBA  F019         	call	_init_Timers	;wreg free
  1592  003330                     
  1593                           ;main.c: 207:     (INTCONbits.GIE = 1);
  1594  003330  8EF2               	bsf	242,7,c	;volatile
  1595  003332                     
  1596                           ;main.c: 208:     T0CONbits.TMR0ON = 1;
  1597  003332  8ED5               	bsf	213,7,c	;volatile
  1598  003334                     
  1599                           ;main.c: 209:  T1CONbits.TMR1ON = 1;
  1600  003334  80CD               	bsf	205,0,c	;volatile
  1601  003336                     
  1602                           ;main.c: 210:  LATCbits.LC2 = 1;
  1603  003336  848B               	bsf	139,2,c	;volatile
  1604  003338                     l5217:
  1605  003338  FFFF               	dw	65535	; assembler added errata NOP
  1606                           
  1607                           ;main.c: 213:         New_char_RX=0;
  1608  00333A  0E00               	movlw	0
  1609  00333C  6E74               	movwf	_New_char_RX^0,c
  1610  00333E                     
  1611                           ;main.c: 214:         start_up_menu();
  1612  00333E  ECDB  F010         	call	_start_up_menu	;wreg free
  1613  003342  EF9C  F019         	goto	l5217
  1614  003346  EFCD  F000         	goto	start
  1615  00334A                     __end_of_main:
  1616                           	callstack 0
  1617                           
  1618 ;; *************** function _start_up_menu *****************
  1619 ;; Defined at:
  1620 ;;		line 222 in file "main.c"
  1621 ;; Parameters:    Size  Location     Type
  1622 ;;		None
  1623 ;; Auto vars:     Size  Location     Type
  1624 ;;  i               2   65[COMRAM] int 
  1625 ;; Return value:  Size  Location     Type
  1626 ;;                  1    wreg      void 
  1627 ;; Registers used:
  1628 ;;		wreg, fsr1l, fsr1h, fsr2l, fsr2h, status,2, status,0, tblptrl, tblptrh, tblptru, prodl, prodh, cstack
  1629 ;; Tracked objects:
  1630 ;;		On entry : 0/0
  1631 ;;		On exit  : 0/0
  1632 ;;		Unchanged: 0/0
  1633 ;; Data sizes:     COMRAM   BANK0   BANK1   BANK2   BANK3   BANK4   BANK5
  1634 ;;      Params:         0       0       0       0       0       0       0
  1635 ;;      Locals:         2       0       0       0       0       0       0
  1636 ;;      Temps:          3       0       0       0       0       0       0
  1637 ;;      Totals:         5       0       0       0       0       0       0
  1638 ;;Total ram usage:        5 bytes
  1639 ;; Hardware stack levels used: 1
  1640 ;; Hardware stack levels required when called: 5
  1641 ;; This function calls:
  1642 ;;		_add_component
  1643 ;;		_change_sequence
  1644 ;;		_pick_and_place
  1645 ;;		_print_string
  1646 ;;		_remove_component
  1647 ;;		_return_to_initial
  1648 ;; This function is called by:
  1649 ;;		_main
  1650 ;; This function uses a non-reentrant model
  1651 ;;
  1652                           
  1653                           	psect	text1
  1654  0021B6                     __ptext1:
  1655                           	callstack 0
  1656  0021B6                     _start_up_menu:
  1657                           	callstack 0
  1658  0021B6  FFFF               	dw	65535	; assembler added errata NOP
  1659  0021B8                     
  1660                           ;main.c: 224:     print_string("\n\n1. Start Sequence\n2. Change sequence\n3. Add new co
      +                          mponent\n4. Remove a component");
  1661  0021B8  0E75               	movlw	low STR_1
  1662  0021BA  6E0A               	movwf	print_string@strng^0,c
  1663  0021BC  0E7D               	movlw	high STR_1
  1664  0021BE  6E0B               	movwf	(print_string@strng+1)^0,c
  1665  0021C0  ECF3  F016         	call	_print_string	;wreg free
  1666  0021C4                     l5163:
  1667  0021C4  FFFF               	dw	65535	; assembler added errata NOP
  1668                           
  1669                           ;main.c: 227:         if(New_char_RX){
  1670  0021C6  5074               	movf	_New_char_RX^0,w,c
  1671  0021C8  B4D8               	btfsc	status,2,c
  1672  0021CA  EFE9  F010         	goto	u6201
  1673  0021CE  EFEC  F010         	goto	u6200
  1674  0021D2                     u6201:
  1675  0021D2  FFFF               	dw	65535	; assembler added errata NOP
  1676  0021D4  EFE2  F010         	goto	l5163
  1677  0021D8                     u6200:
  1678  0021D8  FFFF               	dw	65535	; assembler added errata NOP
  1679  0021DA                     
  1680                           ;main.c: 228:             New_char_RX=0;
  1681  0021DA  0E00               	movlw	0
  1682  0021DC  6E74               	movwf	_New_char_RX^0,c
  1683                           
  1684                           ;main.c: 229:             switch(State){
  1685  0021DE  EF70  F011         	goto	l5193
  1686  0021E2                     l5167:
  1687  0021E2  FFFF               	dw	65535	; assembler added errata NOP
  1688                           
  1689                           ; BSR set to: 0
  1690                           ;main.c: 231:                     print_string("\nStarting sequence:");
  1691  0021E4  0ED5               	movlw	low STR_2
  1692  0021E6  6E0A               	movwf	print_string@strng^0,c
  1693  0021E8  0E7F               	movlw	high STR_2
  1694  0021EA  6E0B               	movwf	(print_string@strng+1)^0,c
  1695  0021EC  ECF3  F016         	call	_print_string	;wreg free
  1696                           
  1697                           ;main.c: 232:                     print_string(sequence);
  1698  0021F0  0EDC               	movlw	low _sequence
  1699  0021F2  6E0A               	movwf	print_string@strng^0,c
  1700  0021F4  0E00               	movlw	high _sequence
  1701  0021F6  6E0B               	movwf	(print_string@strng+1)^0,c
  1702  0021F8  ECF3  F016         	call	_print_string	;wreg free
  1703                           
  1704                           ;main.c: 233:                     print_string("\nEnter 'Q' to exit to MAIN MENU");
  1705  0021FC  0EA8               	movlw	low STR_3
  1706  0021FE  6E0A               	movwf	print_string@strng^0,c
  1707  002200  0E7E               	movlw	high STR_3
  1708  002202  6E0B               	movwf	(print_string@strng+1)^0,c
  1709  002204  ECF3  F016         	call	_print_string	;wreg free
  1710  002208                     
  1711                           ;main.c: 234:                     return_to_initial();
  1712  002208  EC98  F011         	call	_return_to_initial	;wreg free
  1713                           
  1714                           ;main.c: 235:                     while(!New_char_RX && !stop){
  1715  00220C  EF43  F011         	goto	l5179
  1716  002210                     l5171:
  1717  002210  FFFF               	dw	65535	; assembler added errata NOP
  1718                           
  1719                           ;main.c: 236:                         int i =0;
  1720  002212  0E00               	movlw	0
  1721  002214  6E43               	movwf	(start_up_menu@i+1)^0,c
  1722  002216  0E00               	movlw	0
  1723  002218  6E42               	movwf	start_up_menu@i^0,c
  1724                           
  1725                           ;main.c: 237:                         X_diff=0;
  1726  00221A  0E00               	movlw	0
  1727  00221C  6E62               	movwf	(_X_diff+1)^0,c
  1728  00221E  0E00               	movlw	0
  1729  002220  6E61               	movwf	_X_diff^0,c
  1730                           
  1731                           ;main.c: 238:                         Y_diff=0;
  1732  002222  0E00               	movlw	0
  1733  002224  6E60               	movwf	(_Y_diff+1)^0,c
  1734  002226  0E00               	movlw	0
  1735  002228  6E5F               	movwf	_Y_diff^0,c
  1736                           
  1737                           ;main.c: 239:                         Angle_diff=0;
  1738  00222A  0E00               	movlw	0
  1739  00222C  6E5E               	movwf	(_Angle_diff+1)^0,c
  1740  00222E  0E00               	movlw	0
  1741  002230  6E5D               	movwf	_Angle_diff^0,c
  1742  002232                     l5173:
  1743  002232  FFFF               	dw	65535	; assembler added errata NOP
  1744                           
  1745                           ;main.c: 242:                             pick_and_place(sequence[i]);
  1746  002234  0EDC               	movlw	low _sequence
  1747  002236  2442               	addwf	start_up_menu@i^0,w,c
  1748  002238  6ED9               	movwf	fsr2l,c
  1749  00223A  0E00               	movlw	high _sequence
  1750  00223C  2043               	addwfc	(start_up_menu@i+1)^0,w,c
  1751  00223E  6EDA               	movwf	fsr2h,c
  1752  002240  50DF               	movf	indf2,w,c
  1753  002242  ECCF  F000         	call	_pick_and_place
  1754  002246                     
  1755                           ;main.c: 243:                         }while(!stop && sequence[i++]!='\n');
  1756  002246  5072               	movf	_stop^0,w,c
  1757  002248  A4D8               	btfss	status,2,c
  1758  00224A  EF29  F011         	goto	u6211
  1759  00224E  EF2C  F011         	goto	u6210
  1760  002252                     u6211:
  1761  002252  FFFF               	dw	65535	; assembler added errata NOP
  1762  002254  EF43  F011         	goto	l5179
  1763  002258                     u6210:
  1764  002258  FFFF               	dw	65535	; assembler added errata NOP
  1765  00225A  5042               	movf	start_up_menu@i^0,w,c
  1766  00225C  6E3F               	movwf	??_start_up_menu^0,c
  1767  00225E  5043               	movf	(start_up_menu@i+1)^0,w,c
  1768  002260  6E40               	movwf	(??_start_up_menu+1)^0,c
  1769  002262  4A42               	infsnz	start_up_menu@i^0,f,c
  1770  002264  2A43               	incf	(start_up_menu@i+1)^0,f,c
  1771  002266  0EDC               	movlw	low _sequence
  1772  002268  243F               	addwf	??_start_up_menu^0,w,c
  1773  00226A  6ED9               	movwf	fsr2l,c
  1774  00226C  0E00               	movlw	high _sequence
  1775  00226E  2040               	addwfc	(??_start_up_menu+1)^0,w,c
  1776  002270  6EDA               	movwf	fsr2h,c
  1777  002272  0E0A               	movlw	10
  1778  002274  18DE               	xorwf	postinc2,w,c
  1779  002276  A4D8               	btfss	status,2,c
  1780  002278  EF40  F011         	goto	u6221
  1781  00227C  EF43  F011         	goto	u6220
  1782  002280                     u6221:
  1783  002280  FFFF               	dw	65535	; assembler added errata NOP
  1784  002282  EF19  F011         	goto	l5173
  1785  002286                     u6220:
  1786  002286                     l5179:
  1787  002286  FFFF               	dw	65535	; assembler added errata NOP
  1788                           
  1789                           ;main.c: 235:                     while(!New_char_RX && !stop){
  1790  002288  5074               	movf	_New_char_RX^0,w,c
  1791  00228A  A4D8               	btfss	status,2,c
  1792  00228C  EF4A  F011         	goto	u6231
  1793  002290  EF4D  F011         	goto	u6230
  1794  002294                     u6231:
  1795  002294  FFFF               	dw	65535	; assembler added errata NOP
  1796  002296  EF94  F011         	goto	l259
  1797  00229A                     u6230:
  1798  00229A  FFFF               	dw	65535	; assembler added errata NOP
  1799  00229C  5072               	movf	_stop^0,w,c
  1800  00229E  B4D8               	btfsc	status,2,c
  1801  0022A0  EF54  F011         	goto	u6241
  1802  0022A4  EF57  F011         	goto	u6240
  1803  0022A8                     u6241:
  1804  0022A8  FFFF               	dw	65535	; assembler added errata NOP
  1805  0022AA  EF08  F011         	goto	l5171
  1806  0022AE                     u6240:
  1807  0022AE  FFFF               	dw	65535	; assembler added errata NOP
  1808  0022B0  EF95  F011         	goto	l266
  1809  0022B4                     l5183:
  1810  0022B4  FFFF               	dw	65535	; assembler added errata NOP
  1811                           
  1812                           ; BSR set to: 0
  1813                           ;main.c: 248:                     change_sequence();
  1814  0022B6  EC43  F017         	call	_change_sequence	;wreg free
  1815                           
  1816                           ;main.c: 250:                     break;
  1817  0022BA  EF95  F011         	goto	l266
  1818  0022BE                     l5185:
  1819  0022BE  FFFF               	dw	65535	; assembler added errata NOP
  1820                           
  1821                           ; BSR set to: 0
  1822                           ;main.c: 253:                     add_component();
  1823  0022C0  ECFF  F00D         	call	_add_component	;wreg free
  1824                           
  1825                           ;main.c: 255:                     break;
  1826  0022C4  EF95  F011         	goto	l266
  1827  0022C8                     l5187:
  1828  0022C8  FFFF               	dw	65535	; assembler added errata NOP
  1829                           
  1830                           ; BSR set to: 0
  1831                           ;main.c: 258:                     remove_component();
  1832  0022CA  EC01  F014         	call	_remove_component	;wreg free
  1833                           
  1834                           ;main.c: 260:                     break;
  1835  0022CE  EF95  F011         	goto	l266
  1836  0022D2                     l5189:
  1837  0022D2  FFFF               	dw	65535	; assembler added errata NOP
  1838                           
  1839                           ; BSR set to: 0
  1840                           ;main.c: 263:                     New_char_RX=0;
  1841  0022D4  0E00               	movlw	0
  1842  0022D6  6E74               	movwf	_New_char_RX^0,c
  1843                           
  1844                           ;main.c: 264:                     stop=0;
  1845  0022D8  0E00               	movlw	0
  1846  0022DA  6E72               	movwf	_stop^0,c
  1847                           
  1848                           ;main.c: 265:                     break;
  1849  0022DC  EF95  F011         	goto	l266
  1850  0022E0                     l5193:
  1851  0022E0  FFFF               	dw	65535	; assembler added errata NOP
  1852  0022E2  0100               	movlb	0	; () banked
  1853  0022E4  51CF               	movf	_State& (0+255),w,b
  1854  0022E6  6E3F               	movwf	??_start_up_menu^0,c
  1855  0022E8  6A40               	clrf	(??_start_up_menu+1)^0,c
  1856                           
  1857                           ; Switch on 2 bytes has been partitioned into a top level switch of size 1, and 1 sub-sw
      +                          itches
  1858                           ; Switch size 1, requested type "simple"
  1859                           ; Number of cases is 1, Range of values is 0 to 0
  1860                           ; switch strategies available:
  1861                           ; Name         Instructions Cycles
  1862                           ; simple_byte            4     3 (average)
  1863                           ;	Chosen strategy is simple_byte
  1864  0022EA  5040               	movf	(??_start_up_menu+1)^0,w,c
  1865  0022EC  0A00               	xorlw	0	; case 0
  1866  0022EE  B4D8               	btfsc	status,2,c
  1867  0022F0  EF7C  F011         	goto	l5295
  1868  0022F4  EF95  F011         	goto	l266
  1869  0022F8                     l5295:
  1870  0022F8  FFFF               	dw	65535	; assembler added errata NOP
  1871                           
  1872                           ; BSR set to: 0
  1873                           ; Switch size 1, requested type "simple"
  1874                           ; Number of cases is 5, Range of values is 49 to 81
  1875                           ; switch strategies available:
  1876                           ; Name         Instructions Cycles
  1877                           ; simple_byte           16     9 (average)
  1878                           ;	Chosen strategy is simple_byte
  1879  0022FA  503F               	movf	??_start_up_menu^0,w,c
  1880  0022FC  0A31               	xorlw	49	; case 49
  1881  0022FE  B4D8               	btfsc	status,2,c
  1882  002300  EFF1  F010         	goto	l5167
  1883  002304  0A03               	xorlw	3	; case 50
  1884  002306  B4D8               	btfsc	status,2,c
  1885  002308  EF5A  F011         	goto	l5183
  1886  00230C  0A01               	xorlw	1	; case 51
  1887  00230E  B4D8               	btfsc	status,2,c
  1888  002310  EF5F  F011         	goto	l5185
  1889  002314  0A07               	xorlw	7	; case 52
  1890  002316  B4D8               	btfsc	status,2,c
  1891  002318  EF64  F011         	goto	l5187
  1892  00231C  0A65               	xorlw	101	; case 81
  1893  00231E  B4D8               	btfsc	status,2,c
  1894  002320  EF69  F011         	goto	l5189
  1895  002324  EF95  F011         	goto	l266
  1896  002328                     l259:
  1897  002328  FFFF               	dw	65535	; assembler added errata NOP
  1898  00232A                     l266:
  1899  00232A  FFFF               	dw	65535	; assembler added errata NOP
  1900  00232C  0012               	return		;funcret
  1901  00232E  FFFF               	dw	65535	; errata NOP
  1902  002330                     __end_of_start_up_menu:
  1903                           	callstack 0
  1904                           
  1905 ;; *************** function _return_to_initial *****************
  1906 ;; Defined at:
  1907 ;;		line 681 in file "main.c"
  1908 ;; Parameters:    Size  Location     Type
  1909 ;;		None
  1910 ;; Auto vars:     Size  Location     Type
  1911 ;;  i               2   23[COMRAM] int 
  1912 ;;  i               2   21[COMRAM] int 
  1913 ;;  i               2   19[COMRAM] int 
  1914 ;;  i               2   17[COMRAM] int 
  1915 ;; Return value:  Size  Location     Type
  1916 ;;                  1    wreg      void 
  1917 ;; Registers used:
  1918 ;;		wreg, status,2, status,0, cstack
  1919 ;; Tracked objects:
  1920 ;;		On entry : 0/0
  1921 ;;		On exit  : 0/0
  1922 ;;		Unchanged: 0/0
  1923 ;; Data sizes:     COMRAM   BANK0   BANK1   BANK2   BANK3   BANK4   BANK5
  1924 ;;      Params:         0       0       0       0       0       0       0
  1925 ;;      Locals:         8       0       0       0       0       0       0
  1926 ;;      Temps:          1       0       0       0       0       0       0
  1927 ;;      Totals:         9       0       0       0       0       0       0
  1928 ;;Total ram usage:        9 bytes
  1929 ;; Hardware stack levels used: 1
  1930 ;; Hardware stack levels required when called: 4
  1931 ;; This function calls:
  1932 ;;		_Twister
  1933 ;;		_X_axis
  1934 ;;		_Y_axis
  1935 ;;		_Z_axis
  1936 ;; This function is called by:
  1937 ;;		_start_up_menu
  1938 ;; This function uses a non-reentrant model
  1939 ;;
  1940                           
  1941                           	psect	text2
  1942  002330                     __ptext2:
  1943                           	callstack 0
  1944  002330                     _return_to_initial:
  1945                           	callstack 0
  1946  002330  FFFF               	dw	65535	; assembler added errata NOP
  1947  002332                     
  1948                           ;main.c: 683:     New_char_RX=0;
  1949  002332  0E00               	movlw	0
  1950  002334  6E74               	movwf	_New_char_RX^0,c
  1951                           
  1952                           ;main.c: 684:     stop=0;
  1953  002336  0E00               	movlw	0
  1954  002338  6E72               	movwf	_stop^0,c
  1955  00233A                     
  1956                           ;main.c: 685:     Steps=Step_X;
  1957  00233A  C0B6  F0B8         	movff	_Step_X,_Steps
  1958  00233E  C0B7  F0B9         	movff	_Step_X+1,_Steps+1
  1959                           
  1960                           ;main.c: 686:     for(int i = 0; i<Steps; i++){X_axis(0);}
  1961  002342  0E00               	movlw	0
  1962  002344  6E13               	movwf	(return_to_initial@i+1)^0,c
  1963  002346  0E00               	movlw	0
  1964  002348  6E12               	movwf	return_to_initial@i^0,c
  1965  00234A  EFAD  F011         	goto	l4779
  1966  00234E                     l4775:
  1967  00234E  FFFF               	dw	65535	; assembler added errata NOP
  1968                           
  1969                           ; BSR set to: 0
  1970  002350  0E00               	movlw	0
  1971  002352  EC86  F015         	call	_X_axis
  1972  002356  4A12               	infsnz	return_to_initial@i^0,f,c
  1973  002358  2A13               	incf	(return_to_initial@i+1)^0,f,c
  1974  00235A                     l4779:
  1975  00235A  FFFF               	dw	65535	; assembler added errata NOP
  1976  00235C  0100               	movlb	0	; () banked
  1977  00235E  51B8               	movf	_Steps& (0+255),w,b
  1978  002360  5C12               	subwf	return_to_initial@i^0,w,c
  1979  002362  5013               	movf	(return_to_initial@i+1)^0,w,c
  1980  002364  0A80               	xorlw	128
  1981  002366  6E11               	movwf	??_return_to_initial^0,c
  1982  002368  51B9               	movf	(_Steps+1)& (0+255),w,b
  1983  00236A  0A80               	xorlw	128
  1984  00236C  5811               	subwfb	??_return_to_initial^0,w,c
  1985  00236E  A0D8               	btfss	status,0,c
  1986  002370  EFBC  F011         	goto	u5531
  1987  002374  EFBF  F011         	goto	u5530
  1988  002378                     u5531:
  1989  002378  FFFF               	dw	65535	; assembler added errata NOP
  1990  00237A  EFA7  F011         	goto	l4775
  1991  00237E                     u5530:
  1992  00237E  FFFF               	dw	65535	; assembler added errata NOP
  1993  002380                     
  1994                           ; BSR set to: 0
  1995                           ;main.c: 687:     Steps=Step_Y;
  1996  002380  C0B4  F0B8         	movff	_Step_Y,_Steps
  1997  002384  C0B5  F0B9         	movff	_Step_Y+1,_Steps+1
  1998  002388                     
  1999                           ; BSR set to: 0
  2000                           ;main.c: 688:     for(int i = 0; i<Steps; i++){Y_axis(0);}
  2001  002388  0E00               	movlw	0
  2002  00238A  6E15               	movwf	(return_to_initial@i_926+1)^0,c
  2003  00238C  0E00               	movlw	0
  2004  00238E  6E14               	movwf	return_to_initial@i_926^0,c
  2005  002390  EFD0  F011         	goto	l4787
  2006  002394                     l4783:
  2007  002394  FFFF               	dw	65535	; assembler added errata NOP
  2008                           
  2009                           ; BSR set to: 0
  2010  002396  0E00               	movlw	0
  2011  002398  EC06  F015         	call	_Y_axis
  2012  00239C  4A14               	infsnz	return_to_initial@i_926^0,f,c
  2013  00239E  2A15               	incf	(return_to_initial@i_926+1)^0,f,c
  2014  0023A0                     l4787:
  2015  0023A0  FFFF               	dw	65535	; assembler added errata NOP
  2016  0023A2  0100               	movlb	0	; () banked
  2017  0023A4  51B8               	movf	_Steps& (0+255),w,b
  2018  0023A6  5C14               	subwf	return_to_initial@i_926^0,w,c
  2019  0023A8  5015               	movf	(return_to_initial@i_926+1)^0,w,c
  2020  0023AA  0A80               	xorlw	128
  2021  0023AC  6E11               	movwf	??_return_to_initial^0,c
  2022  0023AE  51B9               	movf	(_Steps+1)& (0+255),w,b
  2023  0023B0  0A80               	xorlw	128
  2024  0023B2  5811               	subwfb	??_return_to_initial^0,w,c
  2025  0023B4  A0D8               	btfss	status,0,c
  2026  0023B6  EFDF  F011         	goto	u5541
  2027  0023BA  EFE2  F011         	goto	u5540
  2028  0023BE                     u5541:
  2029  0023BE  FFFF               	dw	65535	; assembler added errata NOP
  2030  0023C0  EFCA  F011         	goto	l4783
  2031  0023C4                     u5540:
  2032  0023C4  FFFF               	dw	65535	; assembler added errata NOP
  2033  0023C6                     
  2034                           ; BSR set to: 0
  2035                           ;main.c: 689:     Steps=Step_Angle;
  2036  0023C6  C0B0  F0B8         	movff	_Step_Angle,_Steps
  2037  0023CA  C0B1  F0B9         	movff	_Step_Angle+1,_Steps+1
  2038  0023CE                     
  2039                           ; BSR set to: 0
  2040                           ;main.c: 690:     for(int i = 0; i<Steps; i++){Twister(0);}
  2041  0023CE  0E00               	movlw	0
  2042  0023D0  6E17               	movwf	(return_to_initial@i_927+1)^0,c
  2043  0023D2  0E00               	movlw	0
  2044  0023D4  6E16               	movwf	return_to_initial@i_927^0,c
  2045  0023D6  EFF3  F011         	goto	l4795
  2046  0023DA                     l4791:
  2047  0023DA  FFFF               	dw	65535	; assembler added errata NOP
  2048                           
  2049                           ; BSR set to: 0
  2050  0023DC  0E00               	movlw	0
  2051  0023DE  EC83  F016         	call	_Twister
  2052  0023E2  4A16               	infsnz	return_to_initial@i_927^0,f,c
  2053  0023E4  2A17               	incf	(return_to_initial@i_927+1)^0,f,c
  2054  0023E6                     l4795:
  2055  0023E6  FFFF               	dw	65535	; assembler added errata NOP
  2056  0023E8  0100               	movlb	0	; () banked
  2057  0023EA  51B8               	movf	_Steps& (0+255),w,b
  2058  0023EC  5C16               	subwf	return_to_initial@i_927^0,w,c
  2059  0023EE  5017               	movf	(return_to_initial@i_927+1)^0,w,c
  2060  0023F0  0A80               	xorlw	128
  2061  0023F2  6E11               	movwf	??_return_to_initial^0,c
  2062  0023F4  51B9               	movf	(_Steps+1)& (0+255),w,b
  2063  0023F6  0A80               	xorlw	128
  2064  0023F8  5811               	subwfb	??_return_to_initial^0,w,c
  2065  0023FA  A0D8               	btfss	status,0,c
  2066  0023FC  EF02  F012         	goto	u5551
  2067  002400  EF05  F012         	goto	u5550
  2068  002404                     u5551:
  2069  002404  FFFF               	dw	65535	; assembler added errata NOP
  2070  002406  EFED  F011         	goto	l4791
  2071  00240A                     u5550:
  2072  00240A  FFFF               	dw	65535	; assembler added errata NOP
  2073  00240C                     
  2074                           ; BSR set to: 0
  2075                           ;main.c: 691:     Steps=Step_Z;
  2076  00240C  C0B2  F0B8         	movff	_Step_Z,_Steps
  2077  002410  C0B3  F0B9         	movff	_Step_Z+1,_Steps+1
  2078  002414                     
  2079                           ; BSR set to: 0
  2080                           ;main.c: 692:     for(int i=0; i<Steps && !stop; i++){Z_axis(0);}
  2081  002414  0E00               	movlw	0
  2082  002416  6E19               	movwf	(return_to_initial@i_928+1)^0,c
  2083  002418  0E00               	movlw	0
  2084  00241A  6E18               	movwf	return_to_initial@i_928^0,c
  2085  00241C  EF16  F012         	goto	l4803
  2086  002420                     l4799:
  2087  002420  FFFF               	dw	65535	; assembler added errata NOP
  2088                           
  2089                           ; BSR set to: 0
  2090  002422  0E00               	movlw	0
  2091  002424  EC86  F014         	call	_Z_axis
  2092  002428  4A18               	infsnz	return_to_initial@i_928^0,f,c
  2093  00242A  2A19               	incf	(return_to_initial@i_928+1)^0,f,c
  2094  00242C                     l4803:
  2095  00242C  FFFF               	dw	65535	; assembler added errata NOP
  2096  00242E  0100               	movlb	0	; () banked
  2097  002430  51B8               	movf	_Steps& (0+255),w,b
  2098  002432  5C18               	subwf	return_to_initial@i_928^0,w,c
  2099  002434  5019               	movf	(return_to_initial@i_928+1)^0,w,c
  2100  002436  0A80               	xorlw	128
  2101  002438  6E11               	movwf	??_return_to_initial^0,c
  2102  00243A  51B9               	movf	(_Steps+1)& (0+255),w,b
  2103  00243C  0A80               	xorlw	128
  2104  00243E  5811               	subwfb	??_return_to_initial^0,w,c
  2105  002440  B0D8               	btfsc	status,0,c
  2106  002442  EF25  F012         	goto	u5561
  2107  002446  EF28  F012         	goto	u5560
  2108  00244A                     u5561:
  2109  00244A  FFFF               	dw	65535	; assembler added errata NOP
  2110  00244C  EF32  F012         	goto	l481
  2111  002450                     u5560:
  2112  002450  FFFF               	dw	65535	; assembler added errata NOP
  2113  002452                     
  2114                           ; BSR set to: 0
  2115  002452  5072               	movf	_stop^0,w,c
  2116  002454  B4D8               	btfsc	status,2,c
  2117  002456  EF2F  F012         	goto	u5571
  2118  00245A  EF32  F012         	goto	u5570
  2119  00245E                     u5571:
  2120  00245E  FFFF               	dw	65535	; assembler added errata NOP
  2121  002460  EF10  F012         	goto	l4799
  2122  002464                     u5570:
  2123  002464                     l481:
  2124  002464  FFFF               	dw	65535	; assembler added errata NOP
  2125                           
  2126                           ; BSR set to: 0
  2127  002466  0012               	return		;funcret
  2128  002468  FFFF               	dw	65535	; errata NOP
  2129  00246A                     __end_of_return_to_initial:
  2130                           	callstack 0
  2131                           
  2132 ;; *************** function _remove_component *****************
  2133 ;; Defined at:
  2134 ;;		line 361 in file "main.c"
  2135 ;; Parameters:    Size  Location     Type
  2136 ;;		None
  2137 ;; Auto vars:     Size  Location     Type
  2138 ;;  indxToDel       2   30[COMRAM] int 
  2139 ;;  ptr             2   27[COMRAM] PTR unsigned char 
  2140 ;;		 -> sequence(4), NULL(0), 
  2141 ;;  rm_comp         1   29[COMRAM] unsigned char 
  2142 ;; Return value:  Size  Location     Type
  2143 ;;                  1    wreg      void 
  2144 ;; Registers used:
  2145 ;;		wreg, fsr1l, fsr1h, fsr2l, fsr2h, status,2, status,0, tblptrl, tblptrh, tblptru, cstack
  2146 ;; Tracked objects:
  2147 ;;		On entry : 0/0
  2148 ;;		On exit  : 0/0
  2149 ;;		Unchanged: 0/0
  2150 ;; Data sizes:     COMRAM   BANK0   BANK1   BANK2   BANK3   BANK4   BANK5
  2151 ;;      Params:         0       0       0       0       0       0       0
  2152 ;;      Locals:         5       0       0       0       0       0       0
  2153 ;;      Temps:          0       0       0       0       0       0       0
  2154 ;;      Totals:         5       0       0       0       0       0       0
  2155 ;;Total ram usage:        5 bytes
  2156 ;; Hardware stack levels used: 1
  2157 ;; Hardware stack levels required when called: 4
  2158 ;; This function calls:
  2159 ;;		_memmove
  2160 ;;		_print_string
  2161 ;;		_strlen
  2162 ;;		_strrchr
  2163 ;; This function is called by:
  2164 ;;		_start_up_menu
  2165 ;; This function uses a non-reentrant model
  2166 ;;
  2167                           
  2168                           	psect	text3
  2169  002802                     __ptext3:
  2170                           	callstack 0
  2171  002802                     _remove_component:
  2172                           	callstack 0
  2173  002802  FFFF               	dw	65535	; assembler added errata NOP
  2174  002804                     
  2175                           ;main.c: 362:     print_string("\nWhich component would you like to remove from the  seq
      +                          uence?\n");
  2176  002804  0E0D               	movlw	low STR_15
  2177  002806  6E0A               	movwf	print_string@strng^0,c
  2178  002808  0E7E               	movlw	high STR_15
  2179  00280A  6E0B               	movwf	(print_string@strng+1)^0,c
  2180  00280C  ECF3  F016         	call	_print_string	;wreg free
  2181                           
  2182                           ;main.c: 363:     print_string(sequence);
  2183  002810  0EDC               	movlw	low _sequence
  2184  002812  6E0A               	movwf	print_string@strng^0,c
  2185  002814  0E00               	movlw	high _sequence
  2186  002816  6E0B               	movwf	(print_string@strng+1)^0,c
  2187  002818  ECF3  F016         	call	_print_string	;wreg free
  2188  00281C                     l5069:
  2189  00281C  FFFF               	dw	65535	; assembler added errata NOP
  2190                           
  2191                           ;main.c: 365:         if(New_char_RX){
  2192  00281E  5074               	movf	_New_char_RX^0,w,c
  2193  002820  B4D8               	btfsc	status,2,c
  2194  002822  EF15  F014         	goto	u6091
  2195  002826  EF18  F014         	goto	u6090
  2196  00282A                     u6091:
  2197  00282A  FFFF               	dw	65535	; assembler added errata NOP
  2198  00282C  EF0E  F014         	goto	l5069
  2199  002830                     u6090:
  2200  002830  FFFF               	dw	65535	; assembler added errata NOP
  2201  002832                     
  2202                           ;main.c: 366:             New_char_RX=0;
  2203  002832  0E00               	movlw	0
  2204  002834  6E74               	movwf	_New_char_RX^0,c
  2205  002836                     
  2206                           ;main.c: 367:             char rm_comp = input_str[0];
  2207  002836  C0D2  F01E         	movff	_input_str,remove_component@rm_comp	;volatile
  2208  00283A                     
  2209                           ;main.c: 368:             char *ptr;;main.c: 369:             int indxToDel;;main.c: 370
      +                          :             ptr=strrchr(sequence,rm_comp);
  2210  00283A  0EDC               	movlw	low _sequence
  2211  00283C  6E18               	movwf	strrchr@s^0,c
  2212  00283E  0E00               	movlw	high _sequence
  2213  002840  6E19               	movwf	(strrchr@s+1)^0,c
  2214  002842  C01E  F01A         	movff	remove_component@rm_comp,strrchr@c
  2215  002846  6A1B               	clrf	(strrchr@c+1)^0,c
  2216  002848  EC72  F019         	call	_strrchr	;wreg free
  2217  00284C  C018  F01C         	movff	?_strrchr,remove_component@ptr
  2218  002850  C019  F01D         	movff	?_strrchr+1,remove_component@ptr+1
  2219  002854                     
  2220                           ;main.c: 372:             if (rm_comp=='Q'){
  2221  002854  0E51               	movlw	81
  2222  002856  181E               	xorwf	remove_component@rm_comp^0,w,c
  2223  002858  A4D8               	btfss	status,2,c
  2224  00285A  EF31  F014         	goto	u6101
  2225  00285E  EF34  F014         	goto	u6100
  2226  002862                     u6101:
  2227  002862  FFFF               	dw	65535	; assembler added errata NOP
  2228  002864  EF37  F014         	goto	l5083
  2229  002868                     u6100:
  2230  002868  FFFF               	dw	65535	; assembler added errata NOP
  2231  00286A  EF81  F014         	goto	l5099
  2232  00286E                     l5083:
  2233  00286E  FFFF               	dw	65535	; assembler added errata NOP
  2234  002870  501C               	movf	remove_component@ptr^0,w,c
  2235  002872  101D               	iorwf	(remove_component@ptr+1)^0,w,c
  2236  002874  B4D8               	btfsc	status,2,c
  2237  002876  EF3F  F014         	goto	u6111
  2238  00287A  EF42  F014         	goto	u6110
  2239  00287E                     u6111:
  2240  00287E  FFFF               	dw	65535	; assembler added errata NOP
  2241  002880  EF6D  F014         	goto	l5095
  2242  002884                     u6110:
  2243  002884  FFFF               	dw	65535	; assembler added errata NOP
  2244  002886                     
  2245                           ;main.c: 376:                 indxToDel = ptr - sequence;
  2246  002886  0EDC               	movlw	low _sequence
  2247  002888  5C1C               	subwf	remove_component@ptr^0,w,c
  2248  00288A  6E1F               	movwf	remove_component@indxToDel^0,c
  2249  00288C  0E00               	movlw	high _sequence
  2250  00288E  581D               	subwfb	(remove_component@ptr+1)^0,w,c
  2251  002890  6E20               	movwf	(remove_component@indxToDel+1)^0,c
  2252  002892                     
  2253                           ;main.c: 377:                 memmove(&sequence[indxToDel], &sequence[indxToDel + 1], st
      +                          rlen(sequence) - indxToDel);
  2254  002892  0EDC               	movlw	low _sequence
  2255  002894  241F               	addwf	remove_component@indxToDel^0,w,c
  2256  002896  6E0E               	movwf	memmove@d1^0,c
  2257  002898  0E00               	movlw	high _sequence
  2258  00289A  2020               	addwfc	(remove_component@indxToDel+1)^0,w,c
  2259  00289C  6E0F               	movwf	(memmove@d1+1)^0,c
  2260  00289E  0EDD               	movlw	low (_sequence+1)
  2261  0028A0  241F               	addwf	remove_component@indxToDel^0,w,c
  2262  0028A2  6E10               	movwf	memmove@s1^0,c
  2263  0028A4  0E00               	movlw	high (_sequence+1)
  2264  0028A6  2020               	addwfc	(remove_component@indxToDel+1)^0,w,c
  2265  0028A8  6E11               	movwf	(memmove@s1+1)^0,c
  2266  0028AA  0EDC               	movlw	low _sequence
  2267  0028AC  6E0A               	movwf	strlen@s^0,c
  2268  0028AE  0E00               	movlw	high _sequence
  2269  0028B0  6E0B               	movwf	(strlen@s+1)^0,c
  2270  0028B2  ECEF  F018         	call	_strlen	;wreg free
  2271  0028B6  501F               	movf	remove_component@indxToDel^0,w,c
  2272  0028B8  5C0A               	subwf	?_strlen^0,w,c
  2273  0028BA  6E12               	movwf	memmove@n^0,c
  2274  0028BC  5020               	movf	(remove_component@indxToDel+1)^0,w,c
  2275  0028BE  580B               	subwfb	(?_strlen+1)^0,w,c
  2276  0028C0  6E13               	movwf	(memmove@n+1)^0,c
  2277  0028C2  EC06  F016         	call	_memmove	;wreg free
  2278  0028C6                     
  2279                           ;main.c: 378:                 print_string("\ncomponent removed");
  2280  0028C6  0EE9               	movlw	low STR_16
  2281  0028C8  6E0A               	movwf	print_string@strng^0,c
  2282  0028CA  0E7F               	movlw	high STR_16
  2283  0028CC  6E0B               	movwf	(print_string@strng+1)^0,c
  2284  0028CE  ECF3  F016         	call	_print_string	;wreg free
  2285  0028D2                     
  2286                           ;main.c: 379:                 stop=0;
  2287  0028D2  0E00               	movlw	0
  2288  0028D4  6E72               	movwf	_stop^0,c
  2289                           
  2290                           ;main.c: 380:                 break;
  2291  0028D6  EF81  F014         	goto	l5099
  2292  0028DA                     l5095:
  2293  0028DA  FFFF               	dw	65535	; assembler added errata NOP
  2294                           
  2295                           ;main.c: 384:                 print_string("\ncomponent is not in the sequence. Try sele
      +                          cting another component: \n");
  2296  0028DC  0EC7               	movlw	low STR_17
  2297  0028DE  6E0A               	movwf	print_string@strng^0,c
  2298  0028E0  0E7D               	movlw	high STR_17
  2299  0028E2  6E0B               	movwf	(print_string@strng+1)^0,c
  2300  0028E4  ECF3  F016         	call	_print_string	;wreg free
  2301  0028E8                     l5097:
  2302  0028E8  FFFF               	dw	65535	; assembler added errata NOP
  2303  0028EA  5074               	movf	_New_char_RX^0,w,c
  2304  0028EC  B4D8               	btfsc	status,2,c
  2305  0028EE  EF7B  F014         	goto	u6121
  2306  0028F2  EF7E  F014         	goto	u6120
  2307  0028F6                     u6121:
  2308  0028F6  FFFF               	dw	65535	; assembler added errata NOP
  2309  0028F8  EF74  F014         	goto	l5097
  2310  0028FC                     u6120:
  2311  0028FC  FFFF               	dw	65535	; assembler added errata NOP
  2312  0028FE  EF0E  F014         	goto	l5069
  2313  002902                     l5099:
  2314  002902  FFFF               	dw	65535	; assembler added errata NOP
  2315                           
  2316                           ;main.c: 389:     New_char_RX=0;
  2317  002904  0E00               	movlw	0
  2318  002906  6E74               	movwf	_New_char_RX^0,c
  2319  002908  0012               	return		;funcret
  2320  00290A  FFFF               	dw	65535	; errata NOP
  2321  00290C                     __end_of_remove_component:
  2322                           	callstack 0
  2323                           
  2324 ;; *************** function _strrchr *****************
  2325 ;; Defined at:
  2326 ;;		line 5 in file "/opt/microchip/xc8/v2.32/pic/sources/c99/common/strrchr.c"
  2327 ;; Parameters:    Size  Location     Type
  2328 ;;  s               2   23[COMRAM] PTR const unsigned char 
  2329 ;;		 -> sequence(4), 
  2330 ;;  c               2   25[COMRAM] int 
  2331 ;; Auto vars:     Size  Location     Type
  2332 ;;		None
  2333 ;; Return value:  Size  Location     Type
  2334 ;;                  2   23[COMRAM] PTR unsigned char 
  2335 ;; Registers used:
  2336 ;;		wreg, fsr2l, fsr2h, status,2, status,0, cstack
  2337 ;; Tracked objects:
  2338 ;;		On entry : 0/0
  2339 ;;		On exit  : 0/0
  2340 ;;		Unchanged: 0/0
  2341 ;; Data sizes:     COMRAM   BANK0   BANK1   BANK2   BANK3   BANK4   BANK5
  2342 ;;      Params:         4       0       0       0       0       0       0
  2343 ;;      Locals:         0       0       0       0       0       0       0
  2344 ;;      Temps:          0       0       0       0       0       0       0
  2345 ;;      Totals:         4       0       0       0       0       0       0
  2346 ;;Total ram usage:        4 bytes
  2347 ;; Hardware stack levels used: 1
  2348 ;; Hardware stack levels required when called: 3
  2349 ;; This function calls:
  2350 ;;		___memrchr
  2351 ;;		_strlen
  2352 ;; This function is called by:
  2353 ;;		_remove_component
  2354 ;; This function uses a non-reentrant model
  2355 ;;
  2356                           
  2357                           	psect	text4
  2358  0032E4                     __ptext4:
  2359                           	callstack 0
  2360  0032E4                     _strrchr:
  2361                           	callstack 0
  2362  0032E4  FFFF               	dw	65535	; assembler added errata NOP
  2363  0032E6  C018  F00E         	movff	strrchr@s,___memrchr@m
  2364  0032EA  C019  F00F         	movff	strrchr@s+1,___memrchr@m+1
  2365  0032EE  C01A  F010         	movff	strrchr@c,___memrchr@c
  2366  0032F2  C01B  F011         	movff	strrchr@c+1,___memrchr@c+1
  2367  0032F6  C018  F00A         	movff	strrchr@s,strlen@s
  2368  0032FA  C019  F00B         	movff	strrchr@s+1,strlen@s+1
  2369  0032FE  ECEF  F018         	call	_strlen	;wreg free
  2370  003302  0E01               	movlw	1
  2371  003304  240A               	addwf	?_strlen^0,w,c
  2372  003306  6E12               	movwf	___memrchr@n^0,c
  2373  003308  0E00               	movlw	0
  2374  00330A  200B               	addwfc	(?_strlen+1)^0,w,c
  2375  00330C  6E13               	movwf	(___memrchr@n+1)^0,c
  2376  00330E  ECD2  F017         	call	___memrchr	;wreg free
  2377  003312  C00E  F018         	movff	?___memrchr,?_strrchr
  2378  003316  C00F  F019         	movff	?___memrchr+1,?_strrchr+1
  2379  00331A  0012               	return		;funcret
  2380  00331C  FFFF               	dw	65535	; errata NOP
  2381  00331E                     __end_of_strrchr:
  2382                           	callstack 0
  2383                           
  2384 ;; *************** function ___memrchr *****************
  2385 ;; Defined at:
  2386 ;;		line 4 in file "/opt/microchip/xc8/v2.32/pic/sources/c99/common/memrchr.c"
  2387 ;; Parameters:    Size  Location     Type
  2388 ;;  m               2   13[COMRAM] PTR const void 
  2389 ;;		 -> sequence(4), 
  2390 ;;  c               2   15[COMRAM] int 
  2391 ;;  n               2   17[COMRAM] unsigned int 
  2392 ;; Auto vars:     Size  Location     Type
  2393 ;;  s               2   21[COMRAM] PTR const unsigned char 
  2394 ;;		 -> sequence(4), 
  2395 ;; Return value:  Size  Location     Type
  2396 ;;                  2   13[COMRAM] PTR void 
  2397 ;; Registers used:
  2398 ;;		wreg, fsr2l, fsr2h, status,2, status,0
  2399 ;; Tracked objects:
  2400 ;;		On entry : 0/0
  2401 ;;		On exit  : 0/0
  2402 ;;		Unchanged: 0/0
  2403 ;; Data sizes:     COMRAM   BANK0   BANK1   BANK2   BANK3   BANK4   BANK5
  2404 ;;      Params:         6       0       0       0       0       0       0
  2405 ;;      Locals:         2       0       0       0       0       0       0
  2406 ;;      Temps:          2       0       0       0       0       0       0
  2407 ;;      Totals:        10       0       0       0       0       0       0
  2408 ;;Total ram usage:       10 bytes
  2409 ;; Hardware stack levels used: 1
  2410 ;; Hardware stack levels required when called: 2
  2411 ;; This function calls:
  2412 ;;		Nothing
  2413 ;; This function is called by:
  2414 ;;		_strrchr
  2415 ;; This function uses a non-reentrant model
  2416 ;;
  2417                           
  2418                           	psect	text5
  2419  002FA4                     __ptext5:
  2420                           	callstack 0
  2421  002FA4                     ___memrchr:
  2422                           	callstack 0
  2423  002FA4  FFFF               	dw	65535	; assembler added errata NOP
  2424  002FA6  C00E  F016         	movff	___memrchr@m,___memrchr@s
  2425  002FAA  C00F  F017         	movff	___memrchr@m+1,___memrchr@s+1
  2426  002FAE  C010  F010         	movff	___memrchr@c,___memrchr@c
  2427  002FB2  6A11               	clrf	(___memrchr@c+1)^0,c
  2428  002FB4  EFFC  F017         	goto	l3061
  2429  002FB8                     l3055:
  2430  002FB8  FFFF               	dw	65535	; assembler added errata NOP
  2431  002FBA  5012               	movf	___memrchr@n^0,w,c
  2432  002FBC  2416               	addwf	___memrchr@s^0,w,c
  2433  002FBE  6ED9               	movwf	fsr2l,c
  2434  002FC0  5013               	movf	(___memrchr@n+1)^0,w,c
  2435  002FC2  2017               	addwfc	(___memrchr@s+1)^0,w,c
  2436  002FC4  6EDA               	movwf	fsr2h,c
  2437  002FC6  50DF               	movf	indf2,w,c
  2438  002FC8  6E14               	movwf	??___memrchr^0,c
  2439  002FCA  6A15               	clrf	(??___memrchr+1)^0,c
  2440  002FCC  5010               	movf	___memrchr@c^0,w,c
  2441  002FCE  1814               	xorwf	??___memrchr^0,w,c
  2442  002FD0  E107               	bnz	u2871
  2443  002FD2  5011               	movf	(___memrchr@c+1)^0,w,c
  2444  002FD4  1815               	xorwf	(??___memrchr+1)^0,w,c
  2445  002FD6  A4D8               	btfss	status,2,c
  2446  002FD8  EFF0  F017         	goto	u2871
  2447  002FDC  EFF3  F017         	goto	u2870
  2448  002FE0                     u2871:
  2449  002FE0  FFFF               	dw	65535	; assembler added errata NOP
  2450  002FE2  EFFC  F017         	goto	l3061
  2451  002FE6                     u2870:
  2452  002FE6  FFFF               	dw	65535	; assembler added errata NOP
  2453  002FE8  5012               	movf	___memrchr@n^0,w,c
  2454  002FEA  2416               	addwf	___memrchr@s^0,w,c
  2455  002FEC  6E0E               	movwf	?___memrchr^0,c
  2456  002FEE  5013               	movf	(___memrchr@n+1)^0,w,c
  2457  002FF0  2017               	addwfc	(___memrchr@s+1)^0,w,c
  2458  002FF2  6E0F               	movwf	(?___memrchr+1)^0,c
  2459  002FF4  EF10  F018         	goto	l1280
  2460  002FF8                     l3061:
  2461  002FF8  FFFF               	dw	65535	; assembler added errata NOP
  2462  002FFA  0612               	decf	___memrchr@n^0,f,c
  2463  002FFC  A0D8               	btfss	status,0,c
  2464  002FFE  0613               	decf	(___memrchr@n+1)^0,f,c
  2465  003000  2812               	incf	___memrchr@n^0,w,c
  2466  003002  E106               	bnz	u2881
  2467  003004  2813               	incf	(___memrchr@n+1)^0,w,c
  2468  003006  A4D8               	btfss	status,2,c
  2469  003008  EF08  F018         	goto	u2881
  2470  00300C  EF0B  F018         	goto	u2880
  2471  003010                     u2881:
  2472  003010  FFFF               	dw	65535	; assembler added errata NOP
  2473  003012  EFDC  F017         	goto	l3055
  2474  003016                     u2880:
  2475  003016  FFFF               	dw	65535	; assembler added errata NOP
  2476  003018  0E00               	movlw	0
  2477  00301A  6E0E               	movwf	?___memrchr^0,c
  2478  00301C  0E00               	movlw	0
  2479  00301E  6E0F               	movwf	(?___memrchr+1)^0,c
  2480  003020                     l1280:
  2481  003020  FFFF               	dw	65535	; assembler added errata NOP
  2482  003022  0012               	return		;funcret
  2483  003024  FFFF               	dw	65535	; errata NOP
  2484  003026                     __end_of___memrchr:
  2485                           	callstack 0
  2486                           
  2487 ;; *************** function _memmove *****************
  2488 ;; Defined at:
  2489 ;;		line 4 in file "/opt/microchip/xc8/v2.32/pic/sources/c99/common/memmove.c"
  2490 ;; Parameters:    Size  Location     Type
  2491 ;;  d1              2   13[COMRAM] PTR void 
  2492 ;;		 -> sequence(4), 
  2493 ;;  s1              2   15[COMRAM] PTR const void 
  2494 ;;		 -> sequence(4), 
  2495 ;;  n               2   17[COMRAM] unsigned int 
  2496 ;; Auto vars:     Size  Location     Type
  2497 ;;  s               2   23[COMRAM] PTR const unsigned char 
  2498 ;;		 -> sequence(4), 
  2499 ;;  d               2   21[COMRAM] PTR unsigned char 
  2500 ;;		 -> sequence(4), 
  2501 ;; Return value:  Size  Location     Type
  2502 ;;                  2   13[COMRAM] PTR void 
  2503 ;; Registers used:
  2504 ;;		wreg, fsr1l, fsr1h, fsr2l, fsr2h, status,2, status,0
  2505 ;; Tracked objects:
  2506 ;;		On entry : 0/0
  2507 ;;		On exit  : 0/0
  2508 ;;		Unchanged: 0/0
  2509 ;; Data sizes:     COMRAM   BANK0   BANK1   BANK2   BANK3   BANK4   BANK5
  2510 ;;      Params:         6       0       0       0       0       0       0
  2511 ;;      Locals:         4       0       0       0       0       0       0
  2512 ;;      Temps:          2       0       0       0       0       0       0
  2513 ;;      Totals:        12       0       0       0       0       0       0
  2514 ;;Total ram usage:       12 bytes
  2515 ;; Hardware stack levels used: 1
  2516 ;; Hardware stack levels required when called: 2
  2517 ;; This function calls:
  2518 ;;		Nothing
  2519 ;; This function is called by:
  2520 ;;		_remove_component
  2521 ;; This function uses a non-reentrant model
  2522 ;;
  2523                           
  2524                           	psect	text6
  2525  002C0C                     __ptext6:
  2526                           	callstack 0
  2527  002C0C                     _memmove:
  2528                           	callstack 0
  2529  002C0C  FFFF               	dw	65535	; assembler added errata NOP
  2530  002C0E  C010  F018         	movff	memmove@s1,memmove@s
  2531  002C12  C011  F019         	movff	memmove@s1+1,memmove@s+1
  2532  002C16  C00E  F016         	movff	memmove@d1,memmove@d
  2533  002C1A  C00F  F017         	movff	memmove@d1+1,memmove@d+1
  2534  002C1E  5016               	movf	memmove@d^0,w,c
  2535  002C20  5C18               	subwf	memmove@s^0,w,c
  2536  002C22  5017               	movf	(memmove@d+1)^0,w,c
  2537  002C24  5819               	subwfb	(memmove@s+1)^0,w,c
  2538  002C26  B0D8               	btfsc	status,0,c
  2539  002C28  EF18  F016         	goto	u3021
  2540  002C2C  EF1B  F016         	goto	u3020
  2541  002C30                     u3021:
  2542  002C30  FFFF               	dw	65535	; assembler added errata NOP
  2543  002C32  EF58  F016         	goto	l3153
  2544  002C36                     u3020:
  2545  002C36  FFFF               	dw	65535	; assembler added errata NOP
  2546  002C38  5012               	movf	memmove@n^0,w,c
  2547  002C3A  2418               	addwf	memmove@s^0,w,c
  2548  002C3C  6E14               	movwf	??_memmove^0,c
  2549  002C3E  5013               	movf	(memmove@n+1)^0,w,c
  2550  002C40  2019               	addwfc	(memmove@s+1)^0,w,c
  2551  002C42  6E15               	movwf	(??_memmove+1)^0,c
  2552  002C44  5014               	movf	??_memmove^0,w,c
  2553  002C46  5C16               	subwf	memmove@d^0,w,c
  2554  002C48  5015               	movf	(??_memmove+1)^0,w,c
  2555  002C4A  5817               	subwfb	(memmove@d+1)^0,w,c
  2556  002C4C  B0D8               	btfsc	status,0,c
  2557  002C4E  EF2B  F016         	goto	u3031
  2558  002C52  EF2E  F016         	goto	u3030
  2559  002C56                     u3031:
  2560  002C56  FFFF               	dw	65535	; assembler added errata NOP
  2561  002C58  EF58  F016         	goto	l3153
  2562  002C5C                     u3030:
  2563  002C5C  FFFF               	dw	65535	; assembler added errata NOP
  2564  002C5E  5012               	movf	memmove@n^0,w,c
  2565  002C60  2618               	addwf	memmove@s^0,f,c
  2566  002C62  5013               	movf	(memmove@n+1)^0,w,c
  2567  002C64  2219               	addwfc	(memmove@s+1)^0,f,c
  2568  002C66  5012               	movf	memmove@n^0,w,c
  2569  002C68  2616               	addwf	memmove@d^0,f,c
  2570  002C6A  5013               	movf	(memmove@n+1)^0,w,c
  2571  002C6C  2217               	addwfc	(memmove@d+1)^0,f,c
  2572  002C6E                     l3149:
  2573  002C6E  FFFF               	dw	65535	; assembler added errata NOP
  2574  002C70  0618               	decf	memmove@s^0,f,c
  2575  002C72  A0D8               	btfss	status,0,c
  2576  002C74  0619               	decf	(memmove@s+1)^0,f,c
  2577  002C76  C018  FFD9         	movff	memmove@s,fsr2l
  2578  002C7A  C019  FFDA         	movff	memmove@s+1,fsr2h
  2579  002C7E  0616               	decf	memmove@d^0,f,c
  2580  002C80  A0D8               	btfss	status,0,c
  2581  002C82  0617               	decf	(memmove@d+1)^0,f,c
  2582  002C84  C016  FFE1         	movff	memmove@d,fsr1l
  2583  002C88  C017  FFE2         	movff	memmove@d+1,fsr1h
  2584  002C8C  CFDF FFE7          	movff	indf2,indf1
  2585  002C90  0612               	decf	memmove@n^0,f,c
  2586  002C92  A0D8               	btfss	status,0,c
  2587  002C94  0613               	decf	(memmove@n+1)^0,f,c
  2588  002C96  5012               	movf	memmove@n^0,w,c
  2589  002C98  1013               	iorwf	(memmove@n+1)^0,w,c
  2590  002C9A  A4D8               	btfss	status,2,c
  2591  002C9C  EF52  F016         	goto	u3041
  2592  002CA0  EF55  F016         	goto	u3040
  2593  002CA4                     u3041:
  2594  002CA4  FFFF               	dw	65535	; assembler added errata NOP
  2595  002CA6  EF37  F016         	goto	l3149
  2596  002CAA                     u3040:
  2597  002CAA  FFFF               	dw	65535	; assembler added errata NOP
  2598  002CAC  EF80  F016         	goto	l1236
  2599  002CB0                     l3153:
  2600  002CB0  FFFF               	dw	65535	; assembler added errata NOP
  2601  002CB2  5012               	movf	memmove@n^0,w,c
  2602  002CB4  1013               	iorwf	(memmove@n+1)^0,w,c
  2603  002CB6  B4D8               	btfsc	status,2,c
  2604  002CB8  EF60  F016         	goto	u3051
  2605  002CBC  EF63  F016         	goto	u3050
  2606  002CC0                     u3051:
  2607  002CC0  FFFF               	dw	65535	; assembler added errata NOP
  2608  002CC2  EF80  F016         	goto	l1236
  2609  002CC6                     u3050:
  2610  002CC6  FFFF               	dw	65535	; assembler added errata NOP
  2611  002CC8                     l3155:
  2612  002CC8  FFFF               	dw	65535	; assembler added errata NOP
  2613  002CCA  C018  FFD9         	movff	memmove@s,fsr2l
  2614  002CCE  C019  FFDA         	movff	memmove@s+1,fsr2h
  2615  002CD2  C016  FFE1         	movff	memmove@d,fsr1l
  2616  002CD6  C017  FFE2         	movff	memmove@d+1,fsr1h
  2617  002CDA  CFDF FFE7          	movff	indf2,indf1
  2618  002CDE  4A18               	infsnz	memmove@s^0,f,c
  2619  002CE0  2A19               	incf	(memmove@s+1)^0,f,c
  2620  002CE2  4A16               	infsnz	memmove@d^0,f,c
  2621  002CE4  2A17               	incf	(memmove@d+1)^0,f,c
  2622  002CE6  0612               	decf	memmove@n^0,f,c
  2623  002CE8  A0D8               	btfss	status,0,c
  2624  002CEA  0613               	decf	(memmove@n+1)^0,f,c
  2625  002CEC  5012               	movf	memmove@n^0,w,c
  2626  002CEE  1013               	iorwf	(memmove@n+1)^0,w,c
  2627  002CF0  A4D8               	btfss	status,2,c
  2628  002CF2  EF7D  F016         	goto	u3061
  2629  002CF6  EF80  F016         	goto	u3060
  2630  002CFA                     u3061:
  2631  002CFA  FFFF               	dw	65535	; assembler added errata NOP
  2632  002CFC  EF64  F016         	goto	l3155
  2633  002D00                     u3060:
  2634  002D00                     l1236:
  2635  002D00  FFFF               	dw	65535	; assembler added errata NOP
  2636  002D02  0012               	return		;funcret
  2637  002D04  FFFF               	dw	65535	; errata NOP
  2638  002D06                     __end_of_memmove:
  2639                           	callstack 0
  2640                           
  2641 ;; *************** function _pick_and_place *****************
  2642 ;; Defined at:
  2643 ;;		line 624 in file "main.c"
  2644 ;; Parameters:    Size  Location     Type
  2645 ;;  Componnt        1    wreg     unsigned char 
  2646 ;; Auto vars:     Size  Location     Type
  2647 ;;  Componnt        1    0[BANK1 ] unsigned char 
  2648 ;;  i               2   33[BANK1 ] int 
  2649 ;;  i               2   31[BANK1 ] int 
  2650 ;;  i               2   27[BANK1 ] int 
  2651 ;;  i               2   23[BANK1 ] int 
  2652 ;;  i               2   19[BANK1 ] int 
  2653 ;;  i               2   17[BANK1 ] int 
  2654 ;;  i               2   15[BANK1 ] int 
  2655 ;;  i               2   11[BANK1 ] int 
  2656 ;;  i               2    7[BANK1 ] int 
  2657 ;;  i               2    3[BANK1 ] int 
  2658 ;;  j               2    1[BANK1 ] int 
  2659 ;; Return value:  Size  Location     Type
  2660 ;;                  2  105[None  ] int 
  2661 ;; Registers used:
  2662 ;;		wreg, fsr1l, fsr1h, status,2, status,0, tblptrl, tblptrh, tblptru, cstack
  2663 ;; Tracked objects:
  2664 ;;		On entry : 0/0
  2665 ;;		On exit  : 0/0
  2666 ;;		Unchanged: 0/0
  2667 ;; Data sizes:     COMRAM   BANK0   BANK1   BANK2   BANK3   BANK4   BANK5
  2668 ;;      Params:         0       0       0       0       0       0       0
  2669 ;;      Locals:         0       0      35       0       0       0       0
  2670 ;;      Temps:          2       0       0       0       0       0       0
  2671 ;;      Totals:         2       0      35       0       0       0       0
  2672 ;;Total ram usage:       37 bytes
  2673 ;; Hardware stack levels used: 1
  2674 ;; Hardware stack levels required when called: 4
  2675 ;; This function calls:
  2676 ;;		_Tweezer
  2677 ;;		_Twister
  2678 ;;		_X_axis
  2679 ;;		_Y_axis
  2680 ;;		_Z_axis
  2681 ;;		___fldiv
  2682 ;;		___flge
  2683 ;;		___xxtofl
  2684 ;;		_fetch_parameters
  2685 ;;		_ms_delay
  2686 ;;		_print_string
  2687 ;; This function is called by:
  2688 ;;		_start_up_menu
  2689 ;; This function uses a non-reentrant model
  2690 ;;
  2691                           
  2692                           	psect	text7
  2693  00019E                     __ptext7:
  2694                           	callstack 0
  2695  00019E                     _pick_and_place:
  2696                           	callstack 0
  2697  00019E  FFFF               	dw	65535	; assembler added errata NOP
  2698                           
  2699                           ;incstack = 0
  2700                           ;pick_and_place@Componnt stored from wreg
  2701  0001A0  0101               	movlb	1	; () banked
  2702  0001A2  6F00               	movwf	pick_and_place@Componnt& (0+255),b
  2703  0001A4                     
  2704                           ;main.c: 624: int pick_and_place(char Componnt);main.c: 625: {;main.c: 628:     int j =0
      +                          ;
  2705  0001A4  0E00               	movlw	0
  2706  0001A6  0101               	movlb	1	; () banked
  2707  0001A8  6F02               	movwf	(pick_and_place@j+1)& (0+255),b
  2708  0001AA  0E00               	movlw	0
  2709  0001AC  6F01               	movwf	pick_and_place@j& (0+255),b
  2710  0001AE                     
  2711                           ; BSR set to: 1
  2712                           ;main.c: 629:     fetch_parameters(Componnt);
  2713  0001AE  5100               	movf	pick_and_place@Componnt& (0+255),w,b
  2714  0001B0  EC35  F012         	call	_fetch_parameters
  2715  0001B4                     
  2716                           ;main.c: 631:         X_dir=((X_diff<X_Pick)? 1:0);
  2717  0001B4  506D               	movf	_X_Pick^0,w,c
  2718  0001B6  5C61               	subwf	_X_diff^0,w,c
  2719  0001B8  5062               	movf	(_X_diff+1)^0,w,c
  2720  0001BA  0A80               	xorlw	128
  2721  0001BC  6E3D               	movwf	??_pick_and_place^0,c
  2722  0001BE  506E               	movf	(_X_Pick+1)^0,w,c
  2723  0001C0  0A80               	xorlw	128
  2724  0001C2  583D               	subwfb	??_pick_and_place^0,w,c
  2725  0001C4  A0D8               	btfss	status,0,c
  2726  0001C6  EFE7  F000         	goto	u5581
  2727  0001CA  EFEB  F000         	goto	u5580
  2728  0001CE                     u5581:
  2729  0001CE  FFFF               	dw	65535	; assembler added errata NOP
  2730  0001D0  0E01               	movlw	1
  2731  0001D2  EFED  F000         	goto	u5590
  2732  0001D6                     u5580:
  2733  0001D6  FFFF               	dw	65535	; assembler added errata NOP
  2734  0001D8  0E00               	movlw	0
  2735  0001DA                     u5590:
  2736  0001DA  FFFF               	dw	65535	; assembler added errata NOP
  2737  0001DC  6E71               	movwf	_X_dir^0,c
  2738  0001DE                     
  2739                           ;main.c: 632:         Y_dir=((Y_diff<Y_Pick)? 1:0);
  2740  0001DE  5069               	movf	_Y_Pick^0,w,c
  2741  0001E0  5C5F               	subwf	_Y_diff^0,w,c
  2742  0001E2  5060               	movf	(_Y_diff+1)^0,w,c
  2743  0001E4  0A80               	xorlw	128
  2744  0001E6  6E3D               	movwf	??_pick_and_place^0,c
  2745  0001E8  506A               	movf	(_Y_Pick+1)^0,w,c
  2746  0001EA  0A80               	xorlw	128
  2747  0001EC  583D               	subwfb	??_pick_and_place^0,w,c
  2748  0001EE  A0D8               	btfss	status,0,c
  2749  0001F0  EFFC  F000         	goto	u5601
  2750  0001F4  EF00  F001         	goto	u5600
  2751  0001F8                     u5601:
  2752  0001F8  FFFF               	dw	65535	; assembler added errata NOP
  2753  0001FA  0E01               	movlw	1
  2754  0001FC  EF02  F001         	goto	u5610
  2755  000200                     u5600:
  2756  000200  FFFF               	dw	65535	; assembler added errata NOP
  2757  000202  0E00               	movlw	0
  2758  000204                     u5610:
  2759  000204  FFFF               	dw	65535	; assembler added errata NOP
  2760  000206  6E70               	movwf	_Y_dir^0,c
  2761  000208                     
  2762                           ;main.c: 633:         Rot_dir=((Angle_diff<Pick_Angle)? 1:0);
  2763  000208  5065               	movf	_Pick_Angle^0,w,c
  2764  00020A  5C5D               	subwf	_Angle_diff^0,w,c
  2765  00020C  505E               	movf	(_Angle_diff+1)^0,w,c
  2766  00020E  0A80               	xorlw	128
  2767  000210  6E3D               	movwf	??_pick_and_place^0,c
  2768  000212  5066               	movf	(_Pick_Angle+1)^0,w,c
  2769  000214  0A80               	xorlw	128
  2770  000216  583D               	subwfb	??_pick_and_place^0,w,c
  2771  000218  A0D8               	btfss	status,0,c
  2772  00021A  EF11  F001         	goto	u5621
  2773  00021E  EF15  F001         	goto	u5620
  2774  000222                     u5621:
  2775  000222  FFFF               	dw	65535	; assembler added errata NOP
  2776  000224  0E01               	movlw	1
  2777  000226  EF17  F001         	goto	u5630
  2778  00022A                     u5620:
  2779  00022A  FFFF               	dw	65535	; assembler added errata NOP
  2780  00022C  0E00               	movlw	0
  2781  00022E                     u5630:
  2782  00022E  FFFF               	dw	65535	; assembler added errata NOP
  2783  000230  6E6F               	movwf	_Rot_dir^0,c
  2784  000232                     
  2785                           ;main.c: 635:         for(int i = 0; (i<(((X_Pick-X_diff) > 0 ? (X_Pick-X_diff) : -(X_Pi
      +                          ck-X_diff)))) && !stop; i++){X_axis(X_dir);}
  2786  000232  0E00               	movlw	0
  2787  000234  0101               	movlb	1	; () banked
  2788  000236  6F04               	movwf	(pick_and_place@i+1)& (0+255),b
  2789  000238  0E00               	movlw	0
  2790  00023A  6F03               	movwf	pick_and_place@i& (0+255),b
  2791  00023C  EF27  F001         	goto	l4823
  2792  000240                     l4819:
  2793  000240  FFFF               	dw	65535	; assembler added errata NOP
  2794                           
  2795                           ; BSR set to: 1
  2796  000242  5071               	movf	_X_dir^0,w,c
  2797  000244  EC86  F015         	call	_X_axis
  2798  000248  0101               	movlb	1	; () banked
  2799  00024A  4B03               	infsnz	pick_and_place@i& (0+255),f,b
  2800  00024C  2B04               	incf	(pick_and_place@i+1)& (0+255),f,b
  2801  00024E                     l4823:
  2802  00024E  FFFF               	dw	65535	; assembler added errata NOP
  2803                           
  2804                           ; BSR set to: 1
  2805  000250  5061               	movf	_X_diff^0,w,c
  2806  000252  5C6D               	subwf	_X_Pick^0,w,c
  2807  000254  6E3D               	movwf	??_pick_and_place^0,c
  2808  000256  5062               	movf	(_X_diff+1)^0,w,c
  2809  000258  586E               	subwfb	(_X_Pick+1)^0,w,c
  2810  00025A  6E3E               	movwf	(??_pick_and_place+1)^0,c
  2811  00025C  BE3E               	btfsc	(??_pick_and_place+1)^0,7,c
  2812  00025E  EF3C  F001         	goto	u5640
  2813  000262  503E               	movf	(??_pick_and_place+1)^0,w,c
  2814  000264  E106               	bnz	u5641
  2815  000266  043D               	decf	??_pick_and_place^0,w,c
  2816  000268  B0D8               	btfsc	status,0,c
  2817  00026A  EF39  F001         	goto	u5641
  2818  00026E  EF3C  F001         	goto	u5640
  2819  000272                     u5641:
  2820  000272  FFFF               	dw	65535	; assembler added errata NOP
  2821  000274  EF4D  F001         	goto	l4827
  2822  000278                     u5640:
  2823  000278  FFFF               	dw	65535	; assembler added errata NOP
  2824  00027A                     
  2825                           ; BSR set to: 1
  2826  00027A  5061               	movf	_X_diff^0,w,c
  2827  00027C  5C6D               	subwf	_X_Pick^0,w,c
  2828  00027E  6E3D               	movwf	??_pick_and_place^0,c
  2829  000280  5062               	movf	(_X_diff+1)^0,w,c
  2830  000282  586E               	subwfb	(_X_Pick+1)^0,w,c
  2831  000284  6E3E               	movwf	(??_pick_and_place+1)^0,c
  2832  000286  1E3D               	comf	??_pick_and_place^0,f,c
  2833  000288  1E3E               	comf	(??_pick_and_place+1)^0,f,c
  2834  00028A  4A3D               	infsnz	??_pick_and_place^0,f,c
  2835  00028C  2A3E               	incf	(??_pick_and_place+1)^0,f,c
  2836  00028E  C03D  F105         	movff	??_pick_and_place,_pick_and_place$904
  2837  000292  C03E  F106         	movff	??_pick_and_place+1,_pick_and_place$904+1
  2838  000296  EF54  F001         	goto	l390
  2839  00029A                     l4827:
  2840  00029A  FFFF               	dw	65535	; assembler added errata NOP
  2841                           
  2842                           ; BSR set to: 1
  2843  00029C  5061               	movf	_X_diff^0,w,c
  2844  00029E  5C6D               	subwf	_X_Pick^0,w,c
  2845  0002A0  6F05               	movwf	_pick_and_place$904& (0+255),b
  2846  0002A2  5062               	movf	(_X_diff+1)^0,w,c
  2847  0002A4  586E               	subwfb	(_X_Pick+1)^0,w,c
  2848  0002A6  6F06               	movwf	(_pick_and_place$904+1)& (0+255),b
  2849  0002A8                     l390:
  2850  0002A8  FFFF               	dw	65535	; assembler added errata NOP
  2851                           
  2852                           ; BSR set to: 1
  2853  0002AA  5105               	movf	_pick_and_place$904& (0+255),w,b
  2854  0002AC  5D03               	subwf	pick_and_place@i& (0+255),w,b
  2855  0002AE  5104               	movf	(pick_and_place@i+1)& (0+255),w,b
  2856  0002B0  0A80               	xorlw	128
  2857  0002B2  6E3D               	movwf	??_pick_and_place^0,c
  2858  0002B4  5106               	movf	(_pick_and_place$904+1)& (0+255),w,b
  2859  0002B6  0A80               	xorlw	128
  2860  0002B8  583D               	subwfb	??_pick_and_place^0,w,c
  2861  0002BA  B0D8               	btfsc	status,0,c
  2862  0002BC  EF62  F001         	goto	u5651
  2863  0002C0  EF65  F001         	goto	u5650
  2864  0002C4                     u5651:
  2865  0002C4  FFFF               	dw	65535	; assembler added errata NOP
  2866  0002C6  EF6F  F001         	goto	l4831
  2867  0002CA                     u5650:
  2868  0002CA  FFFF               	dw	65535	; assembler added errata NOP
  2869  0002CC                     
  2870                           ; BSR set to: 1
  2871  0002CC  5072               	movf	_stop^0,w,c
  2872  0002CE  B4D8               	btfsc	status,2,c
  2873  0002D0  EF6C  F001         	goto	u5661
  2874  0002D4  EF6F  F001         	goto	u5660
  2875  0002D8                     u5661:
  2876  0002D8  FFFF               	dw	65535	; assembler added errata NOP
  2877  0002DA  EF20  F001         	goto	l4819
  2878  0002DE                     u5660:
  2879  0002DE                     l4831:
  2880  0002DE  FFFF               	dw	65535	; assembler added errata NOP
  2881                           
  2882                           ; BSR set to: 1
  2883                           ;main.c: 637:         for(int i = 0; (i<(((Y_Pick-Y_diff) > 0 ? (Y_Pick-Y_diff) : -(Y_Pi
      +                          ck-Y_diff)))) && !stop; i++){Y_axis(Y_dir);}
  2884  0002E0  0E00               	movlw	0
  2885  0002E2  6F08               	movwf	(pick_and_place@i_905+1)& (0+255),b
  2886  0002E4  0E00               	movlw	0
  2887  0002E6  6F07               	movwf	pick_and_place@i_905& (0+255),b
  2888  0002E8  EF7D  F001         	goto	l4837
  2889  0002EC                     l4833:
  2890  0002EC  FFFF               	dw	65535	; assembler added errata NOP
  2891                           
  2892                           ; BSR set to: 1
  2893  0002EE  5070               	movf	_Y_dir^0,w,c
  2894  0002F0  EC06  F015         	call	_Y_axis
  2895  0002F4  0101               	movlb	1	; () banked
  2896  0002F6  4B07               	infsnz	pick_and_place@i_905& (0+255),f,b
  2897  0002F8  2B08               	incf	(pick_and_place@i_905+1)& (0+255),f,b
  2898  0002FA                     l4837:
  2899  0002FA  FFFF               	dw	65535	; assembler added errata NOP
  2900                           
  2901                           ; BSR set to: 1
  2902  0002FC  505F               	movf	_Y_diff^0,w,c
  2903  0002FE  5C69               	subwf	_Y_Pick^0,w,c
  2904  000300  6E3D               	movwf	??_pick_and_place^0,c
  2905  000302  5060               	movf	(_Y_diff+1)^0,w,c
  2906  000304  586A               	subwfb	(_Y_Pick+1)^0,w,c
  2907  000306  6E3E               	movwf	(??_pick_and_place+1)^0,c
  2908  000308  BE3E               	btfsc	(??_pick_and_place+1)^0,7,c
  2909  00030A  EF92  F001         	goto	u5670
  2910  00030E  503E               	movf	(??_pick_and_place+1)^0,w,c
  2911  000310  E106               	bnz	u5671
  2912  000312  043D               	decf	??_pick_and_place^0,w,c
  2913  000314  B0D8               	btfsc	status,0,c
  2914  000316  EF8F  F001         	goto	u5671
  2915  00031A  EF92  F001         	goto	u5670
  2916  00031E                     u5671:
  2917  00031E  FFFF               	dw	65535	; assembler added errata NOP
  2918  000320  EFA3  F001         	goto	l4841
  2919  000324                     u5670:
  2920  000324  FFFF               	dw	65535	; assembler added errata NOP
  2921  000326                     
  2922                           ; BSR set to: 1
  2923  000326  505F               	movf	_Y_diff^0,w,c
  2924  000328  5C69               	subwf	_Y_Pick^0,w,c
  2925  00032A  6E3D               	movwf	??_pick_and_place^0,c
  2926  00032C  5060               	movf	(_Y_diff+1)^0,w,c
  2927  00032E  586A               	subwfb	(_Y_Pick+1)^0,w,c
  2928  000330  6E3E               	movwf	(??_pick_and_place+1)^0,c
  2929  000332  1E3D               	comf	??_pick_and_place^0,f,c
  2930  000334  1E3E               	comf	(??_pick_and_place+1)^0,f,c
  2931  000336  4A3D               	infsnz	??_pick_and_place^0,f,c
  2932  000338  2A3E               	incf	(??_pick_and_place+1)^0,f,c
  2933  00033A  C03D  F109         	movff	??_pick_and_place,_pick_and_place$907
  2934  00033E  C03E  F10A         	movff	??_pick_and_place+1,_pick_and_place$907+1
  2935  000342  EFAA  F001         	goto	l399
  2936  000346                     l4841:
  2937  000346  FFFF               	dw	65535	; assembler added errata NOP
  2938                           
  2939                           ; BSR set to: 1
  2940  000348  505F               	movf	_Y_diff^0,w,c
  2941  00034A  5C69               	subwf	_Y_Pick^0,w,c
  2942  00034C  6F09               	movwf	_pick_and_place$907& (0+255),b
  2943  00034E  5060               	movf	(_Y_diff+1)^0,w,c
  2944  000350  586A               	subwfb	(_Y_Pick+1)^0,w,c
  2945  000352  6F0A               	movwf	(_pick_and_place$907+1)& (0+255),b
  2946  000354                     l399:
  2947  000354  FFFF               	dw	65535	; assembler added errata NOP
  2948                           
  2949                           ; BSR set to: 1
  2950  000356  5109               	movf	_pick_and_place$907& (0+255),w,b
  2951  000358  5D07               	subwf	pick_and_place@i_905& (0+255),w,b
  2952  00035A  5108               	movf	(pick_and_place@i_905+1)& (0+255),w,b
  2953  00035C  0A80               	xorlw	128
  2954  00035E  6E3D               	movwf	??_pick_and_place^0,c
  2955  000360  510A               	movf	(_pick_and_place$907+1)& (0+255),w,b
  2956  000362  0A80               	xorlw	128
  2957  000364  583D               	subwfb	??_pick_and_place^0,w,c
  2958  000366  B0D8               	btfsc	status,0,c
  2959  000368  EFB8  F001         	goto	u5681
  2960  00036C  EFBB  F001         	goto	u5680
  2961  000370                     u5681:
  2962  000370  FFFF               	dw	65535	; assembler added errata NOP
  2963  000372  EFC5  F001         	goto	l4845
  2964  000376                     u5680:
  2965  000376  FFFF               	dw	65535	; assembler added errata NOP
  2966  000378                     
  2967                           ; BSR set to: 1
  2968  000378  5072               	movf	_stop^0,w,c
  2969  00037A  B4D8               	btfsc	status,2,c
  2970  00037C  EFC2  F001         	goto	u5691
  2971  000380  EFC5  F001         	goto	u5690
  2972  000384                     u5691:
  2973  000384  FFFF               	dw	65535	; assembler added errata NOP
  2974  000386  EF76  F001         	goto	l4833
  2975  00038A                     u5690:
  2976  00038A                     l4845:
  2977  00038A  FFFF               	dw	65535	; assembler added errata NOP
  2978                           
  2979                           ; BSR set to: 1
  2980                           ;main.c: 639:         for(int i = 0; (i<(((Angle_diff-Pick_Angle) > 0 ? (Angle_diff-Pick
      +                          _Angle) : -(Angle_diff-Pick_Angle))/3.6)) && !stop; i++){Twister(Rot_dir);}
  2981  00038C  0E00               	movlw	0
  2982  00038E  6F0C               	movwf	(pick_and_place@i_908+1)& (0+255),b
  2983  000390  0E00               	movlw	0
  2984  000392  6F0B               	movwf	pick_and_place@i_908& (0+255),b
  2985  000394  EFD3  F001         	goto	l4851
  2986  000398                     l4847:
  2987  000398  FFFF               	dw	65535	; assembler added errata NOP
  2988  00039A  506F               	movf	_Rot_dir^0,w,c
  2989  00039C  EC83  F016         	call	_Twister
  2990  0003A0  0101               	movlb	1	; () banked
  2991  0003A2  4B0B               	infsnz	pick_and_place@i_908& (0+255),f,b
  2992  0003A4  2B0C               	incf	(pick_and_place@i_908+1)& (0+255),f,b
  2993  0003A6                     l4851:
  2994  0003A6  FFFF               	dw	65535	; assembler added errata NOP
  2995                           
  2996                           ; BSR set to: 1
  2997  0003A8  5065               	movf	_Pick_Angle^0,w,c
  2998  0003AA  5C5D               	subwf	_Angle_diff^0,w,c
  2999  0003AC  6E3D               	movwf	??_pick_and_place^0,c
  3000  0003AE  5066               	movf	(_Pick_Angle+1)^0,w,c
  3001  0003B0  585E               	subwfb	(_Angle_diff+1)^0,w,c
  3002  0003B2  6E3E               	movwf	(??_pick_and_place+1)^0,c
  3003  0003B4  BE3E               	btfsc	(??_pick_and_place+1)^0,7,c
  3004  0003B6  EFE8  F001         	goto	u5700
  3005  0003BA  503E               	movf	(??_pick_and_place+1)^0,w,c
  3006  0003BC  E106               	bnz	u5701
  3007  0003BE  043D               	decf	??_pick_and_place^0,w,c
  3008  0003C0  B0D8               	btfsc	status,0,c
  3009  0003C2  EFE5  F001         	goto	u5701
  3010  0003C6  EFE8  F001         	goto	u5700
  3011  0003CA                     u5701:
  3012  0003CA  FFFF               	dw	65535	; assembler added errata NOP
  3013  0003CC  EFF9  F001         	goto	l4855
  3014  0003D0                     u5700:
  3015  0003D0  FFFF               	dw	65535	; assembler added errata NOP
  3016  0003D2                     
  3017                           ; BSR set to: 1
  3018  0003D2  5065               	movf	_Pick_Angle^0,w,c
  3019  0003D4  5C5D               	subwf	_Angle_diff^0,w,c
  3020  0003D6  6E3D               	movwf	??_pick_and_place^0,c
  3021  0003D8  5066               	movf	(_Pick_Angle+1)^0,w,c
  3022  0003DA  585E               	subwfb	(_Angle_diff+1)^0,w,c
  3023  0003DC  6E3E               	movwf	(??_pick_and_place+1)^0,c
  3024  0003DE  1E3D               	comf	??_pick_and_place^0,f,c
  3025  0003E0  1E3E               	comf	(??_pick_and_place+1)^0,f,c
  3026  0003E2  4A3D               	infsnz	??_pick_and_place^0,f,c
  3027  0003E4  2A3E               	incf	(??_pick_and_place+1)^0,f,c
  3028  0003E6  C03D  F10D         	movff	??_pick_and_place,_pick_and_place$910
  3029  0003EA  C03E  F10E         	movff	??_pick_and_place+1,_pick_and_place$910+1
  3030  0003EE  EF00  F002         	goto	l4857
  3031  0003F2                     l4855:
  3032  0003F2  FFFF               	dw	65535	; assembler added errata NOP
  3033                           
  3034                           ; BSR set to: 1
  3035  0003F4  5065               	movf	_Pick_Angle^0,w,c
  3036  0003F6  5C5D               	subwf	_Angle_diff^0,w,c
  3037  0003F8  6F0D               	movwf	_pick_and_place$910& (0+255),b
  3038  0003FA  5066               	movf	(_Pick_Angle+1)^0,w,c
  3039  0003FC  585E               	subwfb	(_Angle_diff+1)^0,w,c
  3040  0003FE  6F0E               	movwf	(_pick_and_place$910+1)& (0+255),b
  3041  000400                     l4857:
  3042  000400  FFFF               	dw	65535	; assembler added errata NOP
  3043                           
  3044                           ; BSR set to: 1
  3045  000402  C10B  F00A         	movff	pick_and_place@i_908,___xxtofl@val
  3046  000406  C10C  F00B         	movff	pick_and_place@i_908+1,___xxtofl@val+1
  3047  00040A  0E00               	movlw	0
  3048  00040C  BE0B               	btfsc	(___xxtofl@val+1)^0,7,c
  3049  00040E  0EFF               	movlw	-1
  3050  000410  6E0C               	movwf	(___xxtofl@val+2)^0,c
  3051  000412  6E0D               	movwf	(___xxtofl@val+3)^0,c
  3052  000414  0E01               	movlw	1
  3053  000416  EC00  F00F         	call	___xxtofl
  3054  00041A  C00A  F031         	movff	?___xxtofl,___flge@ff1
  3055  00041E  C00B  F032         	movff	?___xxtofl+1,___flge@ff1+1
  3056  000422  C00C  F033         	movff	?___xxtofl+2,___flge@ff1+2
  3057  000426  C00D  F034         	movff	?___xxtofl+3,___flge@ff1+3
  3058  00042A  0E66               	movlw	102
  3059  00042C  6E1C               	movwf	___fldiv@a^0,c
  3060  00042E  0E66               	movlw	102
  3061  000430  6E1D               	movwf	(___fldiv@a+1)^0,c
  3062  000432  0E66               	movlw	102
  3063  000434  6E1E               	movwf	(___fldiv@a+2)^0,c
  3064  000436  0E40               	movlw	64
  3065  000438  6E1F               	movwf	(___fldiv@a+3)^0,c
  3066  00043A  C10D  F00A         	movff	_pick_and_place$910,___xxtofl@val
  3067  00043E  C10E  F00B         	movff	_pick_and_place$910+1,___xxtofl@val+1
  3068  000442  0E00               	movlw	0
  3069  000444  BE0B               	btfsc	(___xxtofl@val+1)^0,7,c
  3070  000446  0EFF               	movlw	-1
  3071  000448  6E0C               	movwf	(___xxtofl@val+2)^0,c
  3072  00044A  6E0D               	movwf	(___xxtofl@val+3)^0,c
  3073  00044C  0E01               	movlw	1
  3074  00044E  EC00  F00F         	call	___xxtofl
  3075  000452  C00A  F018         	movff	?___xxtofl,___fldiv@b
  3076  000456  C00B  F019         	movff	?___xxtofl+1,___fldiv@b+1
  3077  00045A  C00C  F01A         	movff	?___xxtofl+2,___fldiv@b+2
  3078  00045E  C00D  F01B         	movff	?___xxtofl+3,___fldiv@b+3
  3079  000462  ECF3  F009         	call	___fldiv	;wreg free
  3080  000466  C018  F035         	movff	?___fldiv,___flge@ff2
  3081  00046A  C019  F036         	movff	?___fldiv+1,___flge@ff2+1
  3082  00046E  C01A  F037         	movff	?___fldiv+2,___flge@ff2+2
  3083  000472  C01B  F038         	movff	?___fldiv+3,___flge@ff2+3
  3084  000476  EC6D  F013         	call	___flge	;wreg free
  3085  00047A  B0D8               	btfsc	status,0,c
  3086  00047C  EF42  F002         	goto	u5711
  3087  000480  EF45  F002         	goto	u5710
  3088  000484                     u5711:
  3089  000484  FFFF               	dw	65535	; assembler added errata NOP
  3090  000486  EF4F  F002         	goto	l4861
  3091  00048A                     u5710:
  3092  00048A  FFFF               	dw	65535	; assembler added errata NOP
  3093  00048C  5072               	movf	_stop^0,w,c
  3094  00048E  B4D8               	btfsc	status,2,c
  3095  000490  EF4C  F002         	goto	u5721
  3096  000494  EF4F  F002         	goto	u5720
  3097  000498                     u5721:
  3098  000498  FFFF               	dw	65535	; assembler added errata NOP
  3099  00049A  EFCC  F001         	goto	l4847
  3100  00049E                     u5720:
  3101  00049E                     l4861:
  3102  00049E  FFFF               	dw	65535	; assembler added errata NOP
  3103                           
  3104                           ;main.c: 641:         Tweezer(1);
  3105  0004A0  0E01               	movlw	1
  3106  0004A2  EC13  F018         	call	_Tweezer
  3107  0004A6                     l4863:
  3108  0004A6  FFFF               	dw	65535	; assembler added errata NOP
  3109                           
  3110                           ;main.c: 643:             if(component_present){
  3111  0004A8  5073               	movf	_component_present^0,w,c
  3112  0004AA  B4D8               	btfsc	status,2,c
  3113  0004AC  EF5A  F002         	goto	u5731
  3114  0004B0  EF5D  F002         	goto	u5730
  3115  0004B4                     u5731:
  3116  0004B4  FFFF               	dw	65535	; assembler added errata NOP
  3117  0004B6  EF60  F002         	goto	l4869
  3118  0004BA                     u5730:
  3119  0004BA  FFFF               	dw	65535	; assembler added errata NOP
  3120  0004BC  EF96  F002         	goto	l4881
  3121  0004C0                     l4869:
  3122  0004C0  FFFF               	dw	65535	; assembler added errata NOP
  3123  0004C2  0101               	movlb	1	; () banked
  3124  0004C4  BF02               	btfsc	(pick_and_place@j+1)& (0+255),7,b
  3125  0004C6  EF6E  F002         	goto	u5741
  3126  0004CA  5102               	movf	(pick_and_place@j+1)& (0+255),w,b
  3127  0004CC  E10A               	bnz	u5740
  3128  0004CE  0E03               	movlw	3
  3129  0004D0  5D01               	subwf	pick_and_place@j& (0+255),w,b
  3130  0004D2  A0D8               	btfss	status,0,c
  3131  0004D4  EF6E  F002         	goto	u5741
  3132  0004D8  EF71  F002         	goto	u5740
  3133  0004DC                     u5741:
  3134  0004DC  FFFF               	dw	65535	; assembler added errata NOP
  3135  0004DE  EF84  F002         	goto	l4877
  3136  0004E2                     u5740:
  3137  0004E2  FFFF               	dw	65535	; assembler added errata NOP
  3138  0004E4                     
  3139                           ; BSR set to: 1
  3140  0004E4  5073               	movf	_component_present^0,w,c
  3141  0004E6  A4D8               	btfss	status,2,c
  3142  0004E8  EF78  F002         	goto	u5751
  3143  0004EC  EF7B  F002         	goto	u5750
  3144  0004F0                     u5751:
  3145  0004F0  FFFF               	dw	65535	; assembler added errata NOP
  3146  0004F2  EF84  F002         	goto	l4877
  3147  0004F6                     u5750:
  3148  0004F6  FFFF               	dw	65535	; assembler added errata NOP
  3149  0004F8                     
  3150                           ; BSR set to: 1
  3151                           ;main.c: 647:                 print_string("\nComponent is missing!");
  3152  0004F8  0EAA               	movlw	low STR_18
  3153  0004FA  6E0A               	movwf	print_string@strng^0,c
  3154  0004FC  0E7F               	movlw	high STR_18
  3155  0004FE  6E0B               	movwf	(print_string@strng+1)^0,c
  3156  000500  ECF3  F016         	call	_print_string	;wreg free
  3157                           
  3158                           ;main.c: 648:                 break;
  3159  000504  EF96  F002         	goto	l4881
  3160  000508                     l4877:
  3161  000508  FFFF               	dw	65535	; assembler added errata NOP
  3162                           
  3163                           ; BSR set to: 1
  3164                           ;main.c: 651:                 _delay((unsigned long)((1000)*(200000000/4000.0)));
  3165  00050A  0EBF               	movlw	191
  3166  00050C  6E3E               	movwf	(??_pick_and_place+1)^0,c
  3167  00050E  0E5D               	movlw	93
  3168  000510  6E3D               	movwf	??_pick_and_place^0,c
  3169  000512  0E91               	movlw	145
  3170  000514                     u6277:
  3171  000514  FFFF               	dw	65535	; errata NOP
  3172  000516  2EE8               	decfsz	wreg,f,c
  3173  000518  D7FD               	bra	u6277
  3174  00051A  2E3D               	decfsz	??_pick_and_place^0,f,c
  3175  00051C  D7FB               	bra	u6277
  3176  00051E  2E3E               	decfsz	(??_pick_and_place+1)^0,f,c
  3177  000520  D7F9               	bra	u6277
  3178  000522                     
  3179                           ;main.c: 652:                 j++;}
  3180  000522  0101               	movlb	1	; () banked
  3181  000524  4B01               	infsnz	pick_and_place@j& (0+255),f,b
  3182  000526  2B02               	incf	(pick_and_place@j+1)& (0+255),f,b
  3183  000528  EF53  F002         	goto	l4863
  3184  00052C                     l4881:
  3185  00052C  FFFF               	dw	65535	; assembler added errata NOP
  3186                           
  3187                           ;main.c: 654:         ms_delay(10);
  3188  00052E  0E00               	movlw	0
  3189  000530  6E0B               	movwf	(ms_delay@val+1)^0,c
  3190  000532  0E0A               	movlw	10
  3191  000534  6E0A               	movwf	ms_delay@val^0,c
  3192  000536  EC79  F018         	call	_ms_delay	;wreg free
  3193  00053A                     
  3194                           ;main.c: 655:         for(int i=0; i<3 && !stop; i++){Z_axis(1);}
  3195  00053A  0E00               	movlw	0
  3196  00053C  0101               	movlb	1	; () banked
  3197  00053E  6F10               	movwf	(pick_and_place@i_913+1)& (0+255),b
  3198  000540  0E00               	movlw	0
  3199  000542  6F0F               	movwf	pick_and_place@i_913& (0+255),b
  3200  000544  EFAB  F002         	goto	l4889
  3201  000548                     l4885:
  3202  000548  FFFF               	dw	65535	; assembler added errata NOP
  3203                           
  3204                           ; BSR set to: 1
  3205  00054A  0E01               	movlw	1
  3206  00054C  EC86  F014         	call	_Z_axis
  3207  000550  0101               	movlb	1	; () banked
  3208  000552  4B0F               	infsnz	pick_and_place@i_913& (0+255),f,b
  3209  000554  2B10               	incf	(pick_and_place@i_913+1)& (0+255),f,b
  3210  000556                     l4889:
  3211  000556  FFFF               	dw	65535	; assembler added errata NOP
  3212                           
  3213                           ; BSR set to: 1
  3214  000558  BF10               	btfsc	(pick_and_place@i_913+1)& (0+255),7,b
  3215  00055A  EFBB  F002         	goto	u5760
  3216  00055E  5110               	movf	(pick_and_place@i_913+1)& (0+255),w,b
  3217  000560  E107               	bnz	u5761
  3218  000562  0E03               	movlw	3
  3219  000564  5D0F               	subwf	pick_and_place@i_913& (0+255),w,b
  3220  000566  B0D8               	btfsc	status,0,c
  3221  000568  EFB8  F002         	goto	u5761
  3222  00056C  EFBB  F002         	goto	u5760
  3223  000570                     u5761:
  3224  000570  FFFF               	dw	65535	; assembler added errata NOP
  3225  000572  EFC5  F002         	goto	l4893
  3226  000576                     u5760:
  3227  000576  FFFF               	dw	65535	; assembler added errata NOP
  3228  000578                     
  3229                           ; BSR set to: 1
  3230  000578  5072               	movf	_stop^0,w,c
  3231  00057A  B4D8               	btfsc	status,2,c
  3232  00057C  EFC2  F002         	goto	u5771
  3233  000580  EFC5  F002         	goto	u5770
  3234  000584                     u5771:
  3235  000584  FFFF               	dw	65535	; assembler added errata NOP
  3236  000586  EFA4  F002         	goto	l4885
  3237  00058A                     u5770:
  3238  00058A                     l4893:
  3239  00058A  FFFF               	dw	65535	; assembler added errata NOP
  3240                           
  3241                           ; BSR set to: 1
  3242                           ;main.c: 656:         Tweezer(0);
  3243  00058C  0E00               	movlw	0
  3244  00058E  EC13  F018         	call	_Tweezer
  3245  000592                     
  3246                           ;main.c: 658:         for(int i=0; i<3 && !stop; i++){Z_axis(0);}
  3247  000592  0E00               	movlw	0
  3248  000594  0101               	movlb	1	; () banked
  3249  000596  6F12               	movwf	(pick_and_place@i_915+1)& (0+255),b
  3250  000598  0E00               	movlw	0
  3251  00059A  6F11               	movwf	pick_and_place@i_915& (0+255),b
  3252  00059C  EFD7  F002         	goto	l4901
  3253  0005A0                     l4897:
  3254  0005A0  FFFF               	dw	65535	; assembler added errata NOP
  3255                           
  3256                           ; BSR set to: 1
  3257  0005A2  0E00               	movlw	0
  3258  0005A4  EC86  F014         	call	_Z_axis
  3259  0005A8  0101               	movlb	1	; () banked
  3260  0005AA  4B11               	infsnz	pick_and_place@i_915& (0+255),f,b
  3261  0005AC  2B12               	incf	(pick_and_place@i_915+1)& (0+255),f,b
  3262  0005AE                     l4901:
  3263  0005AE  FFFF               	dw	65535	; assembler added errata NOP
  3264                           
  3265                           ; BSR set to: 1
  3266  0005B0  BF12               	btfsc	(pick_and_place@i_915+1)& (0+255),7,b
  3267  0005B2  EFE7  F002         	goto	u5780
  3268  0005B6  5112               	movf	(pick_and_place@i_915+1)& (0+255),w,b
  3269  0005B8  E107               	bnz	u5781
  3270  0005BA  0E03               	movlw	3
  3271  0005BC  5D11               	subwf	pick_and_place@i_915& (0+255),w,b
  3272  0005BE  B0D8               	btfsc	status,0,c
  3273  0005C0  EFE4  F002         	goto	u5781
  3274  0005C4  EFE7  F002         	goto	u5780
  3275  0005C8                     u5781:
  3276  0005C8  FFFF               	dw	65535	; assembler added errata NOP
  3277  0005CA  EFF1  F002         	goto	l4905
  3278  0005CE                     u5780:
  3279  0005CE  FFFF               	dw	65535	; assembler added errata NOP
  3280  0005D0                     
  3281                           ; BSR set to: 1
  3282  0005D0  5072               	movf	_stop^0,w,c
  3283  0005D2  B4D8               	btfsc	status,2,c
  3284  0005D4  EFEE  F002         	goto	u5791
  3285  0005D8  EFF1  F002         	goto	u5790
  3286  0005DC                     u5791:
  3287  0005DC  FFFF               	dw	65535	; assembler added errata NOP
  3288  0005DE  EFD0  F002         	goto	l4897
  3289  0005E2                     u5790:
  3290  0005E2                     l4905:
  3291  0005E2  FFFF               	dw	65535	; assembler added errata NOP
  3292                           
  3293                           ; BSR set to: 1
  3294                           ;main.c: 662:         X_dir=((X_Pick<X_Place)? 1:0);
  3295  0005E4  506B               	movf	_X_Place^0,w,c
  3296  0005E6  5C6D               	subwf	_X_Pick^0,w,c
  3297  0005E8  506E               	movf	(_X_Pick+1)^0,w,c
  3298  0005EA  0A80               	xorlw	128
  3299  0005EC  6E3D               	movwf	??_pick_and_place^0,c
  3300  0005EE  506C               	movf	(_X_Place+1)^0,w,c
  3301  0005F0  0A80               	xorlw	128
  3302  0005F2  583D               	subwfb	??_pick_and_place^0,w,c
  3303  0005F4  A0D8               	btfss	status,0,c
  3304  0005F6  EFFF  F002         	goto	u5801
  3305  0005FA  EF03  F003         	goto	u5800
  3306  0005FE                     u5801:
  3307  0005FE  FFFF               	dw	65535	; assembler added errata NOP
  3308  000600  0E01               	movlw	1
  3309  000602  EF05  F003         	goto	u5810
  3310  000606                     u5800:
  3311  000606  FFFF               	dw	65535	; assembler added errata NOP
  3312  000608  0E00               	movlw	0
  3313  00060A                     u5810:
  3314  00060A  FFFF               	dw	65535	; assembler added errata NOP
  3315  00060C  6E71               	movwf	_X_dir^0,c
  3316                           
  3317                           ;main.c: 663:         Y_dir=((Y_Pick<Y_Place)? 1:0);
  3318  00060E  5067               	movf	_Y_Place^0,w,c
  3319  000610  5C69               	subwf	_Y_Pick^0,w,c
  3320  000612  506A               	movf	(_Y_Pick+1)^0,w,c
  3321  000614  0A80               	xorlw	128
  3322  000616  6E3D               	movwf	??_pick_and_place^0,c
  3323  000618  5068               	movf	(_Y_Place+1)^0,w,c
  3324  00061A  0A80               	xorlw	128
  3325  00061C  583D               	subwfb	??_pick_and_place^0,w,c
  3326  00061E  A0D8               	btfss	status,0,c
  3327  000620  EF14  F003         	goto	u5821
  3328  000624  EF18  F003         	goto	u5820
  3329  000628                     u5821:
  3330  000628  FFFF               	dw	65535	; assembler added errata NOP
  3331  00062A  0E01               	movlw	1
  3332  00062C  EF1A  F003         	goto	u5830
  3333  000630                     u5820:
  3334  000630  FFFF               	dw	65535	; assembler added errata NOP
  3335  000632  0E00               	movlw	0
  3336  000634                     u5830:
  3337  000634  FFFF               	dw	65535	; assembler added errata NOP
  3338  000636  6E70               	movwf	_Y_dir^0,c
  3339                           
  3340                           ;main.c: 664:         Rot_dir=((Pick_Angle<Place_Angle)? 1:0);
  3341  000638  5063               	movf	_Place_Angle^0,w,c
  3342  00063A  5C65               	subwf	_Pick_Angle^0,w,c
  3343  00063C  5066               	movf	(_Pick_Angle+1)^0,w,c
  3344  00063E  0A80               	xorlw	128
  3345  000640  6E3D               	movwf	??_pick_and_place^0,c
  3346  000642  5064               	movf	(_Place_Angle+1)^0,w,c
  3347  000644  0A80               	xorlw	128
  3348  000646  583D               	subwfb	??_pick_and_place^0,w,c
  3349  000648  A0D8               	btfss	status,0,c
  3350  00064A  EF29  F003         	goto	u5841
  3351  00064E  EF2D  F003         	goto	u5840
  3352  000652                     u5841:
  3353  000652  FFFF               	dw	65535	; assembler added errata NOP
  3354  000654  0E01               	movlw	1
  3355  000656  EF2F  F003         	goto	u5850
  3356  00065A                     u5840:
  3357  00065A  FFFF               	dw	65535	; assembler added errata NOP
  3358  00065C  0E00               	movlw	0
  3359  00065E                     u5850:
  3360  00065E  FFFF               	dw	65535	; assembler added errata NOP
  3361  000660  6E6F               	movwf	_Rot_dir^0,c
  3362  000662                     
  3363                           ; BSR set to: 1
  3364                           ;main.c: 666:         for(int i = 0; (i<(((X_Place-X_Pick) > 0 ? (X_Place-X_Pick) : -(X_
      +                          Place-X_Pick)))) && !stop; i++){X_axis(X_dir);}
  3365  000662  0E00               	movlw	0
  3366  000664  6F14               	movwf	(pick_and_place@i_916+1)& (0+255),b
  3367  000666  0E00               	movlw	0
  3368  000668  6F13               	movwf	pick_and_place@i_916& (0+255),b
  3369  00066A  EF3E  F003         	goto	l4913
  3370  00066E                     l4909:
  3371  00066E  FFFF               	dw	65535	; assembler added errata NOP
  3372                           
  3373                           ; BSR set to: 1
  3374  000670  5071               	movf	_X_dir^0,w,c
  3375  000672  EC86  F015         	call	_X_axis
  3376  000676  0101               	movlb	1	; () banked
  3377  000678  4B13               	infsnz	pick_and_place@i_916& (0+255),f,b
  3378  00067A  2B14               	incf	(pick_and_place@i_916+1)& (0+255),f,b
  3379  00067C                     l4913:
  3380  00067C  FFFF               	dw	65535	; assembler added errata NOP
  3381                           
  3382                           ; BSR set to: 1
  3383  00067E  506D               	movf	_X_Pick^0,w,c
  3384  000680  5C6B               	subwf	_X_Place^0,w,c
  3385  000682  6E3D               	movwf	??_pick_and_place^0,c
  3386  000684  506E               	movf	(_X_Pick+1)^0,w,c
  3387  000686  586C               	subwfb	(_X_Place+1)^0,w,c
  3388  000688  6E3E               	movwf	(??_pick_and_place+1)^0,c
  3389  00068A  BE3E               	btfsc	(??_pick_and_place+1)^0,7,c
  3390  00068C  EF53  F003         	goto	u5860
  3391  000690  503E               	movf	(??_pick_and_place+1)^0,w,c
  3392  000692  E106               	bnz	u5861
  3393  000694  043D               	decf	??_pick_and_place^0,w,c
  3394  000696  B0D8               	btfsc	status,0,c
  3395  000698  EF50  F003         	goto	u5861
  3396  00069C  EF53  F003         	goto	u5860
  3397  0006A0                     u5861:
  3398  0006A0  FFFF               	dw	65535	; assembler added errata NOP
  3399  0006A2  EF64  F003         	goto	l4917
  3400  0006A6                     u5860:
  3401  0006A6  FFFF               	dw	65535	; assembler added errata NOP
  3402  0006A8                     
  3403                           ; BSR set to: 1
  3404  0006A8  506D               	movf	_X_Pick^0,w,c
  3405  0006AA  5C6B               	subwf	_X_Place^0,w,c
  3406  0006AC  6E3D               	movwf	??_pick_and_place^0,c
  3407  0006AE  506E               	movf	(_X_Pick+1)^0,w,c
  3408  0006B0  586C               	subwfb	(_X_Place+1)^0,w,c
  3409  0006B2  6E3E               	movwf	(??_pick_and_place+1)^0,c
  3410  0006B4  1E3D               	comf	??_pick_and_place^0,f,c
  3411  0006B6  1E3E               	comf	(??_pick_and_place+1)^0,f,c
  3412  0006B8  4A3D               	infsnz	??_pick_and_place^0,f,c
  3413  0006BA  2A3E               	incf	(??_pick_and_place+1)^0,f,c
  3414  0006BC  C03D  F115         	movff	??_pick_and_place,_pick_and_place$917
  3415  0006C0  C03E  F116         	movff	??_pick_and_place+1,_pick_and_place$917+1
  3416  0006C4  EF6B  F003         	goto	l434
  3417  0006C8                     l4917:
  3418  0006C8  FFFF               	dw	65535	; assembler added errata NOP
  3419                           
  3420                           ; BSR set to: 1
  3421  0006CA  506D               	movf	_X_Pick^0,w,c
  3422  0006CC  5C6B               	subwf	_X_Place^0,w,c
  3423  0006CE  6F15               	movwf	_pick_and_place$917& (0+255),b
  3424  0006D0  506E               	movf	(_X_Pick+1)^0,w,c
  3425  0006D2  586C               	subwfb	(_X_Place+1)^0,w,c
  3426  0006D4  6F16               	movwf	(_pick_and_place$917+1)& (0+255),b
  3427  0006D6                     l434:
  3428  0006D6  FFFF               	dw	65535	; assembler added errata NOP
  3429                           
  3430                           ; BSR set to: 1
  3431  0006D8  5115               	movf	_pick_and_place$917& (0+255),w,b
  3432  0006DA  5D13               	subwf	pick_and_place@i_916& (0+255),w,b
  3433  0006DC  5114               	movf	(pick_and_place@i_916+1)& (0+255),w,b
  3434  0006DE  0A80               	xorlw	128
  3435  0006E0  6E3D               	movwf	??_pick_and_place^0,c
  3436  0006E2  5116               	movf	(_pick_and_place$917+1)& (0+255),w,b
  3437  0006E4  0A80               	xorlw	128
  3438  0006E6  583D               	subwfb	??_pick_and_place^0,w,c
  3439  0006E8  B0D8               	btfsc	status,0,c
  3440  0006EA  EF79  F003         	goto	u5871
  3441  0006EE  EF7C  F003         	goto	u5870
  3442  0006F2                     u5871:
  3443  0006F2  FFFF               	dw	65535	; assembler added errata NOP
  3444  0006F4  EF86  F003         	goto	l4921
  3445  0006F8                     u5870:
  3446  0006F8  FFFF               	dw	65535	; assembler added errata NOP
  3447  0006FA                     
  3448                           ; BSR set to: 1
  3449  0006FA  5072               	movf	_stop^0,w,c
  3450  0006FC  B4D8               	btfsc	status,2,c
  3451  0006FE  EF83  F003         	goto	u5881
  3452  000702  EF86  F003         	goto	u5880
  3453  000706                     u5881:
  3454  000706  FFFF               	dw	65535	; assembler added errata NOP
  3455  000708  EF37  F003         	goto	l4909
  3456  00070C                     u5880:
  3457  00070C                     l4921:
  3458  00070C  FFFF               	dw	65535	; assembler added errata NOP
  3459                           
  3460                           ; BSR set to: 1
  3461                           ;main.c: 667:         for(int i = 0; (i<(((Y_Place-Y_Pick) > 0 ? (Y_Place-Y_Pick) : -(Y_
      +                          Place-Y_Pick)))) && !stop; i++){Y_axis(Y_dir);}
  3462  00070E  0E00               	movlw	0
  3463  000710  6F18               	movwf	(pick_and_place@i_918+1)& (0+255),b
  3464  000712  0E00               	movlw	0
  3465  000714  6F17               	movwf	pick_and_place@i_918& (0+255),b
  3466  000716  EF94  F003         	goto	l4927
  3467  00071A                     l4923:
  3468  00071A  FFFF               	dw	65535	; assembler added errata NOP
  3469                           
  3470                           ; BSR set to: 1
  3471  00071C  5070               	movf	_Y_dir^0,w,c
  3472  00071E  EC06  F015         	call	_Y_axis
  3473  000722  0101               	movlb	1	; () banked
  3474  000724  4B17               	infsnz	pick_and_place@i_918& (0+255),f,b
  3475  000726  2B18               	incf	(pick_and_place@i_918+1)& (0+255),f,b
  3476  000728                     l4927:
  3477  000728  FFFF               	dw	65535	; assembler added errata NOP
  3478                           
  3479                           ; BSR set to: 1
  3480  00072A  5069               	movf	_Y_Pick^0,w,c
  3481  00072C  5C67               	subwf	_Y_Place^0,w,c
  3482  00072E  6E3D               	movwf	??_pick_and_place^0,c
  3483  000730  506A               	movf	(_Y_Pick+1)^0,w,c
  3484  000732  5868               	subwfb	(_Y_Place+1)^0,w,c
  3485  000734  6E3E               	movwf	(??_pick_and_place+1)^0,c
  3486  000736  BE3E               	btfsc	(??_pick_and_place+1)^0,7,c
  3487  000738  EFA9  F003         	goto	u5890
  3488  00073C  503E               	movf	(??_pick_and_place+1)^0,w,c
  3489  00073E  E106               	bnz	u5891
  3490  000740  043D               	decf	??_pick_and_place^0,w,c
  3491  000742  B0D8               	btfsc	status,0,c
  3492  000744  EFA6  F003         	goto	u5891
  3493  000748  EFA9  F003         	goto	u5890
  3494  00074C                     u5891:
  3495  00074C  FFFF               	dw	65535	; assembler added errata NOP
  3496  00074E  EFBA  F003         	goto	l4931
  3497  000752                     u5890:
  3498  000752  FFFF               	dw	65535	; assembler added errata NOP
  3499  000754                     
  3500                           ; BSR set to: 1
  3501  000754  5069               	movf	_Y_Pick^0,w,c
  3502  000756  5C67               	subwf	_Y_Place^0,w,c
  3503  000758  6E3D               	movwf	??_pick_and_place^0,c
  3504  00075A  506A               	movf	(_Y_Pick+1)^0,w,c
  3505  00075C  5868               	subwfb	(_Y_Place+1)^0,w,c
  3506  00075E  6E3E               	movwf	(??_pick_and_place+1)^0,c
  3507  000760  1E3D               	comf	??_pick_and_place^0,f,c
  3508  000762  1E3E               	comf	(??_pick_and_place+1)^0,f,c
  3509  000764  4A3D               	infsnz	??_pick_and_place^0,f,c
  3510  000766  2A3E               	incf	(??_pick_and_place+1)^0,f,c
  3511  000768  C03D  F119         	movff	??_pick_and_place,_pick_and_place$919
  3512  00076C  C03E  F11A         	movff	??_pick_and_place+1,_pick_and_place$919+1
  3513  000770  EFC1  F003         	goto	l443
  3514  000774                     l4931:
  3515  000774  FFFF               	dw	65535	; assembler added errata NOP
  3516                           
  3517                           ; BSR set to: 1
  3518  000776  5069               	movf	_Y_Pick^0,w,c
  3519  000778  5C67               	subwf	_Y_Place^0,w,c
  3520  00077A  6F19               	movwf	_pick_and_place$919& (0+255),b
  3521  00077C  506A               	movf	(_Y_Pick+1)^0,w,c
  3522  00077E  5868               	subwfb	(_Y_Place+1)^0,w,c
  3523  000780  6F1A               	movwf	(_pick_and_place$919+1)& (0+255),b
  3524  000782                     l443:
  3525  000782  FFFF               	dw	65535	; assembler added errata NOP
  3526                           
  3527                           ; BSR set to: 1
  3528  000784  5119               	movf	_pick_and_place$919& (0+255),w,b
  3529  000786  5D17               	subwf	pick_and_place@i_918& (0+255),w,b
  3530  000788  5118               	movf	(pick_and_place@i_918+1)& (0+255),w,b
  3531  00078A  0A80               	xorlw	128
  3532  00078C  6E3D               	movwf	??_pick_and_place^0,c
  3533  00078E  511A               	movf	(_pick_and_place$919+1)& (0+255),w,b
  3534  000790  0A80               	xorlw	128
  3535  000792  583D               	subwfb	??_pick_and_place^0,w,c
  3536  000794  B0D8               	btfsc	status,0,c
  3537  000796  EFCF  F003         	goto	u5901
  3538  00079A  EFD2  F003         	goto	u5900
  3539  00079E                     u5901:
  3540  00079E  FFFF               	dw	65535	; assembler added errata NOP
  3541  0007A0  EFDC  F003         	goto	l4935
  3542  0007A4                     u5900:
  3543  0007A4  FFFF               	dw	65535	; assembler added errata NOP
  3544  0007A6                     
  3545                           ; BSR set to: 1
  3546  0007A6  5072               	movf	_stop^0,w,c
  3547  0007A8  B4D8               	btfsc	status,2,c
  3548  0007AA  EFD9  F003         	goto	u5911
  3549  0007AE  EFDC  F003         	goto	u5910
  3550  0007B2                     u5911:
  3551  0007B2  FFFF               	dw	65535	; assembler added errata NOP
  3552  0007B4  EF8D  F003         	goto	l4923
  3553  0007B8                     u5910:
  3554  0007B8                     l4935:
  3555  0007B8  FFFF               	dw	65535	; assembler added errata NOP
  3556                           
  3557                           ; BSR set to: 1
  3558                           ;main.c: 668:         for(int i = 0; (i<(((Pick_Angle-Place_Angle) > 0 ? (Pick_Angle-Pla
      +                          ce_Angle) : -(Pick_Angle-Place_Angle))/3.6)) && !stop; i++){Twister(Rot_dir);}
  3559  0007BA  0E00               	movlw	0
  3560  0007BC  6F1C               	movwf	(pick_and_place@i_920+1)& (0+255),b
  3561  0007BE  0E00               	movlw	0
  3562  0007C0  6F1B               	movwf	pick_and_place@i_920& (0+255),b
  3563  0007C2  EFEA  F003         	goto	l4941
  3564  0007C6                     l4937:
  3565  0007C6  FFFF               	dw	65535	; assembler added errata NOP
  3566  0007C8  506F               	movf	_Rot_dir^0,w,c
  3567  0007CA  EC83  F016         	call	_Twister
  3568  0007CE  0101               	movlb	1	; () banked
  3569  0007D0  4B1B               	infsnz	pick_and_place@i_920& (0+255),f,b
  3570  0007D2  2B1C               	incf	(pick_and_place@i_920+1)& (0+255),f,b
  3571  0007D4                     l4941:
  3572  0007D4  FFFF               	dw	65535	; assembler added errata NOP
  3573                           
  3574                           ; BSR set to: 1
  3575  0007D6  5063               	movf	_Place_Angle^0,w,c
  3576  0007D8  5C65               	subwf	_Pick_Angle^0,w,c
  3577  0007DA  6E3D               	movwf	??_pick_and_place^0,c
  3578  0007DC  5064               	movf	(_Place_Angle+1)^0,w,c
  3579  0007DE  5866               	subwfb	(_Pick_Angle+1)^0,w,c
  3580  0007E0  6E3E               	movwf	(??_pick_and_place+1)^0,c
  3581  0007E2  BE3E               	btfsc	(??_pick_and_place+1)^0,7,c
  3582  0007E4  EFFF  F003         	goto	u5920
  3583  0007E8  503E               	movf	(??_pick_and_place+1)^0,w,c
  3584  0007EA  E106               	bnz	u5921
  3585  0007EC  043D               	decf	??_pick_and_place^0,w,c
  3586  0007EE  B0D8               	btfsc	status,0,c
  3587  0007F0  EFFC  F003         	goto	u5921
  3588  0007F4  EFFF  F003         	goto	u5920
  3589  0007F8                     u5921:
  3590  0007F8  FFFF               	dw	65535	; assembler added errata NOP
  3591  0007FA  EF10  F004         	goto	l4945
  3592  0007FE                     u5920:
  3593  0007FE  FFFF               	dw	65535	; assembler added errata NOP
  3594  000800                     
  3595                           ; BSR set to: 1
  3596  000800  5063               	movf	_Place_Angle^0,w,c
  3597  000802  5C65               	subwf	_Pick_Angle^0,w,c
  3598  000804  6E3D               	movwf	??_pick_and_place^0,c
  3599  000806  5064               	movf	(_Place_Angle+1)^0,w,c
  3600  000808  5866               	subwfb	(_Pick_Angle+1)^0,w,c
  3601  00080A  6E3E               	movwf	(??_pick_and_place+1)^0,c
  3602  00080C  1E3D               	comf	??_pick_and_place^0,f,c
  3603  00080E  1E3E               	comf	(??_pick_and_place+1)^0,f,c
  3604  000810  4A3D               	infsnz	??_pick_and_place^0,f,c
  3605  000812  2A3E               	incf	(??_pick_and_place+1)^0,f,c
  3606  000814  C03D  F11D         	movff	??_pick_and_place,_pick_and_place$921
  3607  000818  C03E  F11E         	movff	??_pick_and_place+1,_pick_and_place$921+1
  3608  00081C  EF17  F004         	goto	l4947
  3609  000820                     l4945:
  3610  000820  FFFF               	dw	65535	; assembler added errata NOP
  3611                           
  3612                           ; BSR set to: 1
  3613  000822  5063               	movf	_Place_Angle^0,w,c
  3614  000824  5C65               	subwf	_Pick_Angle^0,w,c
  3615  000826  6F1D               	movwf	_pick_and_place$921& (0+255),b
  3616  000828  5064               	movf	(_Place_Angle+1)^0,w,c
  3617  00082A  5866               	subwfb	(_Pick_Angle+1)^0,w,c
  3618  00082C  6F1E               	movwf	(_pick_and_place$921+1)& (0+255),b
  3619  00082E                     l4947:
  3620  00082E  FFFF               	dw	65535	; assembler added errata NOP
  3621                           
  3622                           ; BSR set to: 1
  3623  000830  C11B  F00A         	movff	pick_and_place@i_920,___xxtofl@val
  3624  000834  C11C  F00B         	movff	pick_and_place@i_920+1,___xxtofl@val+1
  3625  000838  0E00               	movlw	0
  3626  00083A  BE0B               	btfsc	(___xxtofl@val+1)^0,7,c
  3627  00083C  0EFF               	movlw	-1
  3628  00083E  6E0C               	movwf	(___xxtofl@val+2)^0,c
  3629  000840  6E0D               	movwf	(___xxtofl@val+3)^0,c
  3630  000842  0E01               	movlw	1
  3631  000844  EC00  F00F         	call	___xxtofl
  3632  000848  C00A  F031         	movff	?___xxtofl,___flge@ff1
  3633  00084C  C00B  F032         	movff	?___xxtofl+1,___flge@ff1+1
  3634  000850  C00C  F033         	movff	?___xxtofl+2,___flge@ff1+2
  3635  000854  C00D  F034         	movff	?___xxtofl+3,___flge@ff1+3
  3636  000858  0E66               	movlw	102
  3637  00085A  6E1C               	movwf	___fldiv@a^0,c
  3638  00085C  0E66               	movlw	102
  3639  00085E  6E1D               	movwf	(___fldiv@a+1)^0,c
  3640  000860  0E66               	movlw	102
  3641  000862  6E1E               	movwf	(___fldiv@a+2)^0,c
  3642  000864  0E40               	movlw	64
  3643  000866  6E1F               	movwf	(___fldiv@a+3)^0,c
  3644  000868  C11D  F00A         	movff	_pick_and_place$921,___xxtofl@val
  3645  00086C  C11E  F00B         	movff	_pick_and_place$921+1,___xxtofl@val+1
  3646  000870  0E00               	movlw	0
  3647  000872  BE0B               	btfsc	(___xxtofl@val+1)^0,7,c
  3648  000874  0EFF               	movlw	-1
  3649  000876  6E0C               	movwf	(___xxtofl@val+2)^0,c
  3650  000878  6E0D               	movwf	(___xxtofl@val+3)^0,c
  3651  00087A  0E01               	movlw	1
  3652  00087C  EC00  F00F         	call	___xxtofl
  3653  000880  C00A  F018         	movff	?___xxtofl,___fldiv@b
  3654  000884  C00B  F019         	movff	?___xxtofl+1,___fldiv@b+1
  3655  000888  C00C  F01A         	movff	?___xxtofl+2,___fldiv@b+2
  3656  00088C  C00D  F01B         	movff	?___xxtofl+3,___fldiv@b+3
  3657  000890  ECF3  F009         	call	___fldiv	;wreg free
  3658  000894  C018  F035         	movff	?___fldiv,___flge@ff2
  3659  000898  C019  F036         	movff	?___fldiv+1,___flge@ff2+1
  3660  00089C  C01A  F037         	movff	?___fldiv+2,___flge@ff2+2
  3661  0008A0  C01B  F038         	movff	?___fldiv+3,___flge@ff2+3
  3662  0008A4  EC6D  F013         	call	___flge	;wreg free
  3663  0008A8  B0D8               	btfsc	status,0,c
  3664  0008AA  EF59  F004         	goto	u5931
  3665  0008AE  EF5C  F004         	goto	u5930
  3666  0008B2                     u5931:
  3667  0008B2  FFFF               	dw	65535	; assembler added errata NOP
  3668  0008B4  EF66  F004         	goto	l4951
  3669  0008B8                     u5930:
  3670  0008B8  FFFF               	dw	65535	; assembler added errata NOP
  3671  0008BA  5072               	movf	_stop^0,w,c
  3672  0008BC  B4D8               	btfsc	status,2,c
  3673  0008BE  EF63  F004         	goto	u5941
  3674  0008C2  EF66  F004         	goto	u5940
  3675  0008C6                     u5941:
  3676  0008C6  FFFF               	dw	65535	; assembler added errata NOP
  3677  0008C8  EFE3  F003         	goto	l4937
  3678  0008CC                     u5940:
  3679  0008CC                     l4951:
  3680  0008CC  FFFF               	dw	65535	; assembler added errata NOP
  3681                           
  3682                           ;main.c: 669:         for(int i=0; i<3 && !stop; i++){Z_axis(1);}
  3683  0008CE  0E00               	movlw	0
  3684  0008D0  0101               	movlb	1	; () banked
  3685  0008D2  6F20               	movwf	(pick_and_place@i_922+1)& (0+255),b
  3686  0008D4  0E00               	movlw	0
  3687  0008D6  6F1F               	movwf	pick_and_place@i_922& (0+255),b
  3688  0008D8  EF75  F004         	goto	l4957
  3689  0008DC                     l4953:
  3690  0008DC  FFFF               	dw	65535	; assembler added errata NOP
  3691                           
  3692                           ; BSR set to: 1
  3693  0008DE  0E01               	movlw	1
  3694  0008E0  EC86  F014         	call	_Z_axis
  3695  0008E4  0101               	movlb	1	; () banked
  3696  0008E6  4B1F               	infsnz	pick_and_place@i_922& (0+255),f,b
  3697  0008E8  2B20               	incf	(pick_and_place@i_922+1)& (0+255),f,b
  3698  0008EA                     l4957:
  3699  0008EA  FFFF               	dw	65535	; assembler added errata NOP
  3700                           
  3701                           ; BSR set to: 1
  3702  0008EC  BF20               	btfsc	(pick_and_place@i_922+1)& (0+255),7,b
  3703  0008EE  EF85  F004         	goto	u5950
  3704  0008F2  5120               	movf	(pick_and_place@i_922+1)& (0+255),w,b
  3705  0008F4  E107               	bnz	u5951
  3706  0008F6  0E03               	movlw	3
  3707  0008F8  5D1F               	subwf	pick_and_place@i_922& (0+255),w,b
  3708  0008FA  B0D8               	btfsc	status,0,c
  3709  0008FC  EF82  F004         	goto	u5951
  3710  000900  EF85  F004         	goto	u5950
  3711  000904                     u5951:
  3712  000904  FFFF               	dw	65535	; assembler added errata NOP
  3713  000906  EF8F  F004         	goto	l4961
  3714  00090A                     u5950:
  3715  00090A  FFFF               	dw	65535	; assembler added errata NOP
  3716  00090C                     
  3717                           ; BSR set to: 1
  3718  00090C  5072               	movf	_stop^0,w,c
  3719  00090E  B4D8               	btfsc	status,2,c
  3720  000910  EF8C  F004         	goto	u5961
  3721  000914  EF8F  F004         	goto	u5960
  3722  000918                     u5961:
  3723  000918  FFFF               	dw	65535	; assembler added errata NOP
  3724  00091A  EF6E  F004         	goto	l4953
  3725  00091E                     u5960:
  3726  00091E                     l4961:
  3727  00091E  FFFF               	dw	65535	; assembler added errata NOP
  3728                           
  3729                           ; BSR set to: 1
  3730                           ;main.c: 670:         Tweezer(1);
  3731  000920  0E01               	movlw	1
  3732  000922  EC13  F018         	call	_Tweezer
  3733  000926                     
  3734                           ;main.c: 672:         for(int i=0; i<3 && !stop; i++){Z_axis(0);}
  3735  000926  0E00               	movlw	0
  3736  000928  0101               	movlb	1	; () banked
  3737  00092A  6F22               	movwf	(pick_and_place@i_923+1)& (0+255),b
  3738  00092C  0E00               	movlw	0
  3739  00092E  6F21               	movwf	pick_and_place@i_923& (0+255),b
  3740  000930  EFA1  F004         	goto	l4969
  3741  000934                     l4965:
  3742  000934  FFFF               	dw	65535	; assembler added errata NOP
  3743                           
  3744                           ; BSR set to: 1
  3745  000936  0E00               	movlw	0
  3746  000938  EC86  F014         	call	_Z_axis
  3747  00093C  0101               	movlb	1	; () banked
  3748  00093E  4B21               	infsnz	pick_and_place@i_923& (0+255),f,b
  3749  000940  2B22               	incf	(pick_and_place@i_923+1)& (0+255),f,b
  3750  000942                     l4969:
  3751  000942  FFFF               	dw	65535	; assembler added errata NOP
  3752                           
  3753                           ; BSR set to: 1
  3754  000944  BF22               	btfsc	(pick_and_place@i_923+1)& (0+255),7,b
  3755  000946  EFB1  F004         	goto	u5970
  3756  00094A  5122               	movf	(pick_and_place@i_923+1)& (0+255),w,b
  3757  00094C  E107               	bnz	u5971
  3758  00094E  0E03               	movlw	3
  3759  000950  5D21               	subwf	pick_and_place@i_923& (0+255),w,b
  3760  000952  B0D8               	btfsc	status,0,c
  3761  000954  EFAE  F004         	goto	u5971
  3762  000958  EFB1  F004         	goto	u5970
  3763  00095C                     u5971:
  3764  00095C  FFFF               	dw	65535	; assembler added errata NOP
  3765  00095E  EFBB  F004         	goto	l4973
  3766  000962                     u5970:
  3767  000962  FFFF               	dw	65535	; assembler added errata NOP
  3768  000964                     
  3769                           ; BSR set to: 1
  3770  000964  5072               	movf	_stop^0,w,c
  3771  000966  B4D8               	btfsc	status,2,c
  3772  000968  EFB8  F004         	goto	u5981
  3773  00096C  EFBB  F004         	goto	u5980
  3774  000970                     u5981:
  3775  000970  FFFF               	dw	65535	; assembler added errata NOP
  3776  000972  EF9A  F004         	goto	l4965
  3777  000976                     u5980:
  3778  000976                     l4973:
  3779  000976  FFFF               	dw	65535	; assembler added errata NOP
  3780                           
  3781                           ; BSR set to: 1
  3782                           ;main.c: 673:         Tweezer(0);
  3783  000978  0E00               	movlw	0
  3784  00097A  EC13  F018         	call	_Tweezer
  3785  00097E                     
  3786                           ;main.c: 674:         Angle_diff= Place_Angle;
  3787  00097E  C063  F05D         	movff	_Place_Angle,_Angle_diff
  3788  000982  C064  F05E         	movff	_Place_Angle+1,_Angle_diff+1
  3789  000986                     
  3790                           ;main.c: 675:         X_diff = X_Place;
  3791  000986  C06B  F061         	movff	_X_Place,_X_diff
  3792  00098A  C06C  F062         	movff	_X_Place+1,_X_diff+1
  3793  00098E                     
  3794                           ;main.c: 676:         Y_diff = Y_Place;
  3795  00098E  C067  F05F         	movff	_Y_Place,_Y_diff
  3796  000992  C068  F060         	movff	_Y_Place+1,_Y_diff+1
  3797  000996  0012               	return		;funcret
  3798  000998  FFFF               	dw	65535	; errata NOP
  3799  00099A                     __end_of_pick_and_place:
  3800                           	callstack 0
  3801                           
  3802 ;; *************** function _fetch_parameters *****************
  3803 ;; Defined at:
  3804 ;;		line 583 in file "main.c"
  3805 ;; Parameters:    Size  Location     Type
  3806 ;;  Componnt        1    wreg     unsigned char 
  3807 ;; Auto vars:     Size  Location     Type
  3808 ;;  Componnt        1    9[COMRAM] unsigned char 
  3809 ;; Return value:  Size  Location     Type
  3810 ;;                  2  372[None  ] int 
  3811 ;; Registers used:
  3812 ;;		wreg, status,2, status,0
  3813 ;; Tracked objects:
  3814 ;;		On entry : 0/0
  3815 ;;		On exit  : 0/0
  3816 ;;		Unchanged: 0/0
  3817 ;; Data sizes:     COMRAM   BANK0   BANK1   BANK2   BANK3   BANK4   BANK5
  3818 ;;      Params:         0       0       0       0       0       0       0
  3819 ;;      Locals:         1       0       0       0       0       0       0
  3820 ;;      Temps:          0       0       0       0       0       0       0
  3821 ;;      Totals:         1       0       0       0       0       0       0
  3822 ;;Total ram usage:        1 bytes
  3823 ;; Hardware stack levels used: 1
  3824 ;; Hardware stack levels required when called: 2
  3825 ;; This function calls:
  3826 ;;		Nothing
  3827 ;; This function is called by:
  3828 ;;		_pick_and_place
  3829 ;; This function uses a non-reentrant model
  3830 ;;
  3831                           
  3832                           	psect	text8
  3833  00246A                     __ptext8:
  3834                           	callstack 0
  3835  00246A                     _fetch_parameters:
  3836                           	callstack 0
  3837  00246A  FFFF               	dw	65535	; assembler added errata NOP
  3838                           
  3839                           ;incstack = 0
  3840                           ;fetch_parameters@Componnt stored from wreg
  3841  00246C  6E0A               	movwf	fetch_parameters@Componnt^0,c
  3842  00246E                     
  3843                           ;main.c: 584:     if(Componnt=='A')
  3844  00246E  0E41               	movlw	65
  3845  002470  180A               	xorwf	fetch_parameters@Componnt^0,w,c
  3846  002472  A4D8               	btfss	status,2,c
  3847  002474  EF3E  F012         	goto	u5021
  3848  002478  EF41  F012         	goto	u5020
  3849  00247C                     u5021:
  3850  00247C  FFFF               	dw	65535	; assembler added errata NOP
  3851  00247E  EF5C  F012         	goto	l4519
  3852  002482                     u5020:
  3853  002482  FFFF               	dw	65535	; assembler added errata NOP
  3854  002484                     
  3855                           ;main.c: 585:         {;main.c: 586:             X_Pick=3;
  3856  002484  0E00               	movlw	0
  3857  002486  6E6E               	movwf	(_X_Pick+1)^0,c
  3858  002488  0E03               	movlw	3
  3859  00248A  6E6D               	movwf	_X_Pick^0,c
  3860                           
  3861                           ;main.c: 587:             Y_Pick=4;
  3862  00248C  0E00               	movlw	0
  3863  00248E  6E6A               	movwf	(_Y_Pick+1)^0,c
  3864  002490  0E04               	movlw	4
  3865  002492  6E69               	movwf	_Y_Pick^0,c
  3866                           
  3867                           ;main.c: 588:             Pick_Angle=0;
  3868  002494  0E00               	movlw	0
  3869  002496  6E66               	movwf	(_Pick_Angle+1)^0,c
  3870  002498  0E00               	movlw	0
  3871  00249A  6E65               	movwf	_Pick_Angle^0,c
  3872                           
  3873                           ;main.c: 590:             X_Place=17;
  3874  00249C  0E00               	movlw	0
  3875  00249E  6E6C               	movwf	(_X_Place+1)^0,c
  3876  0024A0  0E11               	movlw	17
  3877  0024A2  6E6B               	movwf	_X_Place^0,c
  3878                           
  3879                           ;main.c: 591:             Y_Place=5;
  3880  0024A4  0E00               	movlw	0
  3881  0024A6  6E68               	movwf	(_Y_Place+1)^0,c
  3882  0024A8  0E05               	movlw	5
  3883  0024AA  6E67               	movwf	_Y_Place^0,c
  3884                           
  3885                           ;main.c: 592:             Place_Angle=270;
  3886  0024AC  0E01               	movlw	1
  3887  0024AE  6E64               	movwf	(_Place_Angle+1)^0,c
  3888  0024B0  0E0E               	movlw	14
  3889  0024B2  6E63               	movwf	_Place_Angle^0,c
  3890                           
  3891                           ;main.c: 593:         }
  3892  0024B4  EFCE  F012         	goto	l380
  3893  0024B8                     l4519:
  3894  0024B8  FFFF               	dw	65535	; assembler added errata NOP
  3895  0024BA  0E42               	movlw	66
  3896  0024BC  180A               	xorwf	fetch_parameters@Componnt^0,w,c
  3897  0024BE  A4D8               	btfss	status,2,c
  3898  0024C0  EF64  F012         	goto	u5031
  3899  0024C4  EF67  F012         	goto	u5030
  3900  0024C8                     u5031:
  3901  0024C8  FFFF               	dw	65535	; assembler added errata NOP
  3902  0024CA  EF82  F012         	goto	l4523
  3903  0024CE                     u5030:
  3904  0024CE  FFFF               	dw	65535	; assembler added errata NOP
  3905  0024D0                     
  3906                           ;main.c: 595:             X_Pick=3;
  3907  0024D0  0E00               	movlw	0
  3908  0024D2  6E6E               	movwf	(_X_Pick+1)^0,c
  3909  0024D4  0E03               	movlw	3
  3910  0024D6  6E6D               	movwf	_X_Pick^0,c
  3911                           
  3912                           ;main.c: 596:             Y_Pick=10;
  3913  0024D8  0E00               	movlw	0
  3914  0024DA  6E6A               	movwf	(_Y_Pick+1)^0,c
  3915  0024DC  0E0A               	movlw	10
  3916  0024DE  6E69               	movwf	_Y_Pick^0,c
  3917                           
  3918                           ;main.c: 597:             Pick_Angle=90;
  3919  0024E0  0E00               	movlw	0
  3920  0024E2  6E66               	movwf	(_Pick_Angle+1)^0,c
  3921  0024E4  0E5A               	movlw	90
  3922  0024E6  6E65               	movwf	_Pick_Angle^0,c
  3923                           
  3924                           ;main.c: 599:             X_Place=10;
  3925  0024E8  0E00               	movlw	0
  3926  0024EA  6E6C               	movwf	(_X_Place+1)^0,c
  3927  0024EC  0E0A               	movlw	10
  3928  0024EE  6E6B               	movwf	_X_Place^0,c
  3929                           
  3930                           ;main.c: 600:              Y_Place=5;
  3931  0024F0  0E00               	movlw	0
  3932  0024F2  6E68               	movwf	(_Y_Place+1)^0,c
  3933  0024F4  0E05               	movlw	5
  3934  0024F6  6E67               	movwf	_Y_Place^0,c
  3935                           
  3936                           ;main.c: 601:             Place_Angle=180;
  3937  0024F8  0E00               	movlw	0
  3938  0024FA  6E64               	movwf	(_Place_Angle+1)^0,c
  3939  0024FC  0EB4               	movlw	180
  3940  0024FE  6E63               	movwf	_Place_Angle^0,c
  3941                           
  3942                           ;main.c: 602:         }
  3943  002500  EFCE  F012         	goto	l380
  3944  002504                     l4523:
  3945  002504  FFFF               	dw	65535	; assembler added errata NOP
  3946  002506  0E43               	movlw	67
  3947  002508  180A               	xorwf	fetch_parameters@Componnt^0,w,c
  3948  00250A  A4D8               	btfss	status,2,c
  3949  00250C  EF8A  F012         	goto	u5041
  3950  002510  EF8D  F012         	goto	u5040
  3951  002514                     u5041:
  3952  002514  FFFF               	dw	65535	; assembler added errata NOP
  3953  002516  EFA8  F012         	goto	l4527
  3954  00251A                     u5040:
  3955  00251A  FFFF               	dw	65535	; assembler added errata NOP
  3956  00251C                     
  3957                           ;main.c: 604:             X_Pick=3;
  3958  00251C  0E00               	movlw	0
  3959  00251E  6E6E               	movwf	(_X_Pick+1)^0,c
  3960  002520  0E03               	movlw	3
  3961  002522  6E6D               	movwf	_X_Pick^0,c
  3962                           
  3963                           ;main.c: 605:             Y_Pick=15;
  3964  002524  0E00               	movlw	0
  3965  002526  6E6A               	movwf	(_Y_Pick+1)^0,c
  3966  002528  0E0F               	movlw	15
  3967  00252A  6E69               	movwf	_Y_Pick^0,c
  3968                           
  3969                           ;main.c: 606:             Pick_Angle=90;
  3970  00252C  0E00               	movlw	0
  3971  00252E  6E66               	movwf	(_Pick_Angle+1)^0,c
  3972  002530  0E5A               	movlw	90
  3973  002532  6E65               	movwf	_Pick_Angle^0,c
  3974                           
  3975                           ;main.c: 608:             X_Place=16;
  3976  002534  0E00               	movlw	0
  3977  002536  6E6C               	movwf	(_X_Place+1)^0,c
  3978  002538  0E10               	movlw	16
  3979  00253A  6E6B               	movwf	_X_Place^0,c
  3980                           
  3981                           ;main.c: 609:             Y_Place=14;
  3982  00253C  0E00               	movlw	0
  3983  00253E  6E68               	movwf	(_Y_Place+1)^0,c
  3984  002540  0E0E               	movlw	14
  3985  002542  6E67               	movwf	_Y_Place^0,c
  3986                           
  3987                           ;main.c: 610:             Place_Angle=270;
  3988  002544  0E01               	movlw	1
  3989  002546  6E64               	movwf	(_Place_Angle+1)^0,c
  3990  002548  0E0E               	movlw	14
  3991  00254A  6E63               	movwf	_Place_Angle^0,c
  3992                           
  3993                           ;main.c: 611:         }
  3994  00254C  EFCE  F012         	goto	l380
  3995  002550                     l4527:
  3996  002550  FFFF               	dw	65535	; assembler added errata NOP
  3997  002552  0E44               	movlw	68
  3998  002554  180A               	xorwf	fetch_parameters@Componnt^0,w,c
  3999  002556  A4D8               	btfss	status,2,c
  4000  002558  EFB0  F012         	goto	u5051
  4001  00255C  EFB3  F012         	goto	u5050
  4002  002560                     u5051:
  4003  002560  FFFF               	dw	65535	; assembler added errata NOP
  4004  002562  EFCE  F012         	goto	l376
  4005  002566                     u5050:
  4006  002566  FFFF               	dw	65535	; assembler added errata NOP
  4007  002568                     
  4008                           ;main.c: 613:             X_Pick=X_Pick_D;
  4009  002568  C0AE  F06D         	movff	_X_Pick_D,_X_Pick
  4010  00256C  C0AF  F06E         	movff	_X_Pick_D+1,_X_Pick+1
  4011                           
  4012                           ;main.c: 614:             Y_Pick=Y_Pick_D;
  4013  002570  C0AC  F069         	movff	_Y_Pick_D,_Y_Pick
  4014  002574  C0AD  F06A         	movff	_Y_Pick_D+1,_Y_Pick+1
  4015                           
  4016                           ;main.c: 615:             Pick_Angle=Pick_Angle_D;
  4017  002578  C0AA  F065         	movff	_Pick_Angle_D,_Pick_Angle
  4018  00257C  C0AB  F066         	movff	_Pick_Angle_D+1,_Pick_Angle+1
  4019                           
  4020                           ;main.c: 617:             X_Place=X_Place_D;
  4021  002580  C0A8  F06B         	movff	_X_Place_D,_X_Place
  4022  002584  C0A9  F06C         	movff	_X_Place_D+1,_X_Place+1
  4023                           
  4024                           ;main.c: 618:             Y_Place=Y_Place_D;
  4025  002588  C0A6  F067         	movff	_Y_Place_D,_Y_Place
  4026  00258C  C0A7  F068         	movff	_Y_Place_D+1,_Y_Place+1
  4027                           
  4028                           ;main.c: 619:             Place_Angle=Place_Angle_D;
  4029  002590  C0A4  F063         	movff	_Place_Angle_D,_Place_Angle
  4030  002594  C0A5  F064         	movff	_Place_Angle_D+1,_Place_Angle+1
  4031  002598  EFCE  F012         	goto	l380
  4032  00259C                     l376:
  4033  00259C                     l380:
  4034  00259C  FFFF               	dw	65535	; assembler added errata NOP
  4035  00259E  0012               	return		;funcret
  4036  0025A0  FFFF               	dw	65535	; errata NOP
  4037  0025A2                     __end_of_fetch_parameters:
  4038                           	callstack 0
  4039                           
  4040 ;; *************** function ___xxtofl *****************
  4041 ;; Defined at:
  4042 ;;		line 10 in file "/opt/microchip/xc8/v2.32/pic/sources/c99/common/xxtofl.c"
  4043 ;; Parameters:    Size  Location     Type
  4044 ;;  sign            1    wreg     unsigned char 
  4045 ;;  val             4    9[COMRAM] long 
  4046 ;; Auto vars:     Size  Location     Type
  4047 ;;  sign            1   17[COMRAM] unsigned char 
  4048 ;;  arg             4   19[COMRAM] unsigned long 
  4049 ;;  exp             1   18[COMRAM] unsigned char 
  4050 ;; Return value:  Size  Location     Type
  4051 ;;                  4    9[COMRAM] unsigned char 
  4052 ;; Registers used:
  4053 ;;		wreg, status,2, status,0
  4054 ;; Tracked objects:
  4055 ;;		On entry : 0/0
  4056 ;;		On exit  : 0/0
  4057 ;;		Unchanged: 0/0
  4058 ;; Data sizes:     COMRAM   BANK0   BANK1   BANK2   BANK3   BANK4   BANK5
  4059 ;;      Params:         4       0       0       0       0       0       0
  4060 ;;      Locals:         6       0       0       0       0       0       0
  4061 ;;      Temps:          4       0       0       0       0       0       0
  4062 ;;      Totals:        14       0       0       0       0       0       0
  4063 ;;Total ram usage:       14 bytes
  4064 ;; Hardware stack levels used: 1
  4065 ;; Hardware stack levels required when called: 2
  4066 ;; This function calls:
  4067 ;;		Nothing
  4068 ;; This function is called by:
  4069 ;;		_pick_and_place
  4070 ;; This function uses a non-reentrant model
  4071 ;;
  4072                           
  4073                           	psect	text9
  4074  001E00                     __ptext9:
  4075                           	callstack 0
  4076  001E00                     ___xxtofl:
  4077                           	callstack 0
  4078  001E00  FFFF               	dw	65535	; assembler added errata NOP
  4079                           
  4080                           ;incstack = 0
  4081                           ;___xxtofl@sign stored from wreg
  4082  001E02  6E12               	movwf	___xxtofl@sign^0,c
  4083  001E04  5012               	movf	___xxtofl@sign^0,w,c
  4084  001E06  B4D8               	btfsc	status,2,c
  4085  001E08  EF08  F00F         	goto	u5341
  4086  001E0C  EF0B  F00F         	goto	u5340
  4087  001E10                     u5341:
  4088  001E10  FFFF               	dw	65535	; assembler added errata NOP
  4089  001E12  EF30  F00F         	goto	l1165
  4090  001E16                     u5340:
  4091  001E16  FFFF               	dw	65535	; assembler added errata NOP
  4092  001E18  BE0D               	btfsc	(___xxtofl@val+3)^0,7,c
  4093  001E1A  EF14  F00F         	goto	u5350
  4094  001E1E  EF11  F00F         	goto	u5351
  4095  001E22                     u5351:
  4096  001E22  FFFF               	dw	65535	; assembler added errata NOP
  4097  001E24  EF30  F00F         	goto	l1165
  4098  001E28                     u5350:
  4099  001E28  FFFF               	dw	65535	; assembler added errata NOP
  4100  001E2A  C00A  F00E         	movff	___xxtofl@val,??___xxtofl
  4101  001E2E  C00B  F00F         	movff	___xxtofl@val+1,??___xxtofl+1
  4102  001E32  C00C  F010         	movff	___xxtofl@val+2,??___xxtofl+2
  4103  001E36  C00D  F011         	movff	___xxtofl@val+3,??___xxtofl+3
  4104  001E3A  1E0E               	comf	??___xxtofl^0,f,c
  4105  001E3C  1E0F               	comf	(??___xxtofl+1)^0,f,c
  4106  001E3E  1E10               	comf	(??___xxtofl+2)^0,f,c
  4107  001E40  1E11               	comf	(??___xxtofl+3)^0,f,c
  4108  001E42  2A0E               	incf	??___xxtofl^0,f,c
  4109  001E44  0E00               	movlw	0
  4110  001E46  220F               	addwfc	(??___xxtofl+1)^0,f,c
  4111  001E48  2210               	addwfc	(??___xxtofl+2)^0,f,c
  4112  001E4A  2211               	addwfc	(??___xxtofl+3)^0,f,c
  4113  001E4C  C00E  F014         	movff	??___xxtofl,___xxtofl@arg
  4114  001E50  C00F  F015         	movff	??___xxtofl+1,___xxtofl@arg+1
  4115  001E54  C010  F016         	movff	??___xxtofl+2,___xxtofl@arg+2
  4116  001E58  C011  F017         	movff	??___xxtofl+3,___xxtofl@arg+3
  4117  001E5C  EF39  F00F         	goto	l4697
  4118  001E60                     l1165:
  4119  001E60  FFFF               	dw	65535	; assembler added errata NOP
  4120  001E62  C00A  F014         	movff	___xxtofl@val,___xxtofl@arg
  4121  001E66  C00B  F015         	movff	___xxtofl@val+1,___xxtofl@arg+1
  4122  001E6A  C00C  F016         	movff	___xxtofl@val+2,___xxtofl@arg+2
  4123  001E6E  C00D  F017         	movff	___xxtofl@val+3,___xxtofl@arg+3
  4124  001E72                     l4697:
  4125  001E72  FFFF               	dw	65535	; assembler added errata NOP
  4126  001E74  500A               	movf	___xxtofl@val^0,w,c
  4127  001E76  100B               	iorwf	(___xxtofl@val+1)^0,w,c
  4128  001E78  100C               	iorwf	(___xxtofl@val+2)^0,w,c
  4129  001E7A  100D               	iorwf	(___xxtofl@val+3)^0,w,c
  4130  001E7C  A4D8               	btfss	status,2,c
  4131  001E7E  EF43  F00F         	goto	u5361
  4132  001E82  EF46  F00F         	goto	u5360
  4133  001E86                     u5361:
  4134  001E86  FFFF               	dw	65535	; assembler added errata NOP
  4135  001E88  EF51  F00F         	goto	l4703
  4136  001E8C                     u5360:
  4137  001E8C  FFFF               	dw	65535	; assembler added errata NOP
  4138  001E8E  0E00               	movlw	0
  4139  001E90  6E0A               	movwf	?___xxtofl^0,c
  4140  001E92  0E00               	movlw	0
  4141  001E94  6E0B               	movwf	(?___xxtofl+1)^0,c
  4142  001E96  0E00               	movlw	0
  4143  001E98  6E0C               	movwf	(?___xxtofl+2)^0,c
  4144  001E9A  0E00               	movlw	0
  4145  001E9C  6E0D               	movwf	(?___xxtofl+3)^0,c
  4146  001E9E  EFF9  F00F         	goto	l1168
  4147  001EA2                     l4703:
  4148  001EA2  FFFF               	dw	65535	; assembler added errata NOP
  4149  001EA4  0E96               	movlw	150
  4150  001EA6  6E13               	movwf	___xxtofl@exp^0,c
  4151  001EA8  EF5D  F00F         	goto	l4707
  4152  001EAC                     l4705:
  4153  001EAC  FFFF               	dw	65535	; assembler added errata NOP
  4154  001EAE  2A13               	incf	___xxtofl@exp^0,f,c
  4155  001EB0  90D8               	bcf	status,0,c
  4156  001EB2  3217               	rrcf	(___xxtofl@arg+3)^0,f,c
  4157  001EB4  3216               	rrcf	(___xxtofl@arg+2)^0,f,c
  4158  001EB6  3215               	rrcf	(___xxtofl@arg+1)^0,f,c
  4159  001EB8  3214               	rrcf	___xxtofl@arg^0,f,c
  4160  001EBA                     l4707:
  4161  001EBA  FFFF               	dw	65535	; assembler added errata NOP
  4162  001EBC  0E00               	movlw	0
  4163  001EBE  1414               	andwf	___xxtofl@arg^0,w,c
  4164  001EC0  6E0E               	movwf	??___xxtofl^0,c
  4165  001EC2  0E00               	movlw	0
  4166  001EC4  1415               	andwf	(___xxtofl@arg+1)^0,w,c
  4167  001EC6  6E0F               	movwf	(??___xxtofl+1)^0,c
  4168  001EC8  0E00               	movlw	0
  4169  001ECA  1416               	andwf	(___xxtofl@arg+2)^0,w,c
  4170  001ECC  6E10               	movwf	(??___xxtofl+2)^0,c
  4171  001ECE  0EFE               	movlw	254
  4172  001ED0  1417               	andwf	(___xxtofl@arg+3)^0,w,c
  4173  001ED2  6E11               	movwf	(??___xxtofl+3)^0,c
  4174  001ED4  500E               	movf	??___xxtofl^0,w,c
  4175  001ED6  100F               	iorwf	(??___xxtofl+1)^0,w,c
  4176  001ED8  1010               	iorwf	(??___xxtofl+2)^0,w,c
  4177  001EDA  1011               	iorwf	(??___xxtofl+3)^0,w,c
  4178  001EDC  A4D8               	btfss	status,2,c
  4179  001EDE  EF73  F00F         	goto	u5371
  4180  001EE2  EF76  F00F         	goto	u5370
  4181  001EE6                     u5371:
  4182  001EE6  FFFF               	dw	65535	; assembler added errata NOP
  4183  001EE8  EF56  F00F         	goto	l4705
  4184  001EEC                     u5370:
  4185  001EEC  FFFF               	dw	65535	; assembler added errata NOP
  4186  001EEE  EF86  F00F         	goto	l1172
  4187  001EF2                     l4709:
  4188  001EF2  FFFF               	dw	65535	; assembler added errata NOP
  4189  001EF4  2A13               	incf	___xxtofl@exp^0,f,c
  4190  001EF6  0E01               	movlw	1
  4191  001EF8  2614               	addwf	___xxtofl@arg^0,f,c
  4192  001EFA  0E00               	movlw	0
  4193  001EFC  2215               	addwfc	(___xxtofl@arg+1)^0,f,c
  4194  001EFE  2216               	addwfc	(___xxtofl@arg+2)^0,f,c
  4195  001F00  2217               	addwfc	(___xxtofl@arg+3)^0,f,c
  4196  001F02  90D8               	bcf	status,0,c
  4197  001F04  3217               	rrcf	(___xxtofl@arg+3)^0,f,c
  4198  001F06  3216               	rrcf	(___xxtofl@arg+2)^0,f,c
  4199  001F08  3215               	rrcf	(___xxtofl@arg+1)^0,f,c
  4200  001F0A  3214               	rrcf	___xxtofl@arg^0,f,c
  4201  001F0C                     l1172:
  4202  001F0C  FFFF               	dw	65535	; assembler added errata NOP
  4203  001F0E  0E00               	movlw	0
  4204  001F10  1414               	andwf	___xxtofl@arg^0,w,c
  4205  001F12  6E0E               	movwf	??___xxtofl^0,c
  4206  001F14  0E00               	movlw	0
  4207  001F16  1415               	andwf	(___xxtofl@arg+1)^0,w,c
  4208  001F18  6E0F               	movwf	(??___xxtofl+1)^0,c
  4209  001F1A  0E00               	movlw	0
  4210  001F1C  1416               	andwf	(___xxtofl@arg+2)^0,w,c
  4211  001F1E  6E10               	movwf	(??___xxtofl+2)^0,c
  4212  001F20  0EFF               	movlw	255
  4213  001F22  1417               	andwf	(___xxtofl@arg+3)^0,w,c
  4214  001F24  6E11               	movwf	(??___xxtofl+3)^0,c
  4215  001F26  500E               	movf	??___xxtofl^0,w,c
  4216  001F28  100F               	iorwf	(??___xxtofl+1)^0,w,c
  4217  001F2A  1010               	iorwf	(??___xxtofl+2)^0,w,c
  4218  001F2C  1011               	iorwf	(??___xxtofl+3)^0,w,c
  4219  001F2E  A4D8               	btfss	status,2,c
  4220  001F30  EF9C  F00F         	goto	u5381
  4221  001F34  EF9F  F00F         	goto	u5380
  4222  001F38                     u5381:
  4223  001F38  FFFF               	dw	65535	; assembler added errata NOP
  4224  001F3A  EF79  F00F         	goto	l4709
  4225  001F3E                     u5380:
  4226  001F3E  FFFF               	dw	65535	; assembler added errata NOP
  4227  001F40  EFA9  F00F         	goto	l4717
  4228  001F44                     l4715:
  4229  001F44  FFFF               	dw	65535	; assembler added errata NOP
  4230  001F46  0613               	decf	___xxtofl@exp^0,f,c
  4231  001F48  90D8               	bcf	status,0,c
  4232  001F4A  3614               	rlcf	___xxtofl@arg^0,f,c
  4233  001F4C  3615               	rlcf	(___xxtofl@arg+1)^0,f,c
  4234  001F4E  3616               	rlcf	(___xxtofl@arg+2)^0,f,c
  4235  001F50  3617               	rlcf	(___xxtofl@arg+3)^0,f,c
  4236  001F52                     l4717:
  4237  001F52  FFFF               	dw	65535	; assembler added errata NOP
  4238  001F54  BE16               	btfsc	(___xxtofl@arg+2)^0,7,c
  4239  001F56  EFAF  F00F         	goto	u5391
  4240  001F5A  EFB2  F00F         	goto	u5390
  4241  001F5E                     u5391:
  4242  001F5E  FFFF               	dw	65535	; assembler added errata NOP
  4243  001F60  EFBC  F00F         	goto	l1179
  4244  001F64                     u5390:
  4245  001F64  FFFF               	dw	65535	; assembler added errata NOP
  4246  001F66  0E02               	movlw	2
  4247  001F68  6013               	cpfslt	___xxtofl@exp^0,c
  4248  001F6A  EFB9  F00F         	goto	u5401
  4249  001F6E  EFBC  F00F         	goto	u5400
  4250  001F72                     u5401:
  4251  001F72  FFFF               	dw	65535	; assembler added errata NOP
  4252  001F74  EFA2  F00F         	goto	l4715
  4253  001F78                     u5400:
  4254  001F78                     l1179:
  4255  001F78  FFFF               	dw	65535	; assembler added errata NOP
  4256  001F7A  B013               	btfsc	___xxtofl@exp^0,0,c
  4257  001F7C  EFC2  F00F         	goto	u5411
  4258  001F80  EFC5  F00F         	goto	u5410
  4259  001F84                     u5411:
  4260  001F84  FFFF               	dw	65535	; assembler added errata NOP
  4261  001F86  EFC7  F00F         	goto	l4723
  4262  001F8A                     u5410:
  4263  001F8A  FFFF               	dw	65535	; assembler added errata NOP
  4264  001F8C  9E16               	bcf	(___xxtofl@arg+2)^0,7,c
  4265  001F8E                     l4723:
  4266  001F8E  FFFF               	dw	65535	; assembler added errata NOP
  4267  001F90  90D8               	bcf	status,0,c
  4268  001F92  3213               	rrcf	___xxtofl@exp^0,f,c
  4269  001F94  C013  F00E         	movff	___xxtofl@exp,??___xxtofl
  4270  001F98  6A0F               	clrf	(??___xxtofl+1)^0,c
  4271  001F9A  6A10               	clrf	(??___xxtofl+2)^0,c
  4272  001F9C  6A11               	clrf	(??___xxtofl+3)^0,c
  4273  001F9E  C00E  F011         	movff	??___xxtofl,??___xxtofl+3
  4274  001FA2  6A10               	clrf	(??___xxtofl+2)^0,c
  4275  001FA4  6A0F               	clrf	(??___xxtofl+1)^0,c
  4276  001FA6  6A0E               	clrf	??___xxtofl^0,c
  4277  001FA8  500E               	movf	??___xxtofl^0,w,c
  4278  001FAA  1214               	iorwf	___xxtofl@arg^0,f,c
  4279  001FAC  500F               	movf	(??___xxtofl+1)^0,w,c
  4280  001FAE  1215               	iorwf	(___xxtofl@arg+1)^0,f,c
  4281  001FB0  5010               	movf	(??___xxtofl+2)^0,w,c
  4282  001FB2  1216               	iorwf	(___xxtofl@arg+2)^0,f,c
  4283  001FB4  5011               	movf	(??___xxtofl+3)^0,w,c
  4284  001FB6  1217               	iorwf	(___xxtofl@arg+3)^0,f,c
  4285  001FB8  5012               	movf	___xxtofl@sign^0,w,c
  4286  001FBA  B4D8               	btfsc	status,2,c
  4287  001FBC  EFE2  F00F         	goto	u5421
  4288  001FC0  EFE5  F00F         	goto	u5420
  4289  001FC4                     u5421:
  4290  001FC4  FFFF               	dw	65535	; assembler added errata NOP
  4291  001FC6  EFF0  F00F         	goto	l4733
  4292  001FCA                     u5420:
  4293  001FCA  FFFF               	dw	65535	; assembler added errata NOP
  4294  001FCC  BE0D               	btfsc	(___xxtofl@val+3)^0,7,c
  4295  001FCE  EFEE  F00F         	goto	u5430
  4296  001FD2  EFEB  F00F         	goto	u5431
  4297  001FD6                     u5431:
  4298  001FD6  FFFF               	dw	65535	; assembler added errata NOP
  4299  001FD8  EFF0  F00F         	goto	l4733
  4300  001FDC                     u5430:
  4301  001FDC  FFFF               	dw	65535	; assembler added errata NOP
  4302  001FDE  8E17               	bsf	(___xxtofl@arg+3)^0,7,c
  4303  001FE0                     l4733:
  4304  001FE0  FFFF               	dw	65535	; assembler added errata NOP
  4305  001FE2  C014  F00A         	movff	___xxtofl@arg,?___xxtofl
  4306  001FE6  C015  F00B         	movff	___xxtofl@arg+1,?___xxtofl+1
  4307  001FEA  C016  F00C         	movff	___xxtofl@arg+2,?___xxtofl+2
  4308  001FEE  C017  F00D         	movff	___xxtofl@arg+3,?___xxtofl+3
  4309  001FF2                     l1168:
  4310  001FF2  FFFF               	dw	65535	; assembler added errata NOP
  4311  001FF4  0012               	return		;funcret
  4312  001FF6  FFFF               	dw	65535	; errata NOP
  4313  001FF8                     __end_of___xxtofl:
  4314                           	callstack 0
  4315                           
  4316 ;; *************** function ___fldiv *****************
  4317 ;; Defined at:
  4318 ;;		line 11 in file "/opt/microchip/xc8/v2.32/pic/sources/c99/common/sprcdiv.c"
  4319 ;; Parameters:    Size  Location     Type
  4320 ;;  b               4   23[COMRAM] unsigned char 
  4321 ;;  a               4   27[COMRAM] unsigned char 
  4322 ;; Auto vars:     Size  Location     Type
  4323 ;;  grs             4   42[COMRAM] unsigned long 
  4324 ;;  rem             4   35[COMRAM] unsigned long 
  4325 ;;  new_exp         2   40[COMRAM] short 
  4326 ;;  aexp            1   47[COMRAM] unsigned char 
  4327 ;;  bexp            1   46[COMRAM] unsigned char 
  4328 ;;  sign            1   39[COMRAM] unsigned char 
  4329 ;; Return value:  Size  Location     Type
  4330 ;;                  4   23[COMRAM] unsigned char 
  4331 ;; Registers used:
  4332 ;;		wreg, status,2, status,0
  4333 ;; Tracked objects:
  4334 ;;		On entry : 0/0
  4335 ;;		On exit  : 0/0
  4336 ;;		Unchanged: 0/0
  4337 ;; Data sizes:     COMRAM   BANK0   BANK1   BANK2   BANK3   BANK4   BANK5
  4338 ;;      Params:         8       0       0       0       0       0       0
  4339 ;;      Locals:        13       0       0       0       0       0       0
  4340 ;;      Temps:          4       0       0       0       0       0       0
  4341 ;;      Totals:        25       0       0       0       0       0       0
  4342 ;;Total ram usage:       25 bytes
  4343 ;; Hardware stack levels used: 1
  4344 ;; Hardware stack levels required when called: 2
  4345 ;; This function calls:
  4346 ;;		Nothing
  4347 ;; This function is called by:
  4348 ;;		_pick_and_place
  4349 ;; This function uses a non-reentrant model
  4350 ;;
  4351                           
  4352                           	psect	text10
  4353  0013E6                     __ptext10:
  4354                           	callstack 0
  4355  0013E6                     ___fldiv:
  4356                           	callstack 0
  4357  0013E6  FFFF               	dw	65535	; assembler added errata NOP
  4358  0013E8  501B               	movf	(___fldiv@b+3)^0,w,c
  4359  0013EA  0B80               	andlw	128
  4360  0013EC  6E28               	movwf	___fldiv@sign^0,c
  4361  0013EE  501B               	movf	(___fldiv@b+3)^0,w,c
  4362  0013F0  241B               	addwf	(___fldiv@b+3)^0,w,c
  4363  0013F2  6E2F               	movwf	___fldiv@bexp^0,c
  4364  0013F4  AE1A               	btfss	(___fldiv@b+2)^0,7,c
  4365  0013F6  EFFF  F009         	goto	u5061
  4366  0013FA  EF02  F00A         	goto	u5060
  4367  0013FE                     u5061:
  4368  0013FE  FFFF               	dw	65535	; assembler added errata NOP
  4369  001400  EF04  F00A         	goto	l4537
  4370  001404                     u5060:
  4371  001404  FFFF               	dw	65535	; assembler added errata NOP
  4372  001406  802F               	bsf	___fldiv@bexp^0,0,c
  4373  001408                     l4537:
  4374  001408  FFFF               	dw	65535	; assembler added errata NOP
  4375  00140A  502F               	movf	___fldiv@bexp^0,w,c
  4376  00140C  B4D8               	btfsc	status,2,c
  4377  00140E  EF0B  F00A         	goto	u5071
  4378  001412  EF0E  F00A         	goto	u5070
  4379  001416                     u5071:
  4380  001416  FFFF               	dw	65535	; assembler added errata NOP
  4381  001418  EF27  F00A         	goto	l4547
  4382  00141C                     u5070:
  4383  00141C  FFFF               	dw	65535	; assembler added errata NOP
  4384  00141E  282F               	incf	___fldiv@bexp^0,w,c
  4385  001420  A4D8               	btfss	status,2,c
  4386  001422  EF15  F00A         	goto	u5081
  4387  001426  EF18  F00A         	goto	u5080
  4388  00142A                     u5081:
  4389  00142A  FFFF               	dw	65535	; assembler added errata NOP
  4390  00142C  EF21  F00A         	goto	l4543
  4391  001430                     u5080:
  4392  001430  FFFF               	dw	65535	; assembler added errata NOP
  4393  001432  0E00               	movlw	0
  4394  001434  6E18               	movwf	___fldiv@b^0,c
  4395  001436  0E00               	movlw	0
  4396  001438  6E19               	movwf	(___fldiv@b+1)^0,c
  4397  00143A  0E00               	movlw	0
  4398  00143C  6E1A               	movwf	(___fldiv@b+2)^0,c
  4399  00143E  0E00               	movlw	0
  4400  001440  6E1B               	movwf	(___fldiv@b+3)^0,c
  4401  001442                     l4543:
  4402  001442  FFFF               	dw	65535	; assembler added errata NOP
  4403  001444  8E1A               	bsf	(___fldiv@b+2)^0,7,c
  4404  001446  0E00               	movlw	0
  4405  001448  6E1B               	movwf	(___fldiv@b+3)^0,c
  4406  00144A  EF30  F00A         	goto	l4549
  4407  00144E                     l4547:
  4408  00144E  FFFF               	dw	65535	; assembler added errata NOP
  4409  001450  0E00               	movlw	0
  4410  001452  6E18               	movwf	___fldiv@b^0,c
  4411  001454  0E00               	movlw	0
  4412  001456  6E19               	movwf	(___fldiv@b+1)^0,c
  4413  001458  0E00               	movlw	0
  4414  00145A  6E1A               	movwf	(___fldiv@b+2)^0,c
  4415  00145C  0E00               	movlw	0
  4416  00145E  6E1B               	movwf	(___fldiv@b+3)^0,c
  4417  001460                     l4549:
  4418  001460  FFFF               	dw	65535	; assembler added errata NOP
  4419  001462  501F               	movf	(___fldiv@a+3)^0,w,c
  4420  001464  0B80               	andlw	128
  4421  001466  1A28               	xorwf	___fldiv@sign^0,f,c
  4422  001468  501F               	movf	(___fldiv@a+3)^0,w,c
  4423  00146A  241F               	addwf	(___fldiv@a+3)^0,w,c
  4424  00146C  6E30               	movwf	___fldiv@aexp^0,c
  4425  00146E  AE1E               	btfss	(___fldiv@a+2)^0,7,c
  4426  001470  EF3C  F00A         	goto	u5091
  4427  001474  EF3F  F00A         	goto	u5090
  4428  001478                     u5091:
  4429  001478  FFFF               	dw	65535	; assembler added errata NOP
  4430  00147A  EF41  F00A         	goto	l4557
  4431  00147E                     u5090:
  4432  00147E  FFFF               	dw	65535	; assembler added errata NOP
  4433  001480  8030               	bsf	___fldiv@aexp^0,0,c
  4434  001482                     l4557:
  4435  001482  FFFF               	dw	65535	; assembler added errata NOP
  4436  001484  5030               	movf	___fldiv@aexp^0,w,c
  4437  001486  B4D8               	btfsc	status,2,c
  4438  001488  EF48  F00A         	goto	u5101
  4439  00148C  EF4B  F00A         	goto	u5100
  4440  001490                     u5101:
  4441  001490  FFFF               	dw	65535	; assembler added errata NOP
  4442  001492  EF64  F00A         	goto	l4567
  4443  001496                     u5100:
  4444  001496  FFFF               	dw	65535	; assembler added errata NOP
  4445  001498  2830               	incf	___fldiv@aexp^0,w,c
  4446  00149A  A4D8               	btfss	status,2,c
  4447  00149C  EF52  F00A         	goto	u5111
  4448  0014A0  EF55  F00A         	goto	u5110
  4449  0014A4                     u5111:
  4450  0014A4  FFFF               	dw	65535	; assembler added errata NOP
  4451  0014A6  EF5E  F00A         	goto	l4563
  4452  0014AA                     u5110:
  4453  0014AA  FFFF               	dw	65535	; assembler added errata NOP
  4454  0014AC  0E00               	movlw	0
  4455  0014AE  6E1C               	movwf	___fldiv@a^0,c
  4456  0014B0  0E00               	movlw	0
  4457  0014B2  6E1D               	movwf	(___fldiv@a+1)^0,c
  4458  0014B4  0E00               	movlw	0
  4459  0014B6  6E1E               	movwf	(___fldiv@a+2)^0,c
  4460  0014B8  0E00               	movlw	0
  4461  0014BA  6E1F               	movwf	(___fldiv@a+3)^0,c
  4462  0014BC                     l4563:
  4463  0014BC  FFFF               	dw	65535	; assembler added errata NOP
  4464  0014BE  8E1E               	bsf	(___fldiv@a+2)^0,7,c
  4465  0014C0  0E00               	movlw	0
  4466  0014C2  6E1F               	movwf	(___fldiv@a+3)^0,c
  4467  0014C4  EF6D  F00A         	goto	l4569
  4468  0014C8                     l4567:
  4469  0014C8  FFFF               	dw	65535	; assembler added errata NOP
  4470  0014CA  0E00               	movlw	0
  4471  0014CC  6E1C               	movwf	___fldiv@a^0,c
  4472  0014CE  0E00               	movlw	0
  4473  0014D0  6E1D               	movwf	(___fldiv@a+1)^0,c
  4474  0014D2  0E00               	movlw	0
  4475  0014D4  6E1E               	movwf	(___fldiv@a+2)^0,c
  4476  0014D6  0E00               	movlw	0
  4477  0014D8  6E1F               	movwf	(___fldiv@a+3)^0,c
  4478  0014DA                     l4569:
  4479  0014DA  FFFF               	dw	65535	; assembler added errata NOP
  4480  0014DC  501C               	movf	___fldiv@a^0,w,c
  4481  0014DE  101D               	iorwf	(___fldiv@a+1)^0,w,c
  4482  0014E0  101E               	iorwf	(___fldiv@a+2)^0,w,c
  4483  0014E2  101F               	iorwf	(___fldiv@a+3)^0,w,c
  4484  0014E4  A4D8               	btfss	status,2,c
  4485  0014E6  EF77  F00A         	goto	u5121
  4486  0014EA  EF7A  F00A         	goto	u5120
  4487  0014EE                     u5121:
  4488  0014EE  FFFF               	dw	65535	; assembler added errata NOP
  4489  0014F0  EF94  F00A         	goto	l4581
  4490  0014F4                     u5120:
  4491  0014F4  FFFF               	dw	65535	; assembler added errata NOP
  4492  0014F6  0E00               	movlw	0
  4493  0014F8  6E18               	movwf	___fldiv@b^0,c
  4494  0014FA  0E00               	movlw	0
  4495  0014FC  6E19               	movwf	(___fldiv@b+1)^0,c
  4496  0014FE  0E00               	movlw	0
  4497  001500  6E1A               	movwf	(___fldiv@b+2)^0,c
  4498  001502  0E00               	movlw	0
  4499  001504  6E1B               	movwf	(___fldiv@b+3)^0,c
  4500  001506  0E80               	movlw	128
  4501  001508  121A               	iorwf	(___fldiv@b+2)^0,f,c
  4502  00150A  0E7F               	movlw	127
  4503  00150C  121B               	iorwf	(___fldiv@b+3)^0,f,c
  4504  00150E                     l4575:
  4505  00150E  FFFF               	dw	65535	; assembler added errata NOP
  4506  001510  5028               	movf	___fldiv@sign^0,w,c
  4507  001512  121B               	iorwf	(___fldiv@b+3)^0,f,c
  4508  001514  C018  F018         	movff	___fldiv@b,?___fldiv
  4509  001518  C019  F019         	movff	___fldiv@b+1,?___fldiv+1
  4510  00151C  C01A  F01A         	movff	___fldiv@b+2,?___fldiv+2
  4511  001520  C01B  F01B         	movff	___fldiv@b+3,?___fldiv+3
  4512  001524  EF09  F00C         	goto	l1092
  4513  001528                     l4581:
  4514  001528  FFFF               	dw	65535	; assembler added errata NOP
  4515  00152A  502F               	movf	___fldiv@bexp^0,w,c
  4516  00152C  A4D8               	btfss	status,2,c
  4517  00152E  EF9B  F00A         	goto	u5131
  4518  001532  EF9E  F00A         	goto	u5130
  4519  001536                     u5131:
  4520  001536  FFFF               	dw	65535	; assembler added errata NOP
  4521  001538  EFA9  F00A         	goto	l4589
  4522  00153C                     u5130:
  4523  00153C  FFFF               	dw	65535	; assembler added errata NOP
  4524  00153E  0E00               	movlw	0
  4525  001540  6E18               	movwf	?___fldiv^0,c
  4526  001542  0E00               	movlw	0
  4527  001544  6E19               	movwf	(?___fldiv+1)^0,c
  4528  001546  0E00               	movlw	0
  4529  001548  6E1A               	movwf	(?___fldiv+2)^0,c
  4530  00154A  0E00               	movlw	0
  4531  00154C  6E1B               	movwf	(?___fldiv+3)^0,c
  4532  00154E  EF09  F00C         	goto	l1092
  4533  001552                     l4589:
  4534  001552  FFFF               	dw	65535	; assembler added errata NOP
  4535  001554  5030               	movf	___fldiv@aexp^0,w,c
  4536  001556  C02F  F020         	movff	___fldiv@bexp,??___fldiv
  4537  00155A  6A21               	clrf	(??___fldiv+1)^0,c
  4538  00155C  5E20               	subwf	??___fldiv^0,f,c
  4539  00155E  0E00               	movlw	0
  4540  001560  5A21               	subwfb	(??___fldiv+1)^0,f,c
  4541  001562  0E7F               	movlw	127
  4542  001564  2420               	addwf	??___fldiv^0,w,c
  4543  001566  6E29               	movwf	___fldiv@new_exp^0,c
  4544  001568  0E00               	movlw	0
  4545  00156A  2021               	addwfc	(??___fldiv+1)^0,w,c
  4546  00156C  6E2A               	movwf	(___fldiv@new_exp+1)^0,c
  4547  00156E  C018  F024         	movff	___fldiv@b,___fldiv@rem
  4548  001572  C019  F025         	movff	___fldiv@b+1,___fldiv@rem+1
  4549  001576  C01A  F026         	movff	___fldiv@b+2,___fldiv@rem+2
  4550  00157A  C01B  F027         	movff	___fldiv@b+3,___fldiv@rem+3
  4551  00157E  0E00               	movlw	0
  4552  001580  6E18               	movwf	___fldiv@b^0,c
  4553  001582  0E00               	movlw	0
  4554  001584  6E19               	movwf	(___fldiv@b+1)^0,c
  4555  001586  0E00               	movlw	0
  4556  001588  6E1A               	movwf	(___fldiv@b+2)^0,c
  4557  00158A  0E00               	movlw	0
  4558  00158C  6E1B               	movwf	(___fldiv@b+3)^0,c
  4559  00158E  0E00               	movlw	0
  4560  001590  6E2B               	movwf	___fldiv@grs^0,c
  4561  001592  0E00               	movlw	0
  4562  001594  6E2C               	movwf	(___fldiv@grs+1)^0,c
  4563  001596  0E00               	movlw	0
  4564  001598  6E2D               	movwf	(___fldiv@grs+2)^0,c
  4565  00159A  0E00               	movlw	0
  4566  00159C  6E2E               	movwf	(___fldiv@grs+3)^0,c
  4567  00159E  0E00               	movlw	0
  4568  0015A0  6E30               	movwf	___fldiv@aexp^0,c
  4569  0015A2  EF15  F00B         	goto	l1094
  4570  0015A6                     l4599:
  4571  0015A6  FFFF               	dw	65535	; assembler added errata NOP
  4572  0015A8  5030               	movf	___fldiv@aexp^0,w,c
  4573  0015AA  B4D8               	btfsc	status,2,c
  4574  0015AC  EFDA  F00A         	goto	u5141
  4575  0015B0  EFDD  F00A         	goto	u5140
  4576  0015B4                     u5141:
  4577  0015B4  FFFF               	dw	65535	; assembler added errata NOP
  4578  0015B6  EFF8  F00A         	goto	l4607
  4579  0015BA                     u5140:
  4580  0015BA  FFFF               	dw	65535	; assembler added errata NOP
  4581  0015BC  90D8               	bcf	status,0,c
  4582  0015BE  3624               	rlcf	___fldiv@rem^0,f,c
  4583  0015C0  3625               	rlcf	(___fldiv@rem+1)^0,f,c
  4584  0015C2  3626               	rlcf	(___fldiv@rem+2)^0,f,c
  4585  0015C4  3627               	rlcf	(___fldiv@rem+3)^0,f,c
  4586  0015C6  90D8               	bcf	status,0,c
  4587  0015C8  3618               	rlcf	___fldiv@b^0,f,c
  4588  0015CA  3619               	rlcf	(___fldiv@b+1)^0,f,c
  4589  0015CC  361A               	rlcf	(___fldiv@b+2)^0,f,c
  4590  0015CE  361B               	rlcf	(___fldiv@b+3)^0,f,c
  4591  0015D0  AE2E               	btfss	(___fldiv@grs+3)^0,7,c
  4592  0015D2  EFED  F00A         	goto	u5151
  4593  0015D6  EFF0  F00A         	goto	u5150
  4594  0015DA                     u5151:
  4595  0015DA  FFFF               	dw	65535	; assembler added errata NOP
  4596  0015DC  EFF2  F00A         	goto	l1097
  4597  0015E0                     u5150:
  4598  0015E0  FFFF               	dw	65535	; assembler added errata NOP
  4599  0015E2  8018               	bsf	___fldiv@b^0,0,c
  4600  0015E4                     l1097:
  4601  0015E4  FFFF               	dw	65535	; assembler added errata NOP
  4602  0015E6  90D8               	bcf	status,0,c
  4603  0015E8  362B               	rlcf	___fldiv@grs^0,f,c
  4604  0015EA  362C               	rlcf	(___fldiv@grs+1)^0,f,c
  4605  0015EC  362D               	rlcf	(___fldiv@grs+2)^0,f,c
  4606  0015EE  362E               	rlcf	(___fldiv@grs+3)^0,f,c
  4607  0015F0                     l4607:
  4608  0015F0  FFFF               	dw	65535	; assembler added errata NOP
  4609  0015F2  501C               	movf	___fldiv@a^0,w,c
  4610  0015F4  5C24               	subwf	___fldiv@rem^0,w,c
  4611  0015F6  501D               	movf	(___fldiv@a+1)^0,w,c
  4612  0015F8  5825               	subwfb	(___fldiv@rem+1)^0,w,c
  4613  0015FA  501E               	movf	(___fldiv@a+2)^0,w,c
  4614  0015FC  5826               	subwfb	(___fldiv@rem+2)^0,w,c
  4615  0015FE  501F               	movf	(___fldiv@a+3)^0,w,c
  4616  001600  5827               	subwfb	(___fldiv@rem+3)^0,w,c
  4617  001602  A0D8               	btfss	status,0,c
  4618  001604  EF06  F00B         	goto	u5161
  4619  001608  EF09  F00B         	goto	u5160
  4620  00160C                     u5161:
  4621  00160C  FFFF               	dw	65535	; assembler added errata NOP
  4622  00160E  EF13  F00B         	goto	l4613
  4623  001612                     u5160:
  4624  001612  FFFF               	dw	65535	; assembler added errata NOP
  4625  001614  8C2E               	bsf	(___fldiv@grs+3)^0,6,c
  4626  001616  501C               	movf	___fldiv@a^0,w,c
  4627  001618  5E24               	subwf	___fldiv@rem^0,f,c
  4628  00161A  501D               	movf	(___fldiv@a+1)^0,w,c
  4629  00161C  5A25               	subwfb	(___fldiv@rem+1)^0,f,c
  4630  00161E  501E               	movf	(___fldiv@a+2)^0,w,c
  4631  001620  5A26               	subwfb	(___fldiv@rem+2)^0,f,c
  4632  001622  501F               	movf	(___fldiv@a+3)^0,w,c
  4633  001624  5A27               	subwfb	(___fldiv@rem+3)^0,f,c
  4634  001626                     l4613:
  4635  001626  FFFF               	dw	65535	; assembler added errata NOP
  4636  001628  2A30               	incf	___fldiv@aexp^0,f,c
  4637  00162A                     l1094:
  4638  00162A  FFFF               	dw	65535	; assembler added errata NOP
  4639  00162C  0E19               	movlw	25
  4640  00162E  6430               	cpfsgt	___fldiv@aexp^0,c
  4641  001630  EF1C  F00B         	goto	u5171
  4642  001634  EF1F  F00B         	goto	u5170
  4643  001638                     u5171:
  4644  001638  FFFF               	dw	65535	; assembler added errata NOP
  4645  00163A  EFD3  F00A         	goto	l4599
  4646  00163E                     u5170:
  4647  00163E  FFFF               	dw	65535	; assembler added errata NOP
  4648  001640  5024               	movf	___fldiv@rem^0,w,c
  4649  001642  1025               	iorwf	(___fldiv@rem+1)^0,w,c
  4650  001644  1026               	iorwf	(___fldiv@rem+2)^0,w,c
  4651  001646  1027               	iorwf	(___fldiv@rem+3)^0,w,c
  4652  001648  B4D8               	btfsc	status,2,c
  4653  00164A  EF29  F00B         	goto	u5181
  4654  00164E  EF2C  F00B         	goto	u5180
  4655  001652                     u5181:
  4656  001652  FFFF               	dw	65535	; assembler added errata NOP
  4657  001654  EF49  F00B         	goto	l4625
  4658  001658                     u5180:
  4659  001658  FFFF               	dw	65535	; assembler added errata NOP
  4660  00165A  802B               	bsf	___fldiv@grs^0,0,c
  4661  00165C  EF49  F00B         	goto	l4625
  4662  001660                     l4619:
  4663  001660  FFFF               	dw	65535	; assembler added errata NOP
  4664  001662  90D8               	bcf	status,0,c
  4665  001664  3618               	rlcf	___fldiv@b^0,f,c
  4666  001666  3619               	rlcf	(___fldiv@b+1)^0,f,c
  4667  001668  361A               	rlcf	(___fldiv@b+2)^0,f,c
  4668  00166A  361B               	rlcf	(___fldiv@b+3)^0,f,c
  4669  00166C  AE2E               	btfss	(___fldiv@grs+3)^0,7,c
  4670  00166E  EF3B  F00B         	goto	u5191
  4671  001672  EF3E  F00B         	goto	u5190
  4672  001676                     u5191:
  4673  001676  FFFF               	dw	65535	; assembler added errata NOP
  4674  001678  EF40  F00B         	goto	l1103
  4675  00167C                     u5190:
  4676  00167C  FFFF               	dw	65535	; assembler added errata NOP
  4677  00167E  8018               	bsf	___fldiv@b^0,0,c
  4678  001680                     l1103:
  4679  001680  FFFF               	dw	65535	; assembler added errata NOP
  4680  001682  90D8               	bcf	status,0,c
  4681  001684  362B               	rlcf	___fldiv@grs^0,f,c
  4682  001686  362C               	rlcf	(___fldiv@grs+1)^0,f,c
  4683  001688  362D               	rlcf	(___fldiv@grs+2)^0,f,c
  4684  00168A  362E               	rlcf	(___fldiv@grs+3)^0,f,c
  4685  00168C  0629               	decf	___fldiv@new_exp^0,f,c
  4686  00168E  A0D8               	btfss	status,0,c
  4687  001690  062A               	decf	(___fldiv@new_exp+1)^0,f,c
  4688  001692                     l4625:
  4689  001692  FFFF               	dw	65535	; assembler added errata NOP
  4690  001694  AE1A               	btfss	(___fldiv@b+2)^0,7,c
  4691  001696  EF4F  F00B         	goto	u5201
  4692  00169A  EF52  F00B         	goto	u5200
  4693  00169E                     u5201:
  4694  00169E  FFFF               	dw	65535	; assembler added errata NOP
  4695  0016A0  EF30  F00B         	goto	l4619
  4696  0016A4                     u5200:
  4697  0016A4  FFFF               	dw	65535	; assembler added errata NOP
  4698  0016A6  0E00               	movlw	0
  4699  0016A8  6E30               	movwf	___fldiv@aexp^0,c
  4700  0016AA  AE2E               	btfss	(___fldiv@grs+3)^0,7,c
  4701  0016AC  EF5A  F00B         	goto	u5211
  4702  0016B0  EF5D  F00B         	goto	u5210
  4703  0016B4                     u5211:
  4704  0016B4  FFFF               	dw	65535	; assembler added errata NOP
  4705  0016B6  EF88  F00B         	goto	l1105
  4706  0016BA                     u5210:
  4707  0016BA  FFFF               	dw	65535	; assembler added errata NOP
  4708  0016BC  0EFF               	movlw	255
  4709  0016BE  142B               	andwf	___fldiv@grs^0,w,c
  4710  0016C0  6E20               	movwf	??___fldiv^0,c
  4711  0016C2  0EFF               	movlw	255
  4712  0016C4  142C               	andwf	(___fldiv@grs+1)^0,w,c
  4713  0016C6  6E21               	movwf	(??___fldiv+1)^0,c
  4714  0016C8  0EFF               	movlw	255
  4715  0016CA  142D               	andwf	(___fldiv@grs+2)^0,w,c
  4716  0016CC  6E22               	movwf	(??___fldiv+2)^0,c
  4717  0016CE  0E7F               	movlw	127
  4718  0016D0  142E               	andwf	(___fldiv@grs+3)^0,w,c
  4719  0016D2  6E23               	movwf	(??___fldiv+3)^0,c
  4720  0016D4  5020               	movf	??___fldiv^0,w,c
  4721  0016D6  1021               	iorwf	(??___fldiv+1)^0,w,c
  4722  0016D8  1022               	iorwf	(??___fldiv+2)^0,w,c
  4723  0016DA  1023               	iorwf	(??___fldiv+3)^0,w,c
  4724  0016DC  B4D8               	btfsc	status,2,c
  4725  0016DE  EF73  F00B         	goto	u5221
  4726  0016E2  EF76  F00B         	goto	u5220
  4727  0016E6                     u5221:
  4728  0016E6  FFFF               	dw	65535	; assembler added errata NOP
  4729  0016E8  EF7C  F00B         	goto	l1106
  4730  0016EC                     u5220:
  4731  0016EC  FFFF               	dw	65535	; assembler added errata NOP
  4732  0016EE                     l4633:
  4733  0016EE  FFFF               	dw	65535	; assembler added errata NOP
  4734  0016F0  0E01               	movlw	1
  4735  0016F2  6E30               	movwf	___fldiv@aexp^0,c
  4736  0016F4  EF88  F00B         	goto	l1105
  4737  0016F8                     l1106:
  4738  0016F8  FFFF               	dw	65535	; assembler added errata NOP
  4739  0016FA  A018               	btfss	___fldiv@b^0,0,c
  4740  0016FC  EF82  F00B         	goto	u5231
  4741  001700  EF85  F00B         	goto	u5230
  4742  001704                     u5231:
  4743  001704  FFFF               	dw	65535	; assembler added errata NOP
  4744  001706  EF88  F00B         	goto	l1105
  4745  00170A                     u5230:
  4746  00170A  FFFF               	dw	65535	; assembler added errata NOP
  4747  00170C  EF77  F00B         	goto	l4633
  4748  001710                     l1105:
  4749  001710  FFFF               	dw	65535	; assembler added errata NOP
  4750  001712  5030               	movf	___fldiv@aexp^0,w,c
  4751  001714  B4D8               	btfsc	status,2,c
  4752  001716  EF8F  F00B         	goto	u5241
  4753  00171A  EF92  F00B         	goto	u5240
  4754  00171E                     u5241:
  4755  00171E  FFFF               	dw	65535	; assembler added errata NOP
  4756  001720  EFB9  F00B         	goto	l4645
  4757  001724                     u5240:
  4758  001724  FFFF               	dw	65535	; assembler added errata NOP
  4759  001726  0E01               	movlw	1
  4760  001728  2618               	addwf	___fldiv@b^0,f,c
  4761  00172A  0E00               	movlw	0
  4762  00172C  2219               	addwfc	(___fldiv@b+1)^0,f,c
  4763  00172E  221A               	addwfc	(___fldiv@b+2)^0,f,c
  4764  001730  221B               	addwfc	(___fldiv@b+3)^0,f,c
  4765  001732  A01B               	btfss	(___fldiv@b+3)^0,0,c
  4766  001734  EF9E  F00B         	goto	u5251
  4767  001738  EFA1  F00B         	goto	u5250
  4768  00173C                     u5251:
  4769  00173C  FFFF               	dw	65535	; assembler added errata NOP
  4770  00173E  EFB9  F00B         	goto	l4645
  4771  001742                     u5250:
  4772  001742  FFFF               	dw	65535	; assembler added errata NOP
  4773  001744  C018  F020         	movff	___fldiv@b,??___fldiv
  4774  001748  C019  F021         	movff	___fldiv@b+1,??___fldiv+1
  4775  00174C  C01A  F022         	movff	___fldiv@b+2,??___fldiv+2
  4776  001750  C01B  F023         	movff	___fldiv@b+3,??___fldiv+3
  4777  001754  3423               	rlcf	(??___fldiv+3)^0,w,c
  4778  001756  3223               	rrcf	(??___fldiv+3)^0,f,c
  4779  001758  3222               	rrcf	(??___fldiv+2)^0,f,c
  4780  00175A  3221               	rrcf	(??___fldiv+1)^0,f,c
  4781  00175C  3220               	rrcf	??___fldiv^0,f,c
  4782  00175E  C020  F018         	movff	??___fldiv,___fldiv@b
  4783  001762  C021  F019         	movff	??___fldiv+1,___fldiv@b+1
  4784  001766  C022  F01A         	movff	??___fldiv+2,___fldiv@b+2
  4785  00176A  C023  F01B         	movff	??___fldiv+3,___fldiv@b+3
  4786  00176E  4A29               	infsnz	___fldiv@new_exp^0,f,c
  4787  001770  2A2A               	incf	(___fldiv@new_exp+1)^0,f,c
  4788  001772                     l4645:
  4789  001772  FFFF               	dw	65535	; assembler added errata NOP
  4790  001774  BE2A               	btfsc	(___fldiv@new_exp+1)^0,7,c
  4791  001776  EFC5  F00B         	goto	u5261
  4792  00177A  502A               	movf	(___fldiv@new_exp+1)^0,w,c
  4793  00177C  E109               	bnz	u5260
  4794  00177E  2829               	incf	___fldiv@new_exp^0,w,c
  4795  001780  A0D8               	btfss	status,0,c
  4796  001782  EFC5  F00B         	goto	u5261
  4797  001786  EFC8  F00B         	goto	u5260
  4798  00178A                     u5261:
  4799  00178A  FFFF               	dw	65535	; assembler added errata NOP
  4800  00178C  EFD4  F00B         	goto	l4649
  4801  001790                     u5260:
  4802  001790  FFFF               	dw	65535	; assembler added errata NOP
  4803  001792  0E00               	movlw	0
  4804  001794  6E2A               	movwf	(___fldiv@new_exp+1)^0,c
  4805  001796  6829               	setf	___fldiv@new_exp^0,c
  4806  001798  0E00               	movlw	0
  4807  00179A  6E18               	movwf	___fldiv@b^0,c
  4808  00179C  0E00               	movlw	0
  4809  00179E  6E19               	movwf	(___fldiv@b+1)^0,c
  4810  0017A0  0E00               	movlw	0
  4811  0017A2  6E1A               	movwf	(___fldiv@b+2)^0,c
  4812  0017A4  0E00               	movlw	0
  4813  0017A6  6E1B               	movwf	(___fldiv@b+3)^0,c
  4814  0017A8                     l4649:
  4815  0017A8  FFFF               	dw	65535	; assembler added errata NOP
  4816  0017AA  BE2A               	btfsc	(___fldiv@new_exp+1)^0,7,c
  4817  0017AC  EFE3  F00B         	goto	u5270
  4818  0017B0  502A               	movf	(___fldiv@new_exp+1)^0,w,c
  4819  0017B2  E106               	bnz	u5271
  4820  0017B4  0429               	decf	___fldiv@new_exp^0,w,c
  4821  0017B6  B0D8               	btfsc	status,0,c
  4822  0017B8  EFE0  F00B         	goto	u5271
  4823  0017BC  EFE3  F00B         	goto	u5270
  4824  0017C0                     u5271:
  4825  0017C0  FFFF               	dw	65535	; assembler added errata NOP
  4826  0017C2  EFF2  F00B         	goto	l4653
  4827  0017C6                     u5270:
  4828  0017C6  FFFF               	dw	65535	; assembler added errata NOP
  4829  0017C8  0E00               	movlw	0
  4830  0017CA  6E2A               	movwf	(___fldiv@new_exp+1)^0,c
  4831  0017CC  0E00               	movlw	0
  4832  0017CE  6E29               	movwf	___fldiv@new_exp^0,c
  4833  0017D0  0E00               	movlw	0
  4834  0017D2  6E18               	movwf	___fldiv@b^0,c
  4835  0017D4  0E00               	movlw	0
  4836  0017D6  6E19               	movwf	(___fldiv@b+1)^0,c
  4837  0017D8  0E00               	movlw	0
  4838  0017DA  6E1A               	movwf	(___fldiv@b+2)^0,c
  4839  0017DC  0E00               	movlw	0
  4840  0017DE  6E1B               	movwf	(___fldiv@b+3)^0,c
  4841  0017E0  0E00               	movlw	0
  4842  0017E2  6E28               	movwf	___fldiv@sign^0,c
  4843  0017E4                     l4653:
  4844  0017E4  FFFF               	dw	65535	; assembler added errata NOP
  4845  0017E6  C029  F02F         	movff	___fldiv@new_exp,___fldiv@bexp
  4846  0017EA  A02F               	btfss	___fldiv@bexp^0,0,c
  4847  0017EC  EFFA  F00B         	goto	u5281
  4848  0017F0  EFFD  F00B         	goto	u5280
  4849  0017F4                     u5281:
  4850  0017F4  FFFF               	dw	65535	; assembler added errata NOP
  4851  0017F6  EF01  F00C         	goto	l4659
  4852  0017FA                     u5280:
  4853  0017FA  FFFF               	dw	65535	; assembler added errata NOP
  4854  0017FC  8E1A               	bsf	(___fldiv@b+2)^0,7,c
  4855  0017FE  EF03  F00C         	goto	l4661
  4856  001802                     l4659:
  4857  001802  FFFF               	dw	65535	; assembler added errata NOP
  4858  001804  9E1A               	bcf	(___fldiv@b+2)^0,7,c
  4859  001806                     l4661:
  4860  001806  FFFF               	dw	65535	; assembler added errata NOP
  4861  001808  90D8               	bcf	status,0,c
  4862  00180A  302F               	rrcf	___fldiv@bexp^0,w,c
  4863  00180C  6E1B               	movwf	(___fldiv@b+3)^0,c
  4864  00180E  EF87  F00A         	goto	l4575
  4865  001812                     l1092:
  4866  001812  FFFF               	dw	65535	; assembler added errata NOP
  4867  001814  0012               	return		;funcret
  4868  001816  FFFF               	dw	65535	; errata NOP
  4869  001818                     __end_of___fldiv:
  4870                           	callstack 0
  4871                           
  4872 ;; *************** function _Z_axis *****************
  4873 ;; Defined at:
  4874 ;;		line 464 in file "main.c"
  4875 ;; Parameters:    Size  Location     Type
  4876 ;;  direction       1    wreg     unsigned char 
  4877 ;; Auto vars:     Size  Location     Type
  4878 ;;  direction       1   15[COMRAM] unsigned char 
  4879 ;; Return value:  Size  Location     Type
  4880 ;;                  1    wreg      void 
  4881 ;; Registers used:
  4882 ;;		wreg, status,2, status,0, cstack
  4883 ;; Tracked objects:
  4884 ;;		On entry : 0/0
  4885 ;;		On exit  : 0/0
  4886 ;;		Unchanged: 0/0
  4887 ;; Data sizes:     COMRAM   BANK0   BANK1   BANK2   BANK3   BANK4   BANK5
  4888 ;;      Params:         0       0       0       0       0       0       0
  4889 ;;      Locals:         1       0       0       0       0       0       0
  4890 ;;      Temps:          0       0       0       0       0       0       0
  4891 ;;      Totals:         1       0       0       0       0       0       0
  4892 ;;Total ram usage:        1 bytes
  4893 ;; Hardware stack levels used: 1
  4894 ;; Hardware stack levels required when called: 3
  4895 ;; This function calls:
  4896 ;;		_ms_delay
  4897 ;; This function is called by:
  4898 ;;		_pick_and_place
  4899 ;;		_return_to_initial
  4900 ;;		_Z_axis_and_Tweezer
  4901 ;; This function uses a non-reentrant model
  4902 ;;
  4903                           
  4904                           	psect	text11
  4905  00290C                     __ptext11:
  4906                           	callstack 0
  4907  00290C                     _Z_axis:
  4908                           	callstack 0
  4909  00290C  FFFF               	dw	65535	; assembler added errata NOP
  4910                           
  4911                           ;incstack = 0
  4912                           ;Z_axis@direction stored from wreg
  4913  00290E  6E10               	movwf	Z_axis@direction^0,c
  4914  002910                     
  4915                           ;main.c: 465:     if(!New_char_RX){
  4916  002910  5074               	movf	_New_char_RX^0,w,c
  4917  002912  A4D8               	btfss	status,2,c
  4918  002914  EF8E  F014         	goto	u4931
  4919  002918  EF91  F014         	goto	u4930
  4920  00291C                     u4931:
  4921  00291C  FFFF               	dw	65535	; assembler added errata NOP
  4922  00291E  EF00  F015         	goto	l4463
  4923  002922                     u4930:
  4924  002922  FFFF               	dw	65535	; assembler added errata NOP
  4925  002924                     
  4926                           ;main.c: 466:         if (direction == 0){
  4927  002924  5010               	movf	Z_axis@direction^0,w,c
  4928  002926  A4D8               	btfss	status,2,c
  4929  002928  EF98  F014         	goto	u4941
  4930  00292C  EF9B  F014         	goto	u4940
  4931  002930                     u4941:
  4932  002930  FFFF               	dw	65535	; assembler added errata NOP
  4933  002932  EFC8  F014         	goto	l4445
  4934  002936                     u4940:
  4935  002936  FFFF               	dw	65535	; assembler added errata NOP
  4936  002938                     
  4937                           ;main.c: 467:             PORTD = 0b00000011;
  4938  002938  0E03               	movlw	3
  4939  00293A  6E83               	movwf	131,c	;volatile
  4940  00293C                     
  4941                           ;main.c: 468:             ms_delay(1);
  4942  00293C  0E00               	movlw	0
  4943  00293E  6E0B               	movwf	(ms_delay@val+1)^0,c
  4944  002940  0E01               	movlw	1
  4945  002942  6E0A               	movwf	ms_delay@val^0,c
  4946  002944  EC79  F018         	call	_ms_delay	;wreg free
  4947  002948                     
  4948                           ;main.c: 469:             PORTD = 0b00000110;
  4949  002948  0E06               	movlw	6
  4950  00294A  6E83               	movwf	131,c	;volatile
  4951                           
  4952                           ;main.c: 470:             ms_delay(1);
  4953  00294C  0E00               	movlw	0
  4954  00294E  6E0B               	movwf	(ms_delay@val+1)^0,c
  4955  002950  0E01               	movlw	1
  4956  002952  6E0A               	movwf	ms_delay@val^0,c
  4957  002954  EC79  F018         	call	_ms_delay	;wreg free
  4958  002958                     
  4959                           ;main.c: 471:             PORTD = 0b00001100;
  4960  002958  0E0C               	movlw	12
  4961  00295A  6E83               	movwf	131,c	;volatile
  4962  00295C                     
  4963                           ;main.c: 472:             ms_delay(1);
  4964  00295C  0E00               	movlw	0
  4965  00295E  6E0B               	movwf	(ms_delay@val+1)^0,c
  4966  002960  0E01               	movlw	1
  4967  002962  6E0A               	movwf	ms_delay@val^0,c
  4968  002964  EC79  F018         	call	_ms_delay	;wreg free
  4969                           
  4970                           ;main.c: 473:             PORTD = 0b00001001;
  4971  002968  0E09               	movlw	9
  4972  00296A  6E83               	movwf	131,c	;volatile
  4973  00296C                     
  4974                           ;main.c: 474:             ms_delay(1);
  4975  00296C  0E00               	movlw	0
  4976  00296E  6E0B               	movwf	(ms_delay@val+1)^0,c
  4977  002970  0E01               	movlw	1
  4978  002972  6E0A               	movwf	ms_delay@val^0,c
  4979  002974  EC79  F018         	call	_ms_delay	;wreg free
  4980  002978                     
  4981                           ;main.c: 475:             PORTD = 0b00000011;
  4982  002978  0E03               	movlw	3
  4983  00297A  6E83               	movwf	131,c	;volatile
  4984                           
  4985                           ;main.c: 476:             ms_delay(5);
  4986  00297C  0E00               	movlw	0
  4987  00297E  6E0B               	movwf	(ms_delay@val+1)^0,c
  4988  002980  0E05               	movlw	5
  4989  002982  6E0A               	movwf	ms_delay@val^0,c
  4990  002984  EC79  F018         	call	_ms_delay	;wreg free
  4991  002988                     
  4992                           ;main.c: 477:             Step_Z--;
  4993  002988  0100               	movlb	0	; () banked
  4994  00298A  07B2               	decf	_Step_Z& (0+255),f,b
  4995  00298C  A0D8               	btfss	status,0,c
  4996  00298E  07B3               	decf	(_Step_Z+1)& (0+255),f,b
  4997  002990                     l4445:
  4998  002990  FFFF               	dw	65535	; assembler added errata NOP
  4999                           
  5000                           ;main.c: 479:         if (direction == 1){
  5001  002992  0410               	decf	Z_axis@direction^0,w,c
  5002  002994  A4D8               	btfss	status,2,c
  5003  002996  EFCF  F014         	goto	u4951
  5004  00299A  EFD2  F014         	goto	u4950
  5005  00299E                     u4951:
  5006  00299E  FFFF               	dw	65535	; assembler added errata NOP
  5007  0029A0  EF03  F015         	goto	l345
  5008  0029A4                     u4950:
  5009  0029A4  FFFF               	dw	65535	; assembler added errata NOP
  5010  0029A6                     
  5011                           ;main.c: 480:             PORTD = 0b00001001;
  5012  0029A6  0E09               	movlw	9
  5013  0029A8  6E83               	movwf	131,c	;volatile
  5014  0029AA                     
  5015                           ;main.c: 481:             ms_delay(1);
  5016  0029AA  0E00               	movlw	0
  5017  0029AC  6E0B               	movwf	(ms_delay@val+1)^0,c
  5018  0029AE  0E01               	movlw	1
  5019  0029B0  6E0A               	movwf	ms_delay@val^0,c
  5020  0029B2  EC79  F018         	call	_ms_delay	;wreg free
  5021  0029B6                     
  5022                           ;main.c: 482:             PORTD = 0b00001100;
  5023  0029B6  0E0C               	movlw	12
  5024  0029B8  6E83               	movwf	131,c	;volatile
  5025                           
  5026                           ;main.c: 483:             ms_delay(1);
  5027  0029BA  0E00               	movlw	0
  5028  0029BC  6E0B               	movwf	(ms_delay@val+1)^0,c
  5029  0029BE  0E01               	movlw	1
  5030  0029C0  6E0A               	movwf	ms_delay@val^0,c
  5031  0029C2  EC79  F018         	call	_ms_delay	;wreg free
  5032  0029C6                     
  5033                           ;main.c: 484:             PORTD = 0b00000110;
  5034  0029C6  0E06               	movlw	6
  5035  0029C8  6E83               	movwf	131,c	;volatile
  5036  0029CA                     
  5037                           ;main.c: 485:             ms_delay(1);
  5038  0029CA  0E00               	movlw	0
  5039  0029CC  6E0B               	movwf	(ms_delay@val+1)^0,c
  5040  0029CE  0E01               	movlw	1
  5041  0029D0  6E0A               	movwf	ms_delay@val^0,c
  5042  0029D2  EC79  F018         	call	_ms_delay	;wreg free
  5043                           
  5044                           ;main.c: 486:             PORTD = 0b00000011;
  5045  0029D6  0E03               	movlw	3
  5046  0029D8  6E83               	movwf	131,c	;volatile
  5047  0029DA                     
  5048                           ;main.c: 487:             ms_delay(1);
  5049  0029DA  0E00               	movlw	0
  5050  0029DC  6E0B               	movwf	(ms_delay@val+1)^0,c
  5051  0029DE  0E01               	movlw	1
  5052  0029E0  6E0A               	movwf	ms_delay@val^0,c
  5053  0029E2  EC79  F018         	call	_ms_delay	;wreg free
  5054  0029E6                     
  5055                           ;main.c: 488:             PORTD = 0b00001001;
  5056  0029E6  0E09               	movlw	9
  5057  0029E8  6E83               	movwf	131,c	;volatile
  5058                           
  5059                           ;main.c: 489:             ms_delay(5);
  5060  0029EA  0E00               	movlw	0
  5061  0029EC  6E0B               	movwf	(ms_delay@val+1)^0,c
  5062  0029EE  0E05               	movlw	5
  5063  0029F0  6E0A               	movwf	ms_delay@val^0,c
  5064  0029F2  EC79  F018         	call	_ms_delay	;wreg free
  5065  0029F6                     
  5066                           ;main.c: 490:             Step_Z++;
  5067  0029F6  0100               	movlb	0	; () banked
  5068  0029F8  4BB2               	infsnz	_Step_Z& (0+255),f,b
  5069  0029FA  2BB3               	incf	(_Step_Z+1)& (0+255),f,b
  5070  0029FC  EF03  F015         	goto	l345
  5071  002A00                     l4463:
  5072  002A00  FFFF               	dw	65535	; assembler added errata NOP
  5073                           
  5074                           ;main.c: 494:         stop=1;
  5075  002A02  0E01               	movlw	1
  5076  002A04  6E72               	movwf	_stop^0,c
  5077  002A06                     l345:
  5078  002A06  FFFF               	dw	65535	; assembler added errata NOP
  5079  002A08  0012               	return		;funcret
  5080  002A0A  FFFF               	dw	65535	; errata NOP
  5081  002A0C                     __end_of_Z_axis:
  5082                           	callstack 0
  5083                           
  5084 ;; *************** function _Y_axis *****************
  5085 ;; Defined at:
  5086 ;;		line 430 in file "main.c"
  5087 ;; Parameters:    Size  Location     Type
  5088 ;;  direction       1    wreg     unsigned char 
  5089 ;; Auto vars:     Size  Location     Type
  5090 ;;  direction       1   15[COMRAM] unsigned char 
  5091 ;; Return value:  Size  Location     Type
  5092 ;;                  1    wreg      void 
  5093 ;; Registers used:
  5094 ;;		wreg, status,2, status,0, cstack
  5095 ;; Tracked objects:
  5096 ;;		On entry : 0/0
  5097 ;;		On exit  : 0/0
  5098 ;;		Unchanged: 0/0
  5099 ;; Data sizes:     COMRAM   BANK0   BANK1   BANK2   BANK3   BANK4   BANK5
  5100 ;;      Params:         0       0       0       0       0       0       0
  5101 ;;      Locals:         1       0       0       0       0       0       0
  5102 ;;      Temps:          0       0       0       0       0       0       0
  5103 ;;      Totals:         1       0       0       0       0       0       0
  5104 ;;Total ram usage:        1 bytes
  5105 ;; Hardware stack levels used: 1
  5106 ;; Hardware stack levels required when called: 3
  5107 ;; This function calls:
  5108 ;;		_ms_delay
  5109 ;; This function is called by:
  5110 ;;		_pick_and_place
  5111 ;;		_return_to_initial
  5112 ;; This function uses a non-reentrant model
  5113 ;;
  5114                           
  5115                           	psect	text12
  5116  002A0C                     __ptext12:
  5117                           	callstack 0
  5118  002A0C                     _Y_axis:
  5119                           	callstack 0
  5120  002A0C  FFFF               	dw	65535	; assembler added errata NOP
  5121                           
  5122                           ;incstack = 0
  5123                           ;Y_axis@direction stored from wreg
  5124  002A0E  6E10               	movwf	Y_axis@direction^0,c
  5125  002A10                     
  5126                           ;main.c: 431:     if(!New_char_RX){
  5127  002A10  5074               	movf	_New_char_RX^0,w,c
  5128  002A12  A4D8               	btfss	status,2,c
  5129  002A14  EF0E  F015         	goto	u4901
  5130  002A18  EF11  F015         	goto	u4900
  5131  002A1C                     u4901:
  5132  002A1C  FFFF               	dw	65535	; assembler added errata NOP
  5133  002A1E  EF80  F015         	goto	l4423
  5134  002A22                     u4900:
  5135  002A22  FFFF               	dw	65535	; assembler added errata NOP
  5136  002A24                     
  5137                           ;main.c: 432:         if (direction == 0){
  5138  002A24  5010               	movf	Y_axis@direction^0,w,c
  5139  002A26  A4D8               	btfss	status,2,c
  5140  002A28  EF18  F015         	goto	u4911
  5141  002A2C  EF1B  F015         	goto	u4910
  5142  002A30                     u4911:
  5143  002A30  FFFF               	dw	65535	; assembler added errata NOP
  5144  002A32  EF48  F015         	goto	l4405
  5145  002A36                     u4910:
  5146  002A36  FFFF               	dw	65535	; assembler added errata NOP
  5147  002A38                     
  5148                           ;main.c: 433:             PORTB = 0b00110000;
  5149  002A38  0E30               	movlw	48
  5150  002A3A  6E81               	movwf	129,c	;volatile
  5151  002A3C                     
  5152                           ;main.c: 434:             ms_delay(1);
  5153  002A3C  0E00               	movlw	0
  5154  002A3E  6E0B               	movwf	(ms_delay@val+1)^0,c
  5155  002A40  0E01               	movlw	1
  5156  002A42  6E0A               	movwf	ms_delay@val^0,c
  5157  002A44  EC79  F018         	call	_ms_delay	;wreg free
  5158  002A48                     
  5159                           ;main.c: 435:             PORTB = 0b01100000;
  5160  002A48  0E60               	movlw	96
  5161  002A4A  6E81               	movwf	129,c	;volatile
  5162                           
  5163                           ;main.c: 436:             ms_delay(1);
  5164  002A4C  0E00               	movlw	0
  5165  002A4E  6E0B               	movwf	(ms_delay@val+1)^0,c
  5166  002A50  0E01               	movlw	1
  5167  002A52  6E0A               	movwf	ms_delay@val^0,c
  5168  002A54  EC79  F018         	call	_ms_delay	;wreg free
  5169  002A58                     
  5170                           ;main.c: 437:             PORTB = 0b11000000;
  5171  002A58  0EC0               	movlw	192
  5172  002A5A  6E81               	movwf	129,c	;volatile
  5173  002A5C                     
  5174                           ;main.c: 438:             ms_delay(1);
  5175  002A5C  0E00               	movlw	0
  5176  002A5E  6E0B               	movwf	(ms_delay@val+1)^0,c
  5177  002A60  0E01               	movlw	1
  5178  002A62  6E0A               	movwf	ms_delay@val^0,c
  5179  002A64  EC79  F018         	call	_ms_delay	;wreg free
  5180                           
  5181                           ;main.c: 439:             PORTB = 0b10010000;
  5182  002A68  0E90               	movlw	144
  5183  002A6A  6E81               	movwf	129,c	;volatile
  5184  002A6C                     
  5185                           ;main.c: 440:             ms_delay(1);
  5186  002A6C  0E00               	movlw	0
  5187  002A6E  6E0B               	movwf	(ms_delay@val+1)^0,c
  5188  002A70  0E01               	movlw	1
  5189  002A72  6E0A               	movwf	ms_delay@val^0,c
  5190  002A74  EC79  F018         	call	_ms_delay	;wreg free
  5191  002A78                     
  5192                           ;main.c: 441:             PORTB = 0b00110000;
  5193  002A78  0E30               	movlw	48
  5194  002A7A  6E81               	movwf	129,c	;volatile
  5195                           
  5196                           ;main.c: 442:             ms_delay(1);
  5197  002A7C  0E00               	movlw	0
  5198  002A7E  6E0B               	movwf	(ms_delay@val+1)^0,c
  5199  002A80  0E01               	movlw	1
  5200  002A82  6E0A               	movwf	ms_delay@val^0,c
  5201  002A84  EC79  F018         	call	_ms_delay	;wreg free
  5202  002A88                     
  5203                           ;main.c: 443:             Step_Y--;
  5204  002A88  0100               	movlb	0	; () banked
  5205  002A8A  07B4               	decf	_Step_Y& (0+255),f,b
  5206  002A8C  A0D8               	btfss	status,0,c
  5207  002A8E  07B5               	decf	(_Step_Y+1)& (0+255),f,b
  5208  002A90                     l4405:
  5209  002A90  FFFF               	dw	65535	; assembler added errata NOP
  5210                           
  5211                           ;main.c: 445:         if (direction == 1){
  5212  002A92  0410               	decf	Y_axis@direction^0,w,c
  5213  002A94  A4D8               	btfss	status,2,c
  5214  002A96  EF4F  F015         	goto	u4921
  5215  002A9A  EF52  F015         	goto	u4920
  5216  002A9E                     u4921:
  5217  002A9E  FFFF               	dw	65535	; assembler added errata NOP
  5218  002AA0  EF83  F015         	goto	l338
  5219  002AA4                     u4920:
  5220  002AA4  FFFF               	dw	65535	; assembler added errata NOP
  5221  002AA6                     
  5222                           ;main.c: 446:             PORTB = 0b10010000;
  5223  002AA6  0E90               	movlw	144
  5224  002AA8  6E81               	movwf	129,c	;volatile
  5225  002AAA                     
  5226                           ;main.c: 447:             ms_delay(1);
  5227  002AAA  0E00               	movlw	0
  5228  002AAC  6E0B               	movwf	(ms_delay@val+1)^0,c
  5229  002AAE  0E01               	movlw	1
  5230  002AB0  6E0A               	movwf	ms_delay@val^0,c
  5231  002AB2  EC79  F018         	call	_ms_delay	;wreg free
  5232  002AB6                     
  5233                           ;main.c: 448:             PORTB = 0b11000000;
  5234  002AB6  0EC0               	movlw	192
  5235  002AB8  6E81               	movwf	129,c	;volatile
  5236                           
  5237                           ;main.c: 449:             ms_delay(1);
  5238  002ABA  0E00               	movlw	0
  5239  002ABC  6E0B               	movwf	(ms_delay@val+1)^0,c
  5240  002ABE  0E01               	movlw	1
  5241  002AC0  6E0A               	movwf	ms_delay@val^0,c
  5242  002AC2  EC79  F018         	call	_ms_delay	;wreg free
  5243  002AC6                     
  5244                           ;main.c: 450:             PORTB = 0b01100000;
  5245  002AC6  0E60               	movlw	96
  5246  002AC8  6E81               	movwf	129,c	;volatile
  5247  002ACA                     
  5248                           ;main.c: 451:             ms_delay(1);
  5249  002ACA  0E00               	movlw	0
  5250  002ACC  6E0B               	movwf	(ms_delay@val+1)^0,c
  5251  002ACE  0E01               	movlw	1
  5252  002AD0  6E0A               	movwf	ms_delay@val^0,c
  5253  002AD2  EC79  F018         	call	_ms_delay	;wreg free
  5254                           
  5255                           ;main.c: 452:             PORTB = 0b00110000;
  5256  002AD6  0E30               	movlw	48
  5257  002AD8  6E81               	movwf	129,c	;volatile
  5258  002ADA                     
  5259                           ;main.c: 453:             ms_delay(1);
  5260  002ADA  0E00               	movlw	0
  5261  002ADC  6E0B               	movwf	(ms_delay@val+1)^0,c
  5262  002ADE  0E01               	movlw	1
  5263  002AE0  6E0A               	movwf	ms_delay@val^0,c
  5264  002AE2  EC79  F018         	call	_ms_delay	;wreg free
  5265  002AE6                     
  5266                           ;main.c: 454:             PORTB = 0b10010000;
  5267  002AE6  0E90               	movlw	144
  5268  002AE8  6E81               	movwf	129,c	;volatile
  5269                           
  5270                           ;main.c: 455:             ms_delay(1);
  5271  002AEA  0E00               	movlw	0
  5272  002AEC  6E0B               	movwf	(ms_delay@val+1)^0,c
  5273  002AEE  0E01               	movlw	1
  5274  002AF0  6E0A               	movwf	ms_delay@val^0,c
  5275  002AF2  EC79  F018         	call	_ms_delay	;wreg free
  5276  002AF6                     
  5277                           ;main.c: 456:             Step_Y++;
  5278  002AF6  0100               	movlb	0	; () banked
  5279  002AF8  4BB4               	infsnz	_Step_Y& (0+255),f,b
  5280  002AFA  2BB5               	incf	(_Step_Y+1)& (0+255),f,b
  5281  002AFC  EF83  F015         	goto	l338
  5282  002B00                     l4423:
  5283  002B00  FFFF               	dw	65535	; assembler added errata NOP
  5284                           
  5285                           ;main.c: 460:         stop=1;
  5286  002B02  0E01               	movlw	1
  5287  002B04  6E72               	movwf	_stop^0,c
  5288  002B06                     l338:
  5289  002B06  FFFF               	dw	65535	; assembler added errata NOP
  5290  002B08  0012               	return		;funcret
  5291  002B0A  FFFF               	dw	65535	; errata NOP
  5292  002B0C                     __end_of_Y_axis:
  5293                           	callstack 0
  5294                           
  5295 ;; *************** function _X_axis *****************
  5296 ;; Defined at:
  5297 ;;		line 396 in file "main.c"
  5298 ;; Parameters:    Size  Location     Type
  5299 ;;  direction       1    wreg     unsigned char 
  5300 ;; Auto vars:     Size  Location     Type
  5301 ;;  direction       1   15[COMRAM] unsigned char 
  5302 ;; Return value:  Size  Location     Type
  5303 ;;                  1    wreg      void 
  5304 ;; Registers used:
  5305 ;;		wreg, status,2, status,0, cstack
  5306 ;; Tracked objects:
  5307 ;;		On entry : 0/0
  5308 ;;		On exit  : 0/0
  5309 ;;		Unchanged: 0/0
  5310 ;; Data sizes:     COMRAM   BANK0   BANK1   BANK2   BANK3   BANK4   BANK5
  5311 ;;      Params:         0       0       0       0       0       0       0
  5312 ;;      Locals:         1       0       0       0       0       0       0
  5313 ;;      Temps:          0       0       0       0       0       0       0
  5314 ;;      Totals:         1       0       0       0       0       0       0
  5315 ;;Total ram usage:        1 bytes
  5316 ;; Hardware stack levels used: 1
  5317 ;; Hardware stack levels required when called: 3
  5318 ;; This function calls:
  5319 ;;		_ms_delay
  5320 ;; This function is called by:
  5321 ;;		_pick_and_place
  5322 ;;		_return_to_initial
  5323 ;; This function uses a non-reentrant model
  5324 ;;
  5325                           
  5326                           	psect	text13
  5327  002B0C                     __ptext13:
  5328                           	callstack 0
  5329  002B0C                     _X_axis:
  5330                           	callstack 0
  5331  002B0C  FFFF               	dw	65535	; assembler added errata NOP
  5332                           
  5333                           ;incstack = 0
  5334                           ;X_axis@direction stored from wreg
  5335  002B0E  6E10               	movwf	X_axis@direction^0,c
  5336  002B10                     
  5337                           ;main.c: 397:     if(!New_char_RX){
  5338  002B10  5074               	movf	_New_char_RX^0,w,c
  5339  002B12  A4D8               	btfss	status,2,c
  5340  002B14  EF8E  F015         	goto	u4871
  5341  002B18  EF91  F015         	goto	u4870
  5342  002B1C                     u4871:
  5343  002B1C  FFFF               	dw	65535	; assembler added errata NOP
  5344  002B1E  EF00  F016         	goto	l4383
  5345  002B22                     u4870:
  5346  002B22  FFFF               	dw	65535	; assembler added errata NOP
  5347  002B24                     
  5348                           ;main.c: 398:         if (direction == 0){
  5349  002B24  5010               	movf	X_axis@direction^0,w,c
  5350  002B26  A4D8               	btfss	status,2,c
  5351  002B28  EF98  F015         	goto	u4881
  5352  002B2C  EF9B  F015         	goto	u4880
  5353  002B30                     u4881:
  5354  002B30  FFFF               	dw	65535	; assembler added errata NOP
  5355  002B32  EFC8  F015         	goto	l4365
  5356  002B36                     u4880:
  5357  002B36  FFFF               	dw	65535	; assembler added errata NOP
  5358  002B38                     
  5359                           ;main.c: 399:             PORTA = 0b00000011;
  5360  002B38  0E03               	movlw	3
  5361  002B3A  6E80               	movwf	128,c	;volatile
  5362  002B3C                     
  5363                           ;main.c: 400:             ms_delay(1);
  5364  002B3C  0E00               	movlw	0
  5365  002B3E  6E0B               	movwf	(ms_delay@val+1)^0,c
  5366  002B40  0E01               	movlw	1
  5367  002B42  6E0A               	movwf	ms_delay@val^0,c
  5368  002B44  EC79  F018         	call	_ms_delay	;wreg free
  5369  002B48                     
  5370                           ;main.c: 401:             PORTA = 0b00000110;
  5371  002B48  0E06               	movlw	6
  5372  002B4A  6E80               	movwf	128,c	;volatile
  5373                           
  5374                           ;main.c: 402:             ms_delay(1);
  5375  002B4C  0E00               	movlw	0
  5376  002B4E  6E0B               	movwf	(ms_delay@val+1)^0,c
  5377  002B50  0E01               	movlw	1
  5378  002B52  6E0A               	movwf	ms_delay@val^0,c
  5379  002B54  EC79  F018         	call	_ms_delay	;wreg free
  5380  002B58                     
  5381                           ;main.c: 403:             PORTA = 0b00001100;
  5382  002B58  0E0C               	movlw	12
  5383  002B5A  6E80               	movwf	128,c	;volatile
  5384  002B5C                     
  5385                           ;main.c: 404:             ms_delay(1);
  5386  002B5C  0E00               	movlw	0
  5387  002B5E  6E0B               	movwf	(ms_delay@val+1)^0,c
  5388  002B60  0E01               	movlw	1
  5389  002B62  6E0A               	movwf	ms_delay@val^0,c
  5390  002B64  EC79  F018         	call	_ms_delay	;wreg free
  5391                           
  5392                           ;main.c: 405:             PORTA = 0b00001001;
  5393  002B68  0E09               	movlw	9
  5394  002B6A  6E80               	movwf	128,c	;volatile
  5395  002B6C                     
  5396                           ;main.c: 406:             ms_delay(1);
  5397  002B6C  0E00               	movlw	0
  5398  002B6E  6E0B               	movwf	(ms_delay@val+1)^0,c
  5399  002B70  0E01               	movlw	1
  5400  002B72  6E0A               	movwf	ms_delay@val^0,c
  5401  002B74  EC79  F018         	call	_ms_delay	;wreg free
  5402  002B78                     
  5403                           ;main.c: 407:             PORTA = 0b00000011;
  5404  002B78  0E03               	movlw	3
  5405  002B7A  6E80               	movwf	128,c	;volatile
  5406                           
  5407                           ;main.c: 408:             ms_delay(1);
  5408  002B7C  0E00               	movlw	0
  5409  002B7E  6E0B               	movwf	(ms_delay@val+1)^0,c
  5410  002B80  0E01               	movlw	1
  5411  002B82  6E0A               	movwf	ms_delay@val^0,c
  5412  002B84  EC79  F018         	call	_ms_delay	;wreg free
  5413  002B88                     
  5414                           ;main.c: 409:             Step_X--;
  5415  002B88  0100               	movlb	0	; () banked
  5416  002B8A  07B6               	decf	_Step_X& (0+255),f,b
  5417  002B8C  A0D8               	btfss	status,0,c
  5418  002B8E  07B7               	decf	(_Step_X+1)& (0+255),f,b
  5419  002B90                     l4365:
  5420  002B90  FFFF               	dw	65535	; assembler added errata NOP
  5421                           
  5422                           ;main.c: 411:         if (direction == 1){
  5423  002B92  0410               	decf	X_axis@direction^0,w,c
  5424  002B94  A4D8               	btfss	status,2,c
  5425  002B96  EFCF  F015         	goto	u4891
  5426  002B9A  EFD2  F015         	goto	u4890
  5427  002B9E                     u4891:
  5428  002B9E  FFFF               	dw	65535	; assembler added errata NOP
  5429  002BA0  EF03  F016         	goto	l331
  5430  002BA4                     u4890:
  5431  002BA4  FFFF               	dw	65535	; assembler added errata NOP
  5432  002BA6                     
  5433                           ;main.c: 412:             PORTA = 0b00001001;
  5434  002BA6  0E09               	movlw	9
  5435  002BA8  6E80               	movwf	128,c	;volatile
  5436  002BAA                     
  5437                           ;main.c: 413:             ms_delay(1);
  5438  002BAA  0E00               	movlw	0
  5439  002BAC  6E0B               	movwf	(ms_delay@val+1)^0,c
  5440  002BAE  0E01               	movlw	1
  5441  002BB0  6E0A               	movwf	ms_delay@val^0,c
  5442  002BB2  EC79  F018         	call	_ms_delay	;wreg free
  5443  002BB6                     
  5444                           ;main.c: 414:             PORTA = 0b00001100;
  5445  002BB6  0E0C               	movlw	12
  5446  002BB8  6E80               	movwf	128,c	;volatile
  5447                           
  5448                           ;main.c: 415:             ms_delay(1);
  5449  002BBA  0E00               	movlw	0
  5450  002BBC  6E0B               	movwf	(ms_delay@val+1)^0,c
  5451  002BBE  0E01               	movlw	1
  5452  002BC0  6E0A               	movwf	ms_delay@val^0,c
  5453  002BC2  EC79  F018         	call	_ms_delay	;wreg free
  5454  002BC6                     
  5455                           ;main.c: 416:             PORTA = 0b00000110;
  5456  002BC6  0E06               	movlw	6
  5457  002BC8  6E80               	movwf	128,c	;volatile
  5458  002BCA                     
  5459                           ;main.c: 417:             ms_delay(1);
  5460  002BCA  0E00               	movlw	0
  5461  002BCC  6E0B               	movwf	(ms_delay@val+1)^0,c
  5462  002BCE  0E01               	movlw	1
  5463  002BD0  6E0A               	movwf	ms_delay@val^0,c
  5464  002BD2  EC79  F018         	call	_ms_delay	;wreg free
  5465                           
  5466                           ;main.c: 418:             PORTA = 0b00000011;
  5467  002BD6  0E03               	movlw	3
  5468  002BD8  6E80               	movwf	128,c	;volatile
  5469  002BDA                     
  5470                           ;main.c: 419:             ms_delay(1);
  5471  002BDA  0E00               	movlw	0
  5472  002BDC  6E0B               	movwf	(ms_delay@val+1)^0,c
  5473  002BDE  0E01               	movlw	1
  5474  002BE0  6E0A               	movwf	ms_delay@val^0,c
  5475  002BE2  EC79  F018         	call	_ms_delay	;wreg free
  5476  002BE6                     
  5477                           ;main.c: 420:             PORTA = 0b00001001;
  5478  002BE6  0E09               	movlw	9
  5479  002BE8  6E80               	movwf	128,c	;volatile
  5480                           
  5481                           ;main.c: 421:             ms_delay(1);
  5482  002BEA  0E00               	movlw	0
  5483  002BEC  6E0B               	movwf	(ms_delay@val+1)^0,c
  5484  002BEE  0E01               	movlw	1
  5485  002BF0  6E0A               	movwf	ms_delay@val^0,c
  5486  002BF2  EC79  F018         	call	_ms_delay	;wreg free
  5487  002BF6                     
  5488                           ;main.c: 422:             Step_X++;
  5489  002BF6  0100               	movlb	0	; () banked
  5490  002BF8  4BB6               	infsnz	_Step_X& (0+255),f,b
  5491  002BFA  2BB7               	incf	(_Step_X+1)& (0+255),f,b
  5492  002BFC  EF03  F016         	goto	l331
  5493  002C00                     l4383:
  5494  002C00  FFFF               	dw	65535	; assembler added errata NOP
  5495                           
  5496                           ;main.c: 426:         stop=1;
  5497  002C02  0E01               	movlw	1
  5498  002C04  6E72               	movwf	_stop^0,c
  5499  002C06                     l331:
  5500  002C06  FFFF               	dw	65535	; assembler added errata NOP
  5501  002C08  0012               	return		;funcret
  5502  002C0A  FFFF               	dw	65535	; errata NOP
  5503  002C0C                     __end_of_X_axis:
  5504                           	callstack 0
  5505                           
  5506 ;; *************** function _Twister *****************
  5507 ;; Defined at:
  5508 ;;		line 498 in file "main.c"
  5509 ;; Parameters:    Size  Location     Type
  5510 ;;  direction       1    wreg     unsigned char 
  5511 ;; Auto vars:     Size  Location     Type
  5512 ;;  direction       1   15[COMRAM] unsigned char 
  5513 ;; Return value:  Size  Location     Type
  5514 ;;                  1    wreg      void 
  5515 ;; Registers used:
  5516 ;;		wreg, status,2, status,0, cstack
  5517 ;; Tracked objects:
  5518 ;;		On entry : 0/0
  5519 ;;		On exit  : 0/0
  5520 ;;		Unchanged: 0/0
  5521 ;; Data sizes:     COMRAM   BANK0   BANK1   BANK2   BANK3   BANK4   BANK5
  5522 ;;      Params:         0       0       0       0       0       0       0
  5523 ;;      Locals:         1       0       0       0       0       0       0
  5524 ;;      Temps:          0       0       0       0       0       0       0
  5525 ;;      Totals:         1       0       0       0       0       0       0
  5526 ;;Total ram usage:        1 bytes
  5527 ;; Hardware stack levels used: 1
  5528 ;; Hardware stack levels required when called: 3
  5529 ;; This function calls:
  5530 ;;		_ms_delay
  5531 ;; This function is called by:
  5532 ;;		_pick_and_place
  5533 ;;		_return_to_initial
  5534 ;; This function uses a non-reentrant model
  5535 ;;
  5536                           
  5537                           	psect	text14
  5538  002D06                     __ptext14:
  5539                           	callstack 0
  5540  002D06                     _Twister:
  5541                           	callstack 0
  5542  002D06  FFFF               	dw	65535	; assembler added errata NOP
  5543                           
  5544                           ;incstack = 0
  5545                           ;Twister@direction stored from wreg
  5546  002D08  6E10               	movwf	Twister@direction^0,c
  5547  002D0A                     
  5548                           ;main.c: 499:     if(!New_char_RX){
  5549  002D0A  5074               	movf	_New_char_RX^0,w,c
  5550  002D0C  A4D8               	btfss	status,2,c
  5551  002D0E  EF8B  F016         	goto	u4961
  5552  002D12  EF8E  F016         	goto	u4960
  5553  002D16                     u4961:
  5554  002D16  FFFF               	dw	65535	; assembler added errata NOP
  5555  002D18  EFED  F016         	goto	l4499
  5556  002D1C                     u4960:
  5557  002D1C  FFFF               	dw	65535	; assembler added errata NOP
  5558  002D1E                     
  5559                           ;main.c: 500:         if (direction == 0){
  5560  002D1E  5010               	movf	Twister@direction^0,w,c
  5561  002D20  A4D8               	btfss	status,2,c
  5562  002D22  EF95  F016         	goto	u4971
  5563  002D26  EF98  F016         	goto	u4970
  5564  002D2A                     u4971:
  5565  002D2A  FFFF               	dw	65535	; assembler added errata NOP
  5566  002D2C  EFBD  F016         	goto	l4483
  5567  002D30                     u4970:
  5568  002D30  FFFF               	dw	65535	; assembler added errata NOP
  5569  002D32                     
  5570                           ;main.c: 501:             PORTD = 0b00110000;
  5571  002D32  0E30               	movlw	48
  5572  002D34  6E83               	movwf	131,c	;volatile
  5573  002D36                     
  5574                           ;main.c: 502:             ms_delay(1);
  5575  002D36  0E00               	movlw	0
  5576  002D38  6E0B               	movwf	(ms_delay@val+1)^0,c
  5577  002D3A  0E01               	movlw	1
  5578  002D3C  6E0A               	movwf	ms_delay@val^0,c
  5579  002D3E  EC79  F018         	call	_ms_delay	;wreg free
  5580  002D42                     
  5581                           ;main.c: 503:             PORTD = 0b11000000;
  5582  002D42  0EC0               	movlw	192
  5583  002D44  6E83               	movwf	131,c	;volatile
  5584                           
  5585                           ;main.c: 504:             ms_delay(1);
  5586  002D46  0E00               	movlw	0
  5587  002D48  6E0B               	movwf	(ms_delay@val+1)^0,c
  5588  002D4A  0E01               	movlw	1
  5589  002D4C  6E0A               	movwf	ms_delay@val^0,c
  5590  002D4E  EC79  F018         	call	_ms_delay	;wreg free
  5591  002D52                     
  5592                           ;main.c: 505:             PORTD = 0b10010000;
  5593  002D52  0E90               	movlw	144
  5594  002D54  6E83               	movwf	131,c	;volatile
  5595  002D56                     
  5596                           ;main.c: 506:             ms_delay(1);
  5597  002D56  0E00               	movlw	0
  5598  002D58  6E0B               	movwf	(ms_delay@val+1)^0,c
  5599  002D5A  0E01               	movlw	1
  5600  002D5C  6E0A               	movwf	ms_delay@val^0,c
  5601  002D5E  EC79  F018         	call	_ms_delay	;wreg free
  5602                           
  5603                           ;main.c: 507:             PORTD = 0b00110000;
  5604  002D62  0E30               	movlw	48
  5605  002D64  6E83               	movwf	131,c	;volatile
  5606  002D66                     
  5607                           ;main.c: 508:             ms_delay(1);
  5608  002D66  0E00               	movlw	0
  5609  002D68  6E0B               	movwf	(ms_delay@val+1)^0,c
  5610  002D6A  0E01               	movlw	1
  5611  002D6C  6E0A               	movwf	ms_delay@val^0,c
  5612  002D6E  EC79  F018         	call	_ms_delay	;wreg free
  5613  002D72                     
  5614                           ;main.c: 509:             Step_Angle--;
  5615  002D72  0100               	movlb	0	; () banked
  5616  002D74  07B0               	decf	_Step_Angle& (0+255),f,b
  5617  002D76  A0D8               	btfss	status,0,c
  5618  002D78  07B1               	decf	(_Step_Angle+1)& (0+255),f,b
  5619  002D7A                     l4483:
  5620  002D7A  FFFF               	dw	65535	; assembler added errata NOP
  5621                           
  5622                           ;main.c: 511:         if (direction == 1){
  5623  002D7C  0410               	decf	Twister@direction^0,w,c
  5624  002D7E  A4D8               	btfss	status,2,c
  5625  002D80  EFC4  F016         	goto	u4981
  5626  002D84  EFC7  F016         	goto	u4980
  5627  002D88                     u4981:
  5628  002D88  FFFF               	dw	65535	; assembler added errata NOP
  5629  002D8A  EFF0  F016         	goto	l352
  5630  002D8E                     u4980:
  5631  002D8E  FFFF               	dw	65535	; assembler added errata NOP
  5632  002D90                     
  5633                           ;main.c: 512:             PORTD = 0b10010000;
  5634  002D90  0E90               	movlw	144
  5635  002D92  6E83               	movwf	131,c	;volatile
  5636  002D94                     
  5637                           ;main.c: 513:             ms_delay(1);
  5638  002D94  0E00               	movlw	0
  5639  002D96  6E0B               	movwf	(ms_delay@val+1)^0,c
  5640  002D98  0E01               	movlw	1
  5641  002D9A  6E0A               	movwf	ms_delay@val^0,c
  5642  002D9C  EC79  F018         	call	_ms_delay	;wreg free
  5643  002DA0                     
  5644                           ;main.c: 514:             PORTD = 0b01100000;
  5645  002DA0  0E60               	movlw	96
  5646  002DA2  6E83               	movwf	131,c	;volatile
  5647                           
  5648                           ;main.c: 515:             ms_delay(1);
  5649  002DA4  0E00               	movlw	0
  5650  002DA6  6E0B               	movwf	(ms_delay@val+1)^0,c
  5651  002DA8  0E01               	movlw	1
  5652  002DAA  6E0A               	movwf	ms_delay@val^0,c
  5653  002DAC  EC79  F018         	call	_ms_delay	;wreg free
  5654  002DB0                     
  5655                           ;main.c: 516:             PORTD = 0b00110000;
  5656  002DB0  0E30               	movlw	48
  5657  002DB2  6E83               	movwf	131,c	;volatile
  5658  002DB4                     
  5659                           ;main.c: 517:             ms_delay(1);
  5660  002DB4  0E00               	movlw	0
  5661  002DB6  6E0B               	movwf	(ms_delay@val+1)^0,c
  5662  002DB8  0E01               	movlw	1
  5663  002DBA  6E0A               	movwf	ms_delay@val^0,c
  5664  002DBC  EC79  F018         	call	_ms_delay	;wreg free
  5665                           
  5666                           ;main.c: 518:             PORTD = 0b10010000;
  5667  002DC0  0E90               	movlw	144
  5668  002DC2  6E83               	movwf	131,c	;volatile
  5669  002DC4                     
  5670                           ;main.c: 519:             ms_delay(1);
  5671  002DC4  0E00               	movlw	0
  5672  002DC6  6E0B               	movwf	(ms_delay@val+1)^0,c
  5673  002DC8  0E01               	movlw	1
  5674  002DCA  6E0A               	movwf	ms_delay@val^0,c
  5675  002DCC  EC79  F018         	call	_ms_delay	;wreg free
  5676  002DD0                     
  5677                           ;main.c: 520:             Step_Angle++;
  5678  002DD0  0100               	movlb	0	; () banked
  5679  002DD2  4BB0               	infsnz	_Step_Angle& (0+255),f,b
  5680  002DD4  2BB1               	incf	(_Step_Angle+1)& (0+255),f,b
  5681  002DD6  EFF0  F016         	goto	l352
  5682  002DDA                     l4499:
  5683  002DDA  FFFF               	dw	65535	; assembler added errata NOP
  5684                           
  5685                           ;main.c: 524:         stop=1;
  5686  002DDC  0E01               	movlw	1
  5687  002DDE  6E72               	movwf	_stop^0,c
  5688  002DE0                     l352:
  5689  002DE0  FFFF               	dw	65535	; assembler added errata NOP
  5690  002DE2  0012               	return		;funcret
  5691  002DE4  FFFF               	dw	65535	; errata NOP
  5692  002DE6                     __end_of_Twister:
  5693                           	callstack 0
  5694                           
  5695 ;; *************** function _ms_delay *****************
  5696 ;; Defined at:
  5697 ;;		line 577 in file "main.c"
  5698 ;; Parameters:    Size  Location     Type
  5699 ;;  val             2    9[COMRAM] unsigned int 
  5700 ;; Auto vars:     Size  Location     Type
  5701 ;;  j               2   13[COMRAM] unsigned int 
  5702 ;;  i               2   11[COMRAM] unsigned int 
  5703 ;; Return value:  Size  Location     Type
  5704 ;;                  1    wreg      void 
  5705 ;; Registers used:
  5706 ;;		wreg, status,2, status,0
  5707 ;; Tracked objects:
  5708 ;;		On entry : 0/0
  5709 ;;		On exit  : 0/0
  5710 ;;		Unchanged: 0/0
  5711 ;; Data sizes:     COMRAM   BANK0   BANK1   BANK2   BANK3   BANK4   BANK5
  5712 ;;      Params:         2       0       0       0       0       0       0
  5713 ;;      Locals:         4       0       0       0       0       0       0
  5714 ;;      Temps:          0       0       0       0       0       0       0
  5715 ;;      Totals:         6       0       0       0       0       0       0
  5716 ;;Total ram usage:        6 bytes
  5717 ;; Hardware stack levels used: 1
  5718 ;; Hardware stack levels required when called: 2
  5719 ;; This function calls:
  5720 ;;		Nothing
  5721 ;; This function is called by:
  5722 ;;		_X_axis
  5723 ;;		_Y_axis
  5724 ;;		_Z_axis
  5725 ;;		_Twister
  5726 ;;		_pick_and_place
  5727 ;; This function uses a non-reentrant model
  5728 ;;
  5729                           
  5730                           	psect	text15
  5731  0030F2                     __ptext15:
  5732                           	callstack 0
  5733  0030F2                     _ms_delay:
  5734                           	callstack 0
  5735  0030F2  FFFF               	dw	65535	; assembler added errata NOP
  5736  0030F4                     
  5737                           ;main.c: 577: void ms_delay(unsigned int val);main.c: 578: {;main.c: 579:      unsigned 
      +                          int i,j;;main.c: 580:         for(i=0;i<val;i++);
  5738  0030F4  0E00               	movlw	0
  5739  0030F6  6E0D               	movwf	(ms_delay@i+1)^0,c
  5740  0030F8  0E00               	movlw	0
  5741  0030FA  6E0C               	movwf	ms_delay@i^0,c
  5742  0030FC  EF83  F018         	goto	l4325
  5743  003100                     l4323:
  5744  003100  FFFF               	dw	65535	; assembler added errata NOP
  5745  003102  4A0C               	infsnz	ms_delay@i^0,f,c
  5746  003104  2A0D               	incf	(ms_delay@i+1)^0,f,c
  5747  003106                     l4325:
  5748  003106  FFFF               	dw	65535	; assembler added errata NOP
  5749  003108  500A               	movf	ms_delay@val^0,w,c
  5750  00310A  5C0C               	subwf	ms_delay@i^0,w,c
  5751  00310C  500B               	movf	(ms_delay@val+1)^0,w,c
  5752  00310E  580D               	subwfb	(ms_delay@i+1)^0,w,c
  5753  003110  A0D8               	btfss	status,0,c
  5754  003112  EF8D  F018         	goto	u4811
  5755  003116  EF90  F018         	goto	u4810
  5756  00311A                     u4811:
  5757  00311A  FFFF               	dw	65535	; assembler added errata NOP
  5758  00311C  EF80  F018         	goto	l4323
  5759  003120                     u4810:
  5760  003120  FFFF               	dw	65535	; assembler added errata NOP
  5761  003122                     
  5762                           ;main.c: 581:         for(j=0;j<1650;j++);
  5763  003122  0E00               	movlw	0
  5764  003124  6E0F               	movwf	(ms_delay@j+1)^0,c
  5765  003126  0E00               	movlw	0
  5766  003128  6E0E               	movwf	ms_delay@j^0,c
  5767  00312A                     l4333:
  5768  00312A  FFFF               	dw	65535	; assembler added errata NOP
  5769  00312C  4A0E               	infsnz	ms_delay@j^0,f,c
  5770  00312E  2A0F               	incf	(ms_delay@j+1)^0,f,c
  5771  003130  0E72               	movlw	114
  5772  003132  5C0E               	subwf	ms_delay@j^0,w,c
  5773  003134  0E06               	movlw	6
  5774  003136  580F               	subwfb	(ms_delay@j+1)^0,w,c
  5775  003138  A0D8               	btfss	status,0,c
  5776  00313A  EFA1  F018         	goto	u4821
  5777  00313E  EFA4  F018         	goto	u4820
  5778  003142                     u4821:
  5779  003142  FFFF               	dw	65535	; assembler added errata NOP
  5780  003144  EF95  F018         	goto	l4333
  5781  003148                     u4820:
  5782  003148  FFFF               	dw	65535	; assembler added errata NOP
  5783  00314A  0012               	return		;funcret
  5784  00314C  FFFF               	dw	65535	; errata NOP
  5785  00314E                     __end_of_ms_delay:
  5786                           	callstack 0
  5787                           
  5788 ;; *************** function _Tweezer *****************
  5789 ;; Defined at:
  5790 ;;		line 558 in file "main.c"
  5791 ;; Parameters:    Size  Location     Type
  5792 ;;  action          1    wreg     unsigned char 
  5793 ;; Auto vars:     Size  Location     Type
  5794 ;;  action          1    9[COMRAM] unsigned char 
  5795 ;; Return value:  Size  Location     Type
  5796 ;;                  1    wreg      void 
  5797 ;; Registers used:
  5798 ;;		wreg, status,2, status,0
  5799 ;; Tracked objects:
  5800 ;;		On entry : 0/0
  5801 ;;		On exit  : 0/0
  5802 ;;		Unchanged: 0/0
  5803 ;; Data sizes:     COMRAM   BANK0   BANK1   BANK2   BANK3   BANK4   BANK5
  5804 ;;      Params:         0       0       0       0       0       0       0
  5805 ;;      Locals:         1       0       0       0       0       0       0
  5806 ;;      Temps:          0       0       0       0       0       0       0
  5807 ;;      Totals:         1       0       0       0       0       0       0
  5808 ;;Total ram usage:        1 bytes
  5809 ;; Hardware stack levels used: 1
  5810 ;; Hardware stack levels required when called: 2
  5811 ;; This function calls:
  5812 ;;		Nothing
  5813 ;; This function is called by:
  5814 ;;		_pick_and_place
  5815 ;; This function uses a non-reentrant model
  5816 ;;
  5817                           
  5818                           	psect	text16
  5819  003026                     __ptext16:
  5820                           	callstack 0
  5821  003026                     _Tweezer:
  5822                           	callstack 0
  5823  003026  FFFF               	dw	65535	; assembler added errata NOP
  5824                           
  5825                           ;incstack = 0
  5826                           ;Tweezer@action stored from wreg
  5827  003028  6E0A               	movwf	Tweezer@action^0,c
  5828  00302A                     
  5829                           ;main.c: 559:     if(!New_char_RX){
  5830  00302A  5074               	movf	_New_char_RX^0,w,c
  5831  00302C  A4D8               	btfss	status,2,c
  5832  00302E  EF1B  F018         	goto	u4991
  5833  003032  EF1E  F018         	goto	u4990
  5834  003036                     u4991:
  5835  003036  FFFF               	dw	65535	; assembler added errata NOP
  5836  003038  EF43  F018         	goto	l4513
  5837  00303C                     u4990:
  5838  00303C  FFFF               	dw	65535	; assembler added errata NOP
  5839  00303E                     
  5840                           ;main.c: 560:         if(action==1){
  5841  00303E  040A               	decf	Tweezer@action^0,w,c
  5842  003040  A4D8               	btfss	status,2,c
  5843  003042  EF25  F018         	goto	u5001
  5844  003046  EF28  F018         	goto	u5000
  5845  00304A                     u5001:
  5846  00304A  FFFF               	dw	65535	; assembler added errata NOP
  5847  00304C  EF2E  F018         	goto	l359
  5848  003050                     u5000:
  5849  003050  FFFF               	dw	65535	; assembler added errata NOP
  5850  003052                     
  5851                           ;main.c: 561:             new_TMR1H = 0xF9;
  5852  003052  0EF9               	movlw	249
  5853  003054  0100               	movlb	0	; () banked
  5854  003056  6FCE               	movwf	_new_TMR1H@main$F822& (0+255),b
  5855                           
  5856                           ;main.c: 562:             new_TMR1L = 0x53;
  5857  003058  0E53               	movlw	83
  5858  00305A  6FCD               	movwf	_new_TMR1L@main$F823& (0+255),b
  5859  00305C                     l359:
  5860  00305C  FFFF               	dw	65535	; assembler added errata NOP
  5861                           
  5862                           ;main.c: 565:         if(action == 0){
  5863  00305E  500A               	movf	Tweezer@action^0,w,c
  5864  003060  A4D8               	btfss	status,2,c
  5865  003062  EF35  F018         	goto	u5011
  5866  003066  EF38  F018         	goto	u5010
  5867  00306A                     u5011:
  5868  00306A  FFFF               	dw	65535	; assembler added errata NOP
  5869  00306C  EF3E  F018         	goto	l4509
  5870  003070                     u5010:
  5871  003070  FFFF               	dw	65535	; assembler added errata NOP
  5872  003072                     
  5873                           ;main.c: 566:             new_TMR1H= 0xFA;
  5874  003072  0EFA               	movlw	250
  5875  003074  0100               	movlb	0	; () banked
  5876  003076  6FCE               	movwf	_new_TMR1H@main$F822& (0+255),b
  5877                           
  5878                           ;main.c: 567:             new_TMR1L= 0x4D;
  5879  003078  0E4D               	movlw	77
  5880  00307A  6FCD               	movwf	_new_TMR1L@main$F823& (0+255),b
  5881  00307C                     l4509:
  5882  00307C  FFFF               	dw	65535	; assembler added errata NOP
  5883                           
  5884                           ;main.c: 569:         LATCbits.LC2=1;
  5885  00307E  848B               	bsf	139,2,c	;volatile
  5886  003080                     
  5887                           ;main.c: 570:         T1CONbits.TMR1ON=1;
  5888  003080  80CD               	bsf	205,0,c	;volatile
  5889                           
  5890                           ;main.c: 571:     }
  5891  003082  EF46  F018         	goto	l362
  5892  003086                     l4513:
  5893  003086  FFFF               	dw	65535	; assembler added errata NOP
  5894                           
  5895                           ;main.c: 573:         stop=1;
  5896  003088  0E01               	movlw	1
  5897  00308A  6E72               	movwf	_stop^0,c
  5898  00308C                     l362:
  5899  00308C  FFFF               	dw	65535	; assembler added errata NOP
  5900  00308E  0012               	return		;funcret
  5901  003090  FFFF               	dw	65535	; errata NOP
  5902  003092                     __end_of_Tweezer:
  5903                           	callstack 0
  5904                           
  5905 ;; *************** function _change_sequence *****************
  5906 ;; Defined at:
  5907 ;;		line 272 in file "main.c"
  5908 ;; Parameters:    Size  Location     Type
  5909 ;;		None
  5910 ;; Auto vars:     Size  Location     Type
  5911 ;;  i               2   18[COMRAM] int 
  5912 ;; Return value:  Size  Location     Type
  5913 ;;                  1    wreg      void 
  5914 ;; Registers used:
  5915 ;;		wreg, fsr1l, fsr1h, fsr2l, fsr2h, status,2, status,0, tblptrl, tblptrh, tblptru, cstack
  5916 ;; Tracked objects:
  5917 ;;		On entry : 0/0
  5918 ;;		On exit  : 0/0
  5919 ;;		Unchanged: 0/0
  5920 ;; Data sizes:     COMRAM   BANK0   BANK1   BANK2   BANK3   BANK4   BANK5
  5921 ;;      Params:         0       0       0       0       0       0       0
  5922 ;;      Locals:         2       0       0       0       0       0       0
  5923 ;;      Temps:          3       0       0       0       0       0       0
  5924 ;;      Totals:         5       0       0       0       0       0       0
  5925 ;;Total ram usage:        5 bytes
  5926 ;; Hardware stack levels used: 1
  5927 ;; Hardware stack levels required when called: 3
  5928 ;; This function calls:
  5929 ;;		_print_string
  5930 ;; This function is called by:
  5931 ;;		_start_up_menu
  5932 ;; This function uses a non-reentrant model
  5933 ;;
  5934                           
  5935                           	psect	text17
  5936  002E86                     __ptext17:
  5937                           	callstack 0
  5938  002E86                     _change_sequence:
  5939                           	callstack 0
  5940  002E86  FFFF               	dw	65535	; assembler added errata NOP
  5941  002E88                     
  5942                           ;main.c: 273:     print_string("\nThe current sequence is: ");
  5943  002E88  0E75               	movlw	low STR_4
  5944  002E8A  6E0A               	movwf	print_string@strng^0,c
  5945  002E8C  0E7F               	movlw	high STR_4
  5946  002E8E  6E0B               	movwf	(print_string@strng+1)^0,c
  5947  002E90  ECF3  F016         	call	_print_string	;wreg free
  5948                           
  5949                           ;main.c: 274:     print_string(sequence);
  5950  002E94  0EDC               	movlw	low _sequence
  5951  002E96  6E0A               	movwf	print_string@strng^0,c
  5952  002E98  0E00               	movlw	high _sequence
  5953  002E9A  6E0B               	movwf	(print_string@strng+1)^0,c
  5954  002E9C  ECF3  F016         	call	_print_string	;wreg free
  5955                           
  5956                           ;main.c: 275:     print_string("\nPlease give the new sequence as input\r");
  5957  002EA0  0E80               	movlw	low STR_5
  5958  002EA2  6E0A               	movwf	print_string@strng^0,c
  5959  002EA4  0E7E               	movlw	high STR_5
  5960  002EA6  6E0B               	movwf	(print_string@strng+1)^0,c
  5961  002EA8  ECF3  F016         	call	_print_string	;wreg free
  5962  002EAC                     
  5963                           ;main.c: 276:     int i = 0;
  5964  002EAC  0E00               	movlw	0
  5965  002EAE  6E14               	movwf	(change_sequence@i+1)^0,c
  5966  002EB0  0E00               	movlw	0
  5967  002EB2  6E13               	movwf	change_sequence@i^0,c
  5968  002EB4                     l4985:
  5969  002EB4  FFFF               	dw	65535	; assembler added errata NOP
  5970                           
  5971                           ;main.c: 278:         if(New_char_RX){
  5972  002EB6  5074               	movf	_New_char_RX^0,w,c
  5973  002EB8  B4D8               	btfsc	status,2,c
  5974  002EBA  EF61  F017         	goto	u5991
  5975  002EBE  EF64  F017         	goto	u5990
  5976  002EC2                     u5991:
  5977  002EC2  FFFF               	dw	65535	; assembler added errata NOP
  5978  002EC4  EF5A  F017         	goto	l4985
  5979  002EC8                     u5990:
  5980  002EC8  FFFF               	dw	65535	; assembler added errata NOP
  5981  002ECA                     l4987:
  5982  002ECA  FFFF               	dw	65535	; assembler added errata NOP
  5983                           
  5984                           ;main.c: 280:                 sequence[i]=input_str[i];
  5985  002ECC  0ED2               	movlw	low _input_str
  5986  002ECE  2413               	addwf	change_sequence@i^0,w,c
  5987  002ED0  6ED9               	movwf	fsr2l,c
  5988  002ED2  0E00               	movlw	high _input_str
  5989  002ED4  2014               	addwfc	(change_sequence@i+1)^0,w,c
  5990  002ED6  6EDA               	movwf	fsr2h,c
  5991  002ED8  0EDC               	movlw	low _sequence
  5992  002EDA  2413               	addwf	change_sequence@i^0,w,c
  5993  002EDC  6EE1               	movwf	fsr1l,c
  5994  002EDE  0E00               	movlw	high _sequence
  5995  002EE0  2014               	addwfc	(change_sequence@i+1)^0,w,c
  5996  002EE2  6EE2               	movwf	fsr1h,c
  5997  002EE4  CFDF FFE7          	movff	indf2,indf1
  5998  002EE8                     
  5999                           ;main.c: 281:             }while(input_str[i++]!='\n');
  6000  002EE8  5013               	movf	change_sequence@i^0,w,c
  6001  002EEA  6E10               	movwf	??_change_sequence^0,c
  6002  002EEC  5014               	movf	(change_sequence@i+1)^0,w,c
  6003  002EEE  6E11               	movwf	(??_change_sequence+1)^0,c
  6004  002EF0  4A13               	infsnz	change_sequence@i^0,f,c
  6005  002EF2  2A14               	incf	(change_sequence@i+1)^0,f,c
  6006  002EF4  0ED2               	movlw	low _input_str
  6007  002EF6  2410               	addwf	??_change_sequence^0,w,c
  6008  002EF8  6ED9               	movwf	fsr2l,c
  6009  002EFA  0E00               	movlw	high _input_str
  6010  002EFC  2011               	addwfc	(??_change_sequence+1)^0,w,c
  6011  002EFE  6EDA               	movwf	fsr2h,c
  6012  002F00  0E0A               	movlw	10
  6013  002F02  18DE               	xorwf	postinc2,w,c
  6014  002F04  A4D8               	btfss	status,2,c
  6015  002F06  EF87  F017         	goto	u6001
  6016  002F0A  EF8A  F017         	goto	u6000
  6017  002F0E                     u6001:
  6018  002F0E  FFFF               	dw	65535	; assembler added errata NOP
  6019  002F10  EF65  F017         	goto	l4987
  6020  002F14                     u6000:
  6021  002F14  FFFF               	dw	65535	; assembler added errata NOP
  6022  002F16                     
  6023                           ;main.c: 282:             New_char_RX=0;
  6024  002F16  0E00               	movlw	0
  6025  002F18  6E74               	movwf	_New_char_RX^0,c
  6026  002F1A  0012               	return		;funcret
  6027  002F1C  FFFF               	dw	65535	; errata NOP
  6028  002F1E                     __end_of_change_sequence:
  6029                           	callstack 0
  6030                           
  6031 ;; *************** function _add_component *****************
  6032 ;; Defined at:
  6033 ;;		line 288 in file "main.c"
  6034 ;; Parameters:    Size  Location     Type
  6035 ;;		None
  6036 ;; Auto vars:     Size  Location     Type
  6037 ;;  add_componnt    2   31[COMRAM] unsigned char [2]
  6038 ;; Return value:  Size  Location     Type
  6039 ;;                  1    wreg      void 
  6040 ;; Registers used:
  6041 ;;		wreg, fsr1l, fsr1h, fsr2l, fsr2h, status,2, status,0, tblptrl, tblptrh, tblptru, prodl, prodh, cstack
  6042 ;; Tracked objects:
  6043 ;;		On entry : 0/0
  6044 ;;		On exit  : 0/0
  6045 ;;		Unchanged: 0/0
  6046 ;; Data sizes:     COMRAM   BANK0   BANK1   BANK2   BANK3   BANK4   BANK5
  6047 ;;      Params:         0       0       0       0       0       0       0
  6048 ;;      Locals:         2       0       0       0       0       0       0
  6049 ;;      Temps:          0       0       0       0       0       0       0
  6050 ;;      Totals:         2       0       0       0       0       0       0
  6051 ;;Total ram usage:        2 bytes
  6052 ;; Hardware stack levels used: 1
  6053 ;; Hardware stack levels required when called: 4
  6054 ;; This function calls:
  6055 ;;		_atoi
  6056 ;;		_print_string
  6057 ;;		_strncat
  6058 ;; This function is called by:
  6059 ;;		_start_up_menu
  6060 ;; This function uses a non-reentrant model
  6061 ;;
  6062                           
  6063                           	psect	text18
  6064  001BFE                     __ptext18:
  6065                           	callstack 0
  6066  001BFE                     _add_component:
  6067                           	callstack 0
  6068  001BFE  FFFF               	dw	65535	; assembler added errata NOP
  6069  001C00                     
  6070                           ;main.c: 289:     char add_componnt[]=" ";
  6071  001C00  C0C9  F020         	movff	add_component@F3138,add_component@add_componnt
  6072  001C04  C0CA  F021         	movff	add_component@F3138+1,add_component@add_componnt+1
  6073  001C08                     
  6074                           ;main.c: 290:     print_string("\nThe Current sequence is:");
  6075  001C08  0E90               	movlw	low STR_6
  6076  001C0A  6E0A               	movwf	print_string@strng^0,c
  6077  001C0C  0E7F               	movlw	high STR_6
  6078  001C0E  6E0B               	movwf	(print_string@strng+1)^0,c
  6079  001C10  ECF3  F016         	call	_print_string	;wreg free
  6080                           
  6081                           ;main.c: 291:     print_string(sequence);
  6082  001C14  0EDC               	movlw	low _sequence
  6083  001C16  6E0A               	movwf	print_string@strng^0,c
  6084  001C18  0E00               	movlw	high _sequence
  6085  001C1A  6E0B               	movwf	(print_string@strng+1)^0,c
  6086  001C1C  ECF3  F016         	call	_print_string	;wreg free
  6087                           
  6088                           ;main.c: 292:     print_string("\nEnter the component you want to add: A, B, C or D?");
  6089  001C20  0E4C               	movlw	low STR_7
  6090  001C22  6E0A               	movwf	print_string@strng^0,c
  6091  001C24  0E7E               	movlw	high STR_7
  6092  001C26  6E0B               	movwf	(print_string@strng+1)^0,c
  6093  001C28  ECF3  F016         	call	_print_string	;wreg free
  6094  001C2C                     l4997:
  6095  001C2C  FFFF               	dw	65535	; assembler added errata NOP
  6096                           
  6097                           ;main.c: 294:         if(New_char_RX){
  6098  001C2E  5074               	movf	_New_char_RX^0,w,c
  6099  001C30  B4D8               	btfsc	status,2,c
  6100  001C32  EF1D  F00E         	goto	u6011
  6101  001C36  EF20  F00E         	goto	u6010
  6102  001C3A                     u6011:
  6103  001C3A  FFFF               	dw	65535	; assembler added errata NOP
  6104  001C3C  EF16  F00E         	goto	l4997
  6105  001C40                     u6010:
  6106  001C40  FFFF               	dw	65535	; assembler added errata NOP
  6107  001C42                     
  6108                           ;main.c: 295:             add_componnt[0]=input_str[0];
  6109  001C42  C0D2  F020         	movff	_input_str,add_component@add_componnt	;volatile
  6110  001C46                     
  6111                           ;main.c: 296:             if(add_componnt[0]=='D'){
  6112  001C46  0E44               	movlw	68
  6113  001C48  1820               	xorwf	add_component@add_componnt^0,w,c
  6114  001C4A  A4D8               	btfss	status,2,c
  6115  001C4C  EF2A  F00E         	goto	u6021
  6116  001C50  EF2D  F00E         	goto	u6020
  6117  001C54                     u6021:
  6118  001C54  FFFF               	dw	65535	; assembler added errata NOP
  6119  001C56  EFDC  F00E         	goto	l5051
  6120  001C5A                     u6020:
  6121  001C5A  FFFF               	dw	65535	; assembler added errata NOP
  6122  001C5C                     
  6123                           ;main.c: 297:                 New_char_RX=0;
  6124  001C5C  0E00               	movlw	0
  6125  001C5E  6E74               	movwf	_New_char_RX^0,c
  6126  001C60                     
  6127                           ;main.c: 298:                 print_string("\nEnter the pick position X:");
  6128  001C60  0E3D               	movlw	low STR_8
  6129  001C62  6E0A               	movwf	print_string@strng^0,c
  6130  001C64  0E7F               	movlw	high STR_8
  6131  001C66  6E0B               	movwf	(print_string@strng+1)^0,c
  6132  001C68  ECF3  F016         	call	_print_string	;wreg free
  6133  001C6C                     l5007:
  6134  001C6C  FFFF               	dw	65535	; assembler added errata NOP
  6135                           
  6136                           ;main.c: 300:                     if(New_char_RX){
  6137  001C6E  5074               	movf	_New_char_RX^0,w,c
  6138  001C70  B4D8               	btfsc	status,2,c
  6139  001C72  EF3D  F00E         	goto	u6031
  6140  001C76  EF40  F00E         	goto	u6030
  6141  001C7A                     u6031:
  6142  001C7A  FFFF               	dw	65535	; assembler added errata NOP
  6143  001C7C  EF36  F00E         	goto	l5007
  6144  001C80                     u6030:
  6145  001C80  FFFF               	dw	65535	; assembler added errata NOP
  6146  001C82                     
  6147                           ;main.c: 301:                         X_Pick_D=atoi(input_str);
  6148  001C82  0ED2               	movlw	low _input_str
  6149  001C84  6E11               	movwf	atoi@s^0,c
  6150  001C86  0E00               	movlw	high _input_str
  6151  001C88  6E12               	movwf	(atoi@s+1)^0,c
  6152  001C8A  ECFC  F00F         	call	_atoi	;wreg free
  6153  001C8E  C011  F0AE         	movff	?_atoi,_X_Pick_D
  6154  001C92  C012  F0AF         	movff	?_atoi+1,_X_Pick_D+1
  6155  001C96                     
  6156                           ;main.c: 302:                         New_char_RX=0;
  6157  001C96  0E00               	movlw	0
  6158  001C98  6E74               	movwf	_New_char_RX^0,c
  6159  001C9A                     
  6160                           ;main.c: 306:                 print_string("\nEnter the pick position Y:");
  6161  001C9A  0E59               	movlw	low STR_9
  6162  001C9C  6E0A               	movwf	print_string@strng^0,c
  6163  001C9E  0E7F               	movlw	high STR_9
  6164  001CA0  6E0B               	movwf	(print_string@strng+1)^0,c
  6165  001CA2  ECF3  F016         	call	_print_string	;wreg free
  6166  001CA6                     l5015:
  6167  001CA6  FFFF               	dw	65535	; assembler added errata NOP
  6168                           
  6169                           ;main.c: 308:                     if(New_char_RX){
  6170  001CA8  5074               	movf	_New_char_RX^0,w,c
  6171  001CAA  B4D8               	btfsc	status,2,c
  6172  001CAC  EF5A  F00E         	goto	u6041
  6173  001CB0  EF5D  F00E         	goto	u6040
  6174  001CB4                     u6041:
  6175  001CB4  FFFF               	dw	65535	; assembler added errata NOP
  6176  001CB6  EF53  F00E         	goto	l5015
  6177  001CBA                     u6040:
  6178  001CBA  FFFF               	dw	65535	; assembler added errata NOP
  6179  001CBC                     
  6180                           ;main.c: 309:                         Y_Pick_D=(atoi(input_str));
  6181  001CBC  0ED2               	movlw	low _input_str
  6182  001CBE  6E11               	movwf	atoi@s^0,c
  6183  001CC0  0E00               	movlw	high _input_str
  6184  001CC2  6E12               	movwf	(atoi@s+1)^0,c
  6185  001CC4  ECFC  F00F         	call	_atoi	;wreg free
  6186  001CC8  C011  F0AC         	movff	?_atoi,_Y_Pick_D
  6187  001CCC  C012  F0AD         	movff	?_atoi+1,_Y_Pick_D+1
  6188  001CD0                     
  6189                           ;main.c: 310:                         New_char_RX=0;
  6190  001CD0  0E00               	movlw	0
  6191  001CD2  6E74               	movwf	_New_char_RX^0,c
  6192  001CD4                     
  6193                           ;main.c: 314:                 print_string("\nEnter the pick orientation:");
  6194  001CD4  0E20               	movlw	low STR_10
  6195  001CD6  6E0A               	movwf	print_string@strng^0,c
  6196  001CD8  0E7F               	movlw	high STR_10
  6197  001CDA  6E0B               	movwf	(print_string@strng+1)^0,c
  6198  001CDC  ECF3  F016         	call	_print_string	;wreg free
  6199  001CE0                     l5023:
  6200  001CE0  FFFF               	dw	65535	; assembler added errata NOP
  6201                           
  6202                           ;main.c: 316:                     if(New_char_RX){
  6203  001CE2  5074               	movf	_New_char_RX^0,w,c
  6204  001CE4  B4D8               	btfsc	status,2,c
  6205  001CE6  EF77  F00E         	goto	u6051
  6206  001CEA  EF7A  F00E         	goto	u6050
  6207  001CEE                     u6051:
  6208  001CEE  FFFF               	dw	65535	; assembler added errata NOP
  6209  001CF0  EF70  F00E         	goto	l5023
  6210  001CF4                     u6050:
  6211  001CF4  FFFF               	dw	65535	; assembler added errata NOP
  6212  001CF6                     
  6213                           ;main.c: 317:                         Pick_Angle_D=(atoi(input_str));
  6214  001CF6  0ED2               	movlw	low _input_str
  6215  001CF8  6E11               	movwf	atoi@s^0,c
  6216  001CFA  0E00               	movlw	high _input_str
  6217  001CFC  6E12               	movwf	(atoi@s+1)^0,c
  6218  001CFE  ECFC  F00F         	call	_atoi	;wreg free
  6219  001D02  C011  F0AA         	movff	?_atoi,_Pick_Angle_D
  6220  001D06  C012  F0AB         	movff	?_atoi+1,_Pick_Angle_D+1
  6221  001D0A                     
  6222                           ;main.c: 318:                         New_char_RX=0;
  6223  001D0A  0E00               	movlw	0
  6224  001D0C  6E74               	movwf	_New_char_RX^0,c
  6225  001D0E                     
  6226                           ;main.c: 322:                 print_string("\nEnter the place position X:");
  6227  001D0E  0EE6               	movlw	low STR_11
  6228  001D10  6E0A               	movwf	print_string@strng^0,c
  6229  001D12  0E7E               	movlw	high STR_11
  6230  001D14  6E0B               	movwf	(print_string@strng+1)^0,c
  6231  001D16  ECF3  F016         	call	_print_string	;wreg free
  6232  001D1A                     l5031:
  6233  001D1A  FFFF               	dw	65535	; assembler added errata NOP
  6234                           
  6235                           ;main.c: 324:                     if(New_char_RX){
  6236  001D1C  5074               	movf	_New_char_RX^0,w,c
  6237  001D1E  B4D8               	btfsc	status,2,c
  6238  001D20  EF94  F00E         	goto	u6061
  6239  001D24  EF97  F00E         	goto	u6060
  6240  001D28                     u6061:
  6241  001D28  FFFF               	dw	65535	; assembler added errata NOP
  6242  001D2A  EF8D  F00E         	goto	l5031
  6243  001D2E                     u6060:
  6244  001D2E  FFFF               	dw	65535	; assembler added errata NOP
  6245  001D30                     
  6246                           ;main.c: 325:                         X_Place_D=(atoi(input_str));
  6247  001D30  0ED2               	movlw	low _input_str
  6248  001D32  6E11               	movwf	atoi@s^0,c
  6249  001D34  0E00               	movlw	high _input_str
  6250  001D36  6E12               	movwf	(atoi@s+1)^0,c
  6251  001D38  ECFC  F00F         	call	_atoi	;wreg free
  6252  001D3C  C011  F0A8         	movff	?_atoi,_X_Place_D
  6253  001D40  C012  F0A9         	movff	?_atoi+1,_X_Place_D+1
  6254  001D44                     
  6255                           ;main.c: 326:                         New_char_RX=0;
  6256  001D44  0E00               	movlw	0
  6257  001D46  6E74               	movwf	_New_char_RX^0,c
  6258  001D48                     
  6259                           ;main.c: 330:                 print_string("\nEnter the place position Y:");
  6260  001D48  0E03               	movlw	low STR_12
  6261  001D4A  6E0A               	movwf	print_string@strng^0,c
  6262  001D4C  0E7F               	movlw	high STR_12
  6263  001D4E  6E0B               	movwf	(print_string@strng+1)^0,c
  6264  001D50  ECF3  F016         	call	_print_string	;wreg free
  6265  001D54                     l5039:
  6266  001D54  FFFF               	dw	65535	; assembler added errata NOP
  6267                           
  6268                           ;main.c: 332:                     if(New_char_RX){
  6269  001D56  5074               	movf	_New_char_RX^0,w,c
  6270  001D58  B4D8               	btfsc	status,2,c
  6271  001D5A  EFB1  F00E         	goto	u6071
  6272  001D5E  EFB4  F00E         	goto	u6070
  6273  001D62                     u6071:
  6274  001D62  FFFF               	dw	65535	; assembler added errata NOP
  6275  001D64  EFAA  F00E         	goto	l5039
  6276  001D68                     u6070:
  6277  001D68  FFFF               	dw	65535	; assembler added errata NOP
  6278  001D6A                     
  6279                           ;main.c: 333:                         Y_Place_D=(atoi(input_str));
  6280  001D6A  0ED2               	movlw	low _input_str
  6281  001D6C  6E11               	movwf	atoi@s^0,c
  6282  001D6E  0E00               	movlw	high _input_str
  6283  001D70  6E12               	movwf	(atoi@s+1)^0,c
  6284  001D72  ECFC  F00F         	call	_atoi	;wreg free
  6285  001D76  C011  F0A6         	movff	?_atoi,_Y_Place_D
  6286  001D7A  C012  F0A7         	movff	?_atoi+1,_Y_Place_D+1
  6287  001D7E                     
  6288                           ;main.c: 334:                         New_char_RX=0;
  6289  001D7E  0E00               	movlw	0
  6290  001D80  6E74               	movwf	_New_char_RX^0,c
  6291  001D82                     
  6292                           ;main.c: 338:                 print_string("\nEnter the place orientation:");
  6293  001D82  0EC8               	movlw	low STR_13
  6294  001D84  6E0A               	movwf	print_string@strng^0,c
  6295  001D86  0E7E               	movlw	high STR_13
  6296  001D88  6E0B               	movwf	(print_string@strng+1)^0,c
  6297  001D8A  ECF3  F016         	call	_print_string	;wreg free
  6298  001D8E                     l5047:
  6299  001D8E  FFFF               	dw	65535	; assembler added errata NOP
  6300                           
  6301                           ;main.c: 340:                         if(New_char_RX){
  6302  001D90  5074               	movf	_New_char_RX^0,w,c
  6303  001D92  B4D8               	btfsc	status,2,c
  6304  001D94  EFCE  F00E         	goto	u6081
  6305  001D98  EFD1  F00E         	goto	u6080
  6306  001D9C                     u6081:
  6307  001D9C  FFFF               	dw	65535	; assembler added errata NOP
  6308  001D9E  EFC7  F00E         	goto	l5047
  6309  001DA2                     u6080:
  6310  001DA2  FFFF               	dw	65535	; assembler added errata NOP
  6311  001DA4                     
  6312                           ;main.c: 341:                         Place_Angle_D=(atoi(input_str));
  6313  001DA4  0ED2               	movlw	low _input_str
  6314  001DA6  6E11               	movwf	atoi@s^0,c
  6315  001DA8  0E00               	movlw	high _input_str
  6316  001DAA  6E12               	movwf	(atoi@s+1)^0,c
  6317  001DAC  ECFC  F00F         	call	_atoi	;wreg free
  6318  001DB0  C011  F0A4         	movff	?_atoi,_Place_Angle_D
  6319  001DB4  C012  F0A5         	movff	?_atoi+1,_Place_Angle_D+1
  6320  001DB8                     l5051:
  6321  001DB8  FFFF               	dw	65535	; assembler added errata NOP
  6322                           
  6323                           ;main.c: 342:                         New_char_RX=0;
  6324  001DBA  0E00               	movlw	0
  6325  001DBC  6E74               	movwf	_New_char_RX^0,c
  6326  001DBE                     
  6327                           ;main.c: 354:     State='0';
  6328  001DBE  0E30               	movlw	48
  6329  001DC0  0100               	movlb	0	; () banked
  6330  001DC2  6FCF               	movwf	_State& (0+255),b
  6331  001DC4                     
  6332                           ; BSR set to: 0
  6333                           ;main.c: 355:     strncat(sequence,add_componnt,1);
  6334  001DC4  0EDC               	movlw	low _sequence
  6335  001DC6  6E0E               	movwf	strncat@d^0,c
  6336  001DC8  0E00               	movlw	high _sequence
  6337  001DCA  6E0F               	movwf	(strncat@d+1)^0,c
  6338  001DCC  0E20               	movlw	low add_component@add_componnt
  6339  001DCE  6E10               	movwf	strncat@s^0,c
  6340  001DD0  0E00               	movlw	high add_component@add_componnt
  6341  001DD2  6E11               	movwf	(strncat@s+1)^0,c
  6342  001DD4  0E00               	movlw	0
  6343  001DD6  6E13               	movwf	(strncat@n+1)^0,c
  6344  001DD8  0E01               	movlw	1
  6345  001DDA  6E12               	movwf	strncat@n^0,c
  6346  001DDC  EC8F  F017         	call	_strncat	;wreg free
  6347  001DE0                     
  6348                           ;main.c: 356:     print_string("\n\nComponent Added: ");
  6349  001DE0  0EC1               	movlw	low STR_14
  6350  001DE2  6E0A               	movwf	print_string@strng^0,c
  6351  001DE4  0E7F               	movlw	high STR_14
  6352  001DE6  6E0B               	movwf	(print_string@strng+1)^0,c
  6353  001DE8  ECF3  F016         	call	_print_string	;wreg free
  6354  001DEC                     
  6355                           ;main.c: 357:     print_string(add_componnt);
  6356  001DEC  0E20               	movlw	low add_component@add_componnt
  6357  001DEE  6E0A               	movwf	print_string@strng^0,c
  6358  001DF0  0E00               	movlw	high add_component@add_componnt
  6359  001DF2  6E0B               	movwf	(print_string@strng+1)^0,c
  6360  001DF4  ECF3  F016         	call	_print_string	;wreg free
  6361  001DF8                     
  6362                           ;main.c: 358:     New_char_RX=0;
  6363  001DF8  0E00               	movlw	0
  6364  001DFA  6E74               	movwf	_New_char_RX^0,c
  6365  001DFC  0012               	return		;funcret
  6366  001DFE  FFFF               	dw	65535	; errata NOP
  6367  001E00                     __end_of_add_component:
  6368                           	callstack 0
  6369                           
  6370 ;; *************** function _strncat *****************
  6371 ;; Defined at:
  6372 ;;		line 3 in file "/opt/microchip/xc8/v2.32/pic/sources/c99/common/strncat.c"
  6373 ;; Parameters:    Size  Location     Type
  6374 ;;  d               2   13[COMRAM] PTR unsigned char 
  6375 ;;		 -> sequence(4), 
  6376 ;;  s               2   15[COMRAM] PTR const unsigned char 
  6377 ;;		 -> add_component@add_componnt(2), 
  6378 ;;  n               2   17[COMRAM] unsigned int 
  6379 ;; Auto vars:     Size  Location     Type
  6380 ;;  a               2    0        PTR unsigned char 
  6381 ;;		 -> sequence(4), 
  6382 ;; Return value:  Size  Location     Type
  6383 ;;                  2   13[COMRAM] PTR unsigned char 
  6384 ;; Registers used:
  6385 ;;		wreg, fsr1l, fsr1h, fsr2l, fsr2h, status,2, status,0, cstack
  6386 ;; Tracked objects:
  6387 ;;		On entry : 0/0
  6388 ;;		On exit  : 0/0
  6389 ;;		Unchanged: 0/0
  6390 ;; Data sizes:     COMRAM   BANK0   BANK1   BANK2   BANK3   BANK4   BANK5
  6391 ;;      Params:         6       0       0       0       0       0       0
  6392 ;;      Locals:         0       0       0       0       0       0       0
  6393 ;;      Temps:          0       0       0       0       0       0       0
  6394 ;;      Totals:         6       0       0       0       0       0       0
  6395 ;;Total ram usage:        6 bytes
  6396 ;; Hardware stack levels used: 1
  6397 ;; Hardware stack levels required when called: 3
  6398 ;; This function calls:
  6399 ;;		_strlen
  6400 ;; This function is called by:
  6401 ;;		_add_component
  6402 ;; This function uses a non-reentrant model
  6403 ;;
  6404                           
  6405                           	psect	text19
  6406  002F1E                     __ptext19:
  6407                           	callstack 0
  6408  002F1E                     _strncat:
  6409                           	callstack 0
  6410  002F1E  FFFF               	dw	65535	; assembler added errata NOP
  6411  002F20  C00E  F00A         	movff	strncat@d,strlen@s
  6412  002F24  C00F  F00B         	movff	strncat@d+1,strlen@s+1
  6413  002F28  ECEF  F018         	call	_strlen	;wreg free
  6414  002F2C  500A               	movf	?_strlen^0,w,c
  6415  002F2E  260E               	addwf	strncat@d^0,f,c
  6416  002F30  500B               	movf	(?_strlen+1)^0,w,c
  6417  002F32  220F               	addwfc	(strncat@d+1)^0,f,c
  6418  002F34  EFAE  F017         	goto	l3129
  6419  002F38                     l3121:
  6420  002F38  FFFF               	dw	65535	; assembler added errata NOP
  6421  002F3A  0612               	decf	strncat@n^0,f,c
  6422  002F3C  A0D8               	btfss	status,0,c
  6423  002F3E  0613               	decf	(strncat@n+1)^0,f,c
  6424  002F40  C010  FFD9         	movff	strncat@s,fsr2l
  6425  002F44  C011  FFDA         	movff	strncat@s+1,fsr2h
  6426  002F48  C00E  FFE1         	movff	strncat@d,fsr1l
  6427  002F4C  C00F  FFE2         	movff	strncat@d+1,fsr1h
  6428  002F50  CFDF FFE7          	movff	indf2,indf1
  6429  002F54  4A10               	infsnz	strncat@s^0,f,c
  6430  002F56  2A11               	incf	(strncat@s+1)^0,f,c
  6431  002F58  4A0E               	infsnz	strncat@d^0,f,c
  6432  002F5A  2A0F               	incf	(strncat@d+1)^0,f,c
  6433  002F5C                     l3129:
  6434  002F5C  FFFF               	dw	65535	; assembler added errata NOP
  6435  002F5E  5012               	movf	strncat@n^0,w,c
  6436  002F60  1013               	iorwf	(strncat@n+1)^0,w,c
  6437  002F62  B4D8               	btfsc	status,2,c
  6438  002F64  EFB6  F017         	goto	u3001
  6439  002F68  EFB9  F017         	goto	u3000
  6440  002F6C                     u3001:
  6441  002F6C  FFFF               	dw	65535	; assembler added errata NOP
  6442  002F6E  EFC7  F017         	goto	l3133
  6443  002F72                     u3000:
  6444  002F72  FFFF               	dw	65535	; assembler added errata NOP
  6445  002F74  C010  FFD9         	movff	strncat@s,fsr2l
  6446  002F78  C011  FFDA         	movff	strncat@s+1,fsr2h
  6447  002F7C  50DF               	movf	indf2,w,c
  6448  002F7E  A4D8               	btfss	status,2,c
  6449  002F80  EFC4  F017         	goto	u3011
  6450  002F84  EFC7  F017         	goto	u3010
  6451  002F88                     u3011:
  6452  002F88  FFFF               	dw	65535	; assembler added errata NOP
  6453  002F8A  EF9C  F017         	goto	l3121
  6454  002F8E                     u3010:
  6455  002F8E                     l3133:
  6456  002F8E  FFFF               	dw	65535	; assembler added errata NOP
  6457  002F90  C00E  FFD9         	movff	strncat@d,fsr2l
  6458  002F94  C00F  FFDA         	movff	strncat@d+1,fsr2h
  6459  002F98  0E00               	movlw	0
  6460  002F9A  6EDF               	movwf	indf2,c
  6461  002F9C  4A0E               	infsnz	strncat@d^0,f,c
  6462  002F9E  2A0F               	incf	(strncat@d+1)^0,f,c
  6463  002FA0  0012               	return		;funcret
  6464  002FA2  FFFF               	dw	65535	; errata NOP
  6465  002FA4                     __end_of_strncat:
  6466                           	callstack 0
  6467                           
  6468 ;; *************** function _strlen *****************
  6469 ;; Defined at:
  6470 ;;		line 5 in file "/opt/microchip/xc8/v2.32/pic/sources/c99/common/strlen.c"
  6471 ;; Parameters:    Size  Location     Type
  6472 ;;  s               2    9[COMRAM] PTR const unsigned char 
  6473 ;;		 -> sequence(4), 
  6474 ;; Auto vars:     Size  Location     Type
  6475 ;;  a               2   11[COMRAM] PTR const unsigned char 
  6476 ;;		 -> sequence(4), 
  6477 ;; Return value:  Size  Location     Type
  6478 ;;                  2    9[COMRAM] unsigned int 
  6479 ;; Registers used:
  6480 ;;		wreg, fsr2l, fsr2h, status,2, status,0
  6481 ;; Tracked objects:
  6482 ;;		On entry : 0/0
  6483 ;;		On exit  : 0/0
  6484 ;;		Unchanged: 0/0
  6485 ;; Data sizes:     COMRAM   BANK0   BANK1   BANK2   BANK3   BANK4   BANK5
  6486 ;;      Params:         2       0       0       0       0       0       0
  6487 ;;      Locals:         2       0       0       0       0       0       0
  6488 ;;      Temps:          0       0       0       0       0       0       0
  6489 ;;      Totals:         4       0       0       0       0       0       0
  6490 ;;Total ram usage:        4 bytes
  6491 ;; Hardware stack levels used: 1
  6492 ;; Hardware stack levels required when called: 2
  6493 ;; This function calls:
  6494 ;;		Nothing
  6495 ;; This function is called by:
  6496 ;;		_remove_component
  6497 ;;		_strncat
  6498 ;;		_strrchr
  6499 ;; This function uses a non-reentrant model
  6500 ;;
  6501                           
  6502                           	psect	text20
  6503  0031DE                     __ptext20:
  6504                           	callstack 0
  6505  0031DE                     _strlen:
  6506                           	callstack 0
  6507  0031DE  FFFF               	dw	65535	; assembler added errata NOP
  6508  0031E0  C00A  F00C         	movff	strlen@s,strlen@a
  6509  0031E4  C00B  F00D         	movff	strlen@s+1,strlen@a+1
  6510  0031E8  EFF9  F018         	goto	l2805
  6511  0031EC                     l2803:
  6512  0031EC  FFFF               	dw	65535	; assembler added errata NOP
  6513  0031EE  4A0A               	infsnz	strlen@s^0,f,c
  6514  0031F0  2A0B               	incf	(strlen@s+1)^0,f,c
  6515  0031F2                     l2805:
  6516  0031F2  FFFF               	dw	65535	; assembler added errata NOP
  6517  0031F4  C00A  FFD9         	movff	strlen@s,fsr2l
  6518  0031F8  C00B  FFDA         	movff	strlen@s+1,fsr2h
  6519  0031FC  50DF               	movf	indf2,w,c
  6520  0031FE  A4D8               	btfss	status,2,c
  6521  003200  EF04  F019         	goto	u2411
  6522  003204  EF07  F019         	goto	u2410
  6523  003208                     u2411:
  6524  003208  FFFF               	dw	65535	; assembler added errata NOP
  6525  00320A  EFF6  F018         	goto	l2803
  6526  00320E                     u2410:
  6527  00320E  FFFF               	dw	65535	; assembler added errata NOP
  6528  003210  500C               	movf	strlen@a^0,w,c
  6529  003212  5C0A               	subwf	strlen@s^0,w,c
  6530  003214  6E0A               	movwf	?_strlen^0,c
  6531  003216  500D               	movf	(strlen@a+1)^0,w,c
  6532  003218  580B               	subwfb	(strlen@s+1)^0,w,c
  6533  00321A  6E0B               	movwf	(?_strlen+1)^0,c
  6534  00321C  0012               	return		;funcret
  6535  00321E  FFFF               	dw	65535	; errata NOP
  6536  003220                     __end_of_strlen:
  6537                           	callstack 0
  6538                           
  6539 ;; *************** function _print_string *****************
  6540 ;; Defined at:
  6541 ;;		line 44 in file "serial_rs232.c"
  6542 ;; Parameters:    Size  Location     Type
  6543 ;;  strng           2    9[COMRAM] PTR unsigned char 
  6544 ;;		 -> STR_18(23), STR_17(70), STR_16(19), STR_15(63), 
  6545 ;;		 -> STR_14(20), STR_13(30), STR_12(29), STR_11(29), 
  6546 ;;		 -> STR_10(29), STR_9(28), STR_8(28), STR_7(52), 
  6547 ;;		 -> STR_6(26), add_component@add_componnt(2), STR_5(40), STR_4(27), 
  6548 ;;		 -> STR_3(32), sequence(4), STR_2(20), STR_1(82), 
  6549 ;; Auto vars:     Size  Location     Type
  6550 ;;  i               2   13[COMRAM] int 
  6551 ;; Return value:  Size  Location     Type
  6552 ;;                  1    wreg      void 
  6553 ;; Registers used:
  6554 ;;		wreg, fsr1l, fsr1h, status,2, status,0, tblptrl, tblptrh, tblptru
  6555 ;; Tracked objects:
  6556 ;;		On entry : 0/0
  6557 ;;		On exit  : 0/0
  6558 ;;		Unchanged: 0/0
  6559 ;; Data sizes:     COMRAM   BANK0   BANK1   BANK2   BANK3   BANK4   BANK5
  6560 ;;      Params:         2       0       0       0       0       0       0
  6561 ;;      Locals:         2       0       0       0       0       0       0
  6562 ;;      Temps:          2       0       0       0       0       0       0
  6563 ;;      Totals:         6       0       0       0       0       0       0
  6564 ;;Total ram usage:        6 bytes
  6565 ;; Hardware stack levels used: 1
  6566 ;; Hardware stack levels required when called: 2
  6567 ;; This function calls:
  6568 ;;		Nothing
  6569 ;; This function is called by:
  6570 ;;		_start_up_menu
  6571 ;;		_change_sequence
  6572 ;;		_add_component
  6573 ;;		_remove_component
  6574 ;;		_pick_and_place
  6575 ;; This function uses a non-reentrant model
  6576 ;;
  6577                           
  6578                           	psect	text21
  6579  002DE6                     __ptext21:
  6580                           	callstack 0
  6581  002DE6                     _print_string:
  6582                           	callstack 0
  6583  002DE6  FFFF               	dw	65535	; assembler added errata NOP
  6584  002DE8                     
  6585                           ;serial_rs232.c: 44: void print_string(char strng[]);serial_rs232.c: 45: {;serial_rs232.
      +                          c: 46:     for(int i=0; strng[i]!=((void*)0);i++){
  6586  002DE8  0E00               	movlw	0
  6587  002DEA  6E0F               	movwf	(print_string@i+1)^0,c
  6588  002DEC  0E00               	movlw	0
  6589  002DEE  6E0E               	movwf	print_string@i^0,c
  6590  002DF0  EF1F  F017         	goto	l4343
  6591  002DF4                     l4339:
  6592  002DF4  FFFF               	dw	65535	; assembler added errata NOP
  6593                           
  6594                           ;serial_rs232.c: 47:         TXREG=strng[i];
  6595  002DF6  500E               	movf	print_string@i^0,w,c
  6596  002DF8  240A               	addwf	print_string@strng^0,w,c
  6597  002DFA  6E0C               	movwf	??_print_string^0,c
  6598  002DFC  500F               	movf	(print_string@i+1)^0,w,c
  6599  002DFE  200B               	addwfc	(print_string@strng+1)^0,w,c
  6600  002E00  6E0D               	movwf	(??_print_string+1)^0,c
  6601  002E02  C00C  FFF6         	movff	??_print_string,tblptrl
  6602  002E06  C00D  FFF7         	movff	??_print_string+1,tblptrh
  6603  002E0A  6AF8               	clrf	tblptru,c
  6604  002E0C  0E05               	movlw	(high __ramtop+-1)
  6605  002E0E  64F7               	cpfsgt	tblptrh,c
  6606  002E10  D004               	bra	u4837
  6607  002E12  0008               	tblrd		*
  6608  002E14  FFFF               	dw	65535	; errata NOP
  6609  002E16  50F5               	movf	tablat,w,c
  6610  002E18  D005               	bra	u4830
  6611  002E1A                     u4837:
  6612  002E1A  CFF6 FFE1          	movff	tblptrl,fsr1l
  6613  002E1E  CFF7 FFE2          	movff	tblptrh,fsr1h
  6614  002E22  50E7               	movf	indf1,w,c
  6615  002E24                     u4830:
  6616  002E24  6EAD               	movwf	173,c	;volatile
  6617  002E26                     l77:
  6618  002E26  FFFF               	dw	65535	; assembler added errata NOP
  6619  002E28  A2AC               	btfss	172,1,c	;volatile
  6620  002E2A  EF19  F017         	goto	u4841
  6621  002E2E  EF1C  F017         	goto	u4840
  6622  002E32                     u4841:
  6623  002E32  FFFF               	dw	65535	; assembler added errata NOP
  6624  002E34  EF13  F017         	goto	l77
  6625  002E38                     u4840:
  6626  002E38  FFFF               	dw	65535	; assembler added errata NOP
  6627  002E3A                     
  6628                           ;serial_rs232.c: 49:     }
  6629  002E3A  4A0E               	infsnz	print_string@i^0,f,c
  6630  002E3C  2A0F               	incf	(print_string@i+1)^0,f,c
  6631  002E3E                     l4343:
  6632  002E3E  FFFF               	dw	65535	; assembler added errata NOP
  6633  002E40  500E               	movf	print_string@i^0,w,c
  6634  002E42  240A               	addwf	print_string@strng^0,w,c
  6635  002E44  6E0C               	movwf	??_print_string^0,c
  6636  002E46  500F               	movf	(print_string@i+1)^0,w,c
  6637  002E48  200B               	addwfc	(print_string@strng+1)^0,w,c
  6638  002E4A  6E0D               	movwf	(??_print_string+1)^0,c
  6639  002E4C  C00C  FFF6         	movff	??_print_string,tblptrl
  6640  002E50  C00D  FFF7         	movff	??_print_string+1,tblptrh
  6641  002E54  6AF8               	clrf	tblptru,c
  6642  002E56  0E05               	movlw	(high __ramtop+-1)
  6643  002E58  64F7               	cpfsgt	tblptrh,c
  6644  002E5A  D004               	bra	u4857
  6645  002E5C  0008               	tblrd		*
  6646  002E5E  FFFF               	dw	65535	; errata NOP
  6647  002E60  50F5               	movf	tablat,w,c
  6648  002E62  D005               	bra	u4850
  6649  002E64                     u4857:
  6650  002E64  CFF6 FFE1          	movff	tblptrl,fsr1l
  6651  002E68  CFF7 FFE2          	movff	tblptrh,fsr1h
  6652  002E6C  50E7               	movf	indf1,w,c
  6653  002E6E                     u4850:
  6654  002E6E  0900               	iorlw	0
  6655  002E70  A4D8               	btfss	status,2,c
  6656  002E72  EF3D  F017         	goto	u4861
  6657  002E76  EF40  F017         	goto	u4860
  6658  002E7A                     u4861:
  6659  002E7A  FFFF               	dw	65535	; assembler added errata NOP
  6660  002E7C  EFFA  F016         	goto	l4339
  6661  002E80                     u4860:
  6662  002E80  FFFF               	dw	65535	; assembler added errata NOP
  6663  002E82  0012               	return		;funcret
  6664  002E84  FFFF               	dw	65535	; errata NOP
  6665  002E86                     __end_of_print_string:
  6666                           	callstack 0
  6667                           
  6668 ;; *************** function _atoi *****************
  6669 ;; Defined at:
  6670 ;;		line 4 in file "/opt/microchip/xc8/v2.32/pic/sources/c99/common/atoi.c"
  6671 ;; Parameters:    Size  Location     Type
  6672 ;;  s               2   16[COMRAM] PTR const unsigned char 
  6673 ;;		 -> input_str(10), 
  6674 ;; Auto vars:     Size  Location     Type
  6675 ;;  n               2   29[COMRAM] int 
  6676 ;;  neg             2   22[COMRAM] int 
  6677 ;; Return value:  Size  Location     Type
  6678 ;;                  2   16[COMRAM] int 
  6679 ;; Registers used:
  6680 ;;		wreg, fsr2l, fsr2h, status,2, status,0, prodl, prodh, cstack
  6681 ;; Tracked objects:
  6682 ;;		On entry : 0/0
  6683 ;;		On exit  : 0/0
  6684 ;;		Unchanged: 0/0
  6685 ;; Data sizes:     COMRAM   BANK0   BANK1   BANK2   BANK3   BANK4   BANK5
  6686 ;;      Params:         2       0       0       0       0       0       0
  6687 ;;      Locals:         9       0       0       0       0       0       0
  6688 ;;      Temps:          4       0       0       0       0       0       0
  6689 ;;      Totals:        15       0       0       0       0       0       0
  6690 ;;Total ram usage:       15 bytes
  6691 ;; Hardware stack levels used: 1
  6692 ;; Hardware stack levels required when called: 3
  6693 ;; This function calls:
  6694 ;;		___wmul
  6695 ;;		_isdigit
  6696 ;;		_isspace
  6697 ;; This function is called by:
  6698 ;;		_add_component
  6699 ;; This function uses a non-reentrant model
  6700 ;;
  6701                           
  6702                           	psect	text22
  6703  001FF8                     __ptext22:
  6704                           	callstack 0
  6705  001FF8                     _atoi:
  6706                           	callstack 0
  6707  001FF8  FFFF               	dw	65535	; assembler added errata NOP
  6708  001FFA  0E00               	movlw	0
  6709  001FFC  6E1F               	movwf	(atoi@n+1)^0,c
  6710  001FFE  0E00               	movlw	0
  6711  002000  6E1E               	movwf	atoi@n^0,c
  6712  002002  0E00               	movlw	0
  6713  002004  6E18               	movwf	(atoi@neg+1)^0,c
  6714  002006  0E00               	movlw	0
  6715  002008  6E17               	movwf	atoi@neg^0,c
  6716  00200A  EF0A  F010         	goto	l3079
  6717  00200E                     l3077:
  6718  00200E  FFFF               	dw	65535	; assembler added errata NOP
  6719  002010  4A11               	infsnz	atoi@s^0,f,c
  6720  002012  2A12               	incf	(atoi@s+1)^0,f,c
  6721  002014                     l3079:
  6722  002014  FFFF               	dw	65535	; assembler added errata NOP
  6723  002016  0E01               	movlw	1
  6724  002018  6E1D               	movwf	_atoi$1392^0,c
  6725  00201A  C011  FFD9         	movff	atoi@s,fsr2l
  6726  00201E  C012  FFDA         	movff	atoi@s+1,fsr2h
  6727  002022  0E20               	movlw	32
  6728  002024  18DE               	xorwf	postinc2,w,c
  6729  002026  B4D8               	btfsc	status,2,c
  6730  002028  EF18  F010         	goto	u2931
  6731  00202C  EF1B  F010         	goto	u2930
  6732  002030                     u2931:
  6733  002030  FFFF               	dw	65535	; assembler added errata NOP
  6734  002032  EF3A  F010         	goto	l3087
  6735  002036                     u2930:
  6736  002036  FFFF               	dw	65535	; assembler added errata NOP
  6737  002038  0EF7               	movlw	247
  6738  00203A  6E13               	movwf	??_atoi^0,c
  6739  00203C  0EFF               	movlw	255
  6740  00203E  6E14               	movwf	(??_atoi+1)^0,c
  6741  002040  C011  FFD9         	movff	atoi@s,fsr2l
  6742  002044  C012  FFDA         	movff	atoi@s+1,fsr2h
  6743  002048  50DF               	movf	indf2,w,c
  6744  00204A  6E15               	movwf	(??_atoi+2)^0,c
  6745  00204C  6A16               	clrf	(??_atoi+3)^0,c
  6746  00204E  5013               	movf	??_atoi^0,w,c
  6747  002050  2615               	addwf	(??_atoi+2)^0,f,c
  6748  002052  5014               	movf	(??_atoi+1)^0,w,c
  6749  002054  2216               	addwfc	(??_atoi+3)^0,f,c
  6750  002056  5016               	movf	(??_atoi+3)^0,w,c
  6751  002058  E10A               	bnz	u2940
  6752  00205A  0E05               	movlw	5
  6753  00205C  5C15               	subwf	(??_atoi+2)^0,w,c
  6754  00205E  A0D8               	btfss	status,0,c
  6755  002060  EF34  F010         	goto	u2941
  6756  002064  EF37  F010         	goto	u2940
  6757  002068                     u2941:
  6758  002068  FFFF               	dw	65535	; assembler added errata NOP
  6759  00206A  EF3A  F010         	goto	l3087
  6760  00206E                     u2940:
  6761  00206E  FFFF               	dw	65535	; assembler added errata NOP
  6762  002070  0E00               	movlw	0
  6763  002072  6E1D               	movwf	_atoi$1392^0,c
  6764  002074                     l3087:
  6765  002074  FFFF               	dw	65535	; assembler added errata NOP
  6766  002076  C01D  F019         	movff	_atoi$1392,_atoi$1391
  6767  00207A  6A1A               	clrf	(_atoi$1391+1)^0,c
  6768  00207C  5019               	movf	_atoi$1391^0,w,c
  6769  00207E  101A               	iorwf	(_atoi$1391+1)^0,w,c
  6770  002080  A4D8               	btfss	status,2,c
  6771  002082  EF45  F010         	goto	u2951
  6772  002086  EF48  F010         	goto	u2950
  6773  00208A                     u2951:
  6774  00208A  FFFF               	dw	65535	; assembler added errata NOP
  6775  00208C  EF07  F010         	goto	l3077
  6776  002090                     u2950:
  6777  002090  FFFF               	dw	65535	; assembler added errata NOP
  6778  002092  EF55  F010         	goto	l3097
  6779  002096                     l3093:
  6780  002096  FFFF               	dw	65535	; assembler added errata NOP
  6781  002098  0E00               	movlw	0
  6782  00209A  6E18               	movwf	(atoi@neg+1)^0,c
  6783  00209C  0E01               	movlw	1
  6784  00209E  6E17               	movwf	atoi@neg^0,c
  6785  0020A0                     l3095:
  6786  0020A0  FFFF               	dw	65535	; assembler added errata NOP
  6787  0020A2  4A11               	infsnz	atoi@s^0,f,c
  6788  0020A4  2A12               	incf	(atoi@s+1)^0,f,c
  6789  0020A6  EF8D  F010         	goto	l3103
  6790  0020AA                     l3097:
  6791  0020AA  FFFF               	dw	65535	; assembler added errata NOP
  6792  0020AC  C011  FFD9         	movff	atoi@s,fsr2l
  6793  0020B0  C012  FFDA         	movff	atoi@s+1,fsr2h
  6794  0020B4  50DF               	movf	indf2,w,c
  6795  0020B6  6E13               	movwf	??_atoi^0,c
  6796  0020B8  6A14               	clrf	(??_atoi+1)^0,c
  6797                           
  6798                           ; Switch on 2 bytes has been partitioned into a top level switch of size 1, and 1 sub-sw
      +                          itches
  6799                           ; Switch size 1, requested type "simple"
  6800                           ; Number of cases is 1, Range of values is 0 to 0
  6801                           ; switch strategies available:
  6802                           ; Name         Instructions Cycles
  6803                           ; simple_byte            4     3 (average)
  6804                           ;	Chosen strategy is simple_byte
  6805  0020BA  5014               	movf	(??_atoi+1)^0,w,c
  6806  0020BC  0A00               	xorlw	0	; case 0
  6807  0020BE  B4D8               	btfsc	status,2,c
  6808  0020C0  EF64  F010         	goto	l5297
  6809  0020C4  EF8D  F010         	goto	l3103
  6810  0020C8                     l5297:
  6811  0020C8  FFFF               	dw	65535	; assembler added errata NOP
  6812                           
  6813                           ; Switch size 1, requested type "simple"
  6814                           ; Number of cases is 2, Range of values is 43 to 45
  6815                           ; switch strategies available:
  6816                           ; Name         Instructions Cycles
  6817                           ; simple_byte            7     4 (average)
  6818                           ;	Chosen strategy is simple_byte
  6819  0020CA  5013               	movf	??_atoi^0,w,c
  6820  0020CC  0A2B               	xorlw	43	; case 43
  6821  0020CE  B4D8               	btfsc	status,2,c
  6822  0020D0  EF50  F010         	goto	l3095
  6823  0020D4  0A06               	xorlw	6	; case 45
  6824  0020D6  B4D8               	btfsc	status,2,c
  6825  0020D8  EF4B  F010         	goto	l3093
  6826  0020DC  EF8D  F010         	goto	l3103
  6827  0020E0                     l3099:
  6828  0020E0  FFFF               	dw	65535	; assembler added errata NOP
  6829  0020E2  C01E  F00A         	movff	atoi@n,___wmul@multiplier
  6830  0020E6  C01F  F00B         	movff	atoi@n+1,___wmul@multiplier+1
  6831  0020EA  0E00               	movlw	0
  6832  0020EC  6E0D               	movwf	(___wmul@multiplicand+1)^0,c
  6833  0020EE  0E0A               	movlw	10
  6834  0020F0  6E0C               	movwf	___wmul@multiplicand^0,c
  6835  0020F2  ECA5  F019         	call	___wmul	;wreg free
  6836  0020F6  C011  FFD9         	movff	atoi@s,fsr2l
  6837  0020FA  C012  FFDA         	movff	atoi@s+1,fsr2h
  6838  0020FE  50DF               	movf	indf2,w,c
  6839  002100  6E13               	movwf	??_atoi^0,c
  6840  002102  5013               	movf	??_atoi^0,w,c
  6841  002104  5E0A               	subwf	?___wmul^0,f,c
  6842  002106  0E00               	movlw	0
  6843  002108  5A0B               	subwfb	(?___wmul+1)^0,f,c
  6844  00210A  0E30               	movlw	48
  6845  00210C  240A               	addwf	?___wmul^0,w,c
  6846  00210E  6E1E               	movwf	atoi@n^0,c
  6847  002110  0E00               	movlw	0
  6848  002112  200B               	addwfc	(?___wmul+1)^0,w,c
  6849  002114  6E1F               	movwf	(atoi@n+1)^0,c
  6850  002116  EF50  F010         	goto	l3095
  6851  00211A                     l3103:
  6852  00211A  FFFF               	dw	65535	; assembler added errata NOP
  6853  00211C  0ED0               	movlw	208
  6854  00211E  6E13               	movwf	??_atoi^0,c
  6855  002120  0EFF               	movlw	255
  6856  002122  6E14               	movwf	(??_atoi+1)^0,c
  6857  002124  C011  FFD9         	movff	atoi@s,fsr2l
  6858  002128  C012  FFDA         	movff	atoi@s+1,fsr2h
  6859  00212C  50DF               	movf	indf2,w,c
  6860  00212E  6E15               	movwf	(??_atoi+2)^0,c
  6861  002130  6A16               	clrf	(??_atoi+3)^0,c
  6862  002132  5013               	movf	??_atoi^0,w,c
  6863  002134  2615               	addwf	(??_atoi+2)^0,f,c
  6864  002136  5014               	movf	(??_atoi+1)^0,w,c
  6865  002138  2216               	addwfc	(??_atoi+3)^0,f,c
  6866  00213A  5016               	movf	(??_atoi+3)^0,w,c
  6867  00213C  E10B               	bnz	u2960
  6868  00213E  0E0A               	movlw	10
  6869  002140  5C15               	subwf	(??_atoi+2)^0,w,c
  6870  002142  A0D8               	btfss	status,0,c
  6871  002144  EFA6  F010         	goto	u2961
  6872  002148  EFAA  F010         	goto	u2960
  6873  00214C                     u2961:
  6874  00214C  FFFF               	dw	65535	; assembler added errata NOP
  6875  00214E  0E01               	movlw	1
  6876  002150  EFAC  F010         	goto	u2970
  6877  002154                     u2960:
  6878  002154  FFFF               	dw	65535	; assembler added errata NOP
  6879  002156  0E00               	movlw	0
  6880  002158                     u2970:
  6881  002158  FFFF               	dw	65535	; assembler added errata NOP
  6882  00215A  6E1B               	movwf	_atoi$1393^0,c
  6883  00215C  6A1C               	clrf	(_atoi$1393+1)^0,c
  6884  00215E  501B               	movf	_atoi$1393^0,w,c
  6885  002160  101C               	iorwf	(_atoi$1393+1)^0,w,c
  6886  002162  A4D8               	btfss	status,2,c
  6887  002164  EFB6  F010         	goto	u2981
  6888  002168  EFB9  F010         	goto	u2980
  6889  00216C                     u2981:
  6890  00216C  FFFF               	dw	65535	; assembler added errata NOP
  6891  00216E  EF70  F010         	goto	l3099
  6892  002172                     u2980:
  6893  002172  FFFF               	dw	65535	; assembler added errata NOP
  6894  002174  5017               	movf	atoi@neg^0,w,c
  6895  002176  1018               	iorwf	(atoi@neg+1)^0,w,c
  6896  002178  A4D8               	btfss	status,2,c
  6897  00217A  EFC1  F010         	goto	u2991
  6898  00217E  EFC4  F010         	goto	u2990
  6899  002182                     u2991:
  6900  002182  FFFF               	dw	65535	; assembler added errata NOP
  6901  002184  EFD3  F010         	goto	l1209
  6902  002188                     u2990:
  6903  002188  FFFF               	dw	65535	; assembler added errata NOP
  6904  00218A  C01E  F013         	movff	atoi@n,??_atoi
  6905  00218E  C01F  F014         	movff	atoi@n+1,??_atoi+1
  6906  002192  1E13               	comf	??_atoi^0,f,c
  6907  002194  1E14               	comf	(??_atoi+1)^0,f,c
  6908  002196  4A13               	infsnz	??_atoi^0,f,c
  6909  002198  2A14               	incf	(??_atoi+1)^0,f,c
  6910  00219A  C013  F011         	movff	??_atoi,?_atoi
  6911  00219E  C014  F012         	movff	??_atoi+1,?_atoi+1
  6912  0021A2  EFD8  F010         	goto	l1212
  6913  0021A6                     l1209:
  6914  0021A6  FFFF               	dw	65535	; assembler added errata NOP
  6915  0021A8  C01E  F011         	movff	atoi@n,?_atoi
  6916  0021AC  C01F  F012         	movff	atoi@n+1,?_atoi+1
  6917  0021B0                     l1212:
  6918  0021B0  FFFF               	dw	65535	; assembler added errata NOP
  6919  0021B2  0012               	return		;funcret
  6920  0021B4  FFFF               	dw	65535	; errata NOP
  6921  0021B6                     __end_of_atoi:
  6922                           	callstack 0
  6923                           
  6924 ;; *************** function _isspace *****************
  6925 ;; Defined at:
  6926 ;;		line 5 in file "/opt/microchip/xc8/v2.32/pic/sources/c99/common/isspace.c"
  6927 ;; Parameters:    Size  Location     Type
  6928 ;;  c               2    9[COMRAM] int 
  6929 ;; Auto vars:     Size  Location     Type
  6930 ;;		None
  6931 ;; Return value:  Size  Location     Type
  6932 ;;                  2    9[COMRAM] int 
  6933 ;; Registers used:
  6934 ;;		wreg, status,2, status,0
  6935 ;; Tracked objects:
  6936 ;;		On entry : 0/0
  6937 ;;		On exit  : 0/0
  6938 ;;		Unchanged: 0/0
  6939 ;; Data sizes:     COMRAM   BANK0   BANK1   BANK2   BANK3   BANK4   BANK5
  6940 ;;      Params:         2       0       0       0       0       0       0
  6941 ;;      Locals:         1       0       0       0       0       0       0
  6942 ;;      Temps:          4       0       0       0       0       0       0
  6943 ;;      Totals:         7       0       0       0       0       0       0
  6944 ;;Total ram usage:        7 bytes
  6945 ;; Hardware stack levels used: 1
  6946 ;; Hardware stack levels required when called: 2
  6947 ;; This function calls:
  6948 ;;		Nothing
  6949 ;; This function is called by:
  6950 ;;		_atoi
  6951 ;; This function uses a non-reentrant model
  6952 ;;
  6953                           
  6954                           	psect	text23
  6955  003092                     __ptext23:
  6956                           	callstack 0
  6957  003092                     _isspace:
  6958                           	callstack 25
  6959  003092  FFFF               	dw	65535	; assembler added errata NOP
  6960  003094  0E01               	movlw	1
  6961  003096  6E10               	movwf	_isspace$1409^0,c
  6962  003098  0E20               	movlw	32
  6963  00309A  180A               	xorwf	isspace@c^0,w,c
  6964  00309C  100B               	iorwf	(isspace@c+1)^0,w,c
  6965  00309E  B4D8               	btfsc	status,2,c
  6966  0030A0  EF54  F018         	goto	u2831
  6967  0030A4  EF57  F018         	goto	u2830
  6968  0030A8                     u2831:
  6969  0030A8  FFFF               	dw	65535	; assembler added errata NOP
  6970  0030AA  EF73  F018         	goto	l3043
  6971  0030AE                     u2830:
  6972  0030AE  FFFF               	dw	65535	; assembler added errata NOP
  6973  0030B0  0EF7               	movlw	247
  6974  0030B2  6E0C               	movwf	??_isspace^0,c
  6975  0030B4  0EFF               	movlw	255
  6976  0030B6  6E0D               	movwf	(??_isspace+1)^0,c
  6977  0030B8  C00A  F00E         	movff	isspace@c,??_isspace+2
  6978  0030BC  C00B  F00F         	movff	isspace@c+1,??_isspace+3
  6979  0030C0  500C               	movf	??_isspace^0,w,c
  6980  0030C2  260E               	addwf	(??_isspace+2)^0,f,c
  6981  0030C4  500D               	movf	(??_isspace+1)^0,w,c
  6982  0030C6  220F               	addwfc	(??_isspace+3)^0,f,c
  6983  0030C8  500F               	movf	(??_isspace+3)^0,w,c
  6984  0030CA  E10A               	bnz	u2840
  6985  0030CC  0E05               	movlw	5
  6986  0030CE  5C0E               	subwf	(??_isspace+2)^0,w,c
  6987  0030D0  A0D8               	btfss	status,0,c
  6988  0030D2  EF6D  F018         	goto	u2841
  6989  0030D6  EF70  F018         	goto	u2840
  6990  0030DA                     u2841:
  6991  0030DA  FFFF               	dw	65535	; assembler added errata NOP
  6992  0030DC  EF73  F018         	goto	l3043
  6993  0030E0                     u2840:
  6994  0030E0  FFFF               	dw	65535	; assembler added errata NOP
  6995  0030E2  0E00               	movlw	0
  6996  0030E4  6E10               	movwf	_isspace$1409^0,c
  6997  0030E6                     l3043:
  6998  0030E6  FFFF               	dw	65535	; assembler added errata NOP
  6999  0030E8  C010  F00A         	movff	_isspace$1409,?_isspace
  7000  0030EC  6A0B               	clrf	(?_isspace+1)^0,c
  7001  0030EE  0012               	return		;funcret
  7002  0030F0  FFFF               	dw	65535	; errata NOP
  7003  0030F2                     __end_of_isspace:
  7004                           	callstack 0
  7005                           
  7006 ;; *************** function _isdigit *****************
  7007 ;; Defined at:
  7008 ;;		line 5 in file "/opt/microchip/xc8/v2.32/pic/sources/c99/common/isdigit.c"
  7009 ;; Parameters:    Size  Location     Type
  7010 ;;  c               2    9[COMRAM] int 
  7011 ;; Auto vars:     Size  Location     Type
  7012 ;;		None
  7013 ;; Return value:  Size  Location     Type
  7014 ;;                  2    9[COMRAM] int 
  7015 ;; Registers used:
  7016 ;;		wreg, status,2, status,0
  7017 ;; Tracked objects:
  7018 ;;		On entry : 0/0
  7019 ;;		On exit  : 0/0
  7020 ;;		Unchanged: 0/0
  7021 ;; Data sizes:     COMRAM   BANK0   BANK1   BANK2   BANK3   BANK4   BANK5
  7022 ;;      Params:         2       0       0       0       0       0       0
  7023 ;;      Locals:         0       0       0       0       0       0       0
  7024 ;;      Temps:          4       0       0       0       0       0       0
  7025 ;;      Totals:         6       0       0       0       0       0       0
  7026 ;;Total ram usage:        6 bytes
  7027 ;; Hardware stack levels used: 1
  7028 ;; Hardware stack levels required when called: 2
  7029 ;; This function calls:
  7030 ;;		Nothing
  7031 ;; This function is called by:
  7032 ;;		_atoi
  7033 ;; This function uses a non-reentrant model
  7034 ;;
  7035                           
  7036                           	psect	text24
  7037  003220                     __ptext24:
  7038                           	callstack 0
  7039  003220                     _isdigit:
  7040                           	callstack 25
  7041  003220  FFFF               	dw	65535	; assembler added errata NOP
  7042  003222  0ED0               	movlw	208
  7043  003224  6E0C               	movwf	??_isdigit^0,c
  7044  003226  0EFF               	movlw	255
  7045  003228  6E0D               	movwf	(??_isdigit+1)^0,c
  7046  00322A  C00A  F00E         	movff	isdigit@c,??_isdigit+2
  7047  00322E  C00B  F00F         	movff	isdigit@c+1,??_isdigit+3
  7048  003232  500C               	movf	??_isdigit^0,w,c
  7049  003234  260E               	addwf	(??_isdigit+2)^0,f,c
  7050  003236  500D               	movf	(??_isdigit+1)^0,w,c
  7051  003238  220F               	addwfc	(??_isdigit+3)^0,f,c
  7052  00323A  500F               	movf	(??_isdigit+3)^0,w,c
  7053  00323C  E10B               	bnz	u2850
  7054  00323E  0E0A               	movlw	10
  7055  003240  5C0E               	subwf	(??_isdigit+2)^0,w,c
  7056  003242  A0D8               	btfss	status,0,c
  7057  003244  EF26  F019         	goto	u2851
  7058  003248  EF2A  F019         	goto	u2850
  7059  00324C                     u2851:
  7060  00324C  FFFF               	dw	65535	; assembler added errata NOP
  7061  00324E  0E01               	movlw	1
  7062  003250  EF2C  F019         	goto	u2860
  7063  003254                     u2850:
  7064  003254  FFFF               	dw	65535	; assembler added errata NOP
  7065  003256  0E00               	movlw	0
  7066  003258                     u2860:
  7067  003258  FFFF               	dw	65535	; assembler added errata NOP
  7068  00325A  6E0A               	movwf	?_isdigit^0,c
  7069  00325C  6A0B               	clrf	(?_isdigit+1)^0,c
  7070  00325E  0012               	return		;funcret
  7071  003260  FFFF               	dw	65535	; errata NOP
  7072  003262                     __end_of_isdigit:
  7073                           	callstack 0
  7074                           
  7075 ;; *************** function ___wmul *****************
  7076 ;; Defined at:
  7077 ;;		line 15 in file "/opt/microchip/xc8/v2.32/pic/sources/c99/common/Umul16.c"
  7078 ;; Parameters:    Size  Location     Type
  7079 ;;  multiplier      2    9[COMRAM] unsigned int 
  7080 ;;  multiplicand    2   11[COMRAM] unsigned int 
  7081 ;; Auto vars:     Size  Location     Type
  7082 ;;  product         2   13[COMRAM] unsigned int 
  7083 ;; Return value:  Size  Location     Type
  7084 ;;                  2    9[COMRAM] unsigned int 
  7085 ;; Registers used:
  7086 ;;		wreg, status,2, status,0, prodl, prodh
  7087 ;; Tracked objects:
  7088 ;;		On entry : 0/0
  7089 ;;		On exit  : 0/0
  7090 ;;		Unchanged: 0/0
  7091 ;; Data sizes:     COMRAM   BANK0   BANK1   BANK2   BANK3   BANK4   BANK5
  7092 ;;      Params:         4       0       0       0       0       0       0
  7093 ;;      Locals:         2       0       0       0       0       0       0
  7094 ;;      Temps:          0       0       0       0       0       0       0
  7095 ;;      Totals:         6       0       0       0       0       0       0
  7096 ;;Total ram usage:        6 bytes
  7097 ;; Hardware stack levels used: 1
  7098 ;; Hardware stack levels required when called: 2
  7099 ;; This function calls:
  7100 ;;		Nothing
  7101 ;; This function is called by:
  7102 ;;		_atoi
  7103 ;; This function uses a non-reentrant model
  7104 ;;
  7105                           
  7106                           	psect	text25
  7107  00334A                     __ptext25:
  7108                           	callstack 0
  7109  00334A                     ___wmul:
  7110                           	callstack 0
  7111  00334A  FFFF               	dw	65535	; assembler added errata NOP
  7112  00334C  500A               	movf	___wmul@multiplier^0,w,c
  7113  00334E  020C               	mulwf	___wmul@multiplicand^0,c
  7114  003350  CFF3 F00E          	movff	prodl,___wmul@product
  7115  003354  CFF4 F00F          	movff	prodh,___wmul@product+1
  7116  003358  500A               	movf	___wmul@multiplier^0,w,c
  7117  00335A  020D               	mulwf	(___wmul@multiplicand+1)^0,c
  7118  00335C  50F3               	movf	243,w,c
  7119  00335E  260F               	addwf	(___wmul@product+1)^0,f,c
  7120  003360  500B               	movf	(___wmul@multiplier+1)^0,w,c
  7121  003362  020C               	mulwf	___wmul@multiplicand^0,c
  7122  003364  50F3               	movf	243,w,c
  7123  003366  260F               	addwf	(___wmul@product+1)^0,f,c
  7124  003368  C00E  F00A         	movff	___wmul@product,?___wmul
  7125  00336C  C00F  F00B         	movff	___wmul@product+1,?___wmul+1
  7126  003370  0012               	return		;funcret
  7127  003372  FFFF               	dw	65535	; errata NOP
  7128  003374                     __end_of___wmul:
  7129                           	callstack 0
  7130                           
  7131 ;; *************** function _init_interrupts *****************
  7132 ;; Defined at:
  7133 ;;		line 71 in file "init_PIC.c"
  7134 ;; Parameters:    Size  Location     Type
  7135 ;;		None
  7136 ;; Auto vars:     Size  Location     Type
  7137 ;;		None
  7138 ;; Return value:  Size  Location     Type
  7139 ;;                  1    wreg      void 
  7140 ;; Registers used:
  7141 ;;		wreg, status,2
  7142 ;; Tracked objects:
  7143 ;;		On entry : 0/0
  7144 ;;		On exit  : 0/0
  7145 ;;		Unchanged: 0/0
  7146 ;; Data sizes:     COMRAM   BANK0   BANK1   BANK2   BANK3   BANK4   BANK5
  7147 ;;      Params:         0       0       0       0       0       0       0
  7148 ;;      Locals:         0       0       0       0       0       0       0
  7149 ;;      Temps:          0       0       0       0       0       0       0
  7150 ;;      Totals:         0       0       0       0       0       0       0
  7151 ;;Total ram usage:        0 bytes
  7152 ;; Hardware stack levels used: 1
  7153 ;; Hardware stack levels required when called: 2
  7154 ;; This function calls:
  7155 ;;		Nothing
  7156 ;; This function is called by:
  7157 ;;		_main
  7158 ;; This function uses a non-reentrant model
  7159 ;;
  7160                           
  7161                           	psect	text26
  7162  0033C6                     __ptext26:
  7163                           	callstack 0
  7164  0033C6                     _init_interrupts:
  7165                           	callstack 0
  7166  0033C6  FFFF               	dw	65535	; assembler added errata NOP
  7167  0033C8                     
  7168                           ;init_PIC.c: 73:     PIR1bits.RCIF = 0;
  7169  0033C8  9A9E               	bcf	158,5,c	;volatile
  7170                           
  7171                           ;init_PIC.c: 74:  PIE1bits.RCIE = 1;
  7172  0033CA  8A9D               	bsf	157,5,c	;volatile
  7173                           
  7174                           ;init_PIC.c: 75:  INTCONbits.PEIE = 1;
  7175  0033CC  8CF2               	bsf	242,6,c	;volatile
  7176                           
  7177                           ;init_PIC.c: 77:     PIE1bits.TMR1IE = 1;
  7178  0033CE  809D               	bsf	157,0,c	;volatile
  7179                           
  7180                           ;init_PIC.c: 78:     INTCONbits.TMR0IE = 1;
  7181  0033D0  8AF2               	bsf	242,5,c	;volatile
  7182  0033D2                     
  7183                           ;init_PIC.c: 80:     INTCON2=0x00;
  7184  0033D2  0E00               	movlw	0
  7185  0033D4  6EF1               	movwf	241,c	;volatile
  7186                           
  7187                           ;init_PIC.c: 82:     INTCON3=0x00;
  7188  0033D6  0E00               	movlw	0
  7189  0033D8  6EF0               	movwf	240,c	;volatile
  7190  0033DA                     
  7191                           ;init_PIC.c: 83:     INTCONbits.INT0IF=0;
  7192  0033DA  92F2               	bcf	242,1,c	;volatile
  7193  0033DC                     
  7194                           ;init_PIC.c: 84:     INTCONbits.INT0IE=1;
  7195  0033DC  88F2               	bsf	242,4,c	;volatile
  7196  0033DE                     
  7197                           ;init_PIC.c: 85:     INTCON3bits.INT1IF=0;
  7198  0033DE  90F0               	bcf	240,0,c	;volatile
  7199  0033E0                     
  7200                           ;init_PIC.c: 86:     INTCON3bits.INT1IE=1;
  7201  0033E0  86F0               	bsf	240,3,c	;volatile
  7202  0033E2  0012               	return		;funcret
  7203  0033E4  FFFF               	dw	65535	; errata NOP
  7204  0033E6                     __end_of_init_interrupts:
  7205                           	callstack 0
  7206                           
  7207 ;; *************** function _init_USART *****************
  7208 ;; Defined at:
  7209 ;;		line 17 in file "serial_rs232.c"
  7210 ;; Parameters:    Size  Location     Type
  7211 ;;		None
  7212 ;; Auto vars:     Size  Location     Type
  7213 ;;		None
  7214 ;; Return value:  Size  Location     Type
  7215 ;;                  1    wreg      void 
  7216 ;; Registers used:
  7217 ;;		wreg, status,2, status,0, prodl, prodh, cstack
  7218 ;; Tracked objects:
  7219 ;;		On entry : 0/0
  7220 ;;		On exit  : 0/0
  7221 ;;		Unchanged: 0/0
  7222 ;; Data sizes:     COMRAM   BANK0   BANK1   BANK2   BANK3   BANK4   BANK5
  7223 ;;      Params:         0       0       0       0       0       0       0
  7224 ;;      Locals:         0       0       0       0       0       0       0
  7225 ;;      Temps:          0       0       0       0       0       0       0
  7226 ;;      Totals:         0       0       0       0       0       0       0
  7227 ;;Total ram usage:        0 bytes
  7228 ;; Hardware stack levels used: 1
  7229 ;; Hardware stack levels required when called: 5
  7230 ;; This function calls:
  7231 ;;		___fltol
  7232 ;;		_roundf
  7233 ;; This function is called by:
  7234 ;;		_main
  7235 ;; This function uses a non-reentrant model
  7236 ;;
  7237                           
  7238                           	psect	text27
  7239  0032A4                     __ptext27:
  7240                           	callstack 0
  7241  0032A4                     _init_USART:
  7242                           	callstack 0
  7243  0032A4  FFFF               	dw	65535	; assembler added errata NOP
  7244  0032A6                     
  7245                           ;serial_rs232.c: 33:     SPBRG = roundf(((Fosc / desired_BaudRate)/16)-1);
  7246  0032A6  0E55               	movlw	85
  7247  0032A8  6E3D               	movwf	roundf@x^0,c
  7248  0032AA  0E55               	movlw	85
  7249  0032AC  6E3E               	movwf	(roundf@x+1)^0,c
  7250  0032AE  0EC8               	movlw	200
  7251  0032B0  6E3F               	movwf	(roundf@x+2)^0,c
  7252  0032B2  0E41               	movlw	65
  7253  0032B4  6E40               	movwf	(roundf@x+3)^0,c
  7254  0032B6  EC0C  F00C         	call	_roundf	;wreg free
  7255  0032BA  C03D  F057         	movff	?_roundf,___fltol@f1
  7256  0032BE  C03E  F058         	movff	?_roundf+1,___fltol@f1+1
  7257  0032C2  C03F  F059         	movff	?_roundf+2,___fltol@f1+2
  7258  0032C6  C040  F05A         	movff	?_roundf+3,___fltol@f1+3
  7259  0032CA  ECD1  F012         	call	___fltol	;wreg free
  7260  0032CE  5057               	movf	?___fltol^0,w,c
  7261  0032D0  6EAF               	movwf	175,c	;volatile
  7262  0032D2                     
  7263                           ;serial_rs232.c: 35:  TXSTAbits.TX9=0;
  7264  0032D2  9CAC               	bcf	172,6,c	;volatile
  7265  0032D4                     
  7266                           ;serial_rs232.c: 36:     TXSTAbits.TXEN=1;
  7267  0032D4  8AAC               	bsf	172,5,c	;volatile
  7268  0032D6                     
  7269                           ;serial_rs232.c: 37:     TXSTAbits.SYNC=0;
  7270  0032D6  98AC               	bcf	172,4,c	;volatile
  7271  0032D8                     
  7272                           ;serial_rs232.c: 38:     TXSTAbits.BRGH=1;
  7273  0032D8  84AC               	bsf	172,2,c	;volatile
  7274  0032DA                     
  7275                           ;serial_rs232.c: 39:     RCSTAbits.SPEN=1;
  7276  0032DA  8EAB               	bsf	171,7,c	;volatile
  7277  0032DC                     
  7278                           ;serial_rs232.c: 40:     RCSTAbits.RX9=0;
  7279  0032DC  9CAB               	bcf	171,6,c	;volatile
  7280  0032DE                     
  7281                           ;serial_rs232.c: 41:     RCSTAbits.CREN=1;
  7282  0032DE  88AB               	bsf	171,4,c	;volatile
  7283  0032E0  0012               	return		;funcret
  7284  0032E2  FFFF               	dw	65535	; errata NOP
  7285  0032E4                     __end_of_init_USART:
  7286                           	callstack 0
  7287                           
  7288 ;; *************** function _roundf *****************
  7289 ;; Defined at:
  7290 ;;		line 12 in file "/opt/microchip/xc8/v2.32/pic/sources/c99/common/roundf.c"
  7291 ;; Parameters:    Size  Location     Type
  7292 ;;  x               4   60[COMRAM] float 
  7293 ;; Auto vars:     Size  Location     Type
  7294 ;;  y               4   82[COMRAM] float 
  7295 ;;  u               4   78[COMRAM] struct .
  7296 ;;  e               2   72[COMRAM] int 
  7297 ;; Return value:  Size  Location     Type
  7298 ;;                  4   60[COMRAM] float 
  7299 ;; Registers used:
  7300 ;;		wreg, status,2, status,0, prodl, prodh, cstack
  7301 ;; Tracked objects:
  7302 ;;		On entry : 0/0
  7303 ;;		On exit  : 0/0
  7304 ;;		Unchanged: 0/0
  7305 ;; Data sizes:     COMRAM   BANK0   BANK1   BANK2   BANK3   BANK4   BANK5
  7306 ;;      Params:         4       0       0       0       0       0       0
  7307 ;;      Locals:        18       0       0       0       0       0       0
  7308 ;;      Temps:          4       0       0       0       0       0       0
  7309 ;;      Totals:        26       0       0       0       0       0       0
  7310 ;;Total ram usage:       26 bytes
  7311 ;; Hardware stack levels used: 1
  7312 ;; Hardware stack levels required when called: 4
  7313 ;; This function calls:
  7314 ;;		___fladd
  7315 ;;		___flge
  7316 ;;		___flmul
  7317 ;;		___flneg
  7318 ;;		___flsub
  7319 ;; This function is called by:
  7320 ;;		_init_USART
  7321 ;; This function uses a non-reentrant model
  7322 ;;
  7323                           
  7324                           	psect	text28
  7325  001818                     __ptext28:
  7326                           	callstack 0
  7327  001818                     _roundf:
  7328                           	callstack 0
  7329  001818  FFFF               	dw	65535	; assembler added errata NOP
  7330  00181A  C09E  F04F         	movff	roundf@F528,roundf@u
  7331  00181E  C09F  F050         	movff	roundf@F528+1,roundf@u+1
  7332  001822  C0A0  F051         	movff	roundf@F528+2,roundf@u+2
  7333  001826  C0A1  F052         	movff	roundf@F528+3,roundf@u+3
  7334  00182A  C03D  F04F         	movff	roundf@x,roundf@u
  7335  00182E  C03E  F050         	movff	roundf@x+1,roundf@u+1
  7336  001832  C03F  F051         	movff	roundf@x+2,roundf@u+2
  7337  001836  C040  F052         	movff	roundf@x+3,roundf@u+3
  7338  00183A  C04F  F041         	movff	roundf@u,??_roundf
  7339  00183E  C050  F042         	movff	roundf@u+1,??_roundf+1
  7340  001842  C051  F043         	movff	roundf@u+2,??_roundf+2
  7341  001846  C052  F044         	movff	roundf@u+3,??_roundf+3
  7342  00184A  0E18               	movlw	24
  7343  00184C  EF2E  F00C         	goto	u5440
  7344  001850                     u5445:
  7345  001850  FFFF               	dw	65535	; assembler added errata NOP
  7346  001852  90D8               	bcf	status,0,c
  7347  001854  3244               	rrcf	(??_roundf+3)^0,f,c
  7348  001856  3243               	rrcf	(??_roundf+2)^0,f,c
  7349  001858  3242               	rrcf	(??_roundf+1)^0,f,c
  7350  00185A  3241               	rrcf	??_roundf^0,f,c
  7351  00185C                     u5440:
  7352  00185C  FFFF               	dw	65535	; assembler added errata NOP
  7353  00185E  2EE8               	decfsz	wreg,f,c
  7354  001860  EF28  F00C         	goto	u5445
  7355  001864  5041               	movf	??_roundf^0,w,c
  7356  001866  6E49               	movwf	roundf@e^0,c
  7357  001868  6A4A               	clrf	(roundf@e+1)^0,c
  7358  00186A  BE4A               	btfsc	(roundf@e+1)^0,7,c
  7359  00186C  EF41  F00C         	goto	u5451
  7360  001870  504A               	movf	(roundf@e+1)^0,w,c
  7361  001872  E10A               	bnz	u5450
  7362  001874  0E96               	movlw	150
  7363  001876  5C49               	subwf	roundf@e^0,w,c
  7364  001878  A0D8               	btfss	status,0,c
  7365  00187A  EF41  F00C         	goto	u5451
  7366  00187E  EF44  F00C         	goto	u5450
  7367  001882                     u5451:
  7368  001882  FFFF               	dw	65535	; assembler added errata NOP
  7369  001884  EF4F  F00C         	goto	l4743
  7370  001888                     u5450:
  7371  001888  FFFF               	dw	65535	; assembler added errata NOP
  7372  00188A  C03D  F03D         	movff	roundf@x,?_roundf
  7373  00188E  C03E  F03E         	movff	roundf@x+1,?_roundf+1
  7374  001892  C03F  F03F         	movff	roundf@x+2,?_roundf+2
  7375  001896  C040  F040         	movff	roundf@x+3,?_roundf+3
  7376  00189A  EFFC  F00D         	goto	l1244
  7377  00189E                     l4743:
  7378  00189E  FFFF               	dw	65535	; assembler added errata NOP
  7379  0018A0  C04F  F041         	movff	roundf@u,??_roundf
  7380  0018A4  C050  F042         	movff	roundf@u+1,??_roundf+1
  7381  0018A8  C051  F043         	movff	roundf@u+2,??_roundf+2
  7382  0018AC  C052  F044         	movff	roundf@u+3,??_roundf+3
  7383  0018B0  0E20               	movlw	32
  7384  0018B2  EF61  F00C         	goto	u5460
  7385  0018B6                     u5465:
  7386  0018B6  FFFF               	dw	65535	; assembler added errata NOP
  7387  0018B8  90D8               	bcf	status,0,c
  7388  0018BA  3244               	rrcf	(??_roundf+3)^0,f,c
  7389  0018BC  3243               	rrcf	(??_roundf+2)^0,f,c
  7390  0018BE  3242               	rrcf	(??_roundf+1)^0,f,c
  7391  0018C0  3241               	rrcf	??_roundf^0,f,c
  7392  0018C2                     u5460:
  7393  0018C2  FFFF               	dw	65535	; assembler added errata NOP
  7394  0018C4  2EE8               	decfsz	wreg,f,c
  7395  0018C6  EF5B  F00C         	goto	u5465
  7396  0018CA  5041               	movf	??_roundf^0,w,c
  7397  0018CC  1042               	iorwf	(??_roundf+1)^0,w,c
  7398  0018CE  1043               	iorwf	(??_roundf+2)^0,w,c
  7399  0018D0  1044               	iorwf	(??_roundf+3)^0,w,c
  7400  0018D2  B4D8               	btfsc	status,2,c
  7401  0018D4  EF6E  F00C         	goto	u5471
  7402  0018D8  EF71  F00C         	goto	u5470
  7403  0018DC                     u5471:
  7404  0018DC  FFFF               	dw	65535	; assembler added errata NOP
  7405  0018DE  EF84  F00C         	goto	l4747
  7406  0018E2                     u5470:
  7407  0018E2  FFFF               	dw	65535	; assembler added errata NOP
  7408  0018E4  C03D  F00A         	movff	roundf@x,___flneg@f1
  7409  0018E8  C03E  F00B         	movff	roundf@x+1,___flneg@f1+1
  7410  0018EC  C03F  F00C         	movff	roundf@x+2,___flneg@f1+2
  7411  0018F0  C040  F00D         	movff	roundf@x+3,___flneg@f1+3
  7412  0018F4  EC31  F019         	call	___flneg	;wreg free
  7413  0018F8  C00A  F03D         	movff	?___flneg,roundf@x
  7414  0018FC  C00B  F03E         	movff	?___flneg+1,roundf@x+1
  7415  001900  C00C  F03F         	movff	?___flneg+2,roundf@x+2
  7416  001904  C00D  F040         	movff	?___flneg+3,roundf@x+3
  7417  001908                     l4747:
  7418  001908  FFFF               	dw	65535	; assembler added errata NOP
  7419  00190A  BE4A               	btfsc	(roundf@e+1)^0,7,c
  7420  00190C  EF94  F00C         	goto	u5480
  7421  001910  504A               	movf	(roundf@e+1)^0,w,c
  7422  001912  E107               	bnz	u5481
  7423  001914  0E7E               	movlw	126
  7424  001916  5C49               	subwf	roundf@e^0,w,c
  7425  001918  B0D8               	btfsc	status,0,c
  7426  00191A  EF91  F00C         	goto	u5481
  7427  00191E  EF94  F00C         	goto	u5480
  7428  001922                     u5481:
  7429  001922  FFFF               	dw	65535	; assembler added errata NOP
  7430  001924  EFB1  F00C         	goto	l4753
  7431  001928                     u5480:
  7432  001928  FFFF               	dw	65535	; assembler added errata NOP
  7433  00192A  C04F  F00A         	movff	roundf@u,___flmul@b
  7434  00192E  C050  F00B         	movff	roundf@u+1,___flmul@b+1
  7435  001932  C051  F00C         	movff	roundf@u+2,___flmul@b+2
  7436  001936  C052  F00D         	movff	roundf@u+3,___flmul@b+3
  7437  00193A  0E00               	movlw	0
  7438  00193C  6E0E               	movwf	___flmul@a^0,c
  7439  00193E  0E00               	movlw	0
  7440  001940  6E0F               	movwf	(___flmul@a+1)^0,c
  7441  001942  0E00               	movlw	0
  7442  001944  6E10               	movwf	(___flmul@a+2)^0,c
  7443  001946  0E00               	movlw	0
  7444  001948  6E11               	movwf	(___flmul@a+3)^0,c
  7445  00194A  ECA1  F007         	call	___flmul	;wreg free
  7446  00194E  C00A  F03D         	movff	?___flmul,?_roundf
  7447  001952  C00B  F03E         	movff	?___flmul+1,?_roundf+1
  7448  001956  C00C  F03F         	movff	?___flmul+2,?_roundf+2
  7449  00195A  C00D  F040         	movff	?___flmul+3,?_roundf+3
  7450  00195E  EFFC  F00D         	goto	l1244
  7451  001962                     l4753:
  7452  001962  FFFF               	dw	65535	; assembler added errata NOP
  7453  001964  0E00               	movlw	0
  7454  001966  6E0E               	movwf	___fladd@a^0,c
  7455  001968  0E00               	movlw	0
  7456  00196A  6E0F               	movwf	(___fladd@a+1)^0,c
  7457  00196C  0E00               	movlw	0
  7458  00196E  6E10               	movwf	(___fladd@a+2)^0,c
  7459  001970  0E4B               	movlw	75
  7460  001972  6E11               	movwf	(___fladd@a+3)^0,c
  7461  001974  C03D  F00A         	movff	roundf@x,___fladd@b
  7462  001978  C03E  F00B         	movff	roundf@x+1,___fladd@b+1
  7463  00197C  C03F  F00C         	movff	roundf@x+2,___fladd@b+2
  7464  001980  C040  F00D         	movff	roundf@x+3,___fladd@b+3
  7465  001984  ECCD  F004         	call	___fladd	;wreg free
  7466  001988  C00A  F04B         	movff	?___fladd,_roundf$1665
  7467  00198C  C00B  F04C         	movff	?___fladd+1,_roundf$1665+1
  7468  001990  C00C  F04D         	movff	?___fladd+2,_roundf$1665+2
  7469  001994  C00D  F04E         	movff	?___fladd+3,_roundf$1665+3
  7470  001998  0E00               	movlw	0
  7471  00199A  6E0E               	movwf	___fladd@a^0,c
  7472  00199C  0E00               	movlw	0
  7473  00199E  6E0F               	movwf	(___fladd@a+1)^0,c
  7474  0019A0  0E00               	movlw	0
  7475  0019A2  6E10               	movwf	(___fladd@a+2)^0,c
  7476  0019A4  0ECB               	movlw	203
  7477  0019A6  6E11               	movwf	(___fladd@a+3)^0,c
  7478  0019A8  C04B  F00A         	movff	_roundf$1665,___fladd@b
  7479  0019AC  C04C  F00B         	movff	_roundf$1665+1,___fladd@b+1
  7480  0019B0  C04D  F00C         	movff	_roundf$1665+2,___fladd@b+2
  7481  0019B4  C04E  F00D         	movff	_roundf$1665+3,___fladd@b+3
  7482  0019B8  ECCD  F004         	call	___fladd	;wreg free
  7483  0019BC  C00A  F045         	movff	?___fladd,_roundf$1666
  7484  0019C0  C00B  F046         	movff	?___fladd+1,_roundf$1666+1
  7485  0019C4  C00C  F047         	movff	?___fladd+2,_roundf$1666+2
  7486  0019C8  C00D  F048         	movff	?___fladd+3,_roundf$1666+3
  7487  0019CC  C045  F01A         	movff	_roundf$1666,___flsub@b
  7488  0019D0  C046  F01B         	movff	_roundf$1666+1,___flsub@b+1
  7489  0019D4  C047  F01C         	movff	_roundf$1666+2,___flsub@b+2
  7490  0019D8  C048  F01D         	movff	_roundf$1666+3,___flsub@b+3
  7491  0019DC  C03D  F01E         	movff	roundf@x,___flsub@a
  7492  0019E0  C03E  F01F         	movff	roundf@x+1,___flsub@a+1
  7493  0019E4  C03F  F020         	movff	roundf@x+2,___flsub@a+2
  7494  0019E8  C040  F021         	movff	roundf@x+3,___flsub@a+3
  7495  0019EC  ECA7  F018         	call	___flsub	;wreg free
  7496  0019F0  C01A  F053         	movff	?___flsub,roundf@y
  7497  0019F4  C01B  F054         	movff	?___flsub+1,roundf@y+1
  7498  0019F8  C01C  F055         	movff	?___flsub+2,roundf@y+2
  7499  0019FC  C01D  F056         	movff	?___flsub+3,roundf@y+3
  7500  001A00  0E00               	movlw	0
  7501  001A02  6E31               	movwf	___flge@ff1^0,c
  7502  001A04  0E00               	movlw	0
  7503  001A06  6E32               	movwf	(___flge@ff1+1)^0,c
  7504  001A08  0E00               	movlw	0
  7505  001A0A  6E33               	movwf	(___flge@ff1+2)^0,c
  7506  001A0C  0E3F               	movlw	63
  7507  001A0E  6E34               	movwf	(___flge@ff1+3)^0,c
  7508  001A10  C053  F035         	movff	roundf@y,___flge@ff2
  7509  001A14  C054  F036         	movff	roundf@y+1,___flge@ff2+1
  7510  001A18  C055  F037         	movff	roundf@y+2,___flge@ff2+2
  7511  001A1C  C056  F038         	movff	roundf@y+3,___flge@ff2+3
  7512  001A20  EC6D  F013         	call	___flge	;wreg free
  7513  001A24  B0D8               	btfsc	status,0,c
  7514  001A26  EF17  F00D         	goto	u5491
  7515  001A2A  EF1A  F00D         	goto	u5490
  7516  001A2E                     u5491:
  7517  001A2E  FFFF               	dw	65535	; assembler added errata NOP
  7518  001A30  EF51  F00D         	goto	l4757
  7519  001A34                     u5490:
  7520  001A34  FFFF               	dw	65535	; assembler added errata NOP
  7521  001A36  C03D  F00E         	movff	roundf@x,___fladd@a
  7522  001A3A  C03E  F00F         	movff	roundf@x+1,___fladd@a+1
  7523  001A3E  C03F  F010         	movff	roundf@x+2,___fladd@a+2
  7524  001A42  C040  F011         	movff	roundf@x+3,___fladd@a+3
  7525  001A46  C053  F00A         	movff	roundf@y,___fladd@b
  7526  001A4A  C054  F00B         	movff	roundf@y+1,___fladd@b+1
  7527  001A4E  C055  F00C         	movff	roundf@y+2,___fladd@b+2
  7528  001A52  C056  F00D         	movff	roundf@y+3,___fladd@b+3
  7529  001A56  ECCD  F004         	call	___fladd	;wreg free
  7530  001A5A  C00A  F04B         	movff	?___fladd,_roundf$1665
  7531  001A5E  C00B  F04C         	movff	?___fladd+1,_roundf$1665+1
  7532  001A62  C00C  F04D         	movff	?___fladd+2,_roundf$1665+2
  7533  001A66  C00D  F04E         	movff	?___fladd+3,_roundf$1665+3
  7534  001A6A  C04B  F00A         	movff	_roundf$1665,___fladd@b
  7535  001A6E  C04C  F00B         	movff	_roundf$1665+1,___fladd@b+1
  7536  001A72  C04D  F00C         	movff	_roundf$1665+2,___fladd@b+2
  7537  001A76  C04E  F00D         	movff	_roundf$1665+3,___fladd@b+3
  7538  001A7A  0E00               	movlw	0
  7539  001A7C  6E0E               	movwf	___fladd@a^0,c
  7540  001A7E  0E00               	movlw	0
  7541  001A80  6E0F               	movwf	(___fladd@a+1)^0,c
  7542  001A82  0E80               	movlw	128
  7543  001A84  6E10               	movwf	(___fladd@a+2)^0,c
  7544  001A86  0EBF               	movlw	191
  7545  001A88  6E11               	movwf	(___fladd@a+3)^0,c
  7546  001A8A  ECCD  F004         	call	___fladd	;wreg free
  7547  001A8E  C00A  F053         	movff	?___fladd,roundf@y
  7548  001A92  C00B  F054         	movff	?___fladd+1,roundf@y+1
  7549  001A96  C00C  F055         	movff	?___fladd+2,roundf@y+2
  7550  001A9A  C00D  F056         	movff	?___fladd+3,roundf@y+3
  7551  001A9E  EFBE  F00D         	goto	l4763
  7552  001AA2                     l4757:
  7553  001AA2  FFFF               	dw	65535	; assembler added errata NOP
  7554  001AA4  0E00               	movlw	0
  7555  001AA6  6E31               	movwf	___flge@ff1^0,c
  7556  001AA8  0E00               	movlw	0
  7557  001AAA  6E32               	movwf	(___flge@ff1+1)^0,c
  7558  001AAC  0E00               	movlw	0
  7559  001AAE  6E33               	movwf	(___flge@ff1+2)^0,c
  7560  001AB0  0EBF               	movlw	191
  7561  001AB2  6E34               	movwf	(___flge@ff1+3)^0,c
  7562  001AB4  C053  F035         	movff	roundf@y,___flge@ff2
  7563  001AB8  C054  F036         	movff	roundf@y+1,___flge@ff2+1
  7564  001ABC  C055  F037         	movff	roundf@y+2,___flge@ff2+2
  7565  001AC0  C056  F038         	movff	roundf@y+3,___flge@ff2+3
  7566  001AC4  EC6D  F013         	call	___flge	;wreg free
  7567  001AC8  A0D8               	btfss	status,0,c
  7568  001ACA  EF69  F00D         	goto	u5501
  7569  001ACE  EF6C  F00D         	goto	u5500
  7570  001AD2                     u5501:
  7571  001AD2  FFFF               	dw	65535	; assembler added errata NOP
  7572  001AD4  EFA3  F00D         	goto	l4761
  7573  001AD8                     u5500:
  7574  001AD8  FFFF               	dw	65535	; assembler added errata NOP
  7575  001ADA  C03D  F00E         	movff	roundf@x,___fladd@a
  7576  001ADE  C03E  F00F         	movff	roundf@x+1,___fladd@a+1
  7577  001AE2  C03F  F010         	movff	roundf@x+2,___fladd@a+2
  7578  001AE6  C040  F011         	movff	roundf@x+3,___fladd@a+3
  7579  001AEA  C053  F00A         	movff	roundf@y,___fladd@b
  7580  001AEE  C054  F00B         	movff	roundf@y+1,___fladd@b+1
  7581  001AF2  C055  F00C         	movff	roundf@y+2,___fladd@b+2
  7582  001AF6  C056  F00D         	movff	roundf@y+3,___fladd@b+3
  7583  001AFA  ECCD  F004         	call	___fladd	;wreg free
  7584  001AFE  C00A  F04B         	movff	?___fladd,_roundf$1665
  7585  001B02  C00B  F04C         	movff	?___fladd+1,_roundf$1665+1
  7586  001B06  C00C  F04D         	movff	?___fladd+2,_roundf$1665+2
  7587  001B0A  C00D  F04E         	movff	?___fladd+3,_roundf$1665+3
  7588  001B0E  C04B  F00A         	movff	_roundf$1665,___fladd@b
  7589  001B12  C04C  F00B         	movff	_roundf$1665+1,___fladd@b+1
  7590  001B16  C04D  F00C         	movff	_roundf$1665+2,___fladd@b+2
  7591  001B1A  C04E  F00D         	movff	_roundf$1665+3,___fladd@b+3
  7592  001B1E  0E00               	movlw	0
  7593  001B20  6E0E               	movwf	___fladd@a^0,c
  7594  001B22  0E00               	movlw	0
  7595  001B24  6E0F               	movwf	(___fladd@a+1)^0,c
  7596  001B26  0E80               	movlw	128
  7597  001B28  6E10               	movwf	(___fladd@a+2)^0,c
  7598  001B2A  0E3F               	movlw	63
  7599  001B2C  6E11               	movwf	(___fladd@a+3)^0,c
  7600  001B2E  ECCD  F004         	call	___fladd	;wreg free
  7601  001B32  C00A  F053         	movff	?___fladd,roundf@y
  7602  001B36  C00B  F054         	movff	?___fladd+1,roundf@y+1
  7603  001B3A  C00C  F055         	movff	?___fladd+2,roundf@y+2
  7604  001B3E  C00D  F056         	movff	?___fladd+3,roundf@y+3
  7605  001B42  EFBE  F00D         	goto	l4763
  7606  001B46                     l4761:
  7607  001B46  FFFF               	dw	65535	; assembler added errata NOP
  7608  001B48  C053  F00A         	movff	roundf@y,___fladd@b
  7609  001B4C  C054  F00B         	movff	roundf@y+1,___fladd@b+1
  7610  001B50  C055  F00C         	movff	roundf@y+2,___fladd@b+2
  7611  001B54  C056  F00D         	movff	roundf@y+3,___fladd@b+3
  7612  001B58  C03D  F00E         	movff	roundf@x,___fladd@a
  7613  001B5C  C03E  F00F         	movff	roundf@x+1,___fladd@a+1
  7614  001B60  C03F  F010         	movff	roundf@x+2,___fladd@a+2
  7615  001B64  C040  F011         	movff	roundf@x+3,___fladd@a+3
  7616  001B68  ECCD  F004         	call	___fladd	;wreg free
  7617  001B6C  C00A  F053         	movff	?___fladd,roundf@y
  7618  001B70  C00B  F054         	movff	?___fladd+1,roundf@y+1
  7619  001B74  C00C  F055         	movff	?___fladd+2,roundf@y+2
  7620  001B78  C00D  F056         	movff	?___fladd+3,roundf@y+3
  7621  001B7C                     l4763:
  7622  001B7C  FFFF               	dw	65535	; assembler added errata NOP
  7623  001B7E  C04F  F041         	movff	roundf@u,??_roundf
  7624  001B82  C050  F042         	movff	roundf@u+1,??_roundf+1
  7625  001B86  C051  F043         	movff	roundf@u+2,??_roundf+2
  7626  001B8A  C052  F044         	movff	roundf@u+3,??_roundf+3
  7627  001B8E  0E20               	movlw	32
  7628  001B90  EFD0  F00D         	goto	u5510
  7629  001B94                     u5515:
  7630  001B94  FFFF               	dw	65535	; assembler added errata NOP
  7631  001B96  90D8               	bcf	status,0,c
  7632  001B98  3244               	rrcf	(??_roundf+3)^0,f,c
  7633  001B9A  3243               	rrcf	(??_roundf+2)^0,f,c
  7634  001B9C  3242               	rrcf	(??_roundf+1)^0,f,c
  7635  001B9E  3241               	rrcf	??_roundf^0,f,c
  7636  001BA0                     u5510:
  7637  001BA0  FFFF               	dw	65535	; assembler added errata NOP
  7638  001BA2  2EE8               	decfsz	wreg,f,c
  7639  001BA4  EFCA  F00D         	goto	u5515
  7640  001BA8  5041               	movf	??_roundf^0,w,c
  7641  001BAA  1042               	iorwf	(??_roundf+1)^0,w,c
  7642  001BAC  1043               	iorwf	(??_roundf+2)^0,w,c
  7643  001BAE  1044               	iorwf	(??_roundf+3)^0,w,c
  7644  001BB0  B4D8               	btfsc	status,2,c
  7645  001BB2  EFDD  F00D         	goto	u5521
  7646  001BB6  EFE0  F00D         	goto	u5520
  7647  001BBA                     u5521:
  7648  001BBA  FFFF               	dw	65535	; assembler added errata NOP
  7649  001BBC  EFF3  F00D         	goto	l4767
  7650  001BC0                     u5520:
  7651  001BC0  FFFF               	dw	65535	; assembler added errata NOP
  7652  001BC2  C053  F00A         	movff	roundf@y,___flneg@f1
  7653  001BC6  C054  F00B         	movff	roundf@y+1,___flneg@f1+1
  7654  001BCA  C055  F00C         	movff	roundf@y+2,___flneg@f1+2
  7655  001BCE  C056  F00D         	movff	roundf@y+3,___flneg@f1+3
  7656  001BD2  EC31  F019         	call	___flneg	;wreg free
  7657  001BD6  C00A  F053         	movff	?___flneg,roundf@y
  7658  001BDA  C00B  F054         	movff	?___flneg+1,roundf@y+1
  7659  001BDE  C00C  F055         	movff	?___flneg+2,roundf@y+2
  7660  001BE2  C00D  F056         	movff	?___flneg+3,roundf@y+3
  7661  001BE6                     l4767:
  7662  001BE6  FFFF               	dw	65535	; assembler added errata NOP
  7663  001BE8  C053  F03D         	movff	roundf@y,?_roundf
  7664  001BEC  C054  F03E         	movff	roundf@y+1,?_roundf+1
  7665  001BF0  C055  F03F         	movff	roundf@y+2,?_roundf+2
  7666  001BF4  C056  F040         	movff	roundf@y+3,?_roundf+3
  7667  001BF8                     l1244:
  7668  001BF8  FFFF               	dw	65535	; assembler added errata NOP
  7669  001BFA  0012               	return		;funcret
  7670  001BFC  FFFF               	dw	65535	; errata NOP
  7671  001BFE                     __end_of_roundf:
  7672                           	callstack 0
  7673                           
  7674 ;; *************** function ___flsub *****************
  7675 ;; Defined at:
  7676 ;;		line 245 in file "/opt/microchip/xc8/v2.32/pic/sources/c99/common/sprcadd.c"
  7677 ;; Parameters:    Size  Location     Type
  7678 ;;  b               4   25[COMRAM] float 
  7679 ;;  a               4   29[COMRAM] float 
  7680 ;; Auto vars:     Size  Location     Type
  7681 ;;		None
  7682 ;; Return value:  Size  Location     Type
  7683 ;;                  4   25[COMRAM] float 
  7684 ;; Registers used:
  7685 ;;		wreg, status,2, status,0, cstack
  7686 ;; Tracked objects:
  7687 ;;		On entry : 0/0
  7688 ;;		On exit  : 0/0
  7689 ;;		Unchanged: 0/0
  7690 ;; Data sizes:     COMRAM   BANK0   BANK1   BANK2   BANK3   BANK4   BANK5
  7691 ;;      Params:         8       0       0       0       0       0       0
  7692 ;;      Locals:         0       0       0       0       0       0       0
  7693 ;;      Temps:          0       0       0       0       0       0       0
  7694 ;;      Totals:         8       0       0       0       0       0       0
  7695 ;;Total ram usage:        8 bytes
  7696 ;; Hardware stack levels used: 1
  7697 ;; Hardware stack levels required when called: 3
  7698 ;; This function calls:
  7699 ;;		___fladd
  7700 ;; This function is called by:
  7701 ;;		_roundf
  7702 ;; This function uses a non-reentrant model
  7703 ;;
  7704                           
  7705                           	psect	text29
  7706  00314E                     __ptext29:
  7707                           	callstack 0
  7708  00314E                     ___flsub:
  7709                           	callstack 0
  7710  00314E  FFFF               	dw	65535	; assembler added errata NOP
  7711  003150  0E00               	movlw	0
  7712  003152  1A1E               	xorwf	___flsub@a^0,f,c
  7713  003154  0E00               	movlw	0
  7714  003156  1A1F               	xorwf	(___flsub@a+1)^0,f,c
  7715  003158  0E00               	movlw	0
  7716  00315A  1A20               	xorwf	(___flsub@a+2)^0,f,c
  7717  00315C  0E80               	movlw	128
  7718  00315E  1A21               	xorwf	(___flsub@a+3)^0,f,c
  7719  003160  C01A  F00A         	movff	___flsub@b,___fladd@b
  7720  003164  C01B  F00B         	movff	___flsub@b+1,___fladd@b+1
  7721  003168  C01C  F00C         	movff	___flsub@b+2,___fladd@b+2
  7722  00316C  C01D  F00D         	movff	___flsub@b+3,___fladd@b+3
  7723  003170  C01E  F00E         	movff	___flsub@a,___fladd@a
  7724  003174  C01F  F00F         	movff	___flsub@a+1,___fladd@a+1
  7725  003178  C020  F010         	movff	___flsub@a+2,___fladd@a+2
  7726  00317C  C021  F011         	movff	___flsub@a+3,___fladd@a+3
  7727  003180  ECCD  F004         	call	___fladd	;wreg free
  7728  003184  C00A  F01A         	movff	?___fladd,?___flsub
  7729  003188  C00B  F01B         	movff	?___fladd+1,?___flsub+1
  7730  00318C  C00C  F01C         	movff	?___fladd+2,?___flsub+2
  7731  003190  C00D  F01D         	movff	?___fladd+3,?___flsub+3
  7732  003194  0012               	return		;funcret
  7733  003196  FFFF               	dw	65535	; errata NOP
  7734  003198                     __end_of___flsub:
  7735                           	callstack 0
  7736                           
  7737 ;; *************** function ___fladd *****************
  7738 ;; Defined at:
  7739 ;;		line 10 in file "/opt/microchip/xc8/v2.32/pic/sources/c99/common/sprcadd.c"
  7740 ;; Parameters:    Size  Location     Type
  7741 ;;  b               4    9[COMRAM] float 
  7742 ;;  a               4   13[COMRAM] float 
  7743 ;; Auto vars:     Size  Location     Type
  7744 ;;  grs             1   24[COMRAM] unsigned char 
  7745 ;;  bexp            1   23[COMRAM] unsigned char 
  7746 ;;  aexp            1   22[COMRAM] unsigned char 
  7747 ;;  signs           1   21[COMRAM] unsigned char 
  7748 ;; Return value:  Size  Location     Type
  7749 ;;                  4    9[COMRAM] unsigned char 
  7750 ;; Registers used:
  7751 ;;		wreg, status,2, status,0
  7752 ;; Tracked objects:
  7753 ;;		On entry : 0/0
  7754 ;;		On exit  : 0/0
  7755 ;;		Unchanged: 0/0
  7756 ;; Data sizes:     COMRAM   BANK0   BANK1   BANK2   BANK3   BANK4   BANK5
  7757 ;;      Params:         8       0       0       0       0       0       0
  7758 ;;      Locals:         4       0       0       0       0       0       0
  7759 ;;      Temps:          4       0       0       0       0       0       0
  7760 ;;      Totals:        16       0       0       0       0       0       0
  7761 ;;Total ram usage:       16 bytes
  7762 ;; Hardware stack levels used: 1
  7763 ;; Hardware stack levels required when called: 2
  7764 ;; This function calls:
  7765 ;;		Nothing
  7766 ;; This function is called by:
  7767 ;;		___flsub
  7768 ;;		_roundf
  7769 ;; This function uses a non-reentrant model
  7770 ;;
  7771                           
  7772                           	psect	text30
  7773  00099A                     __ptext30:
  7774                           	callstack 0
  7775  00099A                     ___fladd:
  7776                           	callstack 0
  7777  00099A  FFFF               	dw	65535	; assembler added errata NOP
  7778  00099C  500D               	movf	(___fladd@b+3)^0,w,c
  7779  00099E  0B80               	andlw	128
  7780  0009A0  6E16               	movwf	___fladd@signs^0,c
  7781  0009A2  500D               	movf	(___fladd@b+3)^0,w,c
  7782  0009A4  240D               	addwf	(___fladd@b+3)^0,w,c
  7783  0009A6  6E18               	movwf	___fladd@bexp^0,c
  7784  0009A8  AE0C               	btfss	(___fladd@b+2)^0,7,c
  7785  0009AA  EFD9  F004         	goto	u2441
  7786  0009AE  EFDC  F004         	goto	u2440
  7787  0009B2                     u2441:
  7788  0009B2  FFFF               	dw	65535	; assembler added errata NOP
  7789  0009B4  EFDE  F004         	goto	l2839
  7790  0009B8                     u2440:
  7791  0009B8  FFFF               	dw	65535	; assembler added errata NOP
  7792  0009BA  8018               	bsf	___fladd@bexp^0,0,c
  7793  0009BC                     l2839:
  7794  0009BC  FFFF               	dw	65535	; assembler added errata NOP
  7795  0009BE  5018               	movf	___fladd@bexp^0,w,c
  7796  0009C0  B4D8               	btfsc	status,2,c
  7797  0009C2  EFE5  F004         	goto	u2451
  7798  0009C6  EFE8  F004         	goto	u2450
  7799  0009CA                     u2451:
  7800  0009CA  FFFF               	dw	65535	; assembler added errata NOP
  7801  0009CC  EF01  F005         	goto	l2849
  7802  0009D0                     u2450:
  7803  0009D0  FFFF               	dw	65535	; assembler added errata NOP
  7804  0009D2  2818               	incf	___fladd@bexp^0,w,c
  7805  0009D4  A4D8               	btfss	status,2,c
  7806  0009D6  EFEF  F004         	goto	u2461
  7807  0009DA  EFF2  F004         	goto	u2460
  7808  0009DE                     u2461:
  7809  0009DE  FFFF               	dw	65535	; assembler added errata NOP
  7810  0009E0  EFFB  F004         	goto	l2845
  7811  0009E4                     u2460:
  7812  0009E4  FFFF               	dw	65535	; assembler added errata NOP
  7813  0009E6  0E00               	movlw	0
  7814  0009E8  6E0A               	movwf	___fladd@b^0,c
  7815  0009EA  0E00               	movlw	0
  7816  0009EC  6E0B               	movwf	(___fladd@b+1)^0,c
  7817  0009EE  0E00               	movlw	0
  7818  0009F0  6E0C               	movwf	(___fladd@b+2)^0,c
  7819  0009F2  0E00               	movlw	0
  7820  0009F4  6E0D               	movwf	(___fladd@b+3)^0,c
  7821  0009F6                     l2845:
  7822  0009F6  FFFF               	dw	65535	; assembler added errata NOP
  7823  0009F8  8E0C               	bsf	(___fladd@b+2)^0,7,c
  7824  0009FA  0E00               	movlw	0
  7825  0009FC  6E0D               	movwf	(___fladd@b+3)^0,c
  7826  0009FE  EF0A  F005         	goto	l2851
  7827  000A02                     l2849:
  7828  000A02  FFFF               	dw	65535	; assembler added errata NOP
  7829  000A04  0E00               	movlw	0
  7830  000A06  6E0A               	movwf	___fladd@b^0,c
  7831  000A08  0E00               	movlw	0
  7832  000A0A  6E0B               	movwf	(___fladd@b+1)^0,c
  7833  000A0C  0E00               	movlw	0
  7834  000A0E  6E0C               	movwf	(___fladd@b+2)^0,c
  7835  000A10  0E00               	movlw	0
  7836  000A12  6E0D               	movwf	(___fladd@b+3)^0,c
  7837  000A14                     l2851:
  7838  000A14  FFFF               	dw	65535	; assembler added errata NOP
  7839  000A16  5011               	movf	(___fladd@a+3)^0,w,c
  7840  000A18  0B80               	andlw	128
  7841  000A1A  6E17               	movwf	___fladd@aexp^0,c
  7842  000A1C  5016               	movf	___fladd@signs^0,w,c
  7843  000A1E  1817               	xorwf	___fladd@aexp^0,w,c
  7844  000A20  B4D8               	btfsc	status,2,c
  7845  000A22  EF15  F005         	goto	u2471
  7846  000A26  EF18  F005         	goto	u2470
  7847  000A2A                     u2471:
  7848  000A2A  FFFF               	dw	65535	; assembler added errata NOP
  7849  000A2C  EF1A  F005         	goto	l2857
  7850  000A30                     u2470:
  7851  000A30  FFFF               	dw	65535	; assembler added errata NOP
  7852  000A32  8C16               	bsf	___fladd@signs^0,6,c
  7853  000A34                     l2857:
  7854  000A34  FFFF               	dw	65535	; assembler added errata NOP
  7855  000A36  5011               	movf	(___fladd@a+3)^0,w,c
  7856  000A38  2411               	addwf	(___fladd@a+3)^0,w,c
  7857  000A3A  6E17               	movwf	___fladd@aexp^0,c
  7858  000A3C  AE10               	btfss	(___fladd@a+2)^0,7,c
  7859  000A3E  EF23  F005         	goto	u2481
  7860  000A42  EF26  F005         	goto	u2480
  7861  000A46                     u2481:
  7862  000A46  FFFF               	dw	65535	; assembler added errata NOP
  7863  000A48  EF28  F005         	goto	l2863
  7864  000A4C                     u2480:
  7865  000A4C  FFFF               	dw	65535	; assembler added errata NOP
  7866  000A4E  8017               	bsf	___fladd@aexp^0,0,c
  7867  000A50                     l2863:
  7868  000A50  FFFF               	dw	65535	; assembler added errata NOP
  7869  000A52  5017               	movf	___fladd@aexp^0,w,c
  7870  000A54  B4D8               	btfsc	status,2,c
  7871  000A56  EF2F  F005         	goto	u2491
  7872  000A5A  EF32  F005         	goto	u2490
  7873  000A5E                     u2491:
  7874  000A5E  FFFF               	dw	65535	; assembler added errata NOP
  7875  000A60  EF4B  F005         	goto	l2873
  7876  000A64                     u2490:
  7877  000A64  FFFF               	dw	65535	; assembler added errata NOP
  7878  000A66  2817               	incf	___fladd@aexp^0,w,c
  7879  000A68  A4D8               	btfss	status,2,c
  7880  000A6A  EF39  F005         	goto	u2501
  7881  000A6E  EF3C  F005         	goto	u2500
  7882  000A72                     u2501:
  7883  000A72  FFFF               	dw	65535	; assembler added errata NOP
  7884  000A74  EF45  F005         	goto	l2869
  7885  000A78                     u2500:
  7886  000A78  FFFF               	dw	65535	; assembler added errata NOP
  7887  000A7A  0E00               	movlw	0
  7888  000A7C  6E0E               	movwf	___fladd@a^0,c
  7889  000A7E  0E00               	movlw	0
  7890  000A80  6E0F               	movwf	(___fladd@a+1)^0,c
  7891  000A82  0E00               	movlw	0
  7892  000A84  6E10               	movwf	(___fladd@a+2)^0,c
  7893  000A86  0E00               	movlw	0
  7894  000A88  6E11               	movwf	(___fladd@a+3)^0,c
  7895  000A8A                     l2869:
  7896  000A8A  FFFF               	dw	65535	; assembler added errata NOP
  7897  000A8C  8E10               	bsf	(___fladd@a+2)^0,7,c
  7898  000A8E  0E00               	movlw	0
  7899  000A90  6E11               	movwf	(___fladd@a+3)^0,c
  7900  000A92  EF54  F005         	goto	l2875
  7901  000A96                     l2873:
  7902  000A96  FFFF               	dw	65535	; assembler added errata NOP
  7903  000A98  0E00               	movlw	0
  7904  000A9A  6E0E               	movwf	___fladd@a^0,c
  7905  000A9C  0E00               	movlw	0
  7906  000A9E  6E0F               	movwf	(___fladd@a+1)^0,c
  7907  000AA0  0E00               	movlw	0
  7908  000AA2  6E10               	movwf	(___fladd@a+2)^0,c
  7909  000AA4  0E00               	movlw	0
  7910  000AA6  6E11               	movwf	(___fladd@a+3)^0,c
  7911  000AA8                     l2875:
  7912  000AA8  FFFF               	dw	65535	; assembler added errata NOP
  7913  000AAA  5018               	movf	___fladd@bexp^0,w,c
  7914  000AAC  5C17               	subwf	___fladd@aexp^0,w,c
  7915  000AAE  B0D8               	btfsc	status,0,c
  7916  000AB0  EF5C  F005         	goto	u2511
  7917  000AB4  EF5F  F005         	goto	u2510
  7918  000AB8                     u2511:
  7919  000AB8  FFFF               	dw	65535	; assembler added errata NOP
  7920  000ABA  EF8A  F005         	goto	l2911
  7921  000ABE                     u2510:
  7922  000ABE  FFFF               	dw	65535	; assembler added errata NOP
  7923  000AC0  AC16               	btfss	___fladd@signs^0,6,c
  7924  000AC2  EF65  F005         	goto	u2521
  7925  000AC6  EF68  F005         	goto	u2520
  7926  000ACA                     u2521:
  7927  000ACA  FFFF               	dw	65535	; assembler added errata NOP
  7928  000ACC  EF6B  F005         	goto	l2881
  7929  000AD0                     u2520:
  7930  000AD0  FFFF               	dw	65535	; assembler added errata NOP
  7931  000AD2  0E80               	movlw	128
  7932  000AD4  1A16               	xorwf	___fladd@signs^0,f,c
  7933  000AD6                     l2881:
  7934  000AD6  FFFF               	dw	65535	; assembler added errata NOP
  7935  000AD8  C018  F019         	movff	___fladd@bexp,___fladd@grs
  7936  000ADC  C017  F018         	movff	___fladd@aexp,___fladd@bexp
  7937  000AE0  C019  F017         	movff	___fladd@grs,___fladd@aexp
  7938  000AE4  C00A  F019         	movff	___fladd@b,___fladd@grs
  7939  000AE8  C00E  F00A         	movff	___fladd@a,___fladd@b
  7940  000AEC  C019  F00E         	movff	___fladd@grs,___fladd@a
  7941  000AF0  C00B  F019         	movff	___fladd@b+1,___fladd@grs
  7942  000AF4  C00F  F00B         	movff	___fladd@a+1,___fladd@b+1
  7943  000AF8  C019  F00F         	movff	___fladd@grs,___fladd@a+1
  7944  000AFC  C00C  F019         	movff	___fladd@b+2,___fladd@grs
  7945  000B00  C010  F00C         	movff	___fladd@a+2,___fladd@b+2
  7946  000B04  C019  F010         	movff	___fladd@grs,___fladd@a+2
  7947  000B08  C00D  F019         	movff	___fladd@b+3,___fladd@grs
  7948  000B0C  C011  F00D         	movff	___fladd@a+3,___fladd@b+3
  7949  000B10  C019  F011         	movff	___fladd@grs,___fladd@a+3
  7950  000B14                     l2911:
  7951  000B14  FFFF               	dw	65535	; assembler added errata NOP
  7952  000B16  0E00               	movlw	0
  7953  000B18  6E19               	movwf	___fladd@grs^0,c
  7954  000B1A  5018               	movf	___fladd@bexp^0,w,c
  7955  000B1C  C017  F012         	movff	___fladd@aexp,??___fladd
  7956  000B20  6A13               	clrf	(??___fladd+1)^0,c
  7957  000B22  5E12               	subwf	??___fladd^0,f,c
  7958  000B24  0E00               	movlw	0
  7959  000B26  5A13               	subwfb	(??___fladd+1)^0,f,c
  7960  000B28  BE13               	btfsc	(??___fladd+1)^0,7,c
  7961  000B2A  EFA0  F005         	goto	u2531
  7962  000B2E  5013               	movf	(??___fladd+1)^0,w,c
  7963  000B30  E10A               	bnz	u2530
  7964  000B32  0E1A               	movlw	26
  7965  000B34  5C12               	subwf	??___fladd^0,w,c
  7966  000B36  A0D8               	btfss	status,0,c
  7967  000B38  EFA0  F005         	goto	u2531
  7968  000B3C  EFA3  F005         	goto	u2530
  7969  000B40                     u2531:
  7970  000B40  FFFF               	dw	65535	; assembler added errata NOP
  7971  000B42  EFE6  F005         	goto	l1039
  7972  000B46                     u2530:
  7973  000B46  FFFF               	dw	65535	; assembler added errata NOP
  7974  000B48  500A               	movf	___fladd@b^0,w,c
  7975  000B4A  100B               	iorwf	(___fladd@b+1)^0,w,c
  7976  000B4C  100C               	iorwf	(___fladd@b+2)^0,w,c
  7977  000B4E  100D               	iorwf	(___fladd@b+3)^0,w,c
  7978  000B50  A4D8               	btfss	status,2,c
  7979  000B52  EFAD  F005         	goto	u2541
  7980  000B56  EFB1  F005         	goto	u2540
  7981  000B5A                     u2541:
  7982  000B5A  FFFF               	dw	65535	; assembler added errata NOP
  7983  000B5C  0E01               	movlw	1
  7984  000B5E  EFB3  F005         	goto	u2550
  7985  000B62                     u2540:
  7986  000B62  FFFF               	dw	65535	; assembler added errata NOP
  7987  000B64  0E00               	movlw	0
  7988  000B66                     u2550:
  7989  000B66  FFFF               	dw	65535	; assembler added errata NOP
  7990  000B68  6E19               	movwf	___fladd@grs^0,c
  7991  000B6A  0E00               	movlw	0
  7992  000B6C  6E0A               	movwf	___fladd@b^0,c
  7993  000B6E  0E00               	movlw	0
  7994  000B70  6E0B               	movwf	(___fladd@b+1)^0,c
  7995  000B72  0E00               	movlw	0
  7996  000B74  6E0C               	movwf	(___fladd@b+2)^0,c
  7997  000B76  0E00               	movlw	0
  7998  000B78  6E0D               	movwf	(___fladd@b+3)^0,c
  7999  000B7A  C017  F018         	movff	___fladd@aexp,___fladd@bexp
  8000  000B7E  EFF1  F005         	goto	l1038
  8001  000B82                     l1040:
  8002  000B82  FFFF               	dw	65535	; assembler added errata NOP
  8003  000B84  A019               	btfss	___fladd@grs^0,0,c
  8004  000B86  EFC7  F005         	goto	u2561
  8005  000B8A  EFCA  F005         	goto	u2560
  8006  000B8E                     u2561:
  8007  000B8E  FFFF               	dw	65535	; assembler added errata NOP
  8008  000B90  EFD1  F005         	goto	l2923
  8009  000B94                     u2560:
  8010  000B94  FFFF               	dw	65535	; assembler added errata NOP
  8011  000B96  90D8               	bcf	status,0,c
  8012  000B98  3019               	rrcf	___fladd@grs^0,w,c
  8013  000B9A  0901               	iorlw	1
  8014  000B9C  6E19               	movwf	___fladd@grs^0,c
  8015  000B9E  EFD4  F005         	goto	l2925
  8016  000BA2                     l2923:
  8017  000BA2  FFFF               	dw	65535	; assembler added errata NOP
  8018  000BA4  90D8               	bcf	status,0,c
  8019  000BA6  3219               	rrcf	___fladd@grs^0,f,c
  8020  000BA8                     l2925:
  8021  000BA8  FFFF               	dw	65535	; assembler added errata NOP
  8022  000BAA  A00A               	btfss	___fladd@b^0,0,c
  8023  000BAC  EFDA  F005         	goto	u2571
  8024  000BB0  EFDD  F005         	goto	u2570
  8025  000BB4                     u2571:
  8026  000BB4  FFFF               	dw	65535	; assembler added errata NOP
  8027  000BB6  EFDF  F005         	goto	l2929
  8028  000BBA                     u2570:
  8029  000BBA  FFFF               	dw	65535	; assembler added errata NOP
  8030  000BBC  8E19               	bsf	___fladd@grs^0,7,c
  8031  000BBE                     l2929:
  8032  000BBE  FFFF               	dw	65535	; assembler added errata NOP
  8033  000BC0  340D               	rlcf	(___fladd@b+3)^0,w,c
  8034  000BC2  320D               	rrcf	(___fladd@b+3)^0,f,c
  8035  000BC4  320C               	rrcf	(___fladd@b+2)^0,f,c
  8036  000BC6  320B               	rrcf	(___fladd@b+1)^0,f,c
  8037  000BC8  320A               	rrcf	___fladd@b^0,f,c
  8038  000BCA  2A18               	incf	___fladd@bexp^0,f,c
  8039  000BCC                     l1039:
  8040  000BCC  FFFF               	dw	65535	; assembler added errata NOP
  8041  000BCE  5017               	movf	___fladd@aexp^0,w,c
  8042  000BD0  5C18               	subwf	___fladd@bexp^0,w,c
  8043  000BD2  A0D8               	btfss	status,0,c
  8044  000BD4  EFEE  F005         	goto	u2581
  8045  000BD8  EFF1  F005         	goto	u2580
  8046  000BDC                     u2581:
  8047  000BDC  FFFF               	dw	65535	; assembler added errata NOP
  8048  000BDE  EFC1  F005         	goto	l1040
  8049  000BE2                     u2580:
  8050  000BE2                     l1038:
  8051  000BE2  FFFF               	dw	65535	; assembler added errata NOP
  8052  000BE4  BC16               	btfsc	___fladd@signs^0,6,c
  8053  000BE6  EFF7  F005         	goto	u2591
  8054  000BEA  EFFA  F005         	goto	u2590
  8055  000BEE                     u2591:
  8056  000BEE  FFFF               	dw	65535	; assembler added errata NOP
  8057  000BF0  EF47  F006         	goto	l2957
  8058  000BF4                     u2590:
  8059  000BF4  FFFF               	dw	65535	; assembler added errata NOP
  8060  000BF6  5018               	movf	___fladd@bexp^0,w,c
  8061  000BF8  A4D8               	btfss	status,2,c
  8062  000BFA  EF01  F006         	goto	u2601
  8063  000BFE  EF04  F006         	goto	u2600
  8064  000C02                     u2601:
  8065  000C02  FFFF               	dw	65535	; assembler added errata NOP
  8066  000C04  EF0F  F006         	goto	l2939
  8067  000C08                     u2600:
  8068  000C08  FFFF               	dw	65535	; assembler added errata NOP
  8069  000C0A  0E00               	movlw	0
  8070  000C0C  6E0A               	movwf	?___fladd^0,c
  8071  000C0E  0E00               	movlw	0
  8072  000C10  6E0B               	movwf	(?___fladd+1)^0,c
  8073  000C12  0E00               	movlw	0
  8074  000C14  6E0C               	movwf	(?___fladd+2)^0,c
  8075  000C16  0E00               	movlw	0
  8076  000C18  6E0D               	movwf	(?___fladd+3)^0,c
  8077  000C1A  EF9E  F007         	goto	l1047
  8078  000C1E                     l2939:
  8079  000C1E  FFFF               	dw	65535	; assembler added errata NOP
  8080  000C20  500E               	movf	___fladd@a^0,w,c
  8081  000C22  260A               	addwf	___fladd@b^0,f,c
  8082  000C24  500F               	movf	(___fladd@a+1)^0,w,c
  8083  000C26  220B               	addwfc	(___fladd@b+1)^0,f,c
  8084  000C28  5010               	movf	(___fladd@a+2)^0,w,c
  8085  000C2A  220C               	addwfc	(___fladd@b+2)^0,f,c
  8086  000C2C  5011               	movf	(___fladd@a+3)^0,w,c
  8087  000C2E  220D               	addwfc	(___fladd@b+3)^0,f,c
  8088  000C30  A00D               	btfss	(___fladd@b+3)^0,0,c
  8089  000C32  EF1D  F006         	goto	u2611
  8090  000C36  EF20  F006         	goto	u2610
  8091  000C3A                     u2611:
  8092  000C3A  FFFF               	dw	65535	; assembler added errata NOP
  8093  000C3C  EFEB  F006         	goto	l2993
  8094  000C40                     u2610:
  8095  000C40  FFFF               	dw	65535	; assembler added errata NOP
  8096  000C42  A019               	btfss	___fladd@grs^0,0,c
  8097  000C44  EF26  F006         	goto	u2621
  8098  000C48  EF29  F006         	goto	u2620
  8099  000C4C                     u2621:
  8100  000C4C  FFFF               	dw	65535	; assembler added errata NOP
  8101  000C4E  EF30  F006         	goto	l2947
  8102  000C52                     u2620:
  8103  000C52  FFFF               	dw	65535	; assembler added errata NOP
  8104  000C54  90D8               	bcf	status,0,c
  8105  000C56  3019               	rrcf	___fladd@grs^0,w,c
  8106  000C58  0901               	iorlw	1
  8107  000C5A  6E19               	movwf	___fladd@grs^0,c
  8108  000C5C  EF33  F006         	goto	l2949
  8109  000C60                     l2947:
  8110  000C60  FFFF               	dw	65535	; assembler added errata NOP
  8111  000C62  90D8               	bcf	status,0,c
  8112  000C64  3219               	rrcf	___fladd@grs^0,f,c
  8113  000C66                     l2949:
  8114  000C66  FFFF               	dw	65535	; assembler added errata NOP
  8115  000C68  A00A               	btfss	___fladd@b^0,0,c
  8116  000C6A  EF39  F006         	goto	u2631
  8117  000C6E  EF3C  F006         	goto	u2630
  8118  000C72                     u2631:
  8119  000C72  FFFF               	dw	65535	; assembler added errata NOP
  8120  000C74  EF3E  F006         	goto	l2953
  8121  000C78                     u2630:
  8122  000C78  FFFF               	dw	65535	; assembler added errata NOP
  8123  000C7A  8E19               	bsf	___fladd@grs^0,7,c
  8124  000C7C                     l2953:
  8125  000C7C  FFFF               	dw	65535	; assembler added errata NOP
  8126  000C7E  340D               	rlcf	(___fladd@b+3)^0,w,c
  8127  000C80  320D               	rrcf	(___fladd@b+3)^0,f,c
  8128  000C82  320C               	rrcf	(___fladd@b+2)^0,f,c
  8129  000C84  320B               	rrcf	(___fladd@b+1)^0,f,c
  8130  000C86  320A               	rrcf	___fladd@b^0,f,c
  8131  000C88  2A18               	incf	___fladd@bexp^0,f,c
  8132  000C8A  EFEB  F006         	goto	l2993
  8133  000C8E                     l2957:
  8134  000C8E  FFFF               	dw	65535	; assembler added errata NOP
  8135  000C90  500E               	movf	___fladd@a^0,w,c
  8136  000C92  5C0A               	subwf	___fladd@b^0,w,c
  8137  000C94  500F               	movf	(___fladd@a+1)^0,w,c
  8138  000C96  580B               	subwfb	(___fladd@b+1)^0,w,c
  8139  000C98  5010               	movf	(___fladd@a+2)^0,w,c
  8140  000C9A  580C               	subwfb	(___fladd@b+2)^0,w,c
  8141  000C9C  500D               	movf	(___fladd@b+3)^0,w,c
  8142  000C9E  0A80               	xorlw	128
  8143  000CA0  6E12               	movwf	??___fladd^0,c
  8144  000CA2  5011               	movf	(___fladd@a+3)^0,w,c
  8145  000CA4  0A80               	xorlw	128
  8146  000CA6  5812               	subwfb	??___fladd^0,w,c
  8147  000CA8  B0D8               	btfsc	status,0,c
  8148  000CAA  EF59  F006         	goto	u2641
  8149  000CAE  EF5C  F006         	goto	u2640
  8150  000CB2                     u2641:
  8151  000CB2  FFFF               	dw	65535	; assembler added errata NOP
  8152  000CB4  EF8A  F006         	goto	l2967
  8153  000CB8                     u2640:
  8154  000CB8  FFFF               	dw	65535	; assembler added errata NOP
  8155  000CBA  500A               	movf	___fladd@b^0,w,c
  8156  000CBC  5C0E               	subwf	___fladd@a^0,w,c
  8157  000CBE  6E12               	movwf	??___fladd^0,c
  8158  000CC0  500B               	movf	(___fladd@b+1)^0,w,c
  8159  000CC2  580F               	subwfb	(___fladd@a+1)^0,w,c
  8160  000CC4  6E13               	movwf	(??___fladd+1)^0,c
  8161  000CC6  500C               	movf	(___fladd@b+2)^0,w,c
  8162  000CC8  5810               	subwfb	(___fladd@a+2)^0,w,c
  8163  000CCA  6E14               	movwf	(??___fladd+2)^0,c
  8164  000CCC  500D               	movf	(___fladd@b+3)^0,w,c
  8165  000CCE  5811               	subwfb	(___fladd@a+3)^0,w,c
  8166  000CD0  6E15               	movwf	(??___fladd+3)^0,c
  8167  000CD2  0EFF               	movlw	255
  8168  000CD4  2412               	addwf	??___fladd^0,w,c
  8169  000CD6  6E0A               	movwf	___fladd@b^0,c
  8170  000CD8  0EFF               	movlw	255
  8171  000CDA  2013               	addwfc	(??___fladd+1)^0,w,c
  8172  000CDC  6E0B               	movwf	(___fladd@b+1)^0,c
  8173  000CDE  0EFF               	movlw	255
  8174  000CE0  2014               	addwfc	(??___fladd+2)^0,w,c
  8175  000CE2  6E0C               	movwf	(___fladd@b+2)^0,c
  8176  000CE4  0EFF               	movlw	255
  8177  000CE6  2015               	addwfc	(??___fladd+3)^0,w,c
  8178  000CE8  6E0D               	movwf	(___fladd@b+3)^0,c
  8179  000CEA  0E80               	movlw	128
  8180  000CEC  1A16               	xorwf	___fladd@signs^0,f,c
  8181  000CEE  6C19               	negf	___fladd@grs^0,c
  8182  000CF0  5019               	movf	___fladd@grs^0,w,c
  8183  000CF2  A4D8               	btfss	status,2,c
  8184  000CF4  EF7E  F006         	goto	u2651
  8185  000CF8  EF81  F006         	goto	u2650
  8186  000CFC                     u2651:
  8187  000CFC  FFFF               	dw	65535	; assembler added errata NOP
  8188  000CFE  EF93  F006         	goto	l1055
  8189  000D02                     u2650:
  8190  000D02  FFFF               	dw	65535	; assembler added errata NOP
  8191  000D04  0E01               	movlw	1
  8192  000D06  260A               	addwf	___fladd@b^0,f,c
  8193  000D08  0E00               	movlw	0
  8194  000D0A  220B               	addwfc	(___fladd@b+1)^0,f,c
  8195  000D0C  220C               	addwfc	(___fladd@b+2)^0,f,c
  8196  000D0E  220D               	addwfc	(___fladd@b+3)^0,f,c
  8197  000D10  EF93  F006         	goto	l1055
  8198  000D14                     l2967:
  8199  000D14  FFFF               	dw	65535	; assembler added errata NOP
  8200  000D16  500E               	movf	___fladd@a^0,w,c
  8201  000D18  5E0A               	subwf	___fladd@b^0,f,c
  8202  000D1A  500F               	movf	(___fladd@a+1)^0,w,c
  8203  000D1C  5A0B               	subwfb	(___fladd@b+1)^0,f,c
  8204  000D1E  5010               	movf	(___fladd@a+2)^0,w,c
  8205  000D20  5A0C               	subwfb	(___fladd@b+2)^0,f,c
  8206  000D22  5011               	movf	(___fladd@a+3)^0,w,c
  8207  000D24  5A0D               	subwfb	(___fladd@b+3)^0,f,c
  8208  000D26                     l1055:
  8209  000D26  FFFF               	dw	65535	; assembler added errata NOP
  8210  000D28  500A               	movf	___fladd@b^0,w,c
  8211  000D2A  100B               	iorwf	(___fladd@b+1)^0,w,c
  8212  000D2C  100C               	iorwf	(___fladd@b+2)^0,w,c
  8213  000D2E  100D               	iorwf	(___fladd@b+3)^0,w,c
  8214  000D30  A4D8               	btfss	status,2,c
  8215  000D32  EF9D  F006         	goto	u2661
  8216  000D36  EFA0  F006         	goto	u2660
  8217  000D3A                     u2661:
  8218  000D3A  FFFF               	dw	65535	; assembler added errata NOP
  8219  000D3C  EFE2  F006         	goto	l2991
  8220  000D40                     u2660:
  8221  000D40  FFFF               	dw	65535	; assembler added errata NOP
  8222  000D42  5019               	movf	___fladd@grs^0,w,c
  8223  000D44  A4D8               	btfss	status,2,c
  8224  000D46  EFA7  F006         	goto	u2671
  8225  000D4A  EFAA  F006         	goto	u2670
  8226  000D4E                     u2671:
  8227  000D4E  FFFF               	dw	65535	; assembler added errata NOP
  8228  000D50  EFE2  F006         	goto	l2991
  8229  000D54                     u2670:
  8230  000D54  FFFF               	dw	65535	; assembler added errata NOP
  8231  000D56  0E00               	movlw	0
  8232  000D58  6E0A               	movwf	?___fladd^0,c
  8233  000D5A  0E00               	movlw	0
  8234  000D5C  6E0B               	movwf	(?___fladd+1)^0,c
  8235  000D5E  0E00               	movlw	0
  8236  000D60  6E0C               	movwf	(?___fladd+2)^0,c
  8237  000D62  0E00               	movlw	0
  8238  000D64  6E0D               	movwf	(?___fladd+3)^0,c
  8239  000D66  EF9E  F007         	goto	l1047
  8240  000D6A                     l2975:
  8241  000D6A  FFFF               	dw	65535	; assembler added errata NOP
  8242  000D6C  90D8               	bcf	status,0,c
  8243  000D6E  360A               	rlcf	___fladd@b^0,f,c
  8244  000D70  360B               	rlcf	(___fladd@b+1)^0,f,c
  8245  000D72  360C               	rlcf	(___fladd@b+2)^0,f,c
  8246  000D74  360D               	rlcf	(___fladd@b+3)^0,f,c
  8247  000D76  AE19               	btfss	___fladd@grs^0,7,c
  8248  000D78  EFC0  F006         	goto	u2681
  8249  000D7C  EFC3  F006         	goto	u2680
  8250  000D80                     u2681:
  8251  000D80  FFFF               	dw	65535	; assembler added errata NOP
  8252  000D82  EFC5  F006         	goto	l2981
  8253  000D86                     u2680:
  8254  000D86  FFFF               	dw	65535	; assembler added errata NOP
  8255  000D88  800A               	bsf	___fladd@b^0,0,c
  8256  000D8A                     l2981:
  8257  000D8A  FFFF               	dw	65535	; assembler added errata NOP
  8258  000D8C  A019               	btfss	___fladd@grs^0,0,c
  8259  000D8E  EFCB  F006         	goto	u2691
  8260  000D92  EFCE  F006         	goto	u2690
  8261  000D96                     u2691:
  8262  000D96  FFFF               	dw	65535	; assembler added errata NOP
  8263  000D98  EFD3  F006         	goto	l2985
  8264  000D9C                     u2690:
  8265  000D9C  FFFF               	dw	65535	; assembler added errata NOP
  8266  000D9E  80D8               	bsf	status,0,c
  8267  000DA0  3619               	rlcf	___fladd@grs^0,f,c
  8268  000DA2  EFD6  F006         	goto	l2987
  8269  000DA6                     l2985:
  8270  000DA6  FFFF               	dw	65535	; assembler added errata NOP
  8271  000DA8  90D8               	bcf	status,0,c
  8272  000DAA  3619               	rlcf	___fladd@grs^0,f,c
  8273  000DAC                     l2987:
  8274  000DAC  FFFF               	dw	65535	; assembler added errata NOP
  8275  000DAE  5018               	movf	___fladd@bexp^0,w,c
  8276  000DB0  B4D8               	btfsc	status,2,c
  8277  000DB2  EFDD  F006         	goto	u2701
  8278  000DB6  EFE0  F006         	goto	u2700
  8279  000DBA                     u2701:
  8280  000DBA  FFFF               	dw	65535	; assembler added errata NOP
  8281  000DBC  EFE2  F006         	goto	l2991
  8282  000DC0                     u2700:
  8283  000DC0  FFFF               	dw	65535	; assembler added errata NOP
  8284  000DC2  0618               	decf	___fladd@bexp^0,f,c
  8285  000DC4                     l2991:
  8286  000DC4  FFFF               	dw	65535	; assembler added errata NOP
  8287  000DC6  AE0C               	btfss	(___fladd@b+2)^0,7,c
  8288  000DC8  EFE8  F006         	goto	u2711
  8289  000DCC  EFEB  F006         	goto	u2710
  8290  000DD0                     u2711:
  8291  000DD0  FFFF               	dw	65535	; assembler added errata NOP
  8292  000DD2  EFB5  F006         	goto	l2975
  8293  000DD6                     u2710:
  8294  000DD6                     l2993:
  8295  000DD6  FFFF               	dw	65535	; assembler added errata NOP
  8296  000DD8  0E00               	movlw	0
  8297  000DDA  6E17               	movwf	___fladd@aexp^0,c
  8298  000DDC  AE19               	btfss	___fladd@grs^0,7,c
  8299  000DDE  EFF3  F006         	goto	u2721
  8300  000DE2  EFF6  F006         	goto	u2720
  8301  000DE6                     u2721:
  8302  000DE6  FFFF               	dw	65535	; assembler added errata NOP
  8303  000DE8  EF15  F007         	goto	l1064
  8304  000DEC                     u2720:
  8305  000DEC  FFFF               	dw	65535	; assembler added errata NOP
  8306  000DEE  C019  F012         	movff	___fladd@grs,??___fladd
  8307  000DF2  0E7F               	movlw	127
  8308  000DF4  1612               	andwf	??___fladd^0,f,c
  8309  000DF6  B4D8               	btfsc	status,2,c
  8310  000DF8  EF00  F007         	goto	u2731
  8311  000DFC  EF03  F007         	goto	u2730
  8312  000E00                     u2731:
  8313  000E00  FFFF               	dw	65535	; assembler added errata NOP
  8314  000E02  EF09  F007         	goto	l1065
  8315  000E06                     u2730:
  8316  000E06  FFFF               	dw	65535	; assembler added errata NOP
  8317  000E08                     l2999:
  8318  000E08  FFFF               	dw	65535	; assembler added errata NOP
  8319  000E0A  0E01               	movlw	1
  8320  000E0C  6E17               	movwf	___fladd@aexp^0,c
  8321  000E0E  EF15  F007         	goto	l1064
  8322  000E12                     l1065:
  8323  000E12  FFFF               	dw	65535	; assembler added errata NOP
  8324  000E14  A00A               	btfss	___fladd@b^0,0,c
  8325  000E16  EF0F  F007         	goto	u2741
  8326  000E1A  EF12  F007         	goto	u2740
  8327  000E1E                     u2741:
  8328  000E1E  FFFF               	dw	65535	; assembler added errata NOP
  8329  000E20  EF15  F007         	goto	l1064
  8330  000E24                     u2740:
  8331  000E24  FFFF               	dw	65535	; assembler added errata NOP
  8332  000E26  EF04  F007         	goto	l2999
  8333  000E2A                     l1064:
  8334  000E2A  FFFF               	dw	65535	; assembler added errata NOP
  8335  000E2C  5017               	movf	___fladd@aexp^0,w,c
  8336  000E2E  B4D8               	btfsc	status,2,c
  8337  000E30  EF1C  F007         	goto	u2751
  8338  000E34  EF1F  F007         	goto	u2750
  8339  000E38                     u2751:
  8340  000E38  FFFF               	dw	65535	; assembler added errata NOP
  8341  000E3A  EF4F  F007         	goto	l3011
  8342  000E3E                     u2750:
  8343  000E3E  FFFF               	dw	65535	; assembler added errata NOP
  8344  000E40  0E01               	movlw	1
  8345  000E42  260A               	addwf	___fladd@b^0,f,c
  8346  000E44  0E00               	movlw	0
  8347  000E46  220B               	addwfc	(___fladd@b+1)^0,f,c
  8348  000E48  220C               	addwfc	(___fladd@b+2)^0,f,c
  8349  000E4A  220D               	addwfc	(___fladd@b+3)^0,f,c
  8350  000E4C  A00D               	btfss	(___fladd@b+3)^0,0,c
  8351  000E4E  EF2B  F007         	goto	u2761
  8352  000E52  EF2E  F007         	goto	u2760
  8353  000E56                     u2761:
  8354  000E56  FFFF               	dw	65535	; assembler added errata NOP
  8355  000E58  EF4F  F007         	goto	l3011
  8356  000E5C                     u2760:
  8357  000E5C  FFFF               	dw	65535	; assembler added errata NOP
  8358  000E5E  C00A  F012         	movff	___fladd@b,??___fladd
  8359  000E62  C00B  F013         	movff	___fladd@b+1,??___fladd+1
  8360  000E66  C00C  F014         	movff	___fladd@b+2,??___fladd+2
  8361  000E6A  C00D  F015         	movff	___fladd@b+3,??___fladd+3
  8362  000E6E  3415               	rlcf	(??___fladd+3)^0,w,c
  8363  000E70  3215               	rrcf	(??___fladd+3)^0,f,c
  8364  000E72  3214               	rrcf	(??___fladd+2)^0,f,c
  8365  000E74  3213               	rrcf	(??___fladd+1)^0,f,c
  8366  000E76  3212               	rrcf	??___fladd^0,f,c
  8367  000E78  C012  F00A         	movff	??___fladd,___fladd@b
  8368  000E7C  C013  F00B         	movff	??___fladd+1,___fladd@b+1
  8369  000E80  C014  F00C         	movff	??___fladd+2,___fladd@b+2
  8370  000E84  C015  F00D         	movff	??___fladd+3,___fladd@b+3
  8371  000E88  2818               	incf	___fladd@bexp^0,w,c
  8372  000E8A  B4D8               	btfsc	status,2,c
  8373  000E8C  EF4A  F007         	goto	u2771
  8374  000E90  EF4D  F007         	goto	u2770
  8375  000E94                     u2771:
  8376  000E94  FFFF               	dw	65535	; assembler added errata NOP
  8377  000E96  EF4F  F007         	goto	l3011
  8378  000E9A                     u2770:
  8379  000E9A  FFFF               	dw	65535	; assembler added errata NOP
  8380  000E9C  2A18               	incf	___fladd@bexp^0,f,c
  8381  000E9E                     l3011:
  8382  000E9E  FFFF               	dw	65535	; assembler added errata NOP
  8383  000EA0  2818               	incf	___fladd@bexp^0,w,c
  8384  000EA2  B4D8               	btfsc	status,2,c
  8385  000EA4  EF56  F007         	goto	u2781
  8386  000EA8  EF59  F007         	goto	u2780
  8387  000EAC                     u2781:
  8388  000EAC  FFFF               	dw	65535	; assembler added errata NOP
  8389  000EAE  EF63  F007         	goto	l3015
  8390  000EB2                     u2780:
  8391  000EB2  FFFF               	dw	65535	; assembler added errata NOP
  8392  000EB4  5018               	movf	___fladd@bexp^0,w,c
  8393  000EB6  A4D8               	btfss	status,2,c
  8394  000EB8  EF60  F007         	goto	u2791
  8395  000EBC  EF63  F007         	goto	u2790
  8396  000EC0                     u2791:
  8397  000EC0  FFFF               	dw	65535	; assembler added errata NOP
  8398  000EC2  EF78  F007         	goto	l3019
  8399  000EC6                     u2790:
  8400  000EC6                     l3015:
  8401  000EC6  FFFF               	dw	65535	; assembler added errata NOP
  8402  000EC8  0E00               	movlw	0
  8403  000ECA  6E0A               	movwf	___fladd@b^0,c
  8404  000ECC  0E00               	movlw	0
  8405  000ECE  6E0B               	movwf	(___fladd@b+1)^0,c
  8406  000ED0  0E00               	movlw	0
  8407  000ED2  6E0C               	movwf	(___fladd@b+2)^0,c
  8408  000ED4  0E00               	movlw	0
  8409  000ED6  6E0D               	movwf	(___fladd@b+3)^0,c
  8410  000ED8  5018               	movf	___fladd@bexp^0,w,c
  8411  000EDA  A4D8               	btfss	status,2,c
  8412  000EDC  EF72  F007         	goto	u2801
  8413  000EE0  EF75  F007         	goto	u2800
  8414  000EE4                     u2801:
  8415  000EE4  FFFF               	dw	65535	; assembler added errata NOP
  8416  000EE6  EF78  F007         	goto	l3019
  8417  000EEA                     u2800:
  8418  000EEA  FFFF               	dw	65535	; assembler added errata NOP
  8419  000EEC  0E00               	movlw	0
  8420  000EEE  6E16               	movwf	___fladd@signs^0,c
  8421  000EF0                     l3019:
  8422  000EF0  FFFF               	dw	65535	; assembler added errata NOP
  8423  000EF2  A018               	btfss	___fladd@bexp^0,0,c
  8424  000EF4  EF7E  F007         	goto	u2811
  8425  000EF8  EF81  F007         	goto	u2810
  8426  000EFC                     u2811:
  8427  000EFC  FFFF               	dw	65535	; assembler added errata NOP
  8428  000EFE  EF85  F007         	goto	l3023
  8429  000F02                     u2810:
  8430  000F02  FFFF               	dw	65535	; assembler added errata NOP
  8431  000F04  8E0C               	bsf	(___fladd@b+2)^0,7,c
  8432  000F06  EF87  F007         	goto	l3025
  8433  000F0A                     l3023:
  8434  000F0A  FFFF               	dw	65535	; assembler added errata NOP
  8435  000F0C  9E0C               	bcf	(___fladd@b+2)^0,7,c
  8436  000F0E                     l3025:
  8437  000F0E  FFFF               	dw	65535	; assembler added errata NOP
  8438  000F10  90D8               	bcf	status,0,c
  8439  000F12  3018               	rrcf	___fladd@bexp^0,w,c
  8440  000F14  6E0D               	movwf	(___fladd@b+3)^0,c
  8441  000F16  AE16               	btfss	___fladd@signs^0,7,c
  8442  000F18  EF90  F007         	goto	u2821
  8443  000F1C  EF93  F007         	goto	u2820
  8444  000F20                     u2821:
  8445  000F20  FFFF               	dw	65535	; assembler added errata NOP
  8446  000F22  EF95  F007         	goto	l3031
  8447  000F26                     u2820:
  8448  000F26  FFFF               	dw	65535	; assembler added errata NOP
  8449  000F28  8E0D               	bsf	(___fladd@b+3)^0,7,c
  8450  000F2A                     l3031:
  8451  000F2A  FFFF               	dw	65535	; assembler added errata NOP
  8452  000F2C  C00A  F00A         	movff	___fladd@b,?___fladd
  8453  000F30  C00B  F00B         	movff	___fladd@b+1,?___fladd+1
  8454  000F34  C00C  F00C         	movff	___fladd@b+2,?___fladd+2
  8455  000F38  C00D  F00D         	movff	___fladd@b+3,?___fladd+3
  8456  000F3C                     l1047:
  8457  000F3C  FFFF               	dw	65535	; assembler added errata NOP
  8458  000F3E  0012               	return		;funcret
  8459  000F40  FFFF               	dw	65535	; errata NOP
  8460  000F42                     __end_of___fladd:
  8461                           	callstack 0
  8462                           
  8463 ;; *************** function ___flneg *****************
  8464 ;; Defined at:
  8465 ;;		line 15 in file "/opt/microchip/xc8/v2.32/pic/sources/c99/common/flneg.c"
  8466 ;; Parameters:    Size  Location     Type
  8467 ;;  f1              4    9[COMRAM] unsigned char 
  8468 ;; Auto vars:     Size  Location     Type
  8469 ;;		None
  8470 ;; Return value:  Size  Location     Type
  8471 ;;                  4    9[COMRAM] unsigned char 
  8472 ;; Registers used:
  8473 ;;		wreg, status,2, status,0
  8474 ;; Tracked objects:
  8475 ;;		On entry : 0/0
  8476 ;;		On exit  : 0/0
  8477 ;;		Unchanged: 0/0
  8478 ;; Data sizes:     COMRAM   BANK0   BANK1   BANK2   BANK3   BANK4   BANK5
  8479 ;;      Params:         4       0       0       0       0       0       0
  8480 ;;      Locals:         0       0       0       0       0       0       0
  8481 ;;      Temps:          0       0       0       0       0       0       0
  8482 ;;      Totals:         4       0       0       0       0       0       0
  8483 ;;Total ram usage:        4 bytes
  8484 ;; Hardware stack levels used: 1
  8485 ;; Hardware stack levels required when called: 2
  8486 ;; This function calls:
  8487 ;;		Nothing
  8488 ;; This function is called by:
  8489 ;;		_roundf
  8490 ;; This function uses a non-reentrant model
  8491 ;;
  8492                           
  8493                           	psect	text31
  8494  003262                     __ptext31:
  8495                           	callstack 0
  8496  003262                     ___flneg:
  8497                           	callstack 0
  8498  003262  FFFF               	dw	65535	; assembler added errata NOP
  8499  003264  500A               	movf	___flneg@f1^0,w,c
  8500  003266  100B               	iorwf	(___flneg@f1+1)^0,w,c
  8501  003268  100C               	iorwf	(___flneg@f1+2)^0,w,c
  8502  00326A  100D               	iorwf	(___flneg@f1+3)^0,w,c
  8503  00326C  B4D8               	btfsc	status,2,c
  8504  00326E  EF3B  F019         	goto	u3731
  8505  003272  EF3E  F019         	goto	u3730
  8506  003276                     u3731:
  8507  003276  FFFF               	dw	65535	; assembler added errata NOP
  8508  003278  EF47  F019         	goto	l3649
  8509  00327C                     u3730:
  8510  00327C  FFFF               	dw	65535	; assembler added errata NOP
  8511  00327E  0E00               	movlw	0
  8512  003280  1A0A               	xorwf	___flneg@f1^0,f,c
  8513  003282  0E00               	movlw	0
  8514  003284  1A0B               	xorwf	(___flneg@f1+1)^0,f,c
  8515  003286  0E00               	movlw	0
  8516  003288  1A0C               	xorwf	(___flneg@f1+2)^0,f,c
  8517  00328A  0E80               	movlw	128
  8518  00328C  1A0D               	xorwf	(___flneg@f1+3)^0,f,c
  8519  00328E                     l3649:
  8520  00328E  FFFF               	dw	65535	; assembler added errata NOP
  8521  003290  C00A  F00A         	movff	___flneg@f1,?___flneg
  8522  003294  C00B  F00B         	movff	___flneg@f1+1,?___flneg+1
  8523  003298  C00C  F00C         	movff	___flneg@f1+2,?___flneg+2
  8524  00329C  C00D  F00D         	movff	___flneg@f1+3,?___flneg+3
  8525  0032A0  0012               	return		;funcret
  8526  0032A2  FFFF               	dw	65535	; errata NOP
  8527  0032A4                     __end_of___flneg:
  8528                           	callstack 0
  8529                           
  8530 ;; *************** function ___flmul *****************
  8531 ;; Defined at:
  8532 ;;		line 8 in file "/opt/microchip/xc8/v2.32/pic/sources/c99/common/sprcmul.c"
  8533 ;; Parameters:    Size  Location     Type
  8534 ;;  b               4    9[COMRAM] unsigned char 
  8535 ;;  a               4   13[COMRAM] unsigned char 
  8536 ;; Auto vars:     Size  Location     Type
  8537 ;;  prod            4   28[COMRAM] struct .
  8538 ;;  grs             4   22[COMRAM] unsigned long 
  8539 ;;  temp            2   32[COMRAM] struct .
  8540 ;;  bexp            1   27[COMRAM] unsigned char 
  8541 ;;  aexp            1   26[COMRAM] unsigned char 
  8542 ;;  sign            1   21[COMRAM] unsigned char 
  8543 ;; Return value:  Size  Location     Type
  8544 ;;                  4    9[COMRAM] unsigned char 
  8545 ;; Registers used:
  8546 ;;		wreg, status,2, status,0, prodl, prodh
  8547 ;; Tracked objects:
  8548 ;;		On entry : 0/0
  8549 ;;		On exit  : 0/0
  8550 ;;		Unchanged: 0/0
  8551 ;; Data sizes:     COMRAM   BANK0   BANK1   BANK2   BANK3   BANK4   BANK5
  8552 ;;      Params:         8       0       0       0       0       0       0
  8553 ;;      Locals:        13       0       0       0       0       0       0
  8554 ;;      Temps:          4       0       0       0       0       0       0
  8555 ;;      Totals:        25       0       0       0       0       0       0
  8556 ;;Total ram usage:       25 bytes
  8557 ;; Hardware stack levels used: 1
  8558 ;; Hardware stack levels required when called: 2
  8559 ;; This function calls:
  8560 ;;		Nothing
  8561 ;; This function is called by:
  8562 ;;		_roundf
  8563 ;; This function uses a non-reentrant model
  8564 ;;
  8565                           
  8566                           	psect	text32
  8567  000F42                     __ptext32:
  8568                           	callstack 0
  8569  000F42                     ___flmul:
  8570                           	callstack 0
  8571  000F42  FFFF               	dw	65535	; assembler added errata NOP
  8572  000F44  500D               	movf	(___flmul@b+3)^0,w,c
  8573  000F46  0B80               	andlw	128
  8574  000F48  6E16               	movwf	___flmul@sign^0,c
  8575  000F4A  500D               	movf	(___flmul@b+3)^0,w,c
  8576  000F4C  240D               	addwf	(___flmul@b+3)^0,w,c
  8577  000F4E  6E1C               	movwf	___flmul@bexp^0,c
  8578  000F50  AE0C               	btfss	(___flmul@b+2)^0,7,c
  8579  000F52  EFAD  F007         	goto	u3491
  8580  000F56  EFB0  F007         	goto	u3490
  8581  000F5A                     u3491:
  8582  000F5A  FFFF               	dw	65535	; assembler added errata NOP
  8583  000F5C  EFB2  F007         	goto	l3493
  8584  000F60                     u3490:
  8585  000F60  FFFF               	dw	65535	; assembler added errata NOP
  8586  000F62  801C               	bsf	___flmul@bexp^0,0,c
  8587  000F64                     l3493:
  8588  000F64  FFFF               	dw	65535	; assembler added errata NOP
  8589  000F66  501C               	movf	___flmul@bexp^0,w,c
  8590  000F68  B4D8               	btfsc	status,2,c
  8591  000F6A  EFB9  F007         	goto	u3501
  8592  000F6E  EFBC  F007         	goto	u3500
  8593  000F72                     u3501:
  8594  000F72  FFFF               	dw	65535	; assembler added errata NOP
  8595  000F74  EFD3  F007         	goto	l3501
  8596  000F78                     u3500:
  8597  000F78  FFFF               	dw	65535	; assembler added errata NOP
  8598  000F7A  281C               	incf	___flmul@bexp^0,w,c
  8599  000F7C  A4D8               	btfss	status,2,c
  8600  000F7E  EFC3  F007         	goto	u3511
  8601  000F82  EFC6  F007         	goto	u3510
  8602  000F86                     u3511:
  8603  000F86  FFFF               	dw	65535	; assembler added errata NOP
  8604  000F88  EFCF  F007         	goto	l3499
  8605  000F8C                     u3510:
  8606  000F8C  FFFF               	dw	65535	; assembler added errata NOP
  8607  000F8E  0E00               	movlw	0
  8608  000F90  6E0A               	movwf	___flmul@b^0,c
  8609  000F92  0E00               	movlw	0
  8610  000F94  6E0B               	movwf	(___flmul@b+1)^0,c
  8611  000F96  0E00               	movlw	0
  8612  000F98  6E0C               	movwf	(___flmul@b+2)^0,c
  8613  000F9A  0E00               	movlw	0
  8614  000F9C  6E0D               	movwf	(___flmul@b+3)^0,c
  8615  000F9E                     l3499:
  8616  000F9E  FFFF               	dw	65535	; assembler added errata NOP
  8617  000FA0  8E0C               	bsf	(___flmul@b+2)^0,7,c
  8618  000FA2  EFDC  F007         	goto	l3503
  8619  000FA6                     l3501:
  8620  000FA6  FFFF               	dw	65535	; assembler added errata NOP
  8621  000FA8  0E00               	movlw	0
  8622  000FAA  6E0A               	movwf	___flmul@b^0,c
  8623  000FAC  0E00               	movlw	0
  8624  000FAE  6E0B               	movwf	(___flmul@b+1)^0,c
  8625  000FB0  0E00               	movlw	0
  8626  000FB2  6E0C               	movwf	(___flmul@b+2)^0,c
  8627  000FB4  0E00               	movlw	0
  8628  000FB6  6E0D               	movwf	(___flmul@b+3)^0,c
  8629  000FB8                     l3503:
  8630  000FB8  FFFF               	dw	65535	; assembler added errata NOP
  8631  000FBA  5011               	movf	(___flmul@a+3)^0,w,c
  8632  000FBC  0B80               	andlw	128
  8633  000FBE  1A16               	xorwf	___flmul@sign^0,f,c
  8634  000FC0  5011               	movf	(___flmul@a+3)^0,w,c
  8635  000FC2  2411               	addwf	(___flmul@a+3)^0,w,c
  8636  000FC4  6E1B               	movwf	___flmul@aexp^0,c
  8637  000FC6  AE10               	btfss	(___flmul@a+2)^0,7,c
  8638  000FC8  EFE8  F007         	goto	u3521
  8639  000FCC  EFEB  F007         	goto	u3520
  8640  000FD0                     u3521:
  8641  000FD0  FFFF               	dw	65535	; assembler added errata NOP
  8642  000FD2  EFED  F007         	goto	l3511
  8643  000FD6                     u3520:
  8644  000FD6  FFFF               	dw	65535	; assembler added errata NOP
  8645  000FD8  801B               	bsf	___flmul@aexp^0,0,c
  8646  000FDA                     l3511:
  8647  000FDA  FFFF               	dw	65535	; assembler added errata NOP
  8648  000FDC  501B               	movf	___flmul@aexp^0,w,c
  8649  000FDE  B4D8               	btfsc	status,2,c
  8650  000FE0  EFF4  F007         	goto	u3531
  8651  000FE4  EFF7  F007         	goto	u3530
  8652  000FE8                     u3531:
  8653  000FE8  FFFF               	dw	65535	; assembler added errata NOP
  8654  000FEA  EF0E  F008         	goto	l3519
  8655  000FEE                     u3530:
  8656  000FEE  FFFF               	dw	65535	; assembler added errata NOP
  8657  000FF0  281B               	incf	___flmul@aexp^0,w,c
  8658  000FF2  A4D8               	btfss	status,2,c
  8659  000FF4  EFFE  F007         	goto	u3541
  8660  000FF8  EF01  F008         	goto	u3540
  8661  000FFC                     u3541:
  8662  000FFC  FFFF               	dw	65535	; assembler added errata NOP
  8663  000FFE  EF0A  F008         	goto	l3517
  8664  001002                     u3540:
  8665  001002  FFFF               	dw	65535	; assembler added errata NOP
  8666  001004  0E00               	movlw	0
  8667  001006  6E0E               	movwf	___flmul@a^0,c
  8668  001008  0E00               	movlw	0
  8669  00100A  6E0F               	movwf	(___flmul@a+1)^0,c
  8670  00100C  0E00               	movlw	0
  8671  00100E  6E10               	movwf	(___flmul@a+2)^0,c
  8672  001010  0E00               	movlw	0
  8673  001012  6E11               	movwf	(___flmul@a+3)^0,c
  8674  001014                     l3517:
  8675  001014  FFFF               	dw	65535	; assembler added errata NOP
  8676  001016  8E10               	bsf	(___flmul@a+2)^0,7,c
  8677  001018  EF17  F008         	goto	l1124
  8678  00101C                     l3519:
  8679  00101C  FFFF               	dw	65535	; assembler added errata NOP
  8680  00101E  0E00               	movlw	0
  8681  001020  6E0E               	movwf	___flmul@a^0,c
  8682  001022  0E00               	movlw	0
  8683  001024  6E0F               	movwf	(___flmul@a+1)^0,c
  8684  001026  0E00               	movlw	0
  8685  001028  6E10               	movwf	(___flmul@a+2)^0,c
  8686  00102A  0E00               	movlw	0
  8687  00102C  6E11               	movwf	(___flmul@a+3)^0,c
  8688  00102E                     l1124:
  8689  00102E  FFFF               	dw	65535	; assembler added errata NOP
  8690  001030  501B               	movf	___flmul@aexp^0,w,c
  8691  001032  B4D8               	btfsc	status,2,c
  8692  001034  EF1E  F008         	goto	u3551
  8693  001038  EF21  F008         	goto	u3550
  8694  00103C                     u3551:
  8695  00103C  FFFF               	dw	65535	; assembler added errata NOP
  8696  00103E  EF2B  F008         	goto	l3523
  8697  001042                     u3550:
  8698  001042  FFFF               	dw	65535	; assembler added errata NOP
  8699  001044  501C               	movf	___flmul@bexp^0,w,c
  8700  001046  A4D8               	btfss	status,2,c
  8701  001048  EF28  F008         	goto	u3561
  8702  00104C  EF2B  F008         	goto	u3560
  8703  001050                     u3561:
  8704  001050  FFFF               	dw	65535	; assembler added errata NOP
  8705  001052  EF36  F008         	goto	l3527
  8706  001056                     u3560:
  8707  001056                     l3523:
  8708  001056  FFFF               	dw	65535	; assembler added errata NOP
  8709  001058  0E00               	movlw	0
  8710  00105A  6E0A               	movwf	?___flmul^0,c
  8711  00105C  0E00               	movlw	0
  8712  00105E  6E0B               	movwf	(?___flmul+1)^0,c
  8713  001060  0E00               	movlw	0
  8714  001062  6E0C               	movwf	(?___flmul+2)^0,c
  8715  001064  0E00               	movlw	0
  8716  001066  6E0D               	movwf	(?___flmul+3)^0,c
  8717  001068  EFF0  F009         	goto	l1128
  8718  00106C                     l3527:
  8719  00106C  FFFF               	dw	65535	; assembler added errata NOP
  8720  00106E  5010               	movf	(___flmul@a+2)^0,w,c
  8721  001070  020A               	mulwf	___flmul@b^0,c
  8722  001072  CFF3 F021          	movff	prodl,___flmul@temp
  8723  001076  CFF4 F022          	movff	prodh,___flmul@temp+1
  8724  00107A  5021               	movf	___flmul@temp^0,w,c
  8725  00107C  6E17               	movwf	___flmul@grs^0,c
  8726  00107E  6A18               	clrf	(___flmul@grs+1)^0,c
  8727  001080  6A19               	clrf	(___flmul@grs+2)^0,c
  8728  001082  6A1A               	clrf	(___flmul@grs+3)^0,c
  8729  001084  5022               	movf	(___flmul@temp+1)^0,w,c
  8730  001086  6E1D               	movwf	___flmul@prod^0,c
  8731  001088  6A1E               	clrf	(___flmul@prod+1)^0,c
  8732  00108A  6A1F               	clrf	(___flmul@prod+2)^0,c
  8733  00108C  6A20               	clrf	(___flmul@prod+3)^0,c
  8734  00108E  500F               	movf	(___flmul@a+1)^0,w,c
  8735  001090  020B               	mulwf	(___flmul@b+1)^0,c
  8736  001092  CFF3 F021          	movff	prodl,___flmul@temp
  8737  001096  CFF4 F022          	movff	prodh,___flmul@temp+1
  8738  00109A  5021               	movf	___flmul@temp^0,w,c
  8739  00109C  2617               	addwf	___flmul@grs^0,f,c
  8740  00109E  0E00               	movlw	0
  8741  0010A0  2218               	addwfc	(___flmul@grs+1)^0,f,c
  8742  0010A2  2219               	addwfc	(___flmul@grs+2)^0,f,c
  8743  0010A4  221A               	addwfc	(___flmul@grs+3)^0,f,c
  8744  0010A6  5022               	movf	(___flmul@temp+1)^0,w,c
  8745  0010A8  261D               	addwf	___flmul@prod^0,f,c
  8746  0010AA  0E00               	movlw	0
  8747  0010AC  221E               	addwfc	(___flmul@prod+1)^0,f,c
  8748  0010AE  221F               	addwfc	(___flmul@prod+2)^0,f,c
  8749  0010B0  2220               	addwfc	(___flmul@prod+3)^0,f,c
  8750  0010B2  500E               	movf	___flmul@a^0,w,c
  8751  0010B4  020C               	mulwf	(___flmul@b+2)^0,c
  8752  0010B6  CFF3 F021          	movff	prodl,___flmul@temp
  8753  0010BA  CFF4 F022          	movff	prodh,___flmul@temp+1
  8754  0010BE  5021               	movf	___flmul@temp^0,w,c
  8755  0010C0  2617               	addwf	___flmul@grs^0,f,c
  8756  0010C2  0E00               	movlw	0
  8757  0010C4  2218               	addwfc	(___flmul@grs+1)^0,f,c
  8758  0010C6  2219               	addwfc	(___flmul@grs+2)^0,f,c
  8759  0010C8  221A               	addwfc	(___flmul@grs+3)^0,f,c
  8760  0010CA  5022               	movf	(___flmul@temp+1)^0,w,c
  8761  0010CC  261D               	addwf	___flmul@prod^0,f,c
  8762  0010CE  0E00               	movlw	0
  8763  0010D0  221E               	addwfc	(___flmul@prod+1)^0,f,c
  8764  0010D2  221F               	addwfc	(___flmul@prod+2)^0,f,c
  8765  0010D4  2220               	addwfc	(___flmul@prod+3)^0,f,c
  8766  0010D6  C019  F01A         	movff	___flmul@grs+2,___flmul@grs+3
  8767  0010DA  C018  F019         	movff	___flmul@grs+1,___flmul@grs+2
  8768  0010DE  C017  F018         	movff	___flmul@grs,___flmul@grs+1
  8769  0010E2  6A17               	clrf	___flmul@grs^0,c
  8770  0010E4  500E               	movf	___flmul@a^0,w,c
  8771  0010E6  020B               	mulwf	(___flmul@b+1)^0,c
  8772  0010E8  CFF3 F021          	movff	prodl,___flmul@temp
  8773  0010EC  CFF4 F022          	movff	prodh,___flmul@temp+1
  8774  0010F0  5021               	movf	___flmul@temp^0,w,c
  8775  0010F2  2617               	addwf	___flmul@grs^0,f,c
  8776  0010F4  5022               	movf	(___flmul@temp+1)^0,w,c
  8777  0010F6  2218               	addwfc	(___flmul@grs+1)^0,f,c
  8778  0010F8  0E00               	movlw	0
  8779  0010FA  2219               	addwfc	(___flmul@grs+2)^0,f,c
  8780  0010FC  0E00               	movlw	0
  8781  0010FE  221A               	addwfc	(___flmul@grs+3)^0,f,c
  8782  001100  500F               	movf	(___flmul@a+1)^0,w,c
  8783  001102  020A               	mulwf	___flmul@b^0,c
  8784  001104  CFF3 F021          	movff	prodl,___flmul@temp
  8785  001108  CFF4 F022          	movff	prodh,___flmul@temp+1
  8786  00110C  5021               	movf	___flmul@temp^0,w,c
  8787  00110E  2617               	addwf	___flmul@grs^0,f,c
  8788  001110  5022               	movf	(___flmul@temp+1)^0,w,c
  8789  001112  2218               	addwfc	(___flmul@grs+1)^0,f,c
  8790  001114  0E00               	movlw	0
  8791  001116  2219               	addwfc	(___flmul@grs+2)^0,f,c
  8792  001118  0E00               	movlw	0
  8793  00111A  221A               	addwfc	(___flmul@grs+3)^0,f,c
  8794  00111C  C019  F01A         	movff	___flmul@grs+2,___flmul@grs+3
  8795  001120  C018  F019         	movff	___flmul@grs+1,___flmul@grs+2
  8796  001124  C017  F018         	movff	___flmul@grs,___flmul@grs+1
  8797  001128  6A17               	clrf	___flmul@grs^0,c
  8798  00112A  500E               	movf	___flmul@a^0,w,c
  8799  00112C  020A               	mulwf	___flmul@b^0,c
  8800  00112E  CFF3 F021          	movff	prodl,___flmul@temp
  8801  001132  CFF4 F022          	movff	prodh,___flmul@temp+1
  8802  001136  5021               	movf	___flmul@temp^0,w,c
  8803  001138  2617               	addwf	___flmul@grs^0,f,c
  8804  00113A  5022               	movf	(___flmul@temp+1)^0,w,c
  8805  00113C  2218               	addwfc	(___flmul@grs+1)^0,f,c
  8806  00113E  0E00               	movlw	0
  8807  001140  2219               	addwfc	(___flmul@grs+2)^0,f,c
  8808  001142  0E00               	movlw	0
  8809  001144  221A               	addwfc	(___flmul@grs+3)^0,f,c
  8810  001146  5010               	movf	(___flmul@a+2)^0,w,c
  8811  001148  020B               	mulwf	(___flmul@b+1)^0,c
  8812  00114A  CFF3 F021          	movff	prodl,___flmul@temp
  8813  00114E  CFF4 F022          	movff	prodh,___flmul@temp+1
  8814  001152  5021               	movf	___flmul@temp^0,w,c
  8815  001154  261D               	addwf	___flmul@prod^0,f,c
  8816  001156  5022               	movf	(___flmul@temp+1)^0,w,c
  8817  001158  221E               	addwfc	(___flmul@prod+1)^0,f,c
  8818  00115A  0E00               	movlw	0
  8819  00115C  221F               	addwfc	(___flmul@prod+2)^0,f,c
  8820  00115E  0E00               	movlw	0
  8821  001160  2220               	addwfc	(___flmul@prod+3)^0,f,c
  8822  001162  500F               	movf	(___flmul@a+1)^0,w,c
  8823  001164  020C               	mulwf	(___flmul@b+2)^0,c
  8824  001166  CFF3 F021          	movff	prodl,___flmul@temp
  8825  00116A  CFF4 F022          	movff	prodh,___flmul@temp+1
  8826  00116E  5021               	movf	___flmul@temp^0,w,c
  8827  001170  261D               	addwf	___flmul@prod^0,f,c
  8828  001172  5022               	movf	(___flmul@temp+1)^0,w,c
  8829  001174  221E               	addwfc	(___flmul@prod+1)^0,f,c
  8830  001176  0E00               	movlw	0
  8831  001178  221F               	addwfc	(___flmul@prod+2)^0,f,c
  8832  00117A  0E00               	movlw	0
  8833  00117C  2220               	addwfc	(___flmul@prod+3)^0,f,c
  8834  00117E  5010               	movf	(___flmul@a+2)^0,w,c
  8835  001180  020C               	mulwf	(___flmul@b+2)^0,c
  8836  001182  CFF3 F021          	movff	prodl,___flmul@temp
  8837  001186  CFF4 F022          	movff	prodh,___flmul@temp+1
  8838  00118A  5021               	movf	___flmul@temp^0,w,c
  8839  00118C  6E12               	movwf	??___flmul^0,c
  8840  00118E  5022               	movf	(___flmul@temp+1)^0,w,c
  8841  001190  6E13               	movwf	(??___flmul+1)^0,c
  8842  001192  6A14               	clrf	(??___flmul+2)^0,c
  8843  001194  6A15               	clrf	(??___flmul+3)^0,c
  8844  001196  C014  F015         	movff	??___flmul+2,??___flmul+3
  8845  00119A  C013  F014         	movff	??___flmul+1,??___flmul+2
  8846  00119E  C012  F013         	movff	??___flmul,??___flmul+1
  8847  0011A2  6A12               	clrf	??___flmul^0,c
  8848  0011A4  5012               	movf	??___flmul^0,w,c
  8849  0011A6  261D               	addwf	___flmul@prod^0,f,c
  8850  0011A8  5013               	movf	(??___flmul+1)^0,w,c
  8851  0011AA  221E               	addwfc	(___flmul@prod+1)^0,f,c
  8852  0011AC  5014               	movf	(??___flmul+2)^0,w,c
  8853  0011AE  221F               	addwfc	(___flmul@prod+2)^0,f,c
  8854  0011B0  5015               	movf	(??___flmul+3)^0,w,c
  8855  0011B2  2220               	addwfc	(___flmul@prod+3)^0,f,c
  8856  0011B4  C017  F012         	movff	___flmul@grs,??___flmul
  8857  0011B8  C018  F013         	movff	___flmul@grs+1,??___flmul+1
  8858  0011BC  C019  F014         	movff	___flmul@grs+2,??___flmul+2
  8859  0011C0  C01A  F015         	movff	___flmul@grs+3,??___flmul+3
  8860  0011C4  0E19               	movlw	25
  8861  0011C6  EFEB  F008         	goto	u3570
  8862  0011CA                     u3575:
  8863  0011CA  FFFF               	dw	65535	; assembler added errata NOP
  8864  0011CC  90D8               	bcf	status,0,c
  8865  0011CE  3215               	rrcf	(??___flmul+3)^0,f,c
  8866  0011D0  3214               	rrcf	(??___flmul+2)^0,f,c
  8867  0011D2  3213               	rrcf	(??___flmul+1)^0,f,c
  8868  0011D4  3212               	rrcf	??___flmul^0,f,c
  8869  0011D6                     u3570:
  8870  0011D6  FFFF               	dw	65535	; assembler added errata NOP
  8871  0011D8  2EE8               	decfsz	wreg,f,c
  8872  0011DA  EFE5  F008         	goto	u3575
  8873  0011DE  5012               	movf	??___flmul^0,w,c
  8874  0011E0  261D               	addwf	___flmul@prod^0,f,c
  8875  0011E2  5013               	movf	(??___flmul+1)^0,w,c
  8876  0011E4  221E               	addwfc	(___flmul@prod+1)^0,f,c
  8877  0011E6  5014               	movf	(??___flmul+2)^0,w,c
  8878  0011E8  221F               	addwfc	(___flmul@prod+2)^0,f,c
  8879  0011EA  5015               	movf	(??___flmul+3)^0,w,c
  8880  0011EC  2220               	addwfc	(___flmul@prod+3)^0,f,c
  8881  0011EE  C019  F01A         	movff	___flmul@grs+2,___flmul@grs+3
  8882  0011F2  C018  F019         	movff	___flmul@grs+1,___flmul@grs+2
  8883  0011F6  C017  F018         	movff	___flmul@grs,___flmul@grs+1
  8884  0011FA  6A17               	clrf	___flmul@grs^0,c
  8885  0011FC  501B               	movf	___flmul@aexp^0,w,c
  8886  0011FE  C01C  F012         	movff	___flmul@bexp,??___flmul
  8887  001202  6A13               	clrf	(??___flmul+1)^0,c
  8888  001204  2612               	addwf	??___flmul^0,f,c
  8889  001206  0E00               	movlw	0
  8890  001208  2213               	addwfc	(??___flmul+1)^0,f,c
  8891  00120A  0E82               	movlw	130
  8892  00120C  2412               	addwf	??___flmul^0,w,c
  8893  00120E  6E21               	movwf	___flmul@temp^0,c
  8894  001210  0EFF               	movlw	255
  8895  001212  2013               	addwfc	(??___flmul+1)^0,w,c
  8896  001214  6E22               	movwf	(___flmul@temp+1)^0,c
  8897  001216  EF26  F009         	goto	l3575
  8898  00121A                     l3569:
  8899  00121A  FFFF               	dw	65535	; assembler added errata NOP
  8900  00121C  90D8               	bcf	status,0,c
  8901  00121E  361D               	rlcf	___flmul@prod^0,f,c
  8902  001220  361E               	rlcf	(___flmul@prod+1)^0,f,c
  8903  001222  361F               	rlcf	(___flmul@prod+2)^0,f,c
  8904  001224  3620               	rlcf	(___flmul@prod+3)^0,f,c
  8905  001226  AE1A               	btfss	(___flmul@grs+3)^0,7,c
  8906  001228  EF18  F009         	goto	u3581
  8907  00122C  EF1B  F009         	goto	u3580
  8908  001230                     u3581:
  8909  001230  FFFF               	dw	65535	; assembler added errata NOP
  8910  001232  EF1D  F009         	goto	l1131
  8911  001236                     u3580:
  8912  001236  FFFF               	dw	65535	; assembler added errata NOP
  8913  001238  801D               	bsf	___flmul@prod^0,0,c
  8914  00123A                     l1131:
  8915  00123A  FFFF               	dw	65535	; assembler added errata NOP
  8916  00123C  90D8               	bcf	status,0,c
  8917  00123E  3617               	rlcf	___flmul@grs^0,f,c
  8918  001240  3618               	rlcf	(___flmul@grs+1)^0,f,c
  8919  001242  3619               	rlcf	(___flmul@grs+2)^0,f,c
  8920  001244  361A               	rlcf	(___flmul@grs+3)^0,f,c
  8921  001246  0621               	decf	___flmul@temp^0,f,c
  8922  001248  A0D8               	btfss	status,0,c
  8923  00124A  0622               	decf	(___flmul@temp+1)^0,f,c
  8924  00124C                     l3575:
  8925  00124C  FFFF               	dw	65535	; assembler added errata NOP
  8926  00124E  AE1F               	btfss	(___flmul@prod+2)^0,7,c
  8927  001250  EF2C  F009         	goto	u3591
  8928  001254  EF2F  F009         	goto	u3590
  8929  001258                     u3591:
  8930  001258  FFFF               	dw	65535	; assembler added errata NOP
  8931  00125A  EF0D  F009         	goto	l3569
  8932  00125E                     u3590:
  8933  00125E  FFFF               	dw	65535	; assembler added errata NOP
  8934  001260  0E00               	movlw	0
  8935  001262  6E1B               	movwf	___flmul@aexp^0,c
  8936  001264  AE1A               	btfss	(___flmul@grs+3)^0,7,c
  8937  001266  EF37  F009         	goto	u3601
  8938  00126A  EF3A  F009         	goto	u3600
  8939  00126E                     u3601:
  8940  00126E  FFFF               	dw	65535	; assembler added errata NOP
  8941  001270  EF65  F009         	goto	l1133
  8942  001274                     u3600:
  8943  001274  FFFF               	dw	65535	; assembler added errata NOP
  8944  001276  0EFF               	movlw	255
  8945  001278  1417               	andwf	___flmul@grs^0,w,c
  8946  00127A  6E12               	movwf	??___flmul^0,c
  8947  00127C  0EFF               	movlw	255
  8948  00127E  1418               	andwf	(___flmul@grs+1)^0,w,c
  8949  001280  6E13               	movwf	(??___flmul+1)^0,c
  8950  001282  0EFF               	movlw	255
  8951  001284  1419               	andwf	(___flmul@grs+2)^0,w,c
  8952  001286  6E14               	movwf	(??___flmul+2)^0,c
  8953  001288  0E7F               	movlw	127
  8954  00128A  141A               	andwf	(___flmul@grs+3)^0,w,c
  8955  00128C  6E15               	movwf	(??___flmul+3)^0,c
  8956  00128E  5012               	movf	??___flmul^0,w,c
  8957  001290  1013               	iorwf	(??___flmul+1)^0,w,c
  8958  001292  1014               	iorwf	(??___flmul+2)^0,w,c
  8959  001294  1015               	iorwf	(??___flmul+3)^0,w,c
  8960  001296  B4D8               	btfsc	status,2,c
  8961  001298  EF50  F009         	goto	u3611
  8962  00129C  EF53  F009         	goto	u3610
  8963  0012A0                     u3611:
  8964  0012A0  FFFF               	dw	65535	; assembler added errata NOP
  8965  0012A2  EF59  F009         	goto	l1134
  8966  0012A6                     u3610:
  8967  0012A6  FFFF               	dw	65535	; assembler added errata NOP
  8968  0012A8                     l3583:
  8969  0012A8  FFFF               	dw	65535	; assembler added errata NOP
  8970  0012AA  0E01               	movlw	1
  8971  0012AC  6E1B               	movwf	___flmul@aexp^0,c
  8972  0012AE  EF65  F009         	goto	l1133
  8973  0012B2                     l1134:
  8974  0012B2  FFFF               	dw	65535	; assembler added errata NOP
  8975  0012B4  A01D               	btfss	___flmul@prod^0,0,c
  8976  0012B6  EF5F  F009         	goto	u3621
  8977  0012BA  EF62  F009         	goto	u3620
  8978  0012BE                     u3621:
  8979  0012BE  FFFF               	dw	65535	; assembler added errata NOP
  8980  0012C0  EF65  F009         	goto	l1133
  8981  0012C4                     u3620:
  8982  0012C4  FFFF               	dw	65535	; assembler added errata NOP
  8983  0012C6  EF54  F009         	goto	l3583
  8984  0012CA                     l1133:
  8985  0012CA  FFFF               	dw	65535	; assembler added errata NOP
  8986  0012CC  501B               	movf	___flmul@aexp^0,w,c
  8987  0012CE  B4D8               	btfsc	status,2,c
  8988  0012D0  EF6C  F009         	goto	u3631
  8989  0012D4  EF6F  F009         	goto	u3630
  8990  0012D8                     u3631:
  8991  0012D8  FFFF               	dw	65535	; assembler added errata NOP
  8992  0012DA  EF96  F009         	goto	l3595
  8993  0012DE                     u3630:
  8994  0012DE  FFFF               	dw	65535	; assembler added errata NOP
  8995  0012E0  0E01               	movlw	1
  8996  0012E2  261D               	addwf	___flmul@prod^0,f,c
  8997  0012E4  0E00               	movlw	0
  8998  0012E6  221E               	addwfc	(___flmul@prod+1)^0,f,c
  8999  0012E8  221F               	addwfc	(___flmul@prod+2)^0,f,c
  9000  0012EA  2220               	addwfc	(___flmul@prod+3)^0,f,c
  9001  0012EC  A020               	btfss	(___flmul@prod+3)^0,0,c
  9002  0012EE  EF7B  F009         	goto	u3641
  9003  0012F2  EF7E  F009         	goto	u3640
  9004  0012F6                     u3641:
  9005  0012F6  FFFF               	dw	65535	; assembler added errata NOP
  9006  0012F8  EF96  F009         	goto	l3595
  9007  0012FC                     u3640:
  9008  0012FC  FFFF               	dw	65535	; assembler added errata NOP
  9009  0012FE  C01D  F012         	movff	___flmul@prod,??___flmul
  9010  001302  C01E  F013         	movff	___flmul@prod+1,??___flmul+1
  9011  001306  C01F  F014         	movff	___flmul@prod+2,??___flmul+2
  9012  00130A  C020  F015         	movff	___flmul@prod+3,??___flmul+3
  9013  00130E  3415               	rlcf	(??___flmul+3)^0,w,c
  9014  001310  3215               	rrcf	(??___flmul+3)^0,f,c
  9015  001312  3214               	rrcf	(??___flmul+2)^0,f,c
  9016  001314  3213               	rrcf	(??___flmul+1)^0,f,c
  9017  001316  3212               	rrcf	??___flmul^0,f,c
  9018  001318  C012  F01D         	movff	??___flmul,___flmul@prod
  9019  00131C  C013  F01E         	movff	??___flmul+1,___flmul@prod+1
  9020  001320  C014  F01F         	movff	??___flmul+2,___flmul@prod+2
  9021  001324  C015  F020         	movff	??___flmul+3,___flmul@prod+3
  9022  001328  4A21               	infsnz	___flmul@temp^0,f,c
  9023  00132A  2A22               	incf	(___flmul@temp+1)^0,f,c
  9024  00132C                     l3595:
  9025  00132C  FFFF               	dw	65535	; assembler added errata NOP
  9026  00132E  BE22               	btfsc	(___flmul@temp+1)^0,7,c
  9027  001330  EFA2  F009         	goto	u3651
  9028  001334  5022               	movf	(___flmul@temp+1)^0,w,c
  9029  001336  E109               	bnz	u3650
  9030  001338  2821               	incf	___flmul@temp^0,w,c
  9031  00133A  A0D8               	btfss	status,0,c
  9032  00133C  EFA2  F009         	goto	u3651
  9033  001340  EFA5  F009         	goto	u3650
  9034  001344                     u3651:
  9035  001344  FFFF               	dw	65535	; assembler added errata NOP
  9036  001346  EFB0  F009         	goto	l3599
  9037  00134A                     u3650:
  9038  00134A  FFFF               	dw	65535	; assembler added errata NOP
  9039  00134C  0E00               	movlw	0
  9040  00134E  6E1D               	movwf	___flmul@prod^0,c
  9041  001350  0E00               	movlw	0
  9042  001352  6E1E               	movwf	(___flmul@prod+1)^0,c
  9043  001354  0E80               	movlw	128
  9044  001356  6E1F               	movwf	(___flmul@prod+2)^0,c
  9045  001358  0E7F               	movlw	127
  9046  00135A  6E20               	movwf	(___flmul@prod+3)^0,c
  9047  00135C  EFE5  F009         	goto	l3611
  9048  001360                     l3599:
  9049  001360  FFFF               	dw	65535	; assembler added errata NOP
  9050  001362  BE22               	btfsc	(___flmul@temp+1)^0,7,c
  9051  001364  EFBF  F009         	goto	u3660
  9052  001368  5022               	movf	(___flmul@temp+1)^0,w,c
  9053  00136A  E106               	bnz	u3661
  9054  00136C  0421               	decf	___flmul@temp^0,w,c
  9055  00136E  B0D8               	btfsc	status,0,c
  9056  001370  EFBC  F009         	goto	u3661
  9057  001374  EFBF  F009         	goto	u3660
  9058  001378                     u3661:
  9059  001378  FFFF               	dw	65535	; assembler added errata NOP
  9060  00137A  EFCC  F009         	goto	l1141
  9061  00137E                     u3660:
  9062  00137E  FFFF               	dw	65535	; assembler added errata NOP
  9063  001380  0E00               	movlw	0
  9064  001382  6E1D               	movwf	___flmul@prod^0,c
  9065  001384  0E00               	movlw	0
  9066  001386  6E1E               	movwf	(___flmul@prod+1)^0,c
  9067  001388  0E00               	movlw	0
  9068  00138A  6E1F               	movwf	(___flmul@prod+2)^0,c
  9069  00138C  0E00               	movlw	0
  9070  00138E  6E20               	movwf	(___flmul@prod+3)^0,c
  9071  001390  0E00               	movlw	0
  9072  001392  6E16               	movwf	___flmul@sign^0,c
  9073  001394  EFE5  F009         	goto	l3611
  9074  001398                     l1141:
  9075  001398  FFFF               	dw	65535	; assembler added errata NOP
  9076  00139A  C021  F01C         	movff	___flmul@temp,___flmul@bexp
  9077  00139E  0EFF               	movlw	255
  9078  0013A0  161D               	andwf	___flmul@prod^0,f,c
  9079  0013A2  0EFF               	movlw	255
  9080  0013A4  161E               	andwf	(___flmul@prod+1)^0,f,c
  9081  0013A6  0E7F               	movlw	127
  9082  0013A8  161F               	andwf	(___flmul@prod+2)^0,f,c
  9083  0013AA  0E00               	movlw	0
  9084  0013AC  1620               	andwf	(___flmul@prod+3)^0,f,c
  9085  0013AE  A01C               	btfss	___flmul@bexp^0,0,c
  9086  0013B0  EFDC  F009         	goto	u3671
  9087  0013B4  EFDF  F009         	goto	u3670
  9088  0013B8                     u3671:
  9089  0013B8  FFFF               	dw	65535	; assembler added errata NOP
  9090  0013BA  EFE1  F009         	goto	l3609
  9091  0013BE                     u3670:
  9092  0013BE  FFFF               	dw	65535	; assembler added errata NOP
  9093  0013C0  8E1F               	bsf	(___flmul@prod+2)^0,7,c
  9094  0013C2                     l3609:
  9095  0013C2  FFFF               	dw	65535	; assembler added errata NOP
  9096  0013C4  90D8               	bcf	status,0,c
  9097  0013C6  301C               	rrcf	___flmul@bexp^0,w,c
  9098  0013C8  6E20               	movwf	(___flmul@prod+3)^0,c
  9099  0013CA                     l3611:
  9100  0013CA  FFFF               	dw	65535	; assembler added errata NOP
  9101  0013CC  5016               	movf	___flmul@sign^0,w,c
  9102  0013CE  1220               	iorwf	(___flmul@prod+3)^0,f,c
  9103  0013D0  C01D  F00A         	movff	___flmul@prod,?___flmul
  9104  0013D4  C01E  F00B         	movff	___flmul@prod+1,?___flmul+1
  9105  0013D8  C01F  F00C         	movff	___flmul@prod+2,?___flmul+2
  9106  0013DC  C020  F00D         	movff	___flmul@prod+3,?___flmul+3
  9107  0013E0                     l1128:
  9108  0013E0  FFFF               	dw	65535	; assembler added errata NOP
  9109  0013E2  0012               	return		;funcret
  9110  0013E4  FFFF               	dw	65535	; errata NOP
  9111  0013E6                     __end_of___flmul:
  9112                           	callstack 0
  9113                           
  9114 ;; *************** function ___flge *****************
  9115 ;; Defined at:
  9116 ;;		line 4 in file "/opt/microchip/xc8/v2.32/pic/sources/c99/common/flge.c"
  9117 ;; Parameters:    Size  Location     Type
  9118 ;;  ff1             4   48[COMRAM] unsigned char 
  9119 ;;  ff2             4   52[COMRAM] unsigned char 
  9120 ;; Auto vars:     Size  Location     Type
  9121 ;;		None
  9122 ;; Return value:  Size  Location     Type
  9123 ;;		None               void
  9124 ;; Registers used:
  9125 ;;		wreg, status,2, status,0
  9126 ;; Tracked objects:
  9127 ;;		On entry : 0/0
  9128 ;;		On exit  : 0/0
  9129 ;;		Unchanged: 0/0
  9130 ;; Data sizes:     COMRAM   BANK0   BANK1   BANK2   BANK3   BANK4   BANK5
  9131 ;;      Params:         8       0       0       0       0       0       0
  9132 ;;      Locals:         0       0       0       0       0       0       0
  9133 ;;      Temps:          4       0       0       0       0       0       0
  9134 ;;      Totals:        12       0       0       0       0       0       0
  9135 ;;Total ram usage:       12 bytes
  9136 ;; Hardware stack levels used: 1
  9137 ;; Hardware stack levels required when called: 2
  9138 ;; This function calls:
  9139 ;;		Nothing
  9140 ;; This function is called by:
  9141 ;;		_pick_and_place
  9142 ;;		_roundf
  9143 ;; This function uses a non-reentrant model
  9144 ;;
  9145                           
  9146                           	psect	text33
  9147  0026DA                     __ptext33:
  9148                           	callstack 0
  9149  0026DA                     ___flge:
  9150                           	callstack 0
  9151  0026DA  FFFF               	dw	65535	; assembler added errata NOP
  9152  0026DC  0E00               	movlw	0
  9153  0026DE  1431               	andwf	___flge@ff1^0,w,c
  9154  0026E0  6E39               	movwf	??___flge^0,c
  9155  0026E2  0E00               	movlw	0
  9156  0026E4  1432               	andwf	(___flge@ff1+1)^0,w,c
  9157  0026E6  6E3A               	movwf	(??___flge+1)^0,c
  9158  0026E8  0E80               	movlw	128
  9159  0026EA  1433               	andwf	(___flge@ff1+2)^0,w,c
  9160  0026EC  6E3B               	movwf	(??___flge+2)^0,c
  9161  0026EE  0E7F               	movlw	127
  9162  0026F0  1434               	andwf	(___flge@ff1+3)^0,w,c
  9163  0026F2  6E3C               	movwf	(??___flge+3)^0,c
  9164  0026F4  5039               	movf	??___flge^0,w,c
  9165  0026F6  103A               	iorwf	(??___flge+1)^0,w,c
  9166  0026F8  103B               	iorwf	(??___flge+2)^0,w,c
  9167  0026FA  103C               	iorwf	(??___flge+3)^0,w,c
  9168  0026FC  A4D8               	btfss	status,2,c
  9169  0026FE  EF83  F013         	goto	u5291
  9170  002702  EF86  F013         	goto	u5290
  9171  002706                     u5291:
  9172  002706  FFFF               	dw	65535	; assembler added errata NOP
  9173  002708  EF8F  F013         	goto	l4673
  9174  00270C                     u5290:
  9175  00270C  FFFF               	dw	65535	; assembler added errata NOP
  9176  00270E  0E00               	movlw	0
  9177  002710  6E31               	movwf	___flge@ff1^0,c
  9178  002712  0E00               	movlw	0
  9179  002714  6E32               	movwf	(___flge@ff1+1)^0,c
  9180  002716  0E00               	movlw	0
  9181  002718  6E33               	movwf	(___flge@ff1+2)^0,c
  9182  00271A  0E00               	movlw	0
  9183  00271C  6E34               	movwf	(___flge@ff1+3)^0,c
  9184  00271E                     l4673:
  9185  00271E  FFFF               	dw	65535	; assembler added errata NOP
  9186  002720  0E00               	movlw	0
  9187  002722  1435               	andwf	___flge@ff2^0,w,c
  9188  002724  6E39               	movwf	??___flge^0,c
  9189  002726  0E00               	movlw	0
  9190  002728  1436               	andwf	(___flge@ff2+1)^0,w,c
  9191  00272A  6E3A               	movwf	(??___flge+1)^0,c
  9192  00272C  0E80               	movlw	128
  9193  00272E  1437               	andwf	(___flge@ff2+2)^0,w,c
  9194  002730  6E3B               	movwf	(??___flge+2)^0,c
  9195  002732  0E7F               	movlw	127
  9196  002734  1438               	andwf	(___flge@ff2+3)^0,w,c
  9197  002736  6E3C               	movwf	(??___flge+3)^0,c
  9198  002738  5039               	movf	??___flge^0,w,c
  9199  00273A  103A               	iorwf	(??___flge+1)^0,w,c
  9200  00273C  103B               	iorwf	(??___flge+2)^0,w,c
  9201  00273E  103C               	iorwf	(??___flge+3)^0,w,c
  9202  002740  A4D8               	btfss	status,2,c
  9203  002742  EFA5  F013         	goto	u5301
  9204  002746  EFA8  F013         	goto	u5300
  9205  00274A                     u5301:
  9206  00274A  FFFF               	dw	65535	; assembler added errata NOP
  9207  00274C  EFB1  F013         	goto	l4677
  9208  002750                     u5300:
  9209  002750  FFFF               	dw	65535	; assembler added errata NOP
  9210  002752  0E00               	movlw	0
  9211  002754  6E35               	movwf	___flge@ff2^0,c
  9212  002756  0E00               	movlw	0
  9213  002758  6E36               	movwf	(___flge@ff2+1)^0,c
  9214  00275A  0E00               	movlw	0
  9215  00275C  6E37               	movwf	(___flge@ff2+2)^0,c
  9216  00275E  0E00               	movlw	0
  9217  002760  6E38               	movwf	(___flge@ff2+3)^0,c
  9218  002762                     l4677:
  9219  002762  FFFF               	dw	65535	; assembler added errata NOP
  9220  002764  AE34               	btfss	(___flge@ff1+3)^0,7,c
  9221  002766  EFB7  F013         	goto	u5311
  9222  00276A  EFBA  F013         	goto	u5310
  9223  00276E                     u5311:
  9224  00276E  FFFF               	dw	65535	; assembler added errata NOP
  9225  002770  EFC4  F013         	goto	l4681
  9226  002774                     u5310:
  9227  002774  FFFF               	dw	65535	; assembler added errata NOP
  9228  002776  6C31               	negf	___flge@ff1^0,c
  9229  002778  1E32               	comf	(___flge@ff1+1)^0,f,c
  9230  00277A  B0D8               	btfsc	status,0,c
  9231  00277C  2A32               	incf	(___flge@ff1+1)^0,f,c
  9232  00277E  1E33               	comf	(___flge@ff1+2)^0,f,c
  9233  002780  B0D8               	btfsc	status,0,c
  9234  002782  2A33               	incf	(___flge@ff1+2)^0,f,c
  9235  002784  0E80               	movlw	128
  9236  002786  5634               	subfwb	(___flge@ff1+3)^0,f,c
  9237  002788                     l4681:
  9238  002788  FFFF               	dw	65535	; assembler added errata NOP
  9239  00278A  AE38               	btfss	(___flge@ff2+3)^0,7,c
  9240  00278C  EFCA  F013         	goto	u5321
  9241  002790  EFCD  F013         	goto	u5320
  9242  002794                     u5321:
  9243  002794  FFFF               	dw	65535	; assembler added errata NOP
  9244  002796  EFD7  F013         	goto	l775
  9245  00279A                     u5320:
  9246  00279A  FFFF               	dw	65535	; assembler added errata NOP
  9247  00279C  6C35               	negf	___flge@ff2^0,c
  9248  00279E  1E36               	comf	(___flge@ff2+1)^0,f,c
  9249  0027A0  B0D8               	btfsc	status,0,c
  9250  0027A2  2A36               	incf	(___flge@ff2+1)^0,f,c
  9251  0027A4  1E37               	comf	(___flge@ff2+2)^0,f,c
  9252  0027A6  B0D8               	btfsc	status,0,c
  9253  0027A8  2A37               	incf	(___flge@ff2+2)^0,f,c
  9254  0027AA  0E80               	movlw	128
  9255  0027AC  5638               	subfwb	(___flge@ff2+3)^0,f,c
  9256  0027AE                     l775:
  9257  0027AE  FFFF               	dw	65535	; assembler added errata NOP
  9258  0027B0  0E00               	movlw	0
  9259  0027B2  1A31               	xorwf	___flge@ff1^0,f,c
  9260  0027B4  0E00               	movlw	0
  9261  0027B6  1A32               	xorwf	(___flge@ff1+1)^0,f,c
  9262  0027B8  0E00               	movlw	0
  9263  0027BA  1A33               	xorwf	(___flge@ff1+2)^0,f,c
  9264  0027BC  0E80               	movlw	128
  9265  0027BE  1A34               	xorwf	(___flge@ff1+3)^0,f,c
  9266  0027C0  0E00               	movlw	0
  9267  0027C2  1A35               	xorwf	___flge@ff2^0,f,c
  9268  0027C4  0E00               	movlw	0
  9269  0027C6  1A36               	xorwf	(___flge@ff2+1)^0,f,c
  9270  0027C8  0E00               	movlw	0
  9271  0027CA  1A37               	xorwf	(___flge@ff2+2)^0,f,c
  9272  0027CC  0E80               	movlw	128
  9273  0027CE  1A38               	xorwf	(___flge@ff2+3)^0,f,c
  9274  0027D0  5035               	movf	___flge@ff2^0,w,c
  9275  0027D2  5C31               	subwf	___flge@ff1^0,w,c
  9276  0027D4  5036               	movf	(___flge@ff2+1)^0,w,c
  9277  0027D6  5832               	subwfb	(___flge@ff1+1)^0,w,c
  9278  0027D8  5037               	movf	(___flge@ff2+2)^0,w,c
  9279  0027DA  5833               	subwfb	(___flge@ff1+2)^0,w,c
  9280  0027DC  5038               	movf	(___flge@ff2+3)^0,w,c
  9281  0027DE  5834               	subwfb	(___flge@ff1+3)^0,w,c
  9282  0027E0  B0D8               	btfsc	status,0,c
  9283  0027E2  EFF5  F013         	goto	u5331
  9284  0027E6  EFF8  F013         	goto	u5330
  9285  0027EA                     u5331:
  9286  0027EA  FFFF               	dw	65535	; assembler added errata NOP
  9287  0027EC  EFFC  F013         	goto	l4687
  9288  0027F0                     u5330:
  9289  0027F0  FFFF               	dw	65535	; assembler added errata NOP
  9290  0027F2  90D8               	bcf	status,0,c
  9291  0027F4  EFFE  F013         	goto	l780
  9292  0027F8                     l4687:
  9293  0027F8  FFFF               	dw	65535	; assembler added errata NOP
  9294  0027FA  80D8               	bsf	status,0,c
  9295  0027FC                     l780:
  9296  0027FC  FFFF               	dw	65535	; assembler added errata NOP
  9297  0027FE  0012               	return		;funcret
  9298  002800  FFFF               	dw	65535	; errata NOP
  9299  002802                     __end_of___flge:
  9300                           	callstack 0
  9301                           
  9302 ;; *************** function ___fltol *****************
  9303 ;; Defined at:
  9304 ;;		line 43 in file "/opt/microchip/xc8/v2.32/pic/sources/c99/common/fltol.c"
  9305 ;; Parameters:    Size  Location     Type
  9306 ;;  f1              4   86[COMRAM] unsigned char 
  9307 ;; Auto vars:     Size  Location     Type
  9308 ;;  exp1            1   91[COMRAM] unsigned char 
  9309 ;;  sign1           1   90[COMRAM] unsigned char 
  9310 ;; Return value:  Size  Location     Type
  9311 ;;                  4   86[COMRAM] long 
  9312 ;; Registers used:
  9313 ;;		wreg, status,2, status,0
  9314 ;; Tracked objects:
  9315 ;;		On entry : 0/0
  9316 ;;		On exit  : 0/0
  9317 ;;		Unchanged: 0/0
  9318 ;; Data sizes:     COMRAM   BANK0   BANK1   BANK2   BANK3   BANK4   BANK5
  9319 ;;      Params:         4       0       0       0       0       0       0
  9320 ;;      Locals:         2       0       0       0       0       0       0
  9321 ;;      Temps:          0       4       0       0       0       0       0
  9322 ;;      Totals:         6       4       0       0       0       0       0
  9323 ;;Total ram usage:       10 bytes
  9324 ;; Hardware stack levels used: 1
  9325 ;; Hardware stack levels required when called: 2
  9326 ;; This function calls:
  9327 ;;		Nothing
  9328 ;; This function is called by:
  9329 ;;		_init_USART
  9330 ;; This function uses a non-reentrant model
  9331 ;;
  9332                           
  9333                           	psect	text34
  9334  0025A2                     __ptext34:
  9335                           	callstack 0
  9336  0025A2                     ___fltol:
  9337                           	callstack 0
  9338  0025A2  FFFF               	dw	65535	; assembler added errata NOP
  9339  0025A4  3459               	rlcf	(___fltol@f1+2)^0,w,c
  9340  0025A6  345A               	rlcf	(___fltol@f1+3)^0,w,c
  9341  0025A8  6E5C               	movwf	___fltol@exp1^0,c
  9342  0025AA  505C               	movf	___fltol@exp1^0,w,c
  9343  0025AC  A4D8               	btfss	status,2,c
  9344  0025AE  EFDB  F012         	goto	u6131
  9345  0025B2  EFDE  F012         	goto	u6130
  9346  0025B6                     u6131:
  9347  0025B6  FFFF               	dw	65535	; assembler added errata NOP
  9348  0025B8  EFEA  F012         	goto	l5107
  9349  0025BC                     u6130:
  9350  0025BC  FFFF               	dw	65535	; assembler added errata NOP
  9351  0025BE                     l5103:
  9352  0025BE  FFFF               	dw	65535	; assembler added errata NOP
  9353  0025C0  0E00               	movlw	0
  9354  0025C2  6E57               	movwf	?___fltol^0,c
  9355  0025C4  0E00               	movlw	0
  9356  0025C6  6E58               	movwf	(?___fltol+1)^0,c
  9357  0025C8  0E00               	movlw	0
  9358  0025CA  6E59               	movwf	(?___fltol+2)^0,c
  9359  0025CC  0E00               	movlw	0
  9360  0025CE  6E5A               	movwf	(?___fltol+3)^0,c
  9361  0025D0  EF6A  F013         	goto	l807
  9362  0025D4                     l5107:
  9363  0025D4  FFFF               	dw	65535	; assembler added errata NOP
  9364  0025D6  C057  F0E0         	movff	___fltol@f1,??___fltol
  9365  0025DA  C058  F0E1         	movff	___fltol@f1+1,??___fltol+1
  9366  0025DE  C059  F0E2         	movff	___fltol@f1+2,??___fltol+2
  9367  0025E2  C05A  F0E3         	movff	___fltol@f1+3,??___fltol+3
  9368  0025E6  0E20               	movlw	32
  9369  0025E8  EFFD  F012         	goto	u6140
  9370  0025EC                     u6145:
  9371  0025EC  FFFF               	dw	65535	; assembler added errata NOP
  9372  0025EE  0100               	movlb	0	; () banked
  9373  0025F0  90D8               	bcf	status,0,c
  9374  0025F2  33E3               	rrcf	(??___fltol+3)& (0+255),f,b
  9375  0025F4  33E2               	rrcf	(??___fltol+2)& (0+255),f,b
  9376  0025F6  33E1               	rrcf	(??___fltol+1)& (0+255),f,b
  9377  0025F8  33E0               	rrcf	??___fltol& (0+255),f,b
  9378  0025FA                     u6140:
  9379  0025FA  FFFF               	dw	65535	; assembler added errata NOP
  9380  0025FC  2EE8               	decfsz	wreg,f,c
  9381  0025FE  EFF6  F012         	goto	u6145
  9382  002602  51E0               	movf	??___fltol& (0+255),w,b
  9383  002604  6E5B               	movwf	___fltol@sign1^0,c
  9384  002606                     
  9385                           ; BSR set to: 0
  9386  002606  8E59               	bsf	(___fltol@f1+2)^0,7,c
  9387  002608                     
  9388                           ; BSR set to: 0
  9389  002608  0EFF               	movlw	255
  9390  00260A  1657               	andwf	___fltol@f1^0,f,c
  9391  00260C  0EFF               	movlw	255
  9392  00260E  1658               	andwf	(___fltol@f1+1)^0,f,c
  9393  002610  0EFF               	movlw	255
  9394  002612  1659               	andwf	(___fltol@f1+2)^0,f,c
  9395  002614  0E00               	movlw	0
  9396  002616  165A               	andwf	(___fltol@f1+3)^0,f,c
  9397  002618                     
  9398                           ; BSR set to: 0
  9399  002618  0E96               	movlw	150
  9400  00261A  5E5C               	subwf	___fltol@exp1^0,f,c
  9401  00261C                     
  9402                           ; BSR set to: 0
  9403  00261C  BE5C               	btfsc	___fltol@exp1^0,7,c
  9404  00261E  EF16  F013         	goto	u6150
  9405  002622  EF13  F013         	goto	u6151
  9406  002626                     u6151:
  9407  002626  FFFF               	dw	65535	; assembler added errata NOP
  9408  002628  EF30  F013         	goto	l5127
  9409  00262C                     u6150:
  9410  00262C  FFFF               	dw	65535	; assembler added errata NOP
  9411  00262E                     
  9412                           ; BSR set to: 0
  9413  00262E  505C               	movf	___fltol@exp1^0,w,c
  9414  002630  0A80               	xorlw	128
  9415  002632  0F97               	addlw	151
  9416  002634  B0D8               	btfsc	status,0,c
  9417  002636  EF1F  F013         	goto	u6161
  9418  00263A  EF22  F013         	goto	u6160
  9419  00263E                     u6161:
  9420  00263E  FFFF               	dw	65535	; assembler added errata NOP
  9421  002640  EF25  F013         	goto	l5123
  9422  002644                     u6160:
  9423  002644  FFFF               	dw	65535	; assembler added errata NOP
  9424  002646  EFDF  F012         	goto	l5103
  9425  00264A                     l5123:
  9426  00264A  FFFF               	dw	65535	; assembler added errata NOP
  9427  00264C  90D8               	bcf	status,0,c
  9428  00264E  325A               	rrcf	(___fltol@f1+3)^0,f,c
  9429  002650  3259               	rrcf	(___fltol@f1+2)^0,f,c
  9430  002652  3258               	rrcf	(___fltol@f1+1)^0,f,c
  9431  002654  3257               	rrcf	___fltol@f1^0,f,c
  9432  002656  3E5C               	incfsz	___fltol@exp1^0,f,c
  9433  002658  EF25  F013         	goto	l5123
  9434  00265C  EF4E  F013         	goto	l5137
  9435  002660                     l5127:
  9436  002660  FFFF               	dw	65535	; assembler added errata NOP
  9437                           
  9438                           ; BSR set to: 0
  9439  002662  0E1F               	movlw	31
  9440  002664  645C               	cpfsgt	___fltol@exp1^0,c
  9441  002666  EF37  F013         	goto	u6171
  9442  00266A  EF3A  F013         	goto	u6170
  9443  00266E                     u6171:
  9444  00266E  FFFF               	dw	65535	; assembler added errata NOP
  9445  002670  EF44  F013         	goto	l5135
  9446  002674                     u6170:
  9447  002674  FFFF               	dw	65535	; assembler added errata NOP
  9448  002676  EFDF  F012         	goto	l5103
  9449  00267A                     l5133:
  9450  00267A  FFFF               	dw	65535	; assembler added errata NOP
  9451  00267C  90D8               	bcf	status,0,c
  9452  00267E  3657               	rlcf	___fltol@f1^0,f,c
  9453  002680  3658               	rlcf	(___fltol@f1+1)^0,f,c
  9454  002682  3659               	rlcf	(___fltol@f1+2)^0,f,c
  9455  002684  365A               	rlcf	(___fltol@f1+3)^0,f,c
  9456  002686  065C               	decf	___fltol@exp1^0,f,c
  9457  002688                     l5135:
  9458  002688  FFFF               	dw	65535	; assembler added errata NOP
  9459  00268A  505C               	movf	___fltol@exp1^0,w,c
  9460  00268C  A4D8               	btfss	status,2,c
  9461  00268E  EF4B  F013         	goto	u6181
  9462  002692  EF4E  F013         	goto	u6180
  9463  002696                     u6181:
  9464  002696  FFFF               	dw	65535	; assembler added errata NOP
  9465  002698  EF3D  F013         	goto	l5133
  9466  00269C                     u6180:
  9467  00269C                     l5137:
  9468  00269C  FFFF               	dw	65535	; assembler added errata NOP
  9469  00269E  505B               	movf	___fltol@sign1^0,w,c
  9470  0026A0  B4D8               	btfsc	status,2,c
  9471  0026A2  EF55  F013         	goto	u6191
  9472  0026A6  EF58  F013         	goto	u6190
  9473  0026AA                     u6191:
  9474  0026AA  FFFF               	dw	65535	; assembler added errata NOP
  9475  0026AC  EF61  F013         	goto	l5141
  9476  0026B0                     u6190:
  9477  0026B0  FFFF               	dw	65535	; assembler added errata NOP
  9478  0026B2  1E5A               	comf	(___fltol@f1+3)^0,f,c
  9479  0026B4  1E59               	comf	(___fltol@f1+2)^0,f,c
  9480  0026B6  1E58               	comf	(___fltol@f1+1)^0,f,c
  9481  0026B8  6C57               	negf	___fltol@f1^0,c
  9482  0026BA  0E00               	movlw	0
  9483  0026BC  2258               	addwfc	(___fltol@f1+1)^0,f,c
  9484  0026BE  2259               	addwfc	(___fltol@f1+2)^0,f,c
  9485  0026C0  225A               	addwfc	(___fltol@f1+3)^0,f,c
  9486  0026C2                     l5141:
  9487  0026C2  FFFF               	dw	65535	; assembler added errata NOP
  9488  0026C4  C057  F057         	movff	___fltol@f1,?___fltol
  9489  0026C8  C058  F058         	movff	___fltol@f1+1,?___fltol+1
  9490  0026CC  C059  F059         	movff	___fltol@f1+2,?___fltol+2
  9491  0026D0  C05A  F05A         	movff	___fltol@f1+3,?___fltol+3
  9492  0026D4                     l807:
  9493  0026D4  FFFF               	dw	65535	; assembler added errata NOP
  9494  0026D6  0012               	return		;funcret
  9495  0026D8  FFFF               	dw	65535	; errata NOP
  9496  0026DA                     __end_of___fltol:
  9497                           	callstack 0
  9498                           
  9499 ;; *************** function _init_Timers *****************
  9500 ;; Defined at:
  9501 ;;		line 44 in file "init_PIC.c"
  9502 ;; Parameters:    Size  Location     Type
  9503 ;;		None
  9504 ;; Auto vars:     Size  Location     Type
  9505 ;;		None
  9506 ;; Return value:  Size  Location     Type
  9507 ;;                  1    wreg      void 
  9508 ;; Registers used:
  9509 ;;		wreg, status,2
  9510 ;; Tracked objects:
  9511 ;;		On entry : 0/0
  9512 ;;		On exit  : 0/0
  9513 ;;		Unchanged: 0/0
  9514 ;; Data sizes:     COMRAM   BANK0   BANK1   BANK2   BANK3   BANK4   BANK5
  9515 ;;      Params:         0       0       0       0       0       0       0
  9516 ;;      Locals:         0       0       0       0       0       0       0
  9517 ;;      Temps:          0       0       0       0       0       0       0
  9518 ;;      Totals:         0       0       0       0       0       0       0
  9519 ;;Total ram usage:        0 bytes
  9520 ;; Hardware stack levels used: 1
  9521 ;; Hardware stack levels required when called: 2
  9522 ;; This function calls:
  9523 ;;		Nothing
  9524 ;; This function is called by:
  9525 ;;		_main
  9526 ;; This function uses a non-reentrant model
  9527 ;;
  9528                           
  9529                           	psect	text35
  9530  003374                     __ptext35:
  9531                           	callstack 0
  9532  003374                     _init_Timers:
  9533                           	callstack 0
  9534  003374  FFFF               	dw	65535	; assembler added errata NOP
  9535  003376                     
  9536                           ;init_PIC.c: 45:     T0CONbits.T08BIT = 0;
  9537  003376  9CD5               	bcf	213,6,c	;volatile
  9538                           
  9539                           ;init_PIC.c: 46:  T0CONbits.T0CS = 0;
  9540  003378  9AD5               	bcf	213,5,c	;volatile
  9541                           
  9542                           ;init_PIC.c: 47:  T0CONbits.PSA = 1;
  9543  00337A  86D5               	bsf	213,3,c	;volatile
  9544                           
  9545                           ;init_PIC.c: 48:  T0CONbits.TMR0ON = 0;
  9546  00337C  9ED5               	bcf	213,7,c	;volatile
  9547  00337E                     
  9548                           ;init_PIC.c: 51:  TMR0H = 0xB2;
  9549  00337E  0EB2               	movlw	178
  9550  003380  6ED7               	movwf	215,c	;volatile
  9551                           
  9552                           ;init_PIC.c: 52:  TMR0L = 0x04;
  9553  003382  0E04               	movlw	4
  9554  003384  6ED6               	movwf	214,c	;volatile
  9555  003386                     
  9556                           ;init_PIC.c: 55:     T1CONbits.RD16 = 1;
  9557  003386  8ECD               	bsf	205,7,c	;volatile
  9558  003388                     
  9559                           ;init_PIC.c: 56:  T1CONbits.T1CKPS1 = 0;
  9560  003388  9ACD               	bcf	205,5,c	;volatile
  9561  00338A                     
  9562                           ;init_PIC.c: 57:  T1CONbits.T1CKPS0 = 0;
  9563  00338A  98CD               	bcf	205,4,c	;volatile
  9564  00338C                     
  9565                           ;init_PIC.c: 58:  T1CONbits.T1OSCEN = 0;
  9566  00338C  96CD               	bcf	205,3,c	;volatile
  9567  00338E                     
  9568                           ;init_PIC.c: 59:  T1CONbits.TMR1CS = 0;
  9569  00338E  92CD               	bcf	205,1,c	;volatile
  9570  003390                     
  9571                           ;init_PIC.c: 60:  T1CONbits.TMR1ON = 0;
  9572  003390  90CD               	bcf	205,0,c	;volatile
  9573                           
  9574                           ;init_PIC.c: 63:  TMR1H = 0xFA;
  9575  003392  0EFA               	movlw	250
  9576  003394  6ECF               	movwf	207,c	;volatile
  9577                           
  9578                           ;init_PIC.c: 64:     TMR1L = 0x4D;
  9579  003396  0E4D               	movlw	77
  9580  003398  6ECE               	movwf	206,c	;volatile
  9581  00339A  0012               	return		;funcret
  9582  00339C  FFFF               	dw	65535	; errata NOP
  9583  00339E                     __end_of_init_Timers:
  9584                           	callstack 0
  9585                           
  9586 ;; *************** function _init_PORTS *****************
  9587 ;; Defined at:
  9588 ;;		line 21 in file "init_PIC.c"
  9589 ;; Parameters:    Size  Location     Type
  9590 ;;		None
  9591 ;; Auto vars:     Size  Location     Type
  9592 ;;		None
  9593 ;; Return value:  Size  Location     Type
  9594 ;;                  1    wreg      void 
  9595 ;; Registers used:
  9596 ;;		wreg, status,2
  9597 ;; Tracked objects:
  9598 ;;		On entry : 0/0
  9599 ;;		On exit  : 0/0
  9600 ;;		Unchanged: 0/0
  9601 ;; Data sizes:     COMRAM   BANK0   BANK1   BANK2   BANK3   BANK4   BANK5
  9602 ;;      Params:         0       0       0       0       0       0       0
  9603 ;;      Locals:         0       0       0       0       0       0       0
  9604 ;;      Temps:          0       0       0       0       0       0       0
  9605 ;;      Totals:         0       0       0       0       0       0       0
  9606 ;;Total ram usage:        0 bytes
  9607 ;; Hardware stack levels used: 1
  9608 ;; Hardware stack levels required when called: 2
  9609 ;; This function calls:
  9610 ;;		Nothing
  9611 ;; This function is called by:
  9612 ;;		_main
  9613 ;; This function uses a non-reentrant model
  9614 ;;
  9615                           
  9616                           	psect	text36
  9617  00339E                     __ptext36:
  9618                           	callstack 0
  9619  00339E                     _init_PORTS:
  9620                           	callstack 0
  9621  00339E  FFFF               	dw	65535	; assembler added errata NOP
  9622  0033A0                     
  9623                           ;init_PIC.c: 25:     TRISD = 0x00;
  9624  0033A0  0E00               	movlw	0
  9625  0033A2  6E95               	movwf	149,c	;volatile
  9626                           
  9627                           ;init_PIC.c: 26:     TRISA = 0x00;
  9628  0033A4  0E00               	movlw	0
  9629  0033A6  6E92               	movwf	146,c	;volatile
  9630                           
  9631                           ;init_PIC.c: 27:     TRISB = 0X03;
  9632  0033A8  0E03               	movlw	3
  9633  0033AA  6E93               	movwf	147,c	;volatile
  9634                           
  9635                           ;init_PIC.c: 28:     PORTA = 0x00;
  9636  0033AC  0E00               	movlw	0
  9637  0033AE  6E80               	movwf	128,c	;volatile
  9638                           
  9639                           ;init_PIC.c: 29:     PORTD = 0x00;
  9640  0033B0  0E00               	movlw	0
  9641  0033B2  6E83               	movwf	131,c	;volatile
  9642                           
  9643                           ;init_PIC.c: 34:     LATC = 0;
  9644  0033B4  0E00               	movlw	0
  9645  0033B6  6E8B               	movwf	139,c	;volatile
  9646                           
  9647                           ;init_PIC.c: 35:     PORTC = 0;
  9648  0033B8  0E00               	movlw	0
  9649  0033BA  6E82               	movwf	130,c	;volatile
  9650  0033BC                     
  9651                           ;init_PIC.c: 36:     TRISCbits.RC7 = 1;
  9652  0033BC  8E94               	bsf	148,7,c	;volatile
  9653  0033BE                     
  9654                           ;init_PIC.c: 37:     TRISCbits.RC6 = 0;
  9655  0033BE  9C94               	bcf	148,6,c	;volatile
  9656  0033C0                     
  9657                           ;init_PIC.c: 38:     TRISCbits.RC2 = 0;
  9658  0033C0  9494               	bcf	148,2,c	;volatile
  9659  0033C2  0012               	return		;funcret
  9660  0033C4  FFFF               	dw	65535	; errata NOP
  9661  0033C6                     __end_of_init_PORTS:
  9662                           	callstack 0
  9663                           
  9664 ;; *************** function _Rx_char_USART *****************
  9665 ;; Defined at:
  9666 ;;		line 712 in file "main.c"
  9667 ;; Parameters:    Size  Location     Type
  9668 ;;		None
  9669 ;; Auto vars:     Size  Location     Type
  9670 ;;  i               2    7[COMRAM] int 
  9671 ;; Return value:  Size  Location     Type
  9672 ;;                  1    wreg      void 
  9673 ;; Registers used:
  9674 ;;		wreg, fsr2l, fsr2h, status,2, status,0, cstack
  9675 ;; Tracked objects:
  9676 ;;		On entry : 0/0
  9677 ;;		On exit  : 0/0
  9678 ;;		Unchanged: 0/0
  9679 ;; Data sizes:     COMRAM   BANK0   BANK1   BANK2   BANK3   BANK4   BANK5
  9680 ;;      Params:         0       0       0       0       0       0       0
  9681 ;;      Locals:         2       0       0       0       0       0       0
  9682 ;;      Temps:          5       0       0       0       0       0       0
  9683 ;;      Totals:         7       0       0       0       0       0       0
  9684 ;;Total ram usage:        7 bytes
  9685 ;; Hardware stack levels used: 1
  9686 ;; Hardware stack levels required when called: 1
  9687 ;; This function calls:
  9688 ;;		_set_new_pos
  9689 ;; This function is called by:
  9690 ;;		Interrupt level 2
  9691 ;; This function uses a non-reentrant model
  9692 ;;
  9693                           
  9694                           	psect	intcode
  9695  000008                     __pintcode:
  9696                           	callstack 0
  9697  000008                     _Rx_char_USART:
  9698                           	callstack 0
  9699  000008  FFFF               	dw	65535	; assembler added errata NOP
  9700                           
  9701                           ;incstack = 0
  9702  00000A  8275               	bsf	int$flags,1,c	;set compiler interrupt flag (level 2)
  9703  00000C  CFD9 F006          	movff	fsr2l,??_Rx_char_USART+3
  9704  000010  CFDA F007          	movff	fsr2h,??_Rx_char_USART+4
  9705  000014                     
  9706                           ;main.c: 714:     if(PIE1bits.RCIE && PIR1bits.RCIF){
  9707  000014  AA9D               	btfss	157,5,c	;volatile
  9708  000016  EF0F  F000         	goto	i2u467_41
  9709  00001A  EF12  F000         	goto	i2u467_40
  9710  00001E                     i2u467_41:
  9711  00001E  FFFF               	dw	65535	; assembler added errata NOP
  9712  000020  EF60  F000         	goto	i2l4235
  9713  000024                     i2u467_40:
  9714  000024  FFFF               	dw	65535	; assembler added errata NOP
  9715  000026  AA9E               	btfss	158,5,c	;volatile
  9716  000028  EF18  F000         	goto	i2u468_41
  9717  00002C  EF1B  F000         	goto	i2u468_40
  9718  000030                     i2u468_41:
  9719  000030  FFFF               	dw	65535	; assembler added errata NOP
  9720  000032  EF60  F000         	goto	i2l4235
  9721  000036                     i2u468_40:
  9722  000036  FFFF               	dw	65535	; assembler added errata NOP
  9723  000038                     
  9724                           ;main.c: 715:     int i=0;
  9725  000038  0E00               	movlw	0
  9726  00003A  6E09               	movwf	(Rx_char_USART@i+1)^0,c
  9727  00003C  0E00               	movlw	0
  9728  00003E  6E08               	movwf	Rx_char_USART@i^0,c
  9729  000040                     i2l495:
  9730  000040  FFFF               	dw	65535	; assembler added errata NOP
  9731  000042  B2F2               	btfsc	242,1,c	;volatile
  9732  000044  EF26  F000         	goto	i2u469_41
  9733  000048  EF29  F000         	goto	i2u469_40
  9734  00004C                     i2u469_41:
  9735  00004C  FFFF               	dw	65535	; assembler added errata NOP
  9736  00004E  EF32  F000         	goto	i2l4225
  9737  000052                     i2u469_40:
  9738  000052  FFFF               	dw	65535	; assembler added errata NOP
  9739  000054  AA9E               	btfss	3998,5,c	;volatile
  9740  000056  EF2F  F000         	goto	i2u470_41
  9741  00005A  EF32  F000         	goto	i2u470_40
  9742  00005E                     i2u470_41:
  9743  00005E  FFFF               	dw	65535	; assembler added errata NOP
  9744  000060  EF20  F000         	goto	i2l495
  9745  000064                     i2u470_40:
  9746  000064                     i2l4225:
  9747  000064  FFFF               	dw	65535	; assembler added errata NOP
  9748                           
  9749                           ;main.c: 719:         input_str[i]=RCREG;
  9750  000066  0ED2               	movlw	low _input_str
  9751  000068  2408               	addwf	Rx_char_USART@i^0,w,c
  9752  00006A  6ED9               	movwf	fsr2l,c
  9753  00006C  0E00               	movlw	high _input_str
  9754  00006E  2009               	addwfc	(Rx_char_USART@i+1)^0,w,c
  9755  000070  6EDA               	movwf	fsr2h,c
  9756  000072  CFAE FFDF          	movff	4014,indf2	;volatile
  9757  000076                     
  9758                           ;main.c: 720:     }while(INTCONbits.INT0IF==0 && input_str[i++] != '\n');
  9759  000076  B2F2               	btfsc	242,1,c	;volatile
  9760  000078  EF40  F000         	goto	i2u471_41
  9761  00007C  EF43  F000         	goto	i2u471_40
  9762  000080                     i2u471_41:
  9763  000080  FFFF               	dw	65535	; assembler added errata NOP
  9764  000082  EF5A  F000         	goto	i2l502
  9765  000086                     i2u471_40:
  9766  000086  FFFF               	dw	65535	; assembler added errata NOP
  9767  000088  5008               	movf	Rx_char_USART@i^0,w,c
  9768  00008A  6E03               	movwf	??_Rx_char_USART^0,c
  9769  00008C  5009               	movf	(Rx_char_USART@i+1)^0,w,c
  9770  00008E  6E04               	movwf	(??_Rx_char_USART+1)^0,c
  9771  000090  4A08               	infsnz	Rx_char_USART@i^0,f,c
  9772  000092  2A09               	incf	(Rx_char_USART@i+1)^0,f,c
  9773  000094  0ED2               	movlw	low _input_str
  9774  000096  2403               	addwf	??_Rx_char_USART^0,w,c
  9775  000098  6ED9               	movwf	fsr2l,c
  9776  00009A  0E00               	movlw	high _input_str
  9777  00009C  2004               	addwfc	(??_Rx_char_USART+1)^0,w,c
  9778  00009E  6EDA               	movwf	fsr2h,c
  9779  0000A0  0E0A               	movlw	10
  9780  0000A2  18DE               	xorwf	postinc2,w,c
  9781  0000A4  A4D8               	btfss	status,2,c
  9782  0000A6  EF57  F000         	goto	i2u472_41
  9783  0000AA  EF5A  F000         	goto	i2u472_40
  9784  0000AE                     i2u472_41:
  9785  0000AE  FFFF               	dw	65535	; assembler added errata NOP
  9786  0000B0  EF20  F000         	goto	i2l495
  9787  0000B4                     i2u472_40:
  9788  0000B4                     i2l502:
  9789  0000B4  FFFF               	dw	65535	; assembler added errata NOP
  9790                           
  9791                           ;main.c: 722:     PIR1bits.RCIF = 0;
  9792  0000B6  9A9E               	bcf	158,5,c	;volatile
  9793  0000B8                     
  9794                           ;main.c: 723:     New_char_RX = 1;
  9795  0000B8  0E01               	movlw	1
  9796  0000BA  6E74               	movwf	_New_char_RX^0,c
  9797  0000BC                     
  9798                           ;main.c: 724:     State = input_str[0];
  9799  0000BC  C0D2  F0CF         	movff	_input_str,_State	;volatile
  9800  0000C0                     i2l4235:
  9801  0000C0  FFFF               	dw	65535	; assembler added errata NOP
  9802                           
  9803                           ;main.c: 726:     if(INTCONbits.INT0IF==1 && INTCONbits.INT0IE==1){
  9804  0000C2  A2F2               	btfss	242,1,c	;volatile
  9805  0000C4  EF66  F000         	goto	i2u473_41
  9806  0000C8  EF69  F000         	goto	i2u473_40
  9807  0000CC                     i2u473_41:
  9808  0000CC  FFFF               	dw	65535	; assembler added errata NOP
  9809  0000CE  EF79  F000         	goto	i2l4243
  9810  0000D2                     i2u473_40:
  9811  0000D2  FFFF               	dw	65535	; assembler added errata NOP
  9812  0000D4  A8F2               	btfss	242,4,c	;volatile
  9813  0000D6  EF6F  F000         	goto	i2u474_41
  9814  0000DA  EF72  F000         	goto	i2u474_40
  9815  0000DE                     i2u474_41:
  9816  0000DE  FFFF               	dw	65535	; assembler added errata NOP
  9817  0000E0  EF79  F000         	goto	i2l4243
  9818  0000E4                     i2u474_40:
  9819  0000E4  FFFF               	dw	65535	; assembler added errata NOP
  9820  0000E6                     
  9821                           ;main.c: 727:         INTCONbits.INT0IF=0;
  9822  0000E6  92F2               	bcf	242,1,c	;volatile
  9823  0000E8                     
  9824                           ;main.c: 729:         input_str[0]="Q";
  9825  0000E8  0EFC               	movlw	low (low STR_19)
  9826  0000EA  0100               	movlb	0	; () banked
  9827  0000EC  6FD2               	movwf	_input_str& (0+255),b	;volatile
  9828                           
  9829                           ;main.c: 730:         stop=1;
  9830  0000EE  0E01               	movlw	1
  9831  0000F0  6E72               	movwf	_stop^0,c
  9832  0000F2                     i2l4243:
  9833  0000F2  FFFF               	dw	65535	; assembler added errata NOP
  9834                           
  9835                           ;main.c: 732:     if(INTCON3bits.INT1IF==1 && INTCON3bits.INT1IE==1){
  9836  0000F4  A0F0               	btfss	240,0,c	;volatile
  9837  0000F6  EF7F  F000         	goto	i2u475_41
  9838  0000FA  EF82  F000         	goto	i2u475_40
  9839  0000FE                     i2u475_41:
  9840  0000FE  FFFF               	dw	65535	; assembler added errata NOP
  9841  000100  EF8F  F000         	goto	i2l4251
  9842  000104                     i2u475_40:
  9843  000104  FFFF               	dw	65535	; assembler added errata NOP
  9844  000106  A6F0               	btfss	240,3,c	;volatile
  9845  000108  EF88  F000         	goto	i2u476_41
  9846  00010C  EF8B  F000         	goto	i2u476_40
  9847  000110                     i2u476_41:
  9848  000110  FFFF               	dw	65535	; assembler added errata NOP
  9849  000112  EF8F  F000         	goto	i2l4251
  9850  000116                     i2u476_40:
  9851  000116  FFFF               	dw	65535	; assembler added errata NOP
  9852  000118                     
  9853                           ;main.c: 733:         INTCON3bits.INT1IF=0;
  9854  000118  90F0               	bcf	240,0,c	;volatile
  9855  00011A                     
  9856                           ;main.c: 734:         component_present=1;
  9857  00011A  0E01               	movlw	1
  9858  00011C  6E73               	movwf	_component_present^0,c
  9859  00011E                     i2l4251:
  9860  00011E  FFFF               	dw	65535	; assembler added errata NOP
  9861                           
  9862                           ;main.c: 737:     if(INTCONbits.TMR0IE && INTCONbits.TMR0IF)
  9863  000120  AAF2               	btfss	242,5,c	;volatile
  9864  000122  EF95  F000         	goto	i2u477_41
  9865  000126  EF98  F000         	goto	i2u477_40
  9866  00012A                     i2u477_41:
  9867  00012A  FFFF               	dw	65535	; assembler added errata NOP
  9868  00012C  EFAF  F000         	goto	i2l4265
  9869  000130                     i2u477_40:
  9870  000130  FFFF               	dw	65535	; assembler added errata NOP
  9871  000132  A4F2               	btfss	242,2,c	;volatile
  9872  000134  EF9E  F000         	goto	i2u478_41
  9873  000138  EFA1  F000         	goto	i2u478_40
  9874  00013C                     i2u478_41:
  9875  00013C  FFFF               	dw	65535	; assembler added errata NOP
  9876  00013E  EFAF  F000         	goto	i2l4265
  9877  000142                     i2u478_40:
  9878  000142  FFFF               	dw	65535	; assembler added errata NOP
  9879  000144                     
  9880                           ;main.c: 738:         {;main.c: 740:          TMR0H = 0xB2;
  9881  000144  0EB2               	movlw	178
  9882  000146  6ED7               	movwf	215,c	;volatile
  9883                           
  9884                           ;main.c: 741:             TMR0L = 0x04;
  9885  000148  0E04               	movlw	4
  9886  00014A  6ED6               	movwf	214,c	;volatile
  9887  00014C                     
  9888                           ;main.c: 742:    set_new_pos(new_TMR1H, new_TMR1L);
  9889  00014C  C0CD  F001         	movff	_new_TMR1L@main$F823,set_new_pos@nTMR1L
  9890  000150  0100               	movlb	0	; () banked
  9891  000152  51CE               	movf	_new_TMR1H@main$F822& (0+255),w,b
  9892  000154  EC03  F01A         	call	_set_new_pos
  9893  000158                     
  9894                           ;main.c: 743:             T0CONbits.TMR0ON = 1;
  9895  000158  8ED5               	bsf	213,7,c	;volatile
  9896  00015A                     
  9897                           ;main.c: 744:    T1CONbits.TMR1ON = 1;
  9898  00015A  80CD               	bsf	205,0,c	;volatile
  9899  00015C                     
  9900                           ;main.c: 745:             INTCONbits.TMR0IF = 0;
  9901  00015C  94F2               	bcf	242,2,c	;volatile
  9902  00015E                     i2l4265:
  9903  00015E  FFFF               	dw	65535	; assembler added errata NOP
  9904                           
  9905                           ;main.c: 747:     if(PIE1bits.TMR1IE && PIR1bits.TMR1IF)
  9906  000160  A09D               	btfss	157,0,c	;volatile
  9907  000162  EFB5  F000         	goto	i2u479_41
  9908  000166  EFB8  F000         	goto	i2u479_40
  9909  00016A                     i2u479_41:
  9910  00016A  FFFF               	dw	65535	; assembler added errata NOP
  9911  00016C  EFC5  F000         	goto	i2l507
  9912  000170                     i2u479_40:
  9913  000170  FFFF               	dw	65535	; assembler added errata NOP
  9914  000172  A09E               	btfss	158,0,c	;volatile
  9915  000174  EFBE  F000         	goto	i2u480_41
  9916  000178  EFC1  F000         	goto	i2u480_40
  9917  00017C                     i2u480_41:
  9918  00017C  FFFF               	dw	65535	; assembler added errata NOP
  9919  00017E  EFC5  F000         	goto	i2l507
  9920  000182                     i2u480_40:
  9921  000182  FFFF               	dw	65535	; assembler added errata NOP
  9922  000184                     
  9923                           ;main.c: 748:         {;main.c: 749:             LATCbits.LC2 = 0;
  9924  000184  948B               	bcf	139,2,c	;volatile
  9925                           
  9926                           ;main.c: 750:             T1CONbits.TMR1ON = 0;
  9927  000186  90CD               	bcf	205,0,c	;volatile
  9928                           
  9929                           ;main.c: 751:          PIR1bits.TMR1IF = 0;
  9930  000188  909E               	bcf	158,0,c	;volatile
  9931  00018A                     i2l507:
  9932  00018A  FFFF               	dw	65535	; assembler added errata NOP
  9933  00018C  C007  FFDA         	movff	??_Rx_char_USART+4,fsr2h
  9934  000190  C006  FFD9         	movff	??_Rx_char_USART+3,fsr2l
  9935  000194  9275               	bcf	int$flags,1,c	;clear compiler interrupt flag (level 2)
  9936  000196  0011               	retfie		f
  9937  000198  FFFF               	dw	65535	; errata NOP
  9938  00019A                     __end_of_Rx_char_USART:
  9939                           	callstack 0
  9940                           
  9941 ;; *************** function _set_new_pos *****************
  9942 ;; Defined at:
  9943 ;;		line 528 in file "main.c"
  9944 ;; Parameters:    Size  Location     Type
  9945 ;;  nTMR1H          1    wreg     unsigned char 
  9946 ;;  nTMR1L          1    0[COMRAM] unsigned char 
  9947 ;; Auto vars:     Size  Location     Type
  9948 ;;  nTMR1H          1    1[COMRAM] unsigned char 
  9949 ;; Return value:  Size  Location     Type
  9950 ;;                  1    wreg      void 
  9951 ;; Registers used:
  9952 ;;		wreg
  9953 ;; Tracked objects:
  9954 ;;		On entry : 0/0
  9955 ;;		On exit  : 0/0
  9956 ;;		Unchanged: 0/0
  9957 ;; Data sizes:     COMRAM   BANK0   BANK1   BANK2   BANK3   BANK4   BANK5
  9958 ;;      Params:         1       0       0       0       0       0       0
  9959 ;;      Locals:         1       0       0       0       0       0       0
  9960 ;;      Temps:          0       0       0       0       0       0       0
  9961 ;;      Totals:         2       0       0       0       0       0       0
  9962 ;;Total ram usage:        2 bytes
  9963 ;; Hardware stack levels used: 1
  9964 ;; This function calls:
  9965 ;;		Nothing
  9966 ;; This function is called by:
  9967 ;;		_Rx_char_USART
  9968 ;; This function uses a non-reentrant model
  9969 ;;
  9970                           
  9971                           	psect	text38
  9972  003406                     __ptext38:
  9973                           	callstack 0
  9974  003406                     _set_new_pos:
  9975                           	callstack 0
  9976  003406  FFFF               	dw	65535	; assembler added errata NOP
  9977                           
  9978                           ;incstack = 0
  9979                           ;set_new_pos@nTMR1H stored from wreg
  9980  003408  6E02               	movwf	set_new_pos@nTMR1H^0,c
  9981  00340A                     
  9982                           ;main.c: 528: void set_new_pos(uint8_t nTMR1H, uint8_t nTMR1L);main.c: 529: {;main.c: 53
      +                          0:     TMR1H = nTMR1H;
  9983  00340A  C002  FFCF         	movff	set_new_pos@nTMR1H,4047	;volatile
  9984  00340E                     
  9985                           ;main.c: 531:     TMR1L = nTMR1L;
  9986  00340E  C001  FFCE         	movff	set_new_pos@nTMR1L,4046	;volatile
  9987  003412                     
  9988                           ;main.c: 551:     LATCbits.LC2 = 1;
  9989  003412  848B               	bsf	139,2,c	;volatile
  9990  003414                     
  9991                           ;main.c: 552:  T1CONbits.TMR1ON = 1;
  9992  003414  80CD               	bsf	205,0,c	;volatile
  9993  003416  0012               	return		;funcret
  9994  003418  FFFF               	dw	65535	; errata NOP
  9995  00341A                     __end_of_set_new_pos:
  9996                           	callstack 0
  9997                           
  9998                           	psect	rparam
  9999  0000                     
 10000                           	psect	temp
 10001  000075                     btemp:
 10002                           	callstack 0
 10003  000075                     	ds	1
 10004  0000                     int$flags	set	btemp
 10005  0000                     wtemp8	set	btemp+1
 10006  0000                     ttemp5	set	btemp+1
 10007  0000                     ttemp6	set	btemp+4
 10008  0000                     ttemp7	set	btemp+8
 10009                           
 10010                           	psect	idloc
 10011                           
 10012                           ;Config register IDLOC0 @ 0x200000
 10013                           ;	unspecified, using default values
 10014  200000                     	org	2097152
 10015  200000  FF                 	db	255
 10016                           
 10017                           ;Config register IDLOC1 @ 0x200001
 10018                           ;	unspecified, using default values
 10019  200001                     	org	2097153
 10020  200001  FF                 	db	255
 10021                           
 10022                           ;Config register IDLOC2 @ 0x200002
 10023                           ;	unspecified, using default values
 10024  200002                     	org	2097154
 10025  200002  FF                 	db	255
 10026                           
 10027                           ;Config register IDLOC3 @ 0x200003
 10028                           ;	unspecified, using default values
 10029  200003                     	org	2097155
 10030  200003  FF                 	db	255
 10031                           
 10032                           ;Config register IDLOC4 @ 0x200004
 10033                           ;	unspecified, using default values
 10034  200004                     	org	2097156
 10035  200004  FF                 	db	255
 10036                           
 10037                           ;Config register IDLOC5 @ 0x200005
 10038                           ;	unspecified, using default values
 10039  200005                     	org	2097157
 10040  200005  FF                 	db	255
 10041                           
 10042                           ;Config register IDLOC6 @ 0x200006
 10043                           ;	unspecified, using default values
 10044  200006                     	org	2097158
 10045  200006  FF                 	db	255
 10046                           
 10047                           ;Config register IDLOC7 @ 0x200007
 10048                           ;	unspecified, using default values
 10049  200007                     	org	2097159
 10050  200007  FF                 	db	255
 10051                           
 10052                           	psect	config
 10053                           
 10054                           ; Padding undefined space
 10055  300000                     	org	3145728
 10056  300000  FF                 	db	255
 10057                           
 10058                           ;Config register CONFIG1H @ 0x300001
 10059                           ;	Oscillator Selection bits
 10060                           ;	OSC = XT, XT oscillator
 10061                           ;	Oscillator System Clock Switch Enable bit
 10062                           ;	OSCS = OFF, Oscillator system clock switch option is disabled (main oscillator is sour
      +                          ce)
 10063  300001                     	org	3145729
 10064  300001  21                 	db	33
 10065                           
 10066                           ;Config register CONFIG2L @ 0x300002
 10067                           ;	Power-up Timer Enable bit
 10068                           ;	PWRT = OFF, PWRT disabled
 10069                           ;	Brown-out Reset Enable bit
 10070                           ;	BOR = OFF, Brown-out Reset disabled
 10071                           ;	Brown-out Reset Voltage bits
 10072                           ;	BORV = 20, VBOR set to 2.0V
 10073  300002                     	org	3145730
 10074  300002  0D                 	db	13
 10075                           
 10076                           ;Config register CONFIG2H @ 0x300003
 10077                           ;	Watchdog Timer Enable bit
 10078                           ;	WDT = OFF, WDT disabled (control is placed on the SWDTEN bit)
 10079                           ;	Watchdog Timer Postscale Select bits
 10080                           ;	WDTPS = 128, 1:128
 10081  300003                     	org	3145731
 10082  300003  0E                 	db	14
 10083                           
 10084                           ; Padding undefined space
 10085  300004                     	org	3145732
 10086  300004  FF                 	db	255
 10087                           
 10088                           ;Config register CONFIG3H @ 0x300005
 10089                           ;	CCP2 Mux bit
 10090                           ;	CCP2MUX = OFF, CCP2 input/output is multiplexed with RB3
 10091  300005                     	org	3145733
 10092  300005  00                 	db	0
 10093                           
 10094                           ;Config register CONFIG4L @ 0x300006
 10095                           ;	Stack Full/Underflow Reset Enable bit
 10096                           ;	STVR = OFF, Stack Full/Underflow will not cause RESET
 10097                           ;	Low Voltage ICSP Enable bit
 10098                           ;	LVP = OFF, Low Voltage ICSP disabled
 10099                           ;	Background Debugger Enable bit
 10100                           ;	DEBUG = 0x1, unprogrammed default
 10101  300006                     	org	3145734
 10102  300006  80                 	db	128
 10103                           
 10104                           ; Padding undefined space
 10105  300007                     	org	3145735
 10106  300007  FF                 	db	255
 10107                           
 10108                           ;Config register CONFIG5L @ 0x300008
 10109                           ;	Code Protection bit
 10110                           ;	CP0 = OFF, Block 0 (000200-001FFFh) not code protected
 10111                           ;	Code Protection bit
 10112                           ;	CP1 = OFF, Block 1 (002000-003FFFh) not code protected
 10113                           ;	Code Protection bit
 10114                           ;	CP2 = OFF, Block 2 (004000-005FFFh) not code protected
 10115                           ;	Code Protection bit
 10116                           ;	CP3 = OFF, Block 3 (006000-007FFFh) not code protected
 10117  300008                     	org	3145736
 10118  300008  0F                 	db	15
 10119                           
 10120                           ;Config register CONFIG5H @ 0x300009
 10121                           ;	Boot Block Code Protection bit
 10122                           ;	CPB = OFF, Boot Block (000000-0001FFh) not code protected
 10123                           ;	Data EEPROM Code Protection bit
 10124                           ;	CPD = OFF, Data EEPROM not code protected
 10125  300009                     	org	3145737
 10126  300009  C0                 	db	192
 10127                           
 10128                           ;Config register CONFIG6L @ 0x30000A
 10129                           ;	Write Protection bit
 10130                           ;	WRT0 = OFF, Block 0 (000200-001FFFh) not write protected
 10131                           ;	Write Protection bit
 10132                           ;	WRT1 = OFF, Block 1 (002000-003FFFh) not write protected
 10133                           ;	Write Protection bit
 10134                           ;	WRT2 = OFF, Block 2 (004000-005FFFh) not write protected
 10135                           ;	Write Protection bit
 10136                           ;	WRT3 = OFF, Block 3 (006000-007FFFh) not write protected
 10137  30000A                     	org	3145738
 10138  30000A  0F                 	db	15
 10139                           
 10140                           ;Config register CONFIG6H @ 0x30000B
 10141                           ;	Configuration Register Write Protection bit
 10142                           ;	WRTC = OFF, Configuration registers (300000-3000FFh) not write protected
 10143                           ;	Boot Block Write Protection bit
 10144                           ;	WRTB = OFF, Boot Block (000000-0001FFh) not write protected
 10145                           ;	Data EEPROM Write Protection bit
 10146                           ;	WRTD = OFF, Data EEPROM not write protected
 10147  30000B                     	org	3145739
 10148  30000B  E0                 	db	224
 10149                           
 10150                           ;Config register CONFIG7L @ 0x30000C
 10151                           ;	Table Read Protection bit
 10152                           ;	EBTR0 = OFF, Block 0 (000200-001FFFh) not protected from Table Reads executed in other
      +                           blocks
 10153                           ;	Table Read Protection bit
 10154                           ;	EBTR1 = OFF, Block 1 (002000-003FFFh) not protected from Table Reads executed in other
      +                           blocks
 10155                           ;	Table Read Protection bit
 10156                           ;	EBTR2 = OFF, Block 2 (004000-005FFFh) not protected from Table Reads executed in other
      +                           blocks
 10157                           ;	Table Read Protection bit
 10158                           ;	EBTR3 = OFF, Block 3 (006000-007FFFh) not protected from Table Reads executed in other
      +                           blocks
 10159  30000C                     	org	3145740
 10160  30000C  0F                 	db	15
 10161                           
 10162                           ;Config register CONFIG7H @ 0x30000D
 10163                           ;	Boot Block Table Read Protection bit
 10164                           ;	EBTRB = OFF, Boot Block (000000-0001FFh) not protected from Table Reads executed in ot
      +                          her blocks
 10165  30000D                     	org	3145741
 10166  30000D  40                 	db	64
 10167                           tosu	equ	0xFFF
 10168                           tosh	equ	0xFFE
 10169                           tosl	equ	0xFFD
 10170                           stkptr	equ	0xFFC
 10171                           pclatu	equ	0xFFB
 10172                           pclath	equ	0xFFA
 10173                           pcl	equ	0xFF9
 10174                           tblptru	equ	0xFF8
 10175                           tblptrh	equ	0xFF7
 10176                           tblptrl	equ	0xFF6
 10177                           tablat	equ	0xFF5
 10178                           prodh	equ	0xFF4
 10179                           prodl	equ	0xFF3
 10180                           indf0	equ	0xFEF
 10181                           postinc0	equ	0xFEE
 10182                           postdec0	equ	0xFED
 10183                           preinc0	equ	0xFEC
 10184                           plusw0	equ	0xFEB
 10185                           fsr0h	equ	0xFEA
 10186                           fsr0l	equ	0xFE9
 10187                           wreg	equ	0xFE8
 10188                           indf1	equ	0xFE7
 10189                           postinc1	equ	0xFE6
 10190                           postdec1	equ	0xFE5
 10191                           preinc1	equ	0xFE4
 10192                           plusw1	equ	0xFE3
 10193                           fsr1h	equ	0xFE2
 10194                           fsr1l	equ	0xFE1
 10195                           bsr	equ	0xFE0
 10196                           indf2	equ	0xFDF
 10197                           postinc2	equ	0xFDE
 10198                           postdec2	equ	0xFDD
 10199                           preinc2	equ	0xFDC
 10200                           plusw2	equ	0xFDB
 10201                           fsr2h	equ	0xFDA
 10202                           fsr2l	equ	0xFD9
 10203                           status	equ	0xFD8

Data Sizes:
    Strings     649
    Constant    20
    Data        31
    BSS         88
    Persistent  1
    Stack       0

Auto Spaces:
    Space          Size  Autos    Used
    COMRAM          126     92     116
    BANK0           128      4     100
    BANK1           256     35      35
    BANK2           256      0       0
    BANK3           256      0       0
    BANK4           256      0       0
    BANK5           256      0       0

Pointer List with Targets:

    __memrchr@m	PTR const void  size(2) Largest target is 4
		 -> sequence(BANK0[4]), 

    __memrchr@s	PTR const unsigned char  size(2) Largest target is 4
		 -> sequence(BANK0[4]), 

    sp____memrchr	PTR void  size(2) Largest target is 4
		 -> sequence(BANK0[4]), NULL(NULL[0]), 

    strrchr@s	PTR const unsigned char  size(2) Largest target is 4
		 -> sequence(BANK0[4]), 

    strncat@s	PTR const unsigned char  size(2) Largest target is 2
		 -> add_component@add_componnt(COMRAM[2]), 

    strncat@d	PTR unsigned char  size(2) Largest target is 4
		 -> sequence(BANK0[4]), 

    strncat@a	PTR unsigned char  size(2) Largest target is 4
		 -> sequence(BANK0[4]), 

    strlen@s	PTR const unsigned char  size(2) Largest target is 4
		 -> sequence(BANK0[4]), 

    strlen@a	PTR const unsigned char  size(2) Largest target is 4
		 -> sequence(BANK0[4]), 

    memmove@d1	PTR void  size(2) Largest target is 4
		 -> sequence(BANK0[4]), 

    memmove@d	PTR unsigned char  size(2) Largest target is 4
		 -> sequence(BANK0[4]), 

    memmove@s1	PTR const void  size(2) Largest target is 4
		 -> sequence(BANK0[4]), 

    memmove@s	PTR const unsigned char  size(2) Largest target is 4
		 -> sequence(BANK0[4]), 

    atoi@s	PTR const unsigned char  size(2) Largest target is 10
		 -> input_str(BANK0[10]), 

    sp__memmove	PTR void  size(2) Largest target is 4
		 -> sequence(BANK0[4]), 

    sp__strrchr	PTR unsigned char  size(2) Largest target is 4
		 -> sequence(BANK0[4]), NULL(NULL[0]), 

    remove_component@ptr	PTR unsigned char  size(2) Largest target is 4
		 -> sequence(BANK0[4]), NULL(NULL[0]), 

    sp__strncat	PTR unsigned char  size(2) Largest target is 4
		 -> sequence(BANK0[4]), 

    print_string@strng	PTR unsigned char  size(2) Largest target is 82
		 -> STR_18(CODE[23]), STR_17(CODE[70]), STR_16(CODE[19]), STR_15(CODE[63]), 
		 -> STR_14(CODE[20]), STR_13(CODE[30]), STR_12(CODE[29]), STR_11(CODE[29]), 
		 -> STR_10(CODE[29]), STR_9(CODE[28]), STR_8(CODE[28]), STR_7(CODE[52]), 
		 -> STR_6(CODE[26]), add_component@add_componnt(COMRAM[2]), STR_5(CODE[40]), STR_4(CODE[27]), 
		 -> STR_3(CODE[32]), sequence(BANK0[4]), STR_2(CODE[20]), STR_1(CODE[82]), 


Critical Paths under _main in COMRAM

    _start_up_menu->_pick_and_place
    _return_to_initial->_Twister
    _return_to_initial->_X_axis
    _return_to_initial->_Y_axis
    _return_to_initial->_Z_axis
    _remove_component->_strrchr
    _strrchr->___memrchr
    ___memrchr->_strlen
    _memmove->_strlen
    _pick_and_place->___flge
    ___fldiv->___xxtofl
    _Z_axis->_ms_delay
    _Y_axis->_ms_delay
    _X_axis->_ms_delay
    _Twister->_ms_delay
    _change_sequence->_print_string
    _add_component->_atoi
    _strncat->_strlen
    _atoi->_isspace
    _init_USART->___fltol
    _roundf->___flge
    ___flsub->___fladd
    ___flge->___fldiv
    ___fltol->_roundf

Critical Paths under _Rx_char_USART in COMRAM

    _Rx_char_USART->_set_new_pos

Critical Paths under _main in BANK0

    _init_USART->___fltol

Critical Paths under _Rx_char_USART in BANK0

    None.

Critical Paths under _main in BANK1

    _start_up_menu->_pick_and_place

Critical Paths under _Rx_char_USART in BANK1

    None.

Critical Paths under _main in BANK2

    None.

Critical Paths under _Rx_char_USART in BANK2

    None.

Critical Paths under _main in BANK3

    None.

Critical Paths under _Rx_char_USART in BANK3

    None.

Critical Paths under _main in BANK4

    None.

Critical Paths under _Rx_char_USART in BANK4

    None.

Critical Paths under _main in BANK5

    None.

Critical Paths under _Rx_char_USART in BANK5

    None.

Call Graph Tables:

 ---------------------------------------------------------------------------------
 (Depth) Function   	        Calls       Base Space   Used Autos Params    Refs
 ---------------------------------------------------------------------------------
 (0) _main                                                 0     0      0   65060
                         _init_PORTS
                        _init_Timers
                         _init_USART
                    _init_interrupts
                      _start_up_menu
 ---------------------------------------------------------------------------------
 (1) _start_up_menu                                        5     5      0   53827
                                             62 COMRAM     5     5      0
                      _add_component
                    _change_sequence
                     _pick_and_place
                       _print_string
                   _remove_component
                  _return_to_initial
 ---------------------------------------------------------------------------------
 (2) _return_to_initial                                    9     9      0   14980
                                             16 COMRAM     9     9      0
                            _Twister
                             _X_axis
                             _Y_axis
                             _Z_axis
 ---------------------------------------------------------------------------------
 (2) _remove_component                                     5     5      0    4278
                                             27 COMRAM     5     5      0
                            _memmove
                       _print_string
                             _strlen
                            _strrchr
 ---------------------------------------------------------------------------------
 (3) _strrchr                                              4     0      4     942
                                             23 COMRAM     4     0      4
                          ___memrchr
                             _strlen
 ---------------------------------------------------------------------------------
 (4) ___memrchr                                           10     4      6     406
                                             13 COMRAM    10     4      6
                             _strlen (ARG)
 ---------------------------------------------------------------------------------
 (3) _memmove                                             12     6      6     592
                                             13 COMRAM    12     6      6
                             _strlen (ARG)
 ---------------------------------------------------------------------------------
 (2) _pick_and_place                                      37    37      0   25529
                                             60 COMRAM     2     2      0
                                              0 BANK1     35    35      0
                            _Tweezer
                            _Twister
                             _X_axis
                             _Y_axis
                             _Z_axis
                            ___fldiv
                             ___flge
                           ___xxtofl
                   _fetch_parameters
                           _ms_delay
                       _print_string
 ---------------------------------------------------------------------------------
 (3) _fetch_parameters                                     1     1      0     124
                                              9 COMRAM     1     1      0
 ---------------------------------------------------------------------------------
 (3) ___xxtofl                                            14    10      4     836
                                              9 COMRAM    14    10      4
 ---------------------------------------------------------------------------------
 (3) ___fldiv                                             25    17      8    2183
                                             23 COMRAM    25    17      8
                           ___xxtofl (ARG)
 ---------------------------------------------------------------------------------
 (3) _Z_axis                                               1     1      0    3708
                                             15 COMRAM     1     1      0
                           _ms_delay
 ---------------------------------------------------------------------------------
 (3) _Y_axis                                               1     1      0    3708
                                             15 COMRAM     1     1      0
                           _ms_delay
 ---------------------------------------------------------------------------------
 (3) _X_axis                                               1     1      0    3708
                                             15 COMRAM     1     1      0
                           _ms_delay
 ---------------------------------------------------------------------------------
 (3) _Twister                                              1     1      0    3708
                                             15 COMRAM     1     1      0
                           _ms_delay
 ---------------------------------------------------------------------------------
 (4) _ms_delay                                             6     4      2    3646
                                              9 COMRAM     6     4      2
 ---------------------------------------------------------------------------------
 (3) _Tweezer                                              1     1      0      62
                                              9 COMRAM     1     1      0
 ---------------------------------------------------------------------------------
 (2) _change_sequence                                      5     5      0    2296
                                             15 COMRAM     5     5      0
                       _print_string
 ---------------------------------------------------------------------------------
 (2) _add_component                                        2     2      0    4479
                                             31 COMRAM     2     2      0
                               _atoi
                       _print_string
                            _strncat
 ---------------------------------------------------------------------------------
 (3) _strncat                                              8     2      6     712
                                             13 COMRAM     6     0      6
                             _strlen
 ---------------------------------------------------------------------------------
 (4) _strlen                                               4     2      2     318
                                              9 COMRAM     4     2      2
 ---------------------------------------------------------------------------------
 (3) _print_string                                         6     4      2    2200
                                              9 COMRAM     6     4      2
 ---------------------------------------------------------------------------------
 (3) _atoi                                                15    13      2    1456
                                             16 COMRAM    15    13      2
                             ___wmul
                            _isdigit
                            _isspace
 ---------------------------------------------------------------------------------
 (4) _isspace                                              7     5      2     207
                                              9 COMRAM     7     5      2
 ---------------------------------------------------------------------------------
 (4) _isdigit                                              6     4      2     161
                                              9 COMRAM     6     4      2
 ---------------------------------------------------------------------------------
 (4) ___wmul                                               6     2      4     311
                                              9 COMRAM     6     2      4
 ---------------------------------------------------------------------------------
 (1) _init_interrupts                                      0     0      0       0
 ---------------------------------------------------------------------------------
 (1) _init_USART                                           0     0      0   11233
                            ___fltol
                             _roundf
 ---------------------------------------------------------------------------------
 (2) _roundf                                              26    22      4   10806
                                             60 COMRAM    26    22      4
                            ___fladd
                             ___flge
                            ___flmul
                            ___flneg
                            ___flsub
 ---------------------------------------------------------------------------------
 (3) ___flsub                                              8     0      8    3649
                                             25 COMRAM     8     0      8
                            ___fladd
 ---------------------------------------------------------------------------------
 (4) ___fladd                                             16     8      8    3326
                                              9 COMRAM    16     8      8
 ---------------------------------------------------------------------------------
 (3) ___flneg                                              4     0      4     197
                                              9 COMRAM     4     0      4
 ---------------------------------------------------------------------------------
 (3) ___flmul                                             25    17      8    1744
                                              9 COMRAM    25    17      8
 ---------------------------------------------------------------------------------
 (3) ___flge                                              12     4      8     986
                                             48 COMRAM    12     4      8
                            ___fldiv (ARG)
                           ___xxtofl (ARG)
 ---------------------------------------------------------------------------------
 (2) ___fltol                                             10     6      4     427
                                             86 COMRAM     6     2      4
                                              0 BANK0      4     4      0
                             _roundf (ARG)
 ---------------------------------------------------------------------------------
 (1) _init_Timers                                          0     0      0       0
 ---------------------------------------------------------------------------------
 (1) _init_PORTS                                           0     0      0       0
 ---------------------------------------------------------------------------------
 Estimated maximum stack depth 4
 ---------------------------------------------------------------------------------
 (Depth) Function   	        Calls       Base Space   Used Autos Params    Refs
 ---------------------------------------------------------------------------------
 (5) _Rx_char_USART                                        7     7      0     165
                                              2 COMRAM     7     7      0
                        _set_new_pos
 ---------------------------------------------------------------------------------
 (6) _set_new_pos                                          2     1      1     120
                                              0 COMRAM     2     1      1
 ---------------------------------------------------------------------------------
 Estimated maximum stack depth 6
 ---------------------------------------------------------------------------------

 Call Graph Graphs:

 _main (ROOT)
   _init_PORTS
   _init_Timers
   _init_USART
     ___fltol
       _roundf (ARG)
         ___fladd
         ___flge
           ___fldiv (ARG)
             ___xxtofl (ARG)
           ___xxtofl (ARG)
         ___flmul
         ___flneg
         ___flsub
           ___fladd
     _roundf
   _init_interrupts
   _start_up_menu
     _add_component
       _atoi
         ___wmul
         _isdigit
         _isspace
       _print_string
       _strncat
         _strlen
     _change_sequence
       _print_string
     _pick_and_place
       _Tweezer
       _Twister
         _ms_delay
       _X_axis
         _ms_delay
       _Y_axis
         _ms_delay
       _Z_axis
         _ms_delay
       ___fldiv
       ___flge
       ___xxtofl
       _fetch_parameters
       _ms_delay
       _print_string
     _print_string
     _remove_component
       _memmove
         _strlen (ARG)
       _print_string
       _strlen
       _strrchr
         ___memrchr
           _strlen (ARG)
         _strlen
     _return_to_initial
       _Twister
       _X_axis
       _Y_axis
       _Z_axis

 _Rx_char_USART (ROOT)
   _set_new_pos

 Address spaces:
Name               Size   Autos  Total    Cost      Usage
BIGRAM             5FF      0       0      17        0.0%
EEDATA             100      0       0       0        0.0%
BITBANK5           100      0       0      16        0.0%
BANK5              100      0       0      14        0.0%
BITBANK4           100      0       0      12        0.0%
BANK4              100      0       0      13        0.0%
BITBANK3           100      0       0      10        0.0%
BANK3              100      0       0      11        0.0%
BITBANK2           100      0       0       8        0.0%
BANK2              100      0       0       9        0.0%
BITBANK1           100      0       0       6        0.0%
BANK1              100     23      23       7       13.7%
BITBANK0            80      0       0       4        0.0%
BANK0               80      4      64       5       78.1%
BITCOMRAM           7E      0       0       0        0.0%
COMRAM              7E     5C      74       1       92.1%
BITSFR               0      0       0     200        0.0%
SFR                  0      0       0     200        0.0%
STACK                0      0       0       2        0.0%
NULL                 0      0       0       0        0.0%
ABS                  0      0      FB      15        0.0%
DATA                 0      0      FB       3        0.0%
CODE                 0      0       0       0        0.0%


Microchip Technology PIC18 Macro Assembler V2.32 build 20210201212658 
Symbol Table                                                                                   Mon Jun 28 22:19:55 2021

                                                               ___fldiv@aexp 0030  
                                                               ___fldiv@bexp 002F  
                                                               ___fldiv@sign 0028  
                                                                         l50 339A  
                                                                         l53 33E2  
                                                                         l47 33C2  
                                                                         l72 32E0  
                                                                         l81 2E82  
                                                                         l77 2E26  
                                                        ___wmul@multiplicand 000C  
                                                     __size_of_start_up_menu 017A  
                                                                        l310 1DFC  
                                                                        l331 2C06  
                                                                        l324 2908  
                                                                        l510 3370  
                                                                        l352 2DE0  
                                                                        l345 2A06  
                                                                        l362 308C  
                                                                        l370 314A  
                                                                        l338 2B06  
                                                                        l434 06D6  
                                                                        l266 232A  
                                                                        l275 2F1A  
                                                                        l443 0782  
                                                                        l259 2328  
                                                                        l380 259C  
                                                                        l390 02A8  
                                                                        l359 305C  
                                                                        l376 259C  
                                                                        l464 0996  
                                                                        l472 23C6  
                                                                        l481 2464  
                                                                        l475 240C  
                                                                        l469 2380  
                                                                        l807 26D4  
                                                                        l399 0354  
                                                                        l780 27FC  
                                                                        l775 27AE  
                                                                        l784 32A0  
                                                          ??_init_interrupts 000A  
                                                                        wreg 000FE8  
                                                               ___flmul@aexp 001B  
                                                               ___flmul@bexp 001C  
                                                               ___flmul@sign 0016  
                                                               ___flmul@temp 0021  
                                                               ___flmul@prod 001D  
                                                               ___fltol@exp1 005C  
                                                                       l1103 1680  
                                                                       l1040 0B82  
                                                                       l1105 1710  
                                                                       l1106 16F8  
                                                                       l1131 123A  
                                                                       l1124 102E  
                                                                       l1212 21B0  
                                                                       l1141 1398  
                                                                       l1133 12CA  
                                                                       l1134 12B2  
                                                                       l1038 0BE2  
                                                                       l1055 0D26  
                                                                       l1047 0F3C  
                                                                       l1039 0BCC  
                                                                       l1215 325E  
                                                                       l1223 30EE  
                                                                       l1128 13E0  
                                                                       l1064 0E2A  
                                                                       l1080 3194  
                                                                       l1065 0E12  
                                                                       l1209 21A6  
                                                                       l3003 0E40  
                                                                       l3011 0E9E  
                                                                       l1244 1BF8  
                                                                       l1092 1812  
                                                                       l1172 1F0C  
                                                                       l1236 2D00  
                                                                       l3021 0F04  
                                                                       l3013 0EB4  
                                                                       l3005 0E4C  
                                                                       l1165 1E60  
                                                                       l1094 162A  
                                                                       l3031 0F2A  
                                                                       l3023 0F0A  
                                                                       l3015 0EC6  
                                                                       l3007 0E5E  
                                                                       l3111 218A  
                                                                       l3103 211A  
                                                                       l1168 1FF2  
                                                                       l1280 3020  
                                                                       l3025 0F0E  
                                                                       l3017 0EEC  
                                                                       l3009 0E9C  
                                                                       l3041 30E2  
                                                                       l1257 321C  
                                                                       l3121 2F38  
                                                                       l1097 15E4  
                                                                       l1274 331A  
                                                                       l3027 0F16  
                                                                       l3019 0EF0  
                                                                       l3043 30E6  
                                                                       l3035 3092  
                                                                       l3107 215E  
                                                                       l1267 2FA0  
                                                                       l3131 2F74  
                                                                       l3123 2F40  
                                                                       l1179 1F78  
                                                                       l3051 2FA6  
                                                                       l3029 0F28  
                                                                       l3037 3098  
                                                                       l3109 2174  
                                                                       l3133 2F8E  
                                                                       l3125 2F54  
                                                                       l3117 2F20  
                                                                       l3061 2FF8  
                                                                       l3053 2FAE  
                                                                       l3047 3220  
                                                                       l3039 30B0  
                                                                       l3135 2F9C  
                                                                       l3127 2F58  
                                                                       l3119 2F20  
                                                                       l3151 2C90  
                                                                       l3143 2C0E  
                                                                       l3063 3018  
                                                                       l3055 2FB8  
                                                                       l2601 337E  
                                                                       l3081 201A  
                                                                       l3129 2F5C  
                                                                       l5001 1C46  
                                                                       l3161 2CE6  
                                                                       l3145 2C38  
                                                                       l3153 2CB0  
                                                                       l3057 2FE8  
                                                                       l2611 338E  
                                                                       l2603 3386  
                                                                       l3091 207C  
                                                                       l3083 2038  
                                                                       l3075 1FFA  
                                                                       l5011 1C96  
                                                                       l5003 1C5C  
                                                                       l3155 2CC8  
                                                                       l3147 2C5E  
                                                                       l3139 32E6  
                                                                       l2613 3390  
                                                                       l2605 3388  
                                                                       l5101 25A4  
                                                                       l3501 0FA6  
                                                                       l2621 33DA  
                                                                       l3093 2096  
                                                                       l3085 2070  
                                                                       l3077 200E  
                                                                       l5021 1CD4  
                                                                       l5013 1C9A  
                                                                       l5005 1C60  
                                                                       l3157 2CDE  
                                                                       l3149 2C6E  
                                                                       l2607 338A  
                                                                       l5111 2608  
                                                                       l5103 25BE  
                                                                       l3511 0FDA  
                                                                       l3503 0FB8  
                                                                       l2623 33DC  
                                                                       l3095 20A0  
                                                                       l3087 2074  
                                                                       l3079 2014  
                                                                       l5031 1D1A  
                                                                       l5023 1CE0  
                                                                       l5015 1CA6  
                                                                       l5007 1C6C  
                                                                       l3159 2CE2  
                                                                       l2609 338C  
                                                                       l5113 2618  
                                                                       l3601 1380  
                                                                       l3521 1044  
                                                                       l3513 0FF0  
                                                                       l3505 0FC0  
                                                                       l2625 33DE  
                                                                       l2617 33C8  
                                                                       l3097 20AA  
                                                                       l2801 31E0  
                                                                       l5041 1D6A  
                                                                       l5033 1D30  
                                                                       l5025 1CF6  
                                                                       l5017 1CBC  
                                                                       l5009 1C82  
                                                                       l4321 30F4  
                                                                       l4401 2A78  
                                                                       l5201 331E  
                                                                       l5123 264A  
                                                                       l5115 261C  
                                                                       l5107 25D4  
                                                                       l3603 139E  
                                                                       l3611 13CA  
                                                                       l3531 1084  
                                                                       l3523 1056  
                                                                       l3515 1004  
                                                                       l3507 0FC6  
                                                                       l2627 33E0  
                                                                       l2619 33D2  
                                                                       l3099 20E0  
                                                                       l2803 31EC  
                                                                       l5043 1D7E  
                                                                       l5035 1D44  
                                                                       l5027 1D0A  
                                                                       l5019 1CD0  
                                                                       l5051 1DB8  
                                                                       l4323 3100  
                                                                       l4411 2AB6  
                                                                       l4403 2A88  
                                                                       l5211 3332  
                                                                       l5203 3324  
                                                                       l5141 26C2  
                                                                       l5133 267A  
                                                                       l5125 2656  
                                                                       l5117 262E  
                                                                       l5109 2606  
                                                                       l3613 13D0  
                                                                       l3605 13AE  
                                                                       l3541 10D6  
                                                                       l3533 109A  
                                                                       l3517 1014  
                                                                       l3509 0FD8  
                                                                       l2901 0B00  
                                                                       l4341 2E3A  
                                                                       l2805 31F2  
                                                                       l5061 1DE0  
                                                                       l5045 1D82  
                                                                       l5037 1D48  
                                                                       l5029 1D0E  
                                                                       l4501 302A  
                                                                       l4333 312A  
                                                                       l4325 3106  
                                                                       l4421 2AF6  
                                                                       l4413 2AC6  
                                                                       l4405 2A90  
                                                                       l5213 3334  
                                                                       l5205 3328  
                                                                       l2591 33BC  
                                                                       l5135 2688  
                                                                       l5127 2660  
                                                                       l3607 13C0  
                                                                       l3551 111C  
                                                                       l3543 10E4  
                                                                       l3535 10A6  
                                                                       l3527 106C  
                                                                       l3519 101C  
                                                                       l2903 0B04  
                                                                       l2911 0B14  
                                                                       l5151 32D6  
                                                                       l4343 2E3E  
                                                                       l2807 3210  
                                                                       l5063 1DEC  
                                                                       l5047 1D8E  
                                                                       l5039 1D54  
                                                                       l4511 3080  
                                                                       l4503 303E  
                                                                       l4335 3130  
                                                                       l4327 3122  
                                                                       l4351 2B3C  
                                                                       l4415 2ACA  
                                                                       l4407 2AA6  
                                                                       l4423 2B00  
                                                                       l4431 293C  
                                                                       l5071 2832  
                                                                       l5215 3336  
                                                                       l5207 332C  
                                                                       l2593 33BE  
                                                                       l5137 269C  
                                                                       l3609 13C2  
                                                                       l3561 118A  
                                                                       l3553 1136  
                                                                       l3545 10F0  
                                                                       l3537 10BE  
                                                                       l3529 107A  
                                                                       l2921 0B96  
                                                                       l2913 0B1A  
                                                                       l2905 0B08  
                                                                       l2841 09D2  
                                                                       l2833 099C  
                                                                       l3617 3150  
                                                                       l5153 32D8  
                                                                       l5145 32A6  
                                                                       l4337 2DE8  
                                                                       l5065 1DF8  
                                                                       l5057 1DBE  
                                                                       l5049 1DA4  
                                                                       l4505 3052  
                                                                       l4513 3086  
                                                                       l4361 2B78  
                                                                       l4353 2B48  
                                                                       l4345 2B10  
                                                                       l4417 2ADA  
                                                                       l4409 2AAA  
                                                                       l4441 2978  
                                                                       l4433 2948  
                                                                       l4425 2910  
                                                                       l4601 15BC  
                                                                       l4521 24D0  
                                                                       l5073 2836  
                                                                       l5161 21B8  
                                                                       l5217 3338  
                                                                       l5209 3330  
                                                                       l2595 33C0  
                                                                       l5139 26B2  
                                                                       l3571 1226  
                                                                       l3563 11B4  
                                                                       l3555 1146  
                                                                       l3547 1100  
                                                                       l3539 10CA  
                                                                       l3491 0F62  
                                                                       l2931 0BCA  
                                                                       l2923 0BA2  
                                                                       l2915 0B48  
                                                                       l2907 0B0C  
                                                                       l2851 0A14  
                                                                       l2843 09E6  
                                                                       l2835 09A8  
                                                                       l3619 3160  
                                                                       l5155 32DA  
                                                                       l5147 32D2  
                                                                       l2827 334C  
                                                                       l4339 2DF4  
                                                                       l5059 1DC4  
                                                                       l4507 3072  
                                                                       l4371 2BB6  
                                                                       l4363 2B88  
                                                                       l4355 2B58  
                                                                       l4347 2B24  
                                                                       l4419 2AE6  
                                                                       l4451 29B6  
                                                                       l4443 2988  
                                                                       l4435 2958  
                                                                       l4427 2924  
                                                                       l4611 1616  
                                                                       l4603 15D0  
                                                                       l4531 13E8  
                                                                       l4523 2504  
                                                                       l4515 246E  
                                                                       l5091 28D2  
                                                                       l5083 286E  
                                                                       l5075 283A  
                                                                       l5067 2804  
                                                                       l5171 2210  
                                                                       l5163 21C4  
                                                                       l5219 333E  
                                                                       l2589 33A0  
                                                                       l3581 1276  
                                                                       l3573 1238  
                                                                       l3565 11EE  
                                                                       l3557 1162  
                                                                       l3549 110C  
                                                                       l3493 0F64  
                                                                       l3645 3264  
                                                                       l2941 0C30  
                                                                       l2933 0BF6  
                                                                       l2925 0BA8  
                                                                       l2917 0B6A  
                                                                       l2909 0B10  
                                                                       l2861 0A4E  
                                                                       l2853 0A1C  
                                                                       l2845 09F6  
                                                                       l2837 09BA  
                                                                       l5157 32DC  
                                                                       l5149 32D4  
                                                                       l2829 3368  
                                                                       l4509 307C  
                                                                       l4381 2BF6  
                                                                       l4373 2BC6  
                                                                       l4357 2B5C  
                                                                       l4349 2B38  
                                                                       l4365 2B90  
                                                                       l4461 29F6  
                                                                       l4453 29C6  
                                                                       l4437 295C  
                                                                       l4429 2938  
                                                                       l4445 2990  
                                                                       l4621 166C  
                                                                       l4613 1626  
                                                                       l4605 15E2  
                                                                       l4541 1432  
                                                                       l4533 13F4  
                                                                       l4525 251C  
                                                                       l4517 2484  
                                                                       l5085 2886  
                                                                       l5077 2854  
                                                                       l5069 281C  
                                                                       l5181 229C  
                                                                       l5173 2232  
                                                                       l5165 21DA  
                                                                       l2599 3376  
                                                                       l3591 12FE  
                                                                       l3583 12A8  
                                                                       l3575 124C  
                                                                       l3567 11FC  
                                                                       l3559 116E  
                                                                       l3495 0F7A  
                                                                       l3487 0F44  
                                                                       l3647 327E  
                                                                       l2951 0C7A  
                                                                       l2943 0C42  
                                                                       l2935 0C0A  
                                                                       l2927 0BBC  
                                                                       l2919 0B7A  
                                                                       l2871 0A8E  
                                                                       l2863 0A50  
                                                                       l2855 0A32  
                                                                       l2847 09FA  
                                                                       l2839 09BC  
                                                                       l5159 32DE  
                                                                       l4471 2D36  
                                                                       l4375 2BCA  
                                                                       l4367 2BA6  
                                                                       l4359 2B6C  
                                                                       l4383 2C00  
                                                                       l4391 2A3C  
                                                                       l4455 29CA  
                                                                       l4447 29A6  
                                                                       l4439 296C  
                                                                       l4463 2A00  
                                                                       l4631 16BC  
                                                                       l4623 167E  
                                                                       l4615 1640  
                                                                       l4607 15F0  
                                                                       l4551 1468  
                                                                       l4543 1442  
                                                                       l4535 1406  
                                                                       l4711 1EF6  
                                                                       l4703 1EA2  
                                                                       l4527 2550  
                                                                       l4519 24B8  
                                                                       l5087 2892  
                                                                       l5095 28DA  
                                                                       l5183 22B4  
                                                                       l5175 2246  
                                                                       l5167 21E2  
                                                                       l3593 1328  
                                                                       l3577 1260  
                                                                       l3569 121A  
                                                                       l3497 0F8E  
                                                                       l3489 0F50  
                                                                       l3649 328E  
                                                                       l2961 0CEE  
                                                                       l2953 0C7C  
                                                                       l2945 0C54  
                                                                       l2929 0BBE  
                                                                       l2881 0AD6  
                                                                       l2865 0A66  
                                                                       l2873 0A96  
                                                                       l2857 0A34  
                                                                       l2849 0A02  
                                                                       l4481 2D72  
                                                                       l4473 2D42  
                                                                       l4465 2D0A  
                                                                       l4377 2BDA  
                                                                       l4369 2BAA  
                                                                       l4393 2A48  
                                                                       l4385 2A10  
                                                                       l4457 29DA  
                                                                       l4449 29AA  
                                                                       l4641 1744  
                                                                       l4633 16EE  
                                                                       l4617 165A  
                                                                       l4625 1692  
                                                                       l4609 1614  
                                                                       l4561 14AC  
                                                                       l4553 146E  
                                                                       l4545 1446  
                                                                       l4537 1408  
                                                                       l4721 1F8C  
                                                                       l4713 1F02  
                                                                       l4705 1EAC  
                                                                       l4529 2568  
                                                                       l5097 28E8  
                                                                       l5089 28C6  
                                                                       l4801 2428  
                                                                       l5185 22BE  
                                                                       l5177 225A  
                                                                       l5169 2208  
                                                                       l5193 22E0  
                                                                       l3587 12E0  
                                                                       l3595 132C  
                                                                       l3579 1264  
                                                                       l3499 0F9E  
                                                                       l2971 0D56  
                                                                       l2963 0CF0  
                                                                       l2955 0C88  
                                                                       l2947 0C60  
                                                                       l2939 0C1E  
                                                                       l2891 0AEC  
                                                                       l2883 0ADC  
                                                                       l2875 0AA8  
                                                                       l2867 0A7A  
                                                                       l2859 0A3C  
                                                                       l4491 2DB0  
                                                                       l4475 2D52  
                                                                       l4483 2D7A  
                                                                       l4467 2D1E  
                                                                       l4379 2BE6  
                                                                       l4395 2A58  
                                                                       l4387 2A24  
                                                                       l4459 29E6  
                                                                       l4651 17C8  
                                                                       l4643 176E  
                                                                       l4627 16A6  
                                                                       l4619 1660  
                                                                       l4571 14F6  
                                                                       l4563 14BC  
                                                                       l4555 1480  
                                                                       l4539 141E  
                                                                       l4547 144E  
                                                                       l4731 1FDE  
                                                                       l4723 1F8E  
                                                                       l4715 1F44  
                                                                       l4707 1EBA  
                                                                       l4811 01B4  
                                                                       l5099 2902  
                                                                       l4803 242C  
                                                                       l5187 22C8  
                                                                       l5179 2286  
                                                                       l3597 134C  
                                                                       l3589 12EC  
                                                                       l2981 0D8A  
                                                                       l2965 0D04  
                                                                       l2949 0C66  
                                                                       l2957 0C8E  
                                                                       l2893 0AF0  
                                                                       l2885 0AE0  
                                                                       l2877 0AC0  
                                                                       l2869 0A8A  
                                                                       l4741 188A  
                                                                       l4493 2DB4  
                                                                       l4485 2D90  
                                                                       l4477 2D56  
                                                                       l4469 2D32  
                                                                       l4397 2A5C  
                                                                       l4389 2A38  
                                                                       l4661 1806  
                                                                       l4653 17E4  
                                                                       l4637 1726  
                                                                       l4645 1772  
                                                                       l4629 16AA  
                                                                       l4573 1506  
                                                                       l4581 1528  
                                                                       l4565 14C0  
                                                                       l4557 1482  
                                                                       l4549 1460  
                                                                       l4733 1FE0  
                                                                       l4725 1F94  
                                                                       l4717 1F52  
                                                                       l4709 1EF2  
                                                                       l4901 05AE  
                                                                       l4821 0248  
                                                                       l4813 01DE  
                                                                       l4805 2452  
                                                                       l5189 22D2  
                                                                       l4671 270E  
                                                                       l3599 1360  
                                                                       l2983 0D9E  
                                                                       l2975 0D6A  
                                                                       l2991 0DC4  
                                                                       l2959 0CBA  
                                                                       l2967 0D14  
                                                                       l2895 0AF4  
                                                                       l2887 0AE4  
                                                                       l2879 0AD2  
                                                                       l4743 189E  
                                                                       l4495 2DC4  
                                                                       l4487 2D94  
                                                                       l4479 2D66  
                                                                       l4399 2A6C  
                                                                       l4655 17EA  
                                                                       l4647 1792  
                                                                       l4639 1732  
                                                                       l4591 156E  
                                                                       l4583 153E  
                                                                       l4575 150E  
                                                                       l4559 1498  
                                                                       l4567 14C8  
                                                                       l4727 1FB8  
                                                                       l4719 1F66  
                                                                       l4911 0676  
                                                                       l4903 05D0  
                                                                       l4831 02DE  
                                                                       l4823 024E  
                                                                       l4815 0208  
                                                                       l4807 01A4  
                                                                       l5295 22F8  
                                                                       l4681 2788  
                                                                       l4673 271E  
                                                                       l2985 0DA6  
                                                                       l2977 0D76  
                                                                       l2969 0D42  
                                                                       l2993 0DD6  
                                                                       l2897 0AF8  
                                                                       l2889 0AE8  
                                                                       l4761 1B46  
                                                                       l4753 1962  
                                                                       l4745 18E4  
                                                                       l4737 181A  
                                                                       l5297 20C8  
                                                                       l4497 2DD0  
                                                                       l4489 2DA0  
                                                                       l4657 17FC  
                                                                       l4649 17A8  
                                                                       l4593 157E  
                                                                       l4585 153E  
                                                                       l4577 1514  
                                                                       l4569 14DA  
                                                                       l4729 1FCC  
                                                                       l4921 070C  
                                                                       l4913 067C  
                                                                       l4905 05E2  
                                                                       l4841 0346  
                                                                       l4833 02EC  
                                                                       l4825 027A  
                                                                       l4817 0232  
                                                                       l4809 01AE  
                                                                       l4683 279C  
                                                                       l4675 2752  
                                                                       l2995 0DDC  
                                                                       l2987 0DAC  
                                                                       l2979 0D88  
                                                                       l2899 0AFC  
                                                                       l4763 1B7C  
                                                                       l4755 1A36  
                                                                       l4747 1908  
                                                                       l4739 183A  
                                                                       l4499 2DDA  
                                                                       l4659 1802  
                                                                       l4595 158E  
                                                                       l4691 1E04  
                                                                       l4931 0774  
                                                                       l4923 071A  
                                                                       l4915 06A8  
                                                                       l4907 0662  
                                                                       l4851 03A6  
                                                                       l4843 0378  
                                                                       l4835 02F4  
                                                                       l4827 029A  
                                                                       l4819 0240  
                                                                       l4771 2332  
                                                                       l4685 27F2  
                                                                       l4677 2762  
                                                                       l4669 26DC  
                                                                       l2997 0DEE  
                                                                       l2989 0DC2  
                                                                       l4765 1BC2  
                                                                       l4757 1AA2  
                                                                       l4749 192A  
                                                                       l4597 159E  
                                                                       l4589 1552  
                                                                       l4693 1E18  
                                                                       l4941 07D4  
                                                                       l4933 07A6  
                                                                       l4925 0722  
                                                                       l4917 06C8  
                                                                       l4909 066E  
                                                                       l4861 049E  
                                                                       l4853 03D2  
                                                                       l4845 038A  
                                                                       l4837 02FA  
                                                                       l4829 02CC  
                                                                       l4781 2388  
                                                                       l4773 233A  
                                                                       l4687 27F8  
                                                                       l4679 2776  
                                                                       l2999 0E08  
                                                                       l4767 1BE6  
                                                                       l4759 1ADA  
                                                                       l4599 15A6  
                                                                       l4695 1E2A  
                                                                       l4951 08CC  
                                                                       l4943 0800  
                                                                       l4935 07B8  
                                                                       l4927 0728  
                                                                       l4919 06FA  
                                                                       l4871 04E4  
                                                                       l4863 04A6  
                                                                       l4855 03F2  
                                                                       l4847 0398  
                                                                       l4839 0326  
                                                                       l4791 23DA  
                                                                       l4783 2394  
                                                                       l4775 234E  
                                                                       l4697 1E72  
                                                                       l4961 091E  
                                                                       l4953 08DC  
                                                                       l4945 0820  
                                                                       l4937 07C6  
                                                                       l4929 0754  
                                                                       l4873 04F8  
                                                                       l4881 052C  
                                                                       l4857 0400  
                                                                       l4849 03A0  
                                                                       l4793 23E2  
                                                                       l4785 239C  
                                                                       l4777 2356  
                                                                       l4699 1E8E  
                                                                       l4971 0964  
                                                                       l4963 0926  
                                                                       l4955 08E4  
                                                                       l4947 082E  
                                                                       l4939 07CE  
                                                                       l4891 0578  
                                                                       l4883 053A  
                                                                       l4859 048C  
                                                                       l4795 23E6  
                                                                       l4787 23A0  
                                                                       l4779 235A  
                                                                       l4981 2E88  
                                                                       l4973 0976  
                                                                       l4965 0934  
                                                                       l4957 08EA  
                                                                       l4949 08BA  
                                                                       l4893 058A  
                                                                       l4885 0548  
                                                                       l4877 0508  
                                                                       l4869 04C0  
                                                                       l4797 2414  
                                                                       l4789 23CE  
                                                                       l4991 2F16  
                                                                       l4983 2EAC  
                                                                       l4975 097E  
                                                                       l4967 093C  
                                                                       l4959 090C  
                                                                       l4895 0592  
                                                                       l4887 0550  
                                                                       l4879 0522  
                                                                       l4799 2420  
                                                                       l4993 1C00  
                                                                       l4985 2EB4  
                                                                       l4977 0986  
                                                                       l4969 0942  
                                                                       l4897 05A0  
                                                                       l4889 0556  
                                                                       l4995 1C08  
                                                                       l4987 2ECA  
                                                                       l4979 098E  
                                                                       l4899 05A8  
                                                                       l4997 1C2C  
                                                                       l4989 2EE8  
                                                                       l4999 1C42  
                                                                       STR_1 7D75  
                                                                       STR_2 7FD5  
                                                                       STR_3 7EA8  
                                                                       STR_4 7F75  
                                                                       STR_5 7E80  
                                                                       STR_6 7F90  
                                                                       STR_7 7E4C  
                                                                       STR_8 7F3D  
                                                                       STR_9 7F59  
                                                                       u3000 2F72  
                                                                       u3001 2F6C  
                                                                       u3010 2F8E  
                                                                       u3011 2F88  
                                                                       u3020 2C36  
                                                                       u3021 2C30  
                                                                       u3030 2C5C  
                                                                       u3031 2C56  
                                                                       _LATC 000F8B  
                                                                       u3040 2CAA  
                                                                       u3041 2CA4  
                                                                       u2410 320E  
                                                                       u3050 2CC6  
                                                                       u2411 3208  
                                                                       u3051 2CC0  
                                                                       u2500 0A78  
                                                                       u3060 2D00  
                                                                       u2501 0A72  
                                                                       u3061 2CFA  
                                                                       u2510 0ABE  
                                                                       u2511 0AB8  
                                                                       u2600 0C08  
                                                                       u2520 0AD0  
                                                                       u2440 09B8  
                                                                       u5000 3050  
                                                                       u2601 0C02  
                                                                       u2521 0ACA  
                                                                       u2441 09B2  
                                                                       u5001 304A  
                                                                       u2610 0C40  
                                                                       u2530 0B46  
                                                                       u2450 09D0  
                                                                       u5010 3070  
                                                                       u2611 0C3A  
                                                                       u2531 0B40  
                                                                       u2451 09CA  
                                                                       u5011 306A  
                                                                       u3500 0F78  
                                                                       u2700 0DC0  
                                                                       u2620 0C52  
                                                                       u2540 0B62  
                                                                       u2460 09E4  
                                                                       u5100 1496  
                                                                       u5020 2482  
                                                                       u3501 0F72  
                                                                       u2701 0DBA  
                                                                       u2621 0C4C  
                                                                       u2541 0B5A  
                                                                       u2461 09DE  
                                                                       u5101 1490  
                                                                       u5021 247C  
                                                                       u3510 0F8C  
                                                                       u2710 0DD6  
                                                                       u2630 0C78  
                                                                       u2550 0B66  
                                                                       u2470 0A30  
                                                                       u5110 14AA  
                                                                       u5030 24CE  
                                                                       u3511 0F86  
                                                                       u2711 0DD0  
                                                                       u2631 0C72  
                                                                       u2471 0A2A  
                                                                       u5111 14A4  
                                                                       u5031 24C8  
                                                                       u3600 1274  
                                                                       u3520 0FD6  
                                                                       u2800 0EEA  
                                                                       u2720 0DEC  
                                                                       u2640 0CB8  
                                                                       u2560 0B94  
                                                                       u2480 0A4C  
                                                                       u6000 2F14  
                                                                       u5200 16A4  
                                                                       u5120 14F4  
                                                                       u5040 251A  
                                                                       u3601 126E  
                                                                       u3521 0FD0  
                                                                       u2801 0EE4  
                                                                       u2721 0DE6  
                                                                       u2641 0CB2  
                                                                       u2561 0B8E  
                                                                       u2481 0A46  
                                                                       u6001 2F0E  
                                                                       u5201 169E  
                                                                       u5121 14EE  
                                                                       u5041 2514  
                                                                       u3610 12A6  
                                                                       u3530 0FEE  
                                                                       u2810 0F02  
                                                                       u2730 0E06  
                                                                       u2650 0D02  
                                                                       u2570 0BBA  
                                                                       u2490 0A64  
                                                                       u6010 1C40  
                                                                       u5210 16BA  
                                                                       u5130 153C  
                                                                       u5050 2566  
                                                                       u3611 12A0  
                                                                       u3531 0FE8  
                                                                       u2811 0EFC  
                                                                       u2731 0E00  
                                                                       u2651 0CFC  
                                                                       u2571 0BB4  
                                                                       u2491 0A5E  
                                                                       u6011 1C3A  
                                                                       u5211 16B4  
                                                                       u5131 1536  
                                                                       u5051 2560  
                                                                       u5300 2750  
                                                                       u3620 12C4  
                                                                       u3540 1002  
                                                                       u2820 0F26  
                                                                       u2740 0E24  
                                                                       u2660 0D40  
                                                                       u2580 0BE2  
                                                                       u6020 1C5A  
                                                                       u5220 16EC  
                                                                       u5140 15BA  
                                                                       u5060 1404  
                                                                       u6100 2868  
                                                                       u5301 274A  
                                                                       u3621 12BE  
                                                                       u3541 0FFC  
                                                                       u2821 0F20  
                                                                       u2741 0E1E  
                                                                       u2661 0D3A  
                                                                       u2581 0BDC  
                                                                       u6021 1C54  
                                                                       u5221 16E6  
                                                                       u5141 15B4  
                                                                       u5061 13FE  
                                                                       u6101 2862  
                                                                       u5310 2774  
                                                                       u3630 12DE  
                                                                       u3550 1042  
                                                                       u2750 0E3E  
                                                                       u2670 0D54  
                                                                       u2590 0BF4  
                                                                       u2830 30AE  
                                                                       u6030 1C80  
                                                                       u5230 170A  
                                                                       u5150 15E0  
                                                                       u5070 141C  
                                                                       u6110 2884  
                                                                       u5311 276E  
                                                                       u3631 12D8  
                                                                       u3551 103C  
                                                                       u2751 0E38  
                                                                       u2671 0D4E  
                                                                       u2591 0BEE  
                                                                       u2831 30A8  
                                                                       u6031 1C7A  
                                                                       u5231 1704  
                                                                       u5151 15DA  
                                                                       u5071 1416  
                                                                       u6111 287E  
                                                                       u5320 279A  
                                                                       u3640 12FC  
                                                                       u3560 1056  
                                                                       u2760 0E5C  
                                                                       u2680 0D86  
                                                                       u2840 30E0  
                                                                       u6040 1CBA  
                                                                       u5240 1724  
                                                                       u5160 1612  
                                                                       u5080 1430  
                                                                       u5400 1F78  
                                                                       u6120 28FC  
                                                                       u6200 21D8  
                                                                       u5321 2794  
                                                                       u3641 12F6  
                                                                       u3561 1050  
                                                                       u2761 0E56  
                                                                       u2681 0D80  
                                                                       u2841 30DA  
                                                                       u6041 1CB4  
                                                                       u5241 171E  
                                                                       u5161 160C  
                                                                       u5081 142A  
                                                                       u5401 1F72  
                                                                       u6121 28F6  
                                                                       u6201 21D2  
                                                                       u6130 25BC  
                                                                       u5330 27F0  
                                                                       u3650 134A  
                                                                       u3570 11D6  
                                                                       u3490 0F60  
                                                                       u3730 327C  
                                                                       u2770 0E9A  
                                                                       u2690 0D9C  
                                                                       u2850 3254  
                                                                       u2930 2036  
                                                                       u6050 1CF4  
                                                                       u5250 1742  
                                                                       u5170 163E  
                                                                       u5090 147E  
                                                                       u5410 1F8A  
                                                                       u6210 2258  
                                                                       u6131 25B6  
                                                                       u5331 27EA  
                                                                       u3651 1344  
                                                                       u3491 0F5A  
                                                                       u3731 3276  
                                                                       u2771 0E94  
                                                                       u2691 0D96  
                                                                       u2851 324C  
                                                                       u2931 2030  
                                                                       u6051 1CEE  
                                                                       u5251 173C  
                                                                       u5171 1638  
                                                                       u5091 1478  
                                                                       u5411 1F84  
                                                                       u6211 2252  
                                                                       u6140 25FA  
                                                                       u3660 137E  
                                                                       u3580 1236  
                                                                       u2780 0EB2  
                                                                       u5500 1AD8  
                                                                       u2860 3258  
                                                                       u2940 206E  
                                                                       u6060 1D2E  
                                                                       u5260 1790  
                                                                       u5180 1658  
                                                                       u5420 1FCA  
                                                                       u5340 1E16  
                                                                       u6220 2286  
                                                                       u3661 1378  
                                                                       u3581 1230  
                                                                       u2781 0EAC  
                                                                       u5501 1AD2  
                                                                       u2941 2068  
                                                                       u6061 1D28  
                                                                       u5261 178A  
                                                                       u5181 1652  
                                                                       u5421 1FC4  
                                                                       u5341 1E10  
                                                                       u6221 2280  
                                                                       u6150 262C  
                                                                       u3670 13BE  
                                                                       u3590 125E  
                                                                       u2790 0EC6  
                                                                       u5510 1BA0  
                                                                       u2950 2090  
                                                                       u6070 1D68  
                                                                       u5270 17C6  
                                                                       u5190 167C  
                                                                       u5430 1FDC  
                                                                       u5350 1E28  
                                                                       u2870 2FE6  
                                                                       u6230 229A  
                                                                       u6151 2626  
                                                                       u3671 13B8  
                                                                       u3591 1258  
                                                                       u3575 11CA  
                                                                       u2791 0EC0  
                                                                       u2951 208A  
                                                                       u6071 1D62  
                                                                       u5271 17C0  
                                                                       u5191 1676  
                                                                       u5431 1FD6  
                                                                       u5351 1E22  
                                                                       u2871 2FE0  
                                                                       u6231 2294  
                                                                       u6160 2644  
                                                                       u5520 1BC0  
                                                                       u5440 185C  
                                                                       u2960 2154  
                                                                       u6080 1DA2  
                                                                       u5280 17FA  
                                                                       u5360 1E8C  
                                                                       u5600 0200  
                                                                       u2880 3016  
                                                                       u6240 22AE  
                                                                       u6161 263E  
                                                                       u6145 25EC  
                                                                       u5521 1BBA  
                                                                       u2961 214C  
                                                                       u6081 1D9C  
                                                                       u5281 17F4  
                                                                       u5361 1E86  
                                                                       u5601 01F8  
                                                                       u2881 3010  
                                                                       u6241 22A8  
                                                                       u6170 2674  
                                                                       u5290 270C  
                                                                       u5450 1888  
                                                                       u2970 2158  
                                                                       u4810 3120  
                                                                       u5370 1EEC  
                                                                       u5610 0204  
                                                                       u6090 2830  
                                                                       u5530 237E  
                                                                       u6171 266E  
                                                                       u5291 2706  
                                                                       u5515 1B94  
                                                                       u5451 1882  
                                                                       u4811 311A  
                                                                       u5371 1EE6  
                                                                       u6091 282A  
                                                                       u5531 2378  
                                                                       u6180 269C  
                                                                       u5460 18C2  
                                                                       u2980 2172  
                                                                       u4820 3148  
                                                                       u4900 2A22  
                                                                       u5380 1F3E  
                                                                       u5700 03D0  
                                                                       u5620 022A  
                                                                       u5540 23C4  
                                                                       _RCIF 007CF5  
                                                                       u6181 2696  
                                                                       u5445 1850  
                                                                       u2981 216C  
                                                                       u4821 3142  
                                                                       u4901 2A1C  
                                                                       u5381 1F38  
                                                                       u5701 03CA  
                                                                       u5621 0222  
                                                                       u5541 23BE  
                                                                       u6190 26B0  
                                                                       u5470 18E2  
                                                                       u2990 2188  
                                                                       u4830 2E24  
                                                                       u4910 2A36  
                                                                       u5390 1F64  
                                                                       u5710 048A  
                                                                       u5630 022E  
                                                                       u5550 240A  
                                                                       u6191 26AA  
                                                                       u5471 18DC  
                                                                       u2991 2182  
                                                                       u4911 2A30  
                                                                       u5391 1F5E  
                                                                       u5711 0484  
                                                                       u5551 2404  
                                                                       u5480 1928  
                                                                       u4840 2E38  
                                                                       u4920 2AA4  
                                                                       u5800 0606  
                                                                       u5720 049E  
                                                                       u5640 0278  
                                                                       u5560 2450  
                                                                       u5481 1922  
                                                                       u5465 18B6  
                                                                       u4841 2E32  
                                                                       u4921 2A9E  
                                                                       u5801 05FE  
                                                                       u5721 0498  
                                                                       u5641 0272  
                                                                       u5561 244A  
                                                                       u5490 1A34  
                                                                       u4850 2E6E  
                                                                       u4930 2922  
                                                                       u5810 060A  
                                                                       u5730 04BA  
                                                                       u5650 02CA  
                                                                       u5570 2464  
                                                                       u5491 1A2E  
                                                                       u4931 291C  
                                                                       u5731 04B4  
                                                                       u5651 02C4  
                                                                       u5571 245E  
                                                                       u4860 2E80  
                                                                       u4940 2936  
                                                                       u5900 07A4  
                                                                       u5820 0630  
                                                                       u5740 04E2  
                                                                       u5660 02DE  
                                                                       u5580 01D6  
                                                                       u4861 2E7A  
                                                                       u4837 2E1A  
                                                                       u4941 2930  
                                                                       u5901 079E  
                                                                       u5821 0628  
                                                                       u6277 0514  
                                                                       u5741 04DC  
                                                                       u5661 02D8  
                                                                       u5581 01CE  
                                                                       u4870 2B22  
                                                                       u4950 29A4  
                                                                       u5910 07B8  
                                                                       u5830 0634  
                                                                       u5750 04F6  
                                                                       u5670 0324  
                                                                       u5590 01DA  
                                                                       u4871 2B1C  
                                                                       u4951 299E  
                                                                       u5911 07B2  
                                                                       u5751 04F0  
                                                                       u5671 031E  
                                                                       u4960 2D1C  
                                                                       u4880 2B36  
                                                                       u5920 07FE  
                                                                       u5840 065A  
                                                                       u5760 0576  
                                                                       u5680 0376  
                                                                       u4857 2E64  
                                                                       u4961 2D16  
                                                                       u4881 2B30  
                                                                       u5921 07F8  
                                                                       u5841 0652  
                                                                       u5761 0570  
                                                                       u5681 0370  
                                                                       u4970 2D30  
                                                                       u4890 2BA4  
                                                                       u5930 08B8  
                                                                       u5850 065E  
                                                                       u5770 058A  
                                                                       u5690 038A  
                                                                       u4971 2D2A  
                                                                       u4891 2B9E  
                                                                       u5931 08B2  
                                                                       u5771 0584  
                                                                       u5691 0384  
                                                                       u4980 2D8E  
                                                                       u5940 08CC  
                                                                       u5860 06A6  
                                                                       u5780 05CE  
                                                                       u4981 2D88  
                                                                       u5941 08C6  
                                                                       u5861 06A0  
                                                                       u5781 05C8  
                                                                       u4990 303C  
                                                                       u5950 090A  
                                                                       u5870 06F8  
                                                                       u5790 05E2  
                                                                       u4991 3036  
                                                                       u5951 0904  
                                                                       u5871 06F2  
                                                                       u5791 05DC  
                                                                       u5960 091E  
                                                                       u5880 070C  
                                                                       u5961 0918  
                                                                       u5881 0706  
                                                                       u5970 0962  
                                                                       u5890 0752  
                                                                       u5971 095C  
                                                                       u5891 074C  
                                                                       u5980 0976  
                                                                       u5981 0970  
                                                                       u5990 2EC8  
                                                                       u5991 2EC2  
                                                                       _Fosc 7D71  
                                                                       _Tosc 00C5  
                                                                       _atoi 1FF8  
                                                                       _main 331E  
                                                                       fsr1h 000FE2  
                                                                       fsr2h 000FDA  
                                                                       indf1 000FE7  
                                                                       indf2 000FDF  
                                                                       fsr1l 000FE1  
                                                                       fsr2l 000FD9  
                                                                       btemp 0075  
                                                                       _stop 0072  
                                                                       prodh 000FF4  
                                                                       prodl 000FF3  
                                                                       start 019A  
                                                                 _Angle_diff 005D  
                                                            ___fldiv@new_exp 0029  
                                                               ___param_bank 000000  
                                                               ?_init_Timers 0001  
                                                              ___fltol@sign1 005B  
                                                                      ?_atoi 0011  
                                                            __end_of___fladd 0F42  
                                                                      ?_main 0001  
                                                            __end_of___fldiv 1818  
                                                            __end_of___flneg 32A4  
                                                                      STR_10 7F20  
                                                                      STR_11 7EE6  
                                                                      STR_12 7F03  
                                                                      STR_13 7EC8  
                                                                      STR_14 7FC1  
                                                                      STR_15 7E0D  
                                                                      STR_16 7FE9  
                                                                      STR_17 7DC7  
                                                                      STR_18 7FAA  
                                                                      STR_19 7FFC  
                                                            __end_of___flmul 13E6  
                                                            __end_of___flsub 3198  
                                                            __end_of___fltol 26DA  
                                                            __end_of_Tweezer 3092  
                                                            __end_of_Twister 2DE6  
                                                                      i2l502 00B4  
                                                                      i2l355 3416  
                                                                      i2l507 018A  
                                                                      i2l495 0040  
                                                                      _RCREG 000FAE  
                                                                      _TMR0H 000FD7  
                                                                      _TMR1H 000FCF  
                                                                      _TMR0L 000FD6  
                                                                      _TMR1L 000FCE  
                                                                      _SPBRG 000FAF  
                                                                      _PORTA 000F80  
                                                                      _PORTB 000F81  
                                                                      _PORTC 000F82  
                                                                      _PORTD 000F83  
                                                                      _TRISA 000F92  
                                                                      _TRISB 000F93  
                                                                      _TRISD 000F95  
                                                                      _TXREG 000FAD  
                                                           Twister@direction 0010  
                                                                      _X_dir 0071  
                                                                      _Y_dir 0070  
                                                                      _State 00CF  
                                                                      _Steps 00B8  
                                                     __size_of_add_component 0202  
                                                            __end_of_isdigit 3262  
                                                            __end_of_memmove 2D06  
                                                                      atoi@n 001E  
                                                                      atoi@s 0011  
                                         __end_of_desired_BaudRate@main$F792 7D69  
                                                 _desired_BaudRate@main$F792 7D65  
                                                                      _toint 7D61  
                                                            __end_of_isspace 30F2  
                                                                      tablat 000FF5  
                                                              _start_up_menu 21B6  
                                                            _change_sequence 2E86  
                                                   __end_of_fetch_parameters 25A2  
                                                                      ttemp5 0076  
                                                                      ttemp6 0079  
                                                            Y_axis@direction 0010  
                                                                      ttemp7 007D  
                                                                      status 000FD8  
                                                                      wtemp8 0076  
                                                            __end_of_strncat 2FA4  
                                                            __end_of_strrchr 331E  
                                                               __end_of_Fosc 7D75  
                                                            __initialization 3198  
                                                               __end_of_atoi 21B6  
                                                               __end_of_main 334A  
                                                                 _Pick_Angle 0065  
                                                                     ??_atoi 0013  
                                                                     ??_main 005D  
                                                              __activetblptr 000002  
                                                              print_string@i 000E  
                                                             ?_start_up_menu 0001  
                                                                     i2l4221 0038  
                                                                     i2l4231 00B8  
                                                                     i2l4223 0054  
                                                                     i2l4241 00E8  
                                                                     i2l4233 00BC  
                                                                     i2l4225 0064  
                                                                     i2l4217 0014  
                                                                     i2l4163 340A  
                                                                     i2l4251 011E  
                                                                     i2l4243 00F2  
                                                                     i2l4227 0076  
                                                                     i2l4219 0026  
                                                                     i2l4235 00C0  
                                                                     i2l4165 340E  
                                                                     i2l4261 015A  
                                                                     i2l4253 0132  
                                                                     i2l4245 0106  
                                                                     i2l4237 00D4  
                                                                     i2l4229 0088  
                                                                     i2l4167 3412  
                                                                     i2l4263 015C  
                                                                     i2l4255 0144  
                                                                     i2l4247 0118  
                                                                     i2l4239 00E6  
                                                                     i2l4169 3414  
                                                                     i2l4257 014C  
                                                                     i2l4265 015E  
                                                                     i2l4249 011A  
                                                                     i2l4267 0172  
                                                                     i2l4259 0158  
                                                                     i2l4269 0184  
                                                           __end_of___xxtofl 1FF8  
                                                    remove_component@rm_comp 001E  
                                                                     _X_Pick 006D  
                                                                     _Y_Pick 0069  
                                                                     _X_diff 0061  
                                                                     _Y_diff 005F  
                                                                     _X_axis 2B0C  
                                                                     _Y_axis 2A0C  
                                                                     _Z_axis 290C  
                                                              _add_component 1BFE  
                                                          ?_remove_component 0001  
                                                                     _Step_X 00B6  
                                                                     _Step_Y 00B4  
                                                                     _Step_Z 00B2  
                                                                     ___flge 26DA  
                                                               ?_set_new_pos 0001  
                                                                  ??___fladd 0012  
                                                                     ___wmul 334A  
                                                                  ??___fldiv 0020  
                                                                  ??___flneg 000E  
                                                                  ??___flmul 0012  
                                                                  ??___flsub 0022  
                                                                  ??___fltol 00E0  
                                                                  ??_Tweezer 000A  
                                                           ??_pick_and_place 003D  
                                                         ??_remove_component 001C  
                                                                  ??_Twister 0010  
                                                                     clear_0 31BE  
                                                                     clear_1 31CA  
                                                                     isa$std 000001  
                                                           __end_of_ms_delay 314E  
                                                                     _roundf 1818  
                                                                     _strlen 31DE  
                                                                  ??_isdigit 000C  
                                                                  ??_memmove 0014  
                                                              _Place_Angle_D 00A4  
                                                                 _Step_Angle 00B0  
                                                               __mediumconst 7D60  
                                                                  ??_isspace 000C  
                                                                     tblptrh 000FF7  
                                                                     tblptrl 000FF6  
                                                                     tblptru 000FF8  
                                                    __end_of_change_sequence 2F1E  
                                                   fetch_parameters@Componnt 000A  
                                                                  ??_strncat 0014  
                                                                  ??_strrchr 001C  
                                                          _return_to_initial 2330  
                                                                 ___flge@ff1 0031  
                                                                 ___flge@ff2 0035  
                                                               ___xxtofl@arg 0014  
                                                               ___xxtofl@exp 0013  
                                                               ___xxtofl@val 000A  
                                                                 __accesstop 0080  
                                                    __end_of__initialization 31D0  
                                                         __size_of___memrchr 0082  
                                                         ?_return_to_initial 0001  
                                                                 ___flneg@f1 000A  
                                                              ___rparam_used 000001  
                                                                 ___fltol@f1 0057  
                                                         _pick_and_place$910 010D  
                                                         _pick_and_place$904 0105  
                                                         _pick_and_place$921 011D  
                                                         _pick_and_place$907 0109  
                                                         _pick_and_place$917 0115  
                                                         _pick_and_place$919 0119  
                                                             ?_add_component 0001  
                                                            _init_interrupts 33C6  
                                                        ??_return_to_initial 0011  
                                                             __pcstackCOMRAM 0001  
                                                        _new_TMR1H@main$F822 00CE  
                                                               __pidataBANK0 33E6  
                                                              __end_of_toint 7D65  
                                                       __size_of_init_Timers 002A  
                                                                ms_delay@val 000A  
                                                           _desired_BaudRate 7D69  
                                                  __end_of_return_to_initial 246A  
                                                            ??_start_up_menu 003F  
                                                                _Place_Angle 0063  
                                                                _New_char_RX 0074  
                                                                 __pbssBANK0 0080  
                                                      __end_of_Rx_char_USART 019A  
                                                  remove_component@indxToDel 001F  
                                                                 __pnvCOMRAM 0074  
                                                                 _angle_diff 00A2  
                                                                    ?_X_axis 0001  
                                                                    ?_Y_axis 0001  
                                                                    ?_Z_axis 0001  
                                                                    ?___flge 0031  
                                                        _new_TMR1L@main$F823 00CD  
                                                                    ?___wmul 000A  
                                                                    ?_roundf 003D  
                                                          __end_of___memrchr 3026  
                                                                    ?_strlen 000A  
                                                          set_new_pos@nTMR1H 0002  
                                                          set_new_pos@nTMR1L 0001  
                                                                    _INTCON2 000FF1  
                                                                    _INTCON3 000FF0  
                                                                  ?___xxtofl 000A  
                                                        pick_and_place@i_920 011B  
                                                        pick_and_place@i_913 010F  
                                                        pick_and_place@i_905 0107  
                                                        pick_and_place@i_922 011F  
                                                        pick_and_place@i_923 0121  
                                                        pick_and_place@i_915 0111  
                                                        pick_and_place@i_916 0113  
                                                        pick_and_place@i_908 010B  
                                                        pick_and_place@i_918 0117  
                                                           ?_change_sequence 0001  
                                                                    _RX_Char 00C0  
                                                    __end_of_init_interrupts 33E6  
                                                          ?_fetch_parameters 0001  
                                                            ??_add_component 0020  
                                                                  ?_ms_delay 000A  
                                                                    _X_Place 006B  
                                                                    _Y_Place 0067  
                                                         ??_fetch_parameters 000A  
                                                                    __Hparam 0000  
                                                                    __Lparam 0000  
                                                            pick_and_place@i 0103  
                                                            pick_and_place@j 0101  
                                                                 _init_PORTS 339E  
                                                                 _init_USART 32A4  
                                                            __size_of_X_axis 0100  
                                                            __size_of_Y_axis 0100  
                                                                    _Rot_dir 006F  
                                                            __size_of_Z_axis 0100  
                                                            __size_of___flge 0128  
                                                                    ___fladd 099A  
                                                                    ___fldiv 13E6  
                                                                    ___flneg 3262  
                                                                    ___flmul 0F42  
                                                                    ___flsub 314E  
                                                                    ___fltol 25A2  
                                                                    _Tweezer 3026  
                                                            __size_of___wmul 002A  
                                                                    _Twister 2D06  
                                                       __size_of_set_new_pos 0014  
                                                                    __pcinit 3198  
                                                                    __ramtop 0600  
                                                                    __ptext0 331E  
                                                                    __ptext1 21B6  
                                                                    __ptext2 2330  
                                                                    __ptext3 2802  
                                                                    __ptext4 32E4  
                                                                    __ptext5 2FA4  
                                                                    __ptext6 2C0C  
                                                                    __ptext7 019E  
                                                                    __ptext8 246A  
                                                                    __ptext9 1E00  
                                                                  _T0CONbits 000FD5  
                                                            __size_of_roundf 03E6  
                                                            __size_of_strlen 0042  
                                                                  _T1CONbits 000FCD  
                                                                    _isdigit 3220  
                                                                    _memmove 2C0C  
                                                                 ??___xxtofl 000E  
                                                                    _isspace 3092  
                                                 __size_of_return_to_initial 013A  
                                                                    atoi@neg 0017  
                                                              Tweezer@action 000A  
                                                                    _strncat 2F1E  
                                                                    _strrchr 32E4  
                                                       end_of_initialization 31D0  
                                                        remove_component@ptr 001C  
                                                              __Lmediumconst 7D60  
                                                                 ??_ms_delay 000C  
                                                                  _RCSTAbits 000FAB  
                                                                    postdec1 000FE5  
                                                                    postinc0 000FEE  
                                                                    postinc2 000FDE  
                                                                    roundf@e 0049  
                                                                    roundf@u 004F  
                                                                    roundf@x 003D  
                                                                    roundf@y 0053  
                                                                    strlen@a 000C  
                                                                    strlen@s 000A  
                                                         add_component@F3138 00C9  
                                                                ___fladd@grs 0019  
                                                              ___xxtofl@sign 0012  
                                                  __size_of_remove_component 010A  
                                                                  _TRISCbits 000F94  
                                                                ___fldiv@grs 002B  
                                                                ___fldiv@rem 0024  
                                                              ?_print_string 000A  
                                                                ___flmul@grs 0017  
                                                           ?_init_interrupts 0001  
                                                                  _TXSTAbits 000FAC  
                                                                ___memrchr@c 0010  
                                                                ___memrchr@m 000E  
                                                                ___memrchr@n 0012  
                                                                ___memrchr@s 0016  
                                                   __end_of_desired_BaudRate 7D6D  
                                                                ?_init_PORTS 0001  
                                                                ?_init_USART 0001  
                                                             __end_of_X_axis 2C0C  
                                                             __end_of_Y_axis 2B0C  
                                                             __end_of_Z_axis 2A0C  
                                                             __end_of___flge 2802  
                                                             __end_of___wmul 3374  
                                                             __end_of_roundf 1BFE  
                                                             __end_of_strlen 3220  
                                                        start_initialization 3198  
                                                             ??_print_string 000C  
                                                                  _X_Place_D 00A8  
                                                                  _Y_Place_D 00A6  
                                                            X_axis@direction 0010  
                                                               _Pick_Angle_D 00AA  
                                                             _Tosc@main$F791 00C1  
                                                                   ??_X_axis 0010  
                                                                   ??_Y_axis 0010  
                                                                   ??_Z_axis 0010  
                                                                   ??___flge 0039  
                                                                   ??___wmul 000E  
                                                                __pdataBANK0 00C1  
                                                             _lenth_of_array 00CB  
                                                              ??_init_Timers 000A  
                                                         return_to_initial@i 0012  
                                                                   ??_roundf 0041  
                                                                   ??_strlen 000C  
                                                                  ___fladd@a 000E  
                                                                  ___fladd@b 000A  
                                                                  ___fldiv@a 001C  
                                                                  ___fldiv@b 0018  
                                                                  ___flmul@a 000E  
                                                                  ___flmul@b 000A  
                                                                __pbssCOMRAM 005D  
                                                           change_sequence@i 0013  
                                                                  ___flsub@a 001E  
                                                                  ___flsub@b 001A  
                                                              __pcstackBANK0 00E0  
                                                              __pcstackBANK1 0100  
                                                    __size_of_pick_and_place 07FC  
                                                                  ___memrchr 2FA4  
                                                          __size_of___xxtofl 01F8  
                                                        __size_of_init_PORTS 0028  
                                                        __size_of_init_USART 0040  
                                                      __end_of_start_up_menu 2330  
                                                                  _atoi$1391 0019  
                                                                  _atoi$1392 001D  
                                                                  _atoi$1393 001B  
                                                            Z_axis@direction 0010  
                                                          __size_of_ms_delay 005C  
                                                                  __pintcode 0008  
                                                              __pmediumconst 7D60  
                                                                   ?___fladd 000A  
                                                                   ?___fldiv 0018  
                                                                   ?___flneg 000A  
                                                                   ?___flmul 000A  
                                                                   ?___flsub 001A  
                                                                   ?___fltol 0057  
                                                                   ?_Tweezer 0001  
                                                                   ?_Twister 0001  
                                                             Rx_char_USART@i 0008  
                                                  __size_of_fetch_parameters 0138  
                                                     __size_of_Rx_char_USART 0192  
                                                          print_string@strng 000A  
                                                                   ?_isdigit 000A  
                                                                   ?_memmove 000E  
                                                                   ?_isspace 000A  
                                                        __end_of_init_Timers 339E  
                                                           _remove_component 2802  
                                                             _Fosc@main$F790 7D6D  
                                                                 ?___memrchr 000E  
                                                                  _new_TMR1H 00D1  
                                                                  _new_TMR1L 00D0  
                                                                   ?_strncat 000E  
                                                                   ?_strrchr 0018  
                                                          _component_present 0073  
                                                                  _input_str 00D2  
                                                             ___wmul@product 000E  
                                                                   _LATCbits 000F8B  
                                                   __size_of_change_sequence 0098  
                                                                   _PIE1bits 000F9D  
                                                      __end_of_add_component 1E00  
                                                                   _PIR1bits 000F9E  
                                                                   i2u470_40 0064  
                                                                   i2u470_41 005E  
                                                                   i2u471_40 0086  
                                                                   i2u471_41 0080  
                                                                   i2u480_40 0182  
                                                                   i2u472_40 00B4  
                                                                   i2u480_41 017C  
                                                                   i2u472_41 00AE  
                                                                   i2u473_40 00D2  
                                                                   i2u473_41 00CC  
                                                                   i2u474_40 00E4  
                                                                   i2u474_41 00DE  
                                                                   i2u475_40 0104  
                                                                   i2u467_40 0024  
                                                                   i2u475_41 00FE  
                                                                   i2u467_41 001E  
                                                                   i2u476_40 0116  
                                                                   i2u468_40 0036  
                                                                   i2u476_41 0110  
                                                                   i2u468_41 0030  
                                                                   i2u477_40 0130  
                                                                   i2u469_40 0052  
                                                                   i2u477_41 012A  
                                                                   i2u469_41 004C  
                                                                   i2u478_40 0142  
                                                                   i2u478_41 013C  
                                                                   i2u479_40 0170  
                                                                   i2u479_41 016A  
                                                              ??_set_new_pos 0002  
                                                       __end_of_print_string 2E86  
                                                                  _testarray 0080  
                                                          ___wmul@multiplier 000A  
                                                     __end_of_Fosc@main$F790 7D71  
                                                               _isspace$1409 0010  
                                                                _INTCON3bits 000FF0  
                                                                  copy_data0 31AC  
                                                                   _X_Pick_D 00AE  
                                                              _Rx_char_USART 0008  
                                                                   _Y_Pick_D 00AC  
                                                                 roundf@F528 009E  
                                                                   __Hrparam 0000  
                                                               ??_init_PORTS 000A  
                                                               ??_init_USART 005D  
                                                                   __Lrparam 0000  
                                                                  memmove@d1 000E  
                                                                  memmove@s1 0010  
                                                           __size_of___fladd 05A8  
                                                           __size_of___fldiv 0432  
                                                           __size_of___flneg 0042  
                                                           __size_of___flmul 04A4  
                                                           __size_of___flsub 004A  
                                                           __size_of___fltol 0138  
                                                           __size_of_Tweezer 006C  
                                                           __size_of_Twister 00E0  
                                                                _init_Timers 3374  
                                                        __end_of_set_new_pos 341A  
                                                                  ms_delay@i 000C  
                                                                  ms_delay@j 000E  
                                                                   ___xxtofl 1E00  
                                                             _pick_and_place 019E  
                                                           __size_of_isdigit 0042  
                                                           __size_of_memmove 00FA  
                                                                ??___memrchr 0014  
                                                           __size_of_isspace 0060  
                                                                   __ptext10 13E6  
                                                                   __ptext11 290C  
                                                                   __ptext20 31DE  
                                                                   __ptext12 2A0C  
                                                                   __ptext21 2DE6  
                                                                   __ptext13 2B0C  
                                                                   __ptext30 099A  
                                                                   __ptext22 1FF8  
                                                                   __ptext14 2D06  
                                                                   __ptext31 3262  
                                                                   __ptext23 3092  
                                                                   __ptext15 30F2  
                                                                   __ptext32 0F42  
                                                                   __ptext24 3220  
                                                                   __ptext16 3026  
                                                                   __ptext33 26DA  
                                                                   __ptext25 334A  
                                                                   __ptext17 2E86  
                                                                   __ptext34 25A2  
                                                                   __ptext26 33C6  
                                                                   __ptext18 1BFE  
                                                                   __ptext35 3374  
                                                                   __ptext27 32A4  
                                                                   __ptext19 2F1E  
                                                                   __ptext36 339E  
                                                                   __ptext28 1818  
                                                                   __ptext29 314E  
                                                                   __ptext38 3406  
                                                         __end_of_init_PORTS 33C6  
                                                         __end_of_init_USART 32E4  
                                                           __size_of_strncat 0086  
                                                           __size_of_strrchr 003A  
                                                             ?_Rx_char_USART 0001  
                                                              __size_of_atoi 01BE  
                                                              __size_of_main 002C  
                                                                   _ms_delay 30F2  
                                                                   isa$xinst 000000  
                                                                   _sequence 00DC  
                                                   __size_of_init_interrupts 0020  
                                                          ??_change_sequence 0010  
                                                                   int$flags 0075  
                                                                   _rotation 00BA  
                                                           _fetch_parameters 246A  
                                                     __end_of_pick_and_place 099A  
                                                                 _INTCONbits 000FF2  
                                                     return_to_initial@i_926 0014  
                                                     return_to_initial@i_927 0016  
                                                     return_to_initial@i_928 0018  
                                                                   isdigit@c 000A  
                                                                   memmove@d 0016  
                                                                   memmove@n 0012  
                                                                   memmove@s 0018  
                                                                   intlevel2 341A  
                                                                   isspace@c 000A  
                                                             _displacement_X 00BE  
                                                             _displacement_Y 00BC  
                                                      __size_of_print_string 00A0  
                                                   __end_of_remove_component 290C  
                                                                _set_new_pos 3406  
                                                     pick_and_place@Componnt 0100  
                                                            ?_pick_and_place 0001  
                                                                   strncat@d 000E  
                                                                   strncat@n 0012  
                                                                   strncat@s 0010  
                                                                   strrchr@c 001A  
                                                                   strrchr@s 0018  
                                                              ___fladd@signs 0016  
                                                            ??_Rx_char_USART 0003  
                                                               _print_string 2DE6  
                                                               ___fladd@aexp 0017  
                                                               ___fladd@bexp 0018  
                                                  add_component@add_componnt 0020  
                                                             start_up_menu@i 0042  
                                                                _roundf$1665 004B  
                                                                _roundf$1666 0045  
